
kzload.elf:     file format elf32-h8300


Disassembly of section .vectors:

00000000 <_vectors>:
   0:	00 00       	nop	
   2:	01 00       	.word	H'1,H'0
	...
  20:	00 00       	nop	
  22:	01 60       	.word	H'1,H'60
  24:	00 00       	nop	
  26:	01 0c       	.word	H'1,H'c
  28:	00 00       	nop	
  2a:	01 0c       	.word	H'1,H'c
  2c:	00 00       	nop	
  2e:	01 0c       	.word	H'1,H'c
	...
  44:	00 00       	nop	
  46:	02 5c       	.word	H'2,H'5c
	...
  90:	00 00       	nop	
  92:	02 08       	stc	ccr,r0l
  94:	00 00       	nop	
  96:	02 08       	stc	ccr,r0l
  98:	00 00       	nop	
  9a:	02 08       	stc	ccr,r0l
  9c:	00 00       	nop	
  9e:	02 08       	stc	ccr,r0l
  a0:	00 00       	nop	
  a2:	02 08       	stc	ccr,r0l
  a4:	00 00       	nop	
  a6:	02 08       	stc	ccr,r0l
  a8:	00 00       	nop	
  aa:	02 08       	stc	ccr,r0l
  ac:	00 00       	nop	
  ae:	02 08       	stc	ccr,r0l
	...
  d0:	00 00       	nop	
  d2:	01 b4       	.word	H'1,H'b4
  d4:	00 00       	nop	
  d6:	01 b4       	.word	H'1,H'b4
  d8:	00 00       	nop	
  da:	01 b4       	.word	H'1,H'b4
  dc:	00 00       	nop	
  de:	01 b4       	.word	H'1,H'b4
  e0:	00 00       	nop	
  e2:	01 b4       	.word	H'1,H'b4
  e4:	00 00       	nop	
  e6:	01 b4       	.word	H'1,H'b4
  e8:	00 00       	nop	
  ea:	01 b4       	.word	H'1,H'b4
  ec:	00 00       	nop	
  ee:	01 b4       	.word	H'1,H'b4
  f0:	00 00       	nop	
  f2:	01 b4       	.word	H'1,H'b4
  f4:	00 00       	nop	
  f6:	01 b4       	.word	H'1,H'b4
  f8:	00 00       	nop	
  fa:	01 b4       	.word	H'1,H'b4
  fc:	00 00       	nop	
  fe:	01 b4       	.word	H'1,H'b4

Disassembly of section .text:

00000100 <_start>:
.Letext0():
 100:	7a 07 00 ff 	mov.l	#0xffff00,er7
 104:	ff 00 
 106:	5e 00 0c f6 	jsr	@0xcf6:24

0000010a <.L11>:
.L11():
 10a:	40 fe       	bra	.-2 (0x10a)

0000010c <_intr_softerr>:
_intr_softerr():
 10c:	01 00 6d f6 	mov.l	er6,@-er7
 110:	01 00 6d f5 	mov.l	er5,@-er7
 114:	01 00 6d f4 	mov.l	er4,@-er7
 118:	01 00 6d f3 	mov.l	er3,@-er7
 11c:	01 00 6d f2 	mov.l	er2,@-er7
 120:	01 00 6d f1 	mov.l	er1,@-er7
 124:	01 00 6d f0 	mov.l	er0,@-er7
 128:	0f f1       	mov.l	er7,er1
 12a:	7a 07 00 ff 	mov.l	#0xffff00,er7
 12e:	ff 00 
 130:	01 00 6d f1 	mov.l	er1,@-er7
 134:	79 00 00 00 	mov.w	#0x0,r0
 138:	5e 00 03 56 	jsr	@0x356:24
 13c:	01 00 6d 71 	mov.l	@er7+,er1
 140:	0f 97       	mov.l	er1,er7
 142:	01 00 6d 70 	mov.l	@er7+,er0
 146:	01 00 6d 71 	mov.l	@er7+,er1
 14a:	01 00 6d 72 	mov.l	@er7+,er2
 14e:	01 00 6d 73 	mov.l	@er7+,er3
 152:	01 00 6d 74 	mov.l	@er7+,er4
 156:	01 00 6d 75 	mov.l	@er7+,er5
 15a:	01 00 6d 76 	mov.l	@er7+,er6
 15e:	56 70       	rte	

00000160 <_intr_syscall>:
_intr_syscall():
 160:	01 00 6d f6 	mov.l	er6,@-er7
 164:	01 00 6d f5 	mov.l	er5,@-er7
 168:	01 00 6d f4 	mov.l	er4,@-er7
 16c:	01 00 6d f3 	mov.l	er3,@-er7
 170:	01 00 6d f2 	mov.l	er2,@-er7
 174:	01 00 6d f1 	mov.l	er1,@-er7
 178:	01 00 6d f0 	mov.l	er0,@-er7
 17c:	0f f1       	mov.l	er7,er1
 17e:	7a 07 00 ff 	mov.l	#0xffff00,er7
 182:	ff 00 
 184:	01 00 6d f1 	mov.l	er1,@-er7
 188:	79 00 00 01 	mov.w	#0x1,r0
 18c:	5e 00 03 56 	jsr	@0x356:24
 190:	01 00 6d 71 	mov.l	@er7+,er1
 194:	0f 97       	mov.l	er1,er7
 196:	01 00 6d 70 	mov.l	@er7+,er0
 19a:	01 00 6d 71 	mov.l	@er7+,er1
 19e:	01 00 6d 72 	mov.l	@er7+,er2
 1a2:	01 00 6d 73 	mov.l	@er7+,er3
 1a6:	01 00 6d 74 	mov.l	@er7+,er4
 1aa:	01 00 6d 75 	mov.l	@er7+,er5
 1ae:	01 00 6d 76 	mov.l	@er7+,er6
 1b2:	56 70       	rte	

000001b4 <_intr_serintr>:
_intr_serintr():
 1b4:	01 00 6d f6 	mov.l	er6,@-er7
 1b8:	01 00 6d f5 	mov.l	er5,@-er7
 1bc:	01 00 6d f4 	mov.l	er4,@-er7
 1c0:	01 00 6d f3 	mov.l	er3,@-er7
 1c4:	01 00 6d f2 	mov.l	er2,@-er7
 1c8:	01 00 6d f1 	mov.l	er1,@-er7
 1cc:	01 00 6d f0 	mov.l	er0,@-er7
 1d0:	0f f1       	mov.l	er7,er1
 1d2:	7a 07 00 ff 	mov.l	#0xffff00,er7
 1d6:	ff 00 
 1d8:	01 00 6d f1 	mov.l	er1,@-er7
 1dc:	79 00 00 02 	mov.w	#0x2,r0
 1e0:	5e 00 03 56 	jsr	@0x356:24
 1e4:	01 00 6d 71 	mov.l	@er7+,er1
 1e8:	0f 97       	mov.l	er1,er7
 1ea:	01 00 6d 70 	mov.l	@er7+,er0
 1ee:	01 00 6d 71 	mov.l	@er7+,er1
 1f2:	01 00 6d 72 	mov.l	@er7+,er2
 1f6:	01 00 6d 73 	mov.l	@er7+,er3
 1fa:	01 00 6d 74 	mov.l	@er7+,er4
 1fe:	01 00 6d 75 	mov.l	@er7+,er5
 202:	01 00 6d 76 	mov.l	@er7+,er6
 206:	56 70       	rte	

00000208 <_intr_timintr>:
_intr_timintr():
 208:	01 00 6d f6 	mov.l	er6,@-er7
 20c:	01 00 6d f5 	mov.l	er5,@-er7
 210:	01 00 6d f4 	mov.l	er4,@-er7
 214:	01 00 6d f3 	mov.l	er3,@-er7
 218:	01 00 6d f2 	mov.l	er2,@-er7
 21c:	01 00 6d f1 	mov.l	er1,@-er7
 220:	01 00 6d f0 	mov.l	er0,@-er7
 224:	0f f1       	mov.l	er7,er1
 226:	7a 07 00 ff 	mov.l	#0xffff00,er7
 22a:	ff 00 
 22c:	01 00 6d f1 	mov.l	er1,@-er7
 230:	79 00 00 03 	mov.w	#0x3,r0
 234:	5e 00 03 56 	jsr	@0x356:24
 238:	01 00 6d 71 	mov.l	@er7+,er1
 23c:	0f 97       	mov.l	er1,er7
 23e:	01 00 6d 70 	mov.l	@er7+,er0
 242:	01 00 6d 71 	mov.l	@er7+,er1
 246:	01 00 6d 72 	mov.l	@er7+,er2
 24a:	01 00 6d 73 	mov.l	@er7+,er3
 24e:	01 00 6d 74 	mov.l	@er7+,er4
 252:	01 00 6d 75 	mov.l	@er7+,er5
 256:	01 00 6d 76 	mov.l	@er7+,er6
 25a:	56 70       	rte	

0000025c <_intr_ethintr>:
_intr_ethintr():
 25c:	01 00 6d f6 	mov.l	er6,@-er7
 260:	01 00 6d f5 	mov.l	er5,@-er7
 264:	01 00 6d f4 	mov.l	er4,@-er7
 268:	01 00 6d f3 	mov.l	er3,@-er7
 26c:	01 00 6d f2 	mov.l	er2,@-er7
 270:	01 00 6d f1 	mov.l	er1,@-er7
 274:	01 00 6d f0 	mov.l	er0,@-er7
 278:	0f f1       	mov.l	er7,er1
 27a:	7a 07 00 ff 	mov.l	#0xffff00,er7
 27e:	ff 00 
 280:	01 00 6d f1 	mov.l	er1,@-er7
 284:	79 00 00 04 	mov.w	#0x4,r0
 288:	5e 00 03 56 	jsr	@0x356:24
 28c:	01 00 6d 71 	mov.l	@er7+,er1
 290:	0f 97       	mov.l	er1,er7
 292:	01 00 6d 70 	mov.l	@er7+,er0
 296:	01 00 6d 71 	mov.l	@er7+,er1
 29a:	01 00 6d 72 	mov.l	@er7+,er2
 29e:	01 00 6d 73 	mov.l	@er7+,er3
 2a2:	01 00 6d 74 	mov.l	@er7+,er4
 2a6:	01 00 6d 75 	mov.l	@er7+,er5
 2aa:	01 00 6d 76 	mov.l	@er7+,er6
 2ae:	56 70       	rte	

000002b0 <_softvec_init>:
softvec_init():
/home/interrupt.c:7
#include "intr.h"
#include "interrupt.h"

/* ソフトウエア・割込みベクタの初期化 */
int softvec_init(void)
{
 2b0:	01 00 6d f6 	mov.l	er6,@-er7
 2b4:	0f f6       	mov.l	er7,er6

000002b6 <.LBB4>:
softvec_setintr():
/home/interrupt.c:17
}

/* ソフトウエア・割込みベクタの設定 */
int softvec_setintr(softvec_type_t type, softvec_handler_t handler)
{
  SOFTVECS[type] = handler;
 2b6:	18 aa       	sub.b	r2l,r2l
 2b8:	6a aa 00 ff 	mov.b	r2l,@0xffbf20:32
 2bc:	bf 20 
 2be:	6a aa 00 ff 	mov.b	r2l,@0xffbf21:32
 2c2:	bf 21 
 2c4:	6a aa 00 ff 	mov.b	r2l,@0xffbf22:32
 2c8:	bf 22 
 2ca:	6a aa 00 ff 	mov.b	r2l,@0xffbf23:32
 2ce:	bf 23 
 2d0:	6a aa 00 ff 	mov.b	r2l,@0xffbf24:32
 2d4:	bf 24 
 2d6:	6a aa 00 ff 	mov.b	r2l,@0xffbf25:32
 2da:	bf 25 
 2dc:	6a aa 00 ff 	mov.b	r2l,@0xffbf26:32
 2e0:	bf 26 
 2e2:	6a aa 00 ff 	mov.b	r2l,@0xffbf27:32
 2e6:	bf 27 
 2e8:	6a aa 00 ff 	mov.b	r2l,@0xffbf28:32
 2ec:	bf 28 
 2ee:	6a aa 00 ff 	mov.b	r2l,@0xffbf29:32
 2f2:	bf 29 
 2f4:	6a aa 00 ff 	mov.b	r2l,@0xffbf2a:32
 2f8:	bf 2a 
 2fa:	6a aa 00 ff 	mov.b	r2l,@0xffbf2b:32
 2fe:	bf 2b 
 300:	6a aa 00 ff 	mov.b	r2l,@0xffbf2c:32
 304:	bf 2c 
 306:	6a aa 00 ff 	mov.b	r2l,@0xffbf2d:32
 30a:	bf 2d 
 30c:	6a aa 00 ff 	mov.b	r2l,@0xffbf2e:32
 310:	bf 2e 
 312:	6a aa 00 ff 	mov.b	r2l,@0xffbf2f:32
 316:	bf 2f 
 318:	6a aa 00 ff 	mov.b	r2l,@0xffbf30:32
 31c:	bf 30 
 31e:	6a aa 00 ff 	mov.b	r2l,@0xffbf31:32
 322:	bf 31 
 324:	6a aa 00 ff 	mov.b	r2l,@0xffbf32:32
 328:	bf 32 
 32a:	6a aa 00 ff 	mov.b	r2l,@0xffbf33:32
 32e:	bf 33 

00000330 <.LM3>:
softvec_init():
/home/interrupt.c:12
}
 330:	19 00       	sub.w	r0,r0
 332:	01 00 6d 76 	mov.l	@er7+,er6
 336:	54 70       	rts	

00000338 <_softvec_setintr>:
softvec_setintr():
/home/interrupt.c:16
{
 338:	01 00 6d f6 	mov.l	er6,@-er7
 33c:	0f f6       	mov.l	er7,er6

0000033e <.LM5>:
/home/interrupt.c:17
  SOFTVECS[type] = handler;
 33e:	17 f0       	exts.l	er0
 340:	10 30       	shll.l	er0
 342:	10 30       	shll.l	er0
 344:	01 00 78 80 	mov.l	er1,@(0xffbf20:32,er0)
 348:	6b a1 00 ff 
 34c:	bf 20 

0000034e <.LM6>:
/home/interrupt.c:19
  return 0;
}
 34e:	19 00       	sub.w	r0,r0
 350:	01 00 6d 76 	mov.l	@er7+,er6
 354:	54 70       	rts	

00000356 <_interrupt>:
interrupt():
/home/interrupt.c:26
/*
 * 共通割込みハンドラ．
 * ソフトウエア・割込みベクタを見て，各ハンドラに分岐する．
 */
void interrupt(softvec_type_t type, unsigned long sp)
{
 356:	01 00 6d f6 	mov.l	er6,@-er7
 35a:	0f f6       	mov.l	er7,er6

0000035c <.LM8>:
/home/interrupt.c:27
  softvec_handler_t handler = SOFTVECS[type];
 35c:	0d 02       	mov.w	r0,r2
 35e:	17 f2       	exts.l	er2
 360:	10 32       	shll.l	er2
 362:	10 32       	shll.l	er2
 364:	01 00 78 20 	mov.l	@(0xffbf20:32,er2),er2
 368:	6b 22 00 ff 
 36c:	bf 20 

0000036e <.LM9>:
/home/interrupt.c:28
  if (handler)
 36e:	47 02       	beq	.+2 (0x372)

00000370 <.LM10>:
/home/interrupt.c:29
    handler(type, sp);
 370:	5d 20       	jsr	@er2

00000372 <.L3>:
/home/interrupt.c:30
}
 372:	01 00 6d 76 	mov.l	@er7+,er6
 376:	54 70       	rts	

00000378 <_memset>:
memset():
/home/lib.c:6
#include "defines.h"
#include "serial.h"
#include "lib.h"

void *memset(void *b, int c, long len)
{
 378:	01 00 6d f6 	mov.l	er6,@-er7
 37c:	0f f6       	mov.l	er7,er6
 37e:	01 00 6d f4 	mov.l	er4,@-er7

00000382 <.LM2>:
/home/lib.c:8
  char *p;
  for (p = b; len > 0; len--)
 382:	0f 83       	mov.l	er0,er3
 384:	0a 82       	add.l	er0,er2
 386:	40 04       	bra	.+4 (0x38c)

00000388 <.L3>:
/home/lib.c:9 (discriminator 3)
    *(p++) = c;
 388:	68 b9       	mov.b	r1l,@er3
 38a:	0b 03       	adds	#1,er3

0000038c <.L2>:
 38c:	0f a4       	mov.l	er2,er4
 38e:	1a b4       	sub.l	er3,er4

00000390 <.LM4>:
/home/lib.c:8 (discriminator 1)
  for (p = b; len > 0; len--)
 390:	0f c4       	mov.l	er4,er4
 392:	4e f4       	bgt	.-12 (0x388)

00000394 <.LM5>:
/home/lib.c:11
  return b;
}
 394:	01 00 6d 74 	mov.l	@er7+,er4
 398:	01 00 6d 76 	mov.l	@er7+,er6
 39c:	54 70       	rts	

0000039e <_memcpy>:
memcpy():
/home/lib.c:14

void *memcpy(void *dst, const void *src, long len)
{
 39e:	01 00 6d f6 	mov.l	er6,@-er7
 3a2:	0f f6       	mov.l	er7,er6
 3a4:	01 00 6d f4 	mov.l	er4,@-er7
 3a8:	01 00 6d f5 	mov.l	er5,@-er7

000003ac <.LM7>:
/home/lib.c:17
  char *d = dst;
  const char *s = src;
  for (; len > 0; len--)
 3ac:	1a b3       	sub.l	er3,er3
 3ae:	40 0e       	bra	.+14 (0x3be)

000003b0 <.L6>:
/home/lib.c:18 (discriminator 2)
    *(d++) = *(s++);
 3b0:	0f 94       	mov.l	er1,er4
 3b2:	0a b4       	add.l	er3,er4
 3b4:	68 4d       	mov.b	@er4,r5l
 3b6:	0f 84       	mov.l	er0,er4
 3b8:	0a b4       	add.l	er3,er4
 3ba:	68 cd       	mov.b	r5l,@er4
 3bc:	0b 03       	adds	#1,er3

000003be <.L5>:
 3be:	0f a4       	mov.l	er2,er4
 3c0:	1a b4       	sub.l	er3,er4

000003c2 <.LM9>:
/home/lib.c:17 (discriminator 1)
  for (; len > 0; len--)
 3c2:	0f c4       	mov.l	er4,er4
 3c4:	4e ea       	bgt	.-22 (0x3b0)

000003c6 <.LM10>:
/home/lib.c:20
  return dst;
}
 3c6:	01 00 6d 75 	mov.l	@er7+,er5
 3ca:	01 00 6d 74 	mov.l	@er7+,er4
 3ce:	01 00 6d 76 	mov.l	@er7+,er6
 3d2:	54 70       	rts	

000003d4 <_memcmp>:
memcmp():
/home/lib.c:23

int memcmp(const void *b1, const void *b2, long len)
{
 3d4:	01 00 6d f6 	mov.l	er6,@-er7
 3d8:	0f f6       	mov.l	er7,er6
 3da:	01 00 6d f4 	mov.l	er4,@-er7
 3de:	0a 82       	add.l	er0,er2

000003e0 <.LM12>:
/home/lib.c:25
  const char *p1 = b1, *p2 = b2;
  for (; len > 0; len--) {
 3e0:	40 14       	bra	.+20 (0x3f6)

000003e2 <.L11>:
/home/lib.c:26
    if (*p1 != *p2)
 3e2:	68 0c       	mov.b	@er0,r4l
 3e4:	68 1b       	mov.b	@er1,r3l
 3e6:	1c bc       	cmp.b	r3l,r4l
 3e8:	47 08       	beq	.+8 (0x3f2)

000003ea <.LM14>:
/home/lib.c:27
      return (*p1 > *p2) ? 1 : -1;
 3ea:	42 16       	bhi	.+22 (0x402)
 3ec:	79 00 ff ff 	mov.w	#0xffff,r0
 3f0:	40 14       	bra	.+20 (0x406)

000003f2 <.L9>:
/home/lib.c:28
    p1++;
 3f2:	0b 00       	adds	#1,er0

000003f4 <.LM16>:
/home/lib.c:29
    p2++;
 3f4:	0b 01       	adds	#1,er1

000003f6 <.L8>:
 3f6:	0f a3       	mov.l	er2,er3
 3f8:	1a 83       	sub.l	er0,er3

000003fa <.LM17>:
/home/lib.c:25 (discriminator 1)
  for (; len > 0; len--) {
 3fa:	0f b3       	mov.l	er3,er3
 3fc:	4e e4       	bgt	.-28 (0x3e2)

000003fe <.LM18>:
/home/lib.c:31
  }
  return 0;
 3fe:	19 00       	sub.w	r0,r0
 400:	40 04       	bra	.+4 (0x406)

00000402 <.L12>:
/home/lib.c:27
      return (*p1 > *p2) ? 1 : -1;
 402:	79 00 00 01 	mov.w	#0x1,r0

00000406 <.L7>:
/home/lib.c:32
}
 406:	01 00 6d 74 	mov.l	@er7+,er4
 40a:	01 00 6d 76 	mov.l	@er7+,er6
 40e:	54 70       	rts	

00000410 <_strlen>:
strlen():
/home/lib.c:35

int strlen(const char *s)
{
 410:	01 00 6d f6 	mov.l	er6,@-er7
 414:	0f f6       	mov.l	er7,er6

00000416 <.LM22>:
/home/lib.c:37
  int len;
  for (len = 0; *s; s++, len++)
 416:	19 22       	sub.w	r2,r2
 418:	40 04       	bra	.+4 (0x41e)

0000041a <.L15>:
/home/lib.c:37 (discriminator 3)
 41a:	0b 00       	adds	#1,er0
 41c:	0b 02       	adds	#1,er2

0000041e <.L14>:
/home/lib.c:37 (discriminator 1)
 41e:	68 0b       	mov.b	@er0,r3l
 420:	46 f8       	bne	.-8 (0x41a)

00000422 <.LM25>:
/home/lib.c:40
    ;
  return len;
}
 422:	0d 20       	mov.w	r2,r0
 424:	01 00 6d 76 	mov.l	@er7+,er6
 428:	54 70       	rts	

0000042a <_strcpy>:
strcpy():
/home/lib.c:43

char *strcpy(char *dst, const char *src)
{
 42a:	01 00 6d f6 	mov.l	er6,@-er7
 42e:	0f f6       	mov.l	er7,er6

00000430 <.LM27>:
 430:	0f 82       	mov.l	er0,er2

00000432 <.L18>:
/home/lib.c:46
  char *d = dst;
  for (;; dst++, src++) {
    *dst = *src;
 432:	68 1b       	mov.b	@er1,r3l
 434:	68 ab       	mov.b	r3l,@er2

00000436 <.LM29>:
/home/lib.c:47
    if (!*src) break;
 436:	68 1b       	mov.b	@er1,r3l
 438:	47 06       	beq	.+6 (0x440)

0000043a <.LM30>:
/home/lib.c:45
  for (;; dst++, src++) {
 43a:	0b 02       	adds	#1,er2
 43c:	0b 01       	adds	#1,er1

0000043e <.LM31>:
/home/lib.c:46
    *dst = *src;
 43e:	40 f2       	bra	.-14 (0x432)

00000440 <.L17>:
/home/lib.c:50
  }
  return d;
}
 440:	01 00 6d 76 	mov.l	@er7+,er6
 444:	54 70       	rts	

00000446 <_strcmp>:
strcmp():
/home/lib.c:53

int strcmp(const char *s1, const char *s2)
{
 446:	01 00 6d f6 	mov.l	er6,@-er7
 44a:	0f f6       	mov.l	er7,er6

0000044c <.LM34>:
/home/lib.c:54
  while (*s1 || *s2) {
 44c:	40 10       	bra	.+16 (0x45e)

0000044e <.L23>:
/home/lib.c:55
    if (*s1 != *s2)
 44e:	1c ba       	cmp.b	r3l,r2l
 450:	47 08       	beq	.+8 (0x45a)

00000452 <.LM36>:
/home/lib.c:56
      return (*s1 > *s2) ? 1 : -1;
 452:	44 20       	bcc	.+32 (0x474)
 454:	79 00 00 01 	mov.w	#0x1,r0
 458:	40 1e       	bra	.+30 (0x478)

0000045a <.L21>:
/home/lib.c:57
    s1++;
 45a:	0b 00       	adds	#1,er0

0000045c <.LM38>:
/home/lib.c:58
    s2++;
 45c:	0b 01       	adds	#1,er1

0000045e <.L20>:
/home/lib.c:54
  while (*s1 || *s2) {
 45e:	68 0b       	mov.b	@er0,r3l
 460:	68 1a       	mov.b	@er1,r2l
 462:	0c bb       	mov.b	r3l,r3l
 464:	46 e8       	bne	.-24 (0x44e)

00000466 <.LM40>:
/home/lib.c:54 (discriminator 1)
 466:	79 00 00 01 	mov.w	#0x1,r0
 46a:	0c aa       	mov.b	r2l,r2l
 46c:	46 02       	bne	.+2 (0x470)
 46e:	19 00       	sub.w	r0,r0

00000470 <.L24>:
 470:	17 90       	neg.w	r0
 472:	40 04       	bra	.+4 (0x478)

00000474 <.L25>:
/home/lib.c:56
      return (*s1 > *s2) ? 1 : -1;
 474:	79 00 ff ff 	mov.w	#0xffff,r0

00000478 <.L19>:
/home/lib.c:61
  }
  return 0;
}
 478:	01 00 6d 76 	mov.l	@er7+,er6
 47c:	54 70       	rts	

0000047e <_strncmp>:
strncmp():
/home/lib.c:64

int strncmp(const char *s1, const char *s2, int len)
{
 47e:	01 00 6d f6 	mov.l	er6,@-er7
 482:	0f f6       	mov.l	er7,er6
 484:	01 00 6d f4 	mov.l	er4,@-er7

00000488 <.LM44>:
/home/lib.c:65
  while ((*s1 || *s2) && (len > 0)) {
 488:	40 14       	bra	.+20 (0x49e)

0000048a <.L32>:
/home/lib.c:66
    if (*s1 != *s2)
 48a:	68 1c       	mov.b	@er1,r4l
 48c:	1c bc       	cmp.b	r3l,r4l
 48e:	47 08       	beq	.+8 (0x498)

00000490 <.LM46>:
/home/lib.c:67
      return (*s1 > *s2) ? 1 : -1;
 490:	45 1e       	bcs	.+30 (0x4b0)
 492:	79 00 ff ff 	mov.w	#0xffff,r0
 496:	40 2a       	bra	.+42 (0x4c2)

00000498 <.L28>:
/home/lib.c:68
    s1++;
 498:	0b 00       	adds	#1,er0

0000049a <.LM48>:
/home/lib.c:69
    s2++;
 49a:	0b 01       	adds	#1,er1

0000049c <.LM49>:
/home/lib.c:70
    len--;
 49c:	1b 02       	subs	#1,er2

0000049e <.L27>:
/home/lib.c:65
  while ((*s1 || *s2) && (len > 0)) {
 49e:	68 0b       	mov.b	@er0,r3l
 4a0:	46 06       	bne	.+6 (0x4a8)

000004a2 <.LM51>:
/home/lib.c:65 (discriminator 2)
 4a2:	68 1b       	mov.b	@er1,r3l
 4a4:	46 10       	bne	.+16 (0x4b6)
 4a6:	40 04       	bra	.+4 (0x4ac)

000004a8 <.L30>:
/home/lib.c:65 (discriminator 3)
 4a8:	0d 22       	mov.w	r2,r2
 4aa:	4e de       	bgt	.-34 (0x48a)

000004ac <.L35>:
/home/lib.c:72
  }
  return 0;
 4ac:	19 00       	sub.w	r0,r0
 4ae:	40 12       	bra	.+18 (0x4c2)

000004b0 <.L34>:
/home/lib.c:67
      return (*s1 > *s2) ? 1 : -1;
 4b0:	79 00 00 01 	mov.w	#0x1,r0
 4b4:	40 0c       	bra	.+12 (0x4c2)

000004b6 <.L31>:
/home/lib.c:65
  while ((*s1 || *s2) && (len > 0)) {
 4b6:	79 00 00 01 	mov.w	#0x1,r0
 4ba:	0d 22       	mov.w	r2,r2
 4bc:	4e 02       	bgt	.+2 (0x4c0)
 4be:	19 00       	sub.w	r0,r0

000004c0 <.L33>:
 4c0:	17 90       	neg.w	r0

000004c2 <.L26>:
/home/lib.c:73
}
 4c2:	01 00 6d 74 	mov.l	@er7+,er4
 4c6:	01 00 6d 76 	mov.l	@er7+,er6
 4ca:	54 70       	rts	

000004cc <_putc>:
putc():
/home/lib.c:77

/* １文字送信 */
int putc(unsigned char c)
{
 4cc:	01 00 6d f6 	mov.l	er6,@-er7
 4d0:	0f f6       	mov.l	er7,er6
 4d2:	01 00 6d f4 	mov.l	er4,@-er7
 4d6:	0c 8c       	mov.b	r0l,r4l

000004d8 <.LM58>:
/home/lib.c:78
  if (c == '\n')
 4d8:	a8 0a       	cmp.b	#0xa,r0l
 4da:	46 0a       	bne	.+10 (0x4e6)

000004dc <.LM59>:
/home/lib.c:79
    serial_send_byte(SERIAL_DEFAULT_DEVICE, '\r');
 4dc:	f9 0d       	mov.b	#0xd,r1l
 4de:	79 00 00 01 	mov.w	#0x1,r0
 4e2:	5e 00 06 58 	jsr	@0x658:24

000004e6 <.L37>:
/home/lib.c:80
  return serial_send_byte(SERIAL_DEFAULT_DEVICE, c);
 4e6:	0c c9       	mov.b	r4l,r1l
 4e8:	79 00 00 01 	mov.w	#0x1,r0
 4ec:	5e 00 06 58 	jsr	@0x658:24

000004f0 <.LM61>:
/home/lib.c:81
}
 4f0:	01 00 6d 74 	mov.l	@er7+,er4
 4f4:	01 00 6d 76 	mov.l	@er7+,er6
 4f8:	54 70       	rts	

000004fa <_getc>:
getc():
/home/lib.c:85

/* １文字受信 */
unsigned char getc(void)
{
 4fa:	01 00 6d f6 	mov.l	er6,@-er7
 4fe:	0f f6       	mov.l	er7,er6
 500:	01 00 6d f4 	mov.l	er4,@-er7

00000504 <.LM63>:
/home/lib.c:86
  unsigned char c = serial_recv_byte(SERIAL_DEFAULT_DEVICE);
 504:	79 00 00 01 	mov.w	#0x1,r0
 508:	5e 00 06 ae 	jsr	@0x6ae:24

0000050c <.LVL60>:
 50c:	0c 8c       	mov.b	r0l,r4l

0000050e <.LM64>:
/home/lib.c:87
  c = (c == '\r') ? '\n' : c;
 50e:	a8 0d       	cmp.b	#0xd,r0l
 510:	46 02       	bne	.+2 (0x514)
 512:	fc 0a       	mov.b	#0xa,r4l

00000514 <.L39>:
/home/lib.c:88 (discriminator 4)
  putc(c); /* エコー・バック */
 514:	0c c8       	mov.b	r4l,r0l
 516:	5e 00 04 cc 	jsr	@0x4cc:24

0000051a <.LM66>:
/home/lib.c:90
  return c;
}
 51a:	0c c8       	mov.b	r4l,r0l
 51c:	01 00 6d 74 	mov.l	@er7+,er4
 520:	01 00 6d 76 	mov.l	@er7+,er6
 524:	54 70       	rts	

00000526 <_puts>:
puts():
/home/lib.c:94

/* 文字列送信 */
int puts(unsigned char *str)
{
 526:	01 00 6d f6 	mov.l	er6,@-er7
 52a:	0f f6       	mov.l	er7,er6
 52c:	01 00 6d f4 	mov.l	er4,@-er7
 530:	0f 84       	mov.l	er0,er4

00000532 <.LM68>:
/home/lib.c:95
  while (*str)
 532:	40 06       	bra	.+6 (0x53a)

00000534 <.L42>:
/home/lib.c:96
    putc(*(str++));
 534:	0b 04       	adds	#1,er4
 536:	5e 00 04 cc 	jsr	@0x4cc:24

0000053a <.L41>:
/home/lib.c:95
  while (*str)
 53a:	68 48       	mov.b	@er4,r0l
 53c:	46 f6       	bne	.-10 (0x534)

0000053e <.LM71>:
/home/lib.c:98
  return 0;
}
 53e:	19 00       	sub.w	r0,r0
 540:	01 00 6d 74 	mov.l	@er7+,er4
 544:	01 00 6d 76 	mov.l	@er7+,er6
 548:	54 70       	rts	

0000054a <_gets>:
gets():
/home/lib.c:102

/* 文字列受信 */
int gets(unsigned char *buf)
{
 54a:	01 00 6d f6 	mov.l	er6,@-er7
 54e:	0f f6       	mov.l	er7,er6
 550:	01 00 6d f4 	mov.l	er4,@-er7
 554:	01 00 6d f5 	mov.l	er5,@-er7
 558:	1b 97       	subs	#4,er7
 55a:	0f 85       	mov.l	er0,er5

0000055c <.LM73>:
 55c:	0f 84       	mov.l	er0,er4

0000055e <.L45>:
 55e:	0d 42       	mov.w	r4,r2
 560:	19 52       	sub.w	r5,r2

00000562 <.LM74>:
/home/lib.c:106
  int i = 0;
  unsigned char c;
  do {
    c = getc();
 562:	01 00 6f e2 	mov.l	er2,@(0xfff4:16,er6)
 566:	ff f4 
 568:	5e 00 04 fa 	jsr	@0x4fa:24

0000056c <.LM75>:
/home/lib.c:107
    if (c == '\n')
 56c:	01 00 6f 62 	mov.l	@(0xfff4:16,er6),er2
 570:	ff f4 
 572:	a8 0a       	cmp.b	#0xa,r0l
 574:	46 02       	bne	.+2 (0x578)

00000576 <.LM76>:
/home/lib.c:108
      c = '\0';
 576:	18 88       	sub.b	r0l,r0l

00000578 <.L44>:
/home/lib.c:109
    buf[i++] = c;
 578:	68 c8       	mov.b	r0l,@er4
 57a:	0b 04       	adds	#1,er4

0000057c <.LM78>:
/home/lib.c:110
  } while (c);
 57c:	46 e0       	bne	.-32 (0x55e)

0000057e <.LM79>:
/home/lib.c:112
  return i - 1;
}
 57e:	0d 20       	mov.w	r2,r0
 580:	0b 97       	adds	#4,er7
 582:	01 00 6d 75 	mov.l	@er7+,er5
 586:	01 00 6d 74 	mov.l	@er7+,er4
 58a:	01 00 6d 76 	mov.l	@er7+,er6
 58e:	54 70       	rts	

00000590 <_putxval>:
putxval():
/home/lib.c:116

/* 数値の16進表示 */
int putxval(unsigned long value, int column)
{
 590:	01 00 6d f6 	mov.l	er6,@-er7
 594:	0f f6       	mov.l	er7,er6
 596:	01 00 6d f4 	mov.l	er4,@-er7
 59a:	7a 37 00 00 	sub.l	#0xc,er7
 59e:	00 0c 

000005a0 <.LM81>:
/home/lib.c:121
  char buf[9];
  char *p;

  p = buf + sizeof(buf) - 1;
  *(p--) = '\0';
 5a0:	18 aa       	sub.b	r2l,r2l
 5a2:	6e ea ff fb 	mov.b	r2l,@(0xfffb:16,er6)

000005a6 <.LM82>:
/home/lib.c:123

  if (!value && !column)
 5a6:	0f 80       	mov.l	er0,er0
 5a8:	46 08       	bne	.+8 (0x5b2)

000005aa <.LM83>:
/home/lib.c:123 (discriminator 1)
 5aa:	0d 11       	mov.w	r1,r1
 5ac:	46 04       	bne	.+4 (0x5b2)

000005ae <.LM84>:
/home/lib.c:124
    column++;
 5ae:	79 01 00 01 	mov.w	#0x1,r1

000005b2 <.L48>:
 5b2:	0f e2       	mov.l	er6,er2
 5b4:	1b 92       	subs	#4,er2
 5b6:	1b 82       	subs	#2,er2

000005b8 <.LM85>:
/home/lib.c:127

  while (value || column) {
    *(p--) = "0123456789abcdef"[value & 0xf];
 5b8:	7a 04 00 00 	mov.l	#0xfe5,er4
 5bc:	0f e5 
 5be:	40 1c       	bra	.+28 (0x5dc)

000005c0 <.L51>:
 5c0:	1a b3       	sub.l	er3,er3
 5c2:	0c 8b       	mov.b	r0l,r3l
 5c4:	eb 0f       	and.b	#0xf,r3l
 5c6:	0a c3       	add.l	er4,er3
 5c8:	68 3b       	mov.b	@er3,r3l
 5ca:	68 ab       	mov.b	r3l,@er2

000005cc <.LM86>:
/home/lib.c:128
    value >>= 4;
 5cc:	11 30       	shlr.l	er0
 5ce:	11 30       	shlr.l	er0
 5d0:	11 30       	shlr.l	er0
 5d2:	11 30       	shlr.l	er0

000005d4 <.LM87>:
/home/lib.c:129
    if (column) column--;
 5d4:	0d 11       	mov.w	r1,r1
 5d6:	47 02       	beq	.+2 (0x5da)

000005d8 <.LM88>:
/home/lib.c:129 (discriminator 1)
 5d8:	1b 01       	subs	#1,er1

000005da <.L50>:
 5da:	1b 02       	subs	#1,er2

000005dc <.L49>:
/home/lib.c:126
  while (value || column) {
 5dc:	0f 80       	mov.l	er0,er0
 5de:	46 e0       	bne	.-32 (0x5c0)

000005e0 <.LM90>:
/home/lib.c:126 (discriminator 1)
 5e0:	0d 11       	mov.w	r1,r1
 5e2:	46 dc       	bne	.-36 (0x5c0)

000005e4 <.LM91>:
/home/lib.c:132
  }

  puts(p + 1);
 5e4:	0f a0       	mov.l	er2,er0
 5e6:	0b 00       	adds	#1,er0
 5e8:	5e 00 05 26 	jsr	@0x526:24

000005ec <.LM92>:
/home/lib.c:135

  return 0;
}
 5ec:	19 00       	sub.w	r0,r0
 5ee:	7a 17 00 00 	add.l	#0xc,er7
 5f2:	00 0c 
 5f4:	01 00 6d 74 	mov.l	@er7+,er4
 5f8:	01 00 6d 76 	mov.l	@er7+,er6
 5fc:	54 70       	rts	

000005fe <_serial_init>:
serial_init():
/home/serial.c:59
  { H8_3069F_SCI2 }, 
};

/* デバイス初期化 */
int serial_init(int index)
{
 5fe:	01 00 6d f6 	mov.l	er6,@-er7
 602:	0f f6       	mov.l	er7,er6

00000604 <.LM2>:
/home/serial.c:60
  volatile struct h8_3069f_sci *sci = regs[index].sci;
 604:	17 f0       	exts.l	er0
 606:	10 30       	shll.l	er0
 608:	10 30       	shll.l	er0
 60a:	01 00 78 00 	mov.l	@(0xef4:32,er0),er2
 60e:	6b 22 00 00 
 612:	0e f4 

00000614 <.LM3>:
/home/serial.c:62

  sci->scr = 0;
 614:	18 bb       	sub.b	r3l,r3l
 616:	6e ab 00 02 	mov.b	r3l,@(0x2:16,er2)

0000061a <.LM4>:
/home/serial.c:63
  sci->smr = 0;
 61a:	68 ab       	mov.b	r3l,@er2

0000061c <.LM5>:
/home/serial.c:64
  sci->brr = 64; /* 20MHzのクロックから9600bpsを生成(25MHzの場合は80にする) */
 61c:	f8 40       	mov.b	#0x40,r0l
 61e:	6e a8 00 01 	mov.b	r0l,@(0x1:16,er2)

00000622 <.LM6>:
/home/serial.c:65
  sci->scr = H8_3069F_SCI_SCR_RE | H8_3069F_SCI_SCR_TE; /* 送受信可能 */
 622:	f8 30       	mov.b	#0x30,r0l
 624:	6e a8 00 02 	mov.b	r0l,@(0x2:16,er2)

00000628 <.LM7>:
/home/serial.c:66
  sci->ssr = 0;
 628:	6e ab 00 04 	mov.b	r3l,@(0x4:16,er2)

0000062c <.LM8>:
/home/serial.c:69

  return 0;
}
 62c:	19 00       	sub.w	r0,r0
 62e:	01 00 6d 76 	mov.l	@er7+,er6
 632:	54 70       	rts	

00000634 <_serial_is_send_enable>:
serial_is_send_enable():
/home/serial.c:73

/* 送信可能か？ */
int serial_is_send_enable(int index)
{
 634:	01 00 6d f6 	mov.l	er6,@-er7
 638:	0f f6       	mov.l	er7,er6

0000063a <.LM10>:
/home/serial.c:74
  volatile struct h8_3069f_sci *sci = regs[index].sci;
 63a:	17 f0       	exts.l	er0
 63c:	10 30       	shll.l	er0
 63e:	10 30       	shll.l	er0
 640:	01 00 78 00 	mov.l	@(0xef4:32,er0),er2
 644:	6b 22 00 00 
 648:	0e f4 

0000064a <.LM11>:
/home/serial.c:75
  return (sci->ssr & H8_3069F_SCI_SSR_TDRE);
 64a:	6e 28 00 04 	mov.b	@(0x4:16,er2),r0l
 64e:	e8 80       	and.b	#0x80,r0l

00000650 <.LM12>:
/home/serial.c:76
}
 650:	17 50       	extu.w	r0
 652:	01 00 6d 76 	mov.l	@er7+,er6
 656:	54 70       	rts	

00000658 <_serial_send_byte>:
serial_send_byte():
/home/serial.c:80

/* １文字送信 */
int serial_send_byte(int index, unsigned char c)
{
 658:	01 00 6d f6 	mov.l	er6,@-er7
 65c:	0f f6       	mov.l	er7,er6

0000065e <.LM14>:
/home/serial.c:81
  volatile struct h8_3069f_sci *sci = regs[index].sci;
 65e:	17 f0       	exts.l	er0
 660:	10 30       	shll.l	er0
 662:	10 30       	shll.l	er0
 664:	01 00 78 00 	mov.l	@(0xef4:32,er0),er2
 668:	6b 22 00 00 
 66c:	0e f4 

0000066e <.L4>:
serial_is_send_enable():
/home/serial.c:75 (discriminator 1)
  return (sci->ssr & H8_3069F_SCI_SSR_TDRE);
 66e:	6e 2b 00 04 	mov.b	@(0x4:16,er2),r3l

00000672 <.LM16>:
serial_send_byte():
/home/serial.c:84

  /* 送信可能になるまで待つ */
  while (!serial_is_send_enable(index))
 672:	4c fa       	bge	.-6 (0x66e)

00000674 <.LM17>:
/home/serial.c:86
    ;
  sci->tdr = c;
 674:	6e a9 00 03 	mov.b	r1l,@(0x3:16,er2)

00000678 <.LM18>:
/home/serial.c:87
  sci->ssr &= ~H8_3069F_SCI_SSR_TDRE; /* 送信開始 */
 678:	6e 2b 00 04 	mov.b	@(0x4:16,er2),r3l
 67c:	72 7b       	bclr	#0x7,r3l
 67e:	6e ab 00 04 	mov.b	r3l,@(0x4:16,er2)

00000682 <.LM19>:
/home/serial.c:90

  return 0;
}
 682:	19 00       	sub.w	r0,r0
 684:	01 00 6d 76 	mov.l	@er7+,er6
 688:	54 70       	rts	

0000068a <_serial_is_recv_enable>:
serial_is_recv_enable():
/home/serial.c:94

/* 受信可能か？ */
int serial_is_recv_enable(int index)
{
 68a:	01 00 6d f6 	mov.l	er6,@-er7
 68e:	0f f6       	mov.l	er7,er6

00000690 <.LM21>:
/home/serial.c:95
  volatile struct h8_3069f_sci *sci = regs[index].sci;
 690:	17 f0       	exts.l	er0
 692:	10 30       	shll.l	er0
 694:	10 30       	shll.l	er0
 696:	01 00 78 00 	mov.l	@(0xef4:32,er0),er2
 69a:	6b 22 00 00 
 69e:	0e f4 

000006a0 <.LM22>:
/home/serial.c:96
  return (sci->ssr & H8_3069F_SCI_SSR_RDRF);
 6a0:	6e 28 00 04 	mov.b	@(0x4:16,er2),r0l
 6a4:	e8 40       	and.b	#0x40,r0l

000006a6 <.LM23>:
/home/serial.c:97
}
 6a6:	17 50       	extu.w	r0
 6a8:	01 00 6d 76 	mov.l	@er7+,er6
 6ac:	54 70       	rts	

000006ae <_serial_recv_byte>:
serial_recv_byte():
/home/serial.c:101

/* １文字受信 */
unsigned char serial_recv_byte(int index)
{
 6ae:	01 00 6d f6 	mov.l	er6,@-er7
 6b2:	0f f6       	mov.l	er7,er6

000006b4 <.LM25>:
/home/serial.c:102
  volatile struct h8_3069f_sci *sci = regs[index].sci;
 6b4:	17 f0       	exts.l	er0
 6b6:	10 30       	shll.l	er0
 6b8:	10 30       	shll.l	er0
 6ba:	01 00 78 00 	mov.l	@(0xef4:32,er0),er2
 6be:	6b 22 00 00 
 6c2:	0e f4 

000006c4 <.L8>:
serial_is_recv_enable():
/home/serial.c:96 (discriminator 1)
  return (sci->ssr & H8_3069F_SCI_SSR_RDRF);
 6c4:	6e 2b 00 04 	mov.b	@(0x4:16,er2),r3l

000006c8 <.LM27>:
serial_recv_byte():
/home/serial.c:106
  unsigned char c;

  /* 受信文字が来るまで待つ */
  while (!serial_is_recv_enable(index))
 6c8:	73 6b       	btst	#0x6,r3l
 6ca:	47 f8       	beq	.-8 (0x6c4)

000006cc <.LM28>:
/home/serial.c:108
    ;
  c = sci->rdr;
 6cc:	6e 28 00 05 	mov.b	@(0x5:16,er2),r0l

000006d0 <.LM29>:
/home/serial.c:109
  sci->ssr &= ~H8_3069F_SCI_SSR_RDRF; /* 受信完了 */
 6d0:	6e 2b 00 04 	mov.b	@(0x4:16,er2),r3l
 6d4:	72 6b       	bclr	#0x6,r3l
 6d6:	6e ab 00 04 	mov.b	r3l,@(0x4:16,er2)

000006da <.LM30>:
/home/serial.c:112

  return c;
}
 6da:	01 00 6d 76 	mov.l	@er7+,er6
 6de:	54 70       	rts	

000006e0 <_xmodem_recv>:
xmodem_recv():
/home/xmodem.c:60

  return i;
}

long xmodem_recv(char *buf)
{
 6e0:	01 00 6d f6 	mov.l	er6,@-er7
 6e4:	0f f6       	mov.l	er7,er6
 6e6:	01 00 6d f4 	mov.l	er4,@-er7
 6ea:	01 00 6d f5 	mov.l	er5,@-er7
 6ee:	7a 37 00 00 	sub.l	#0x10,er7
 6f2:	00 10 
 6f4:	0f 85       	mov.l	er0,er5

000006f6 <.LM2>:
/home/xmodem.c:63
  int r, receiving = 0;
  long size = 0;
  unsigned char c, block_number = 1;
 6f6:	fa 01       	mov.b	#0x1,r2l
 6f8:	6e ea ff f7 	mov.b	r2l,@(0xfff7:16,er6)

000006fc <.LM3>:
/home/xmodem.c:62
  long size = 0;
 6fc:	1a c4       	sub.l	er4,er4

000006fe <.LM4>:
/home/xmodem.c:61
  int r, receiving = 0;
 6fe:	19 22       	sub.w	r2,r2
 700:	6f e2 ff f4 	mov.w	r2,@(0xfff4:16,er6)

00000704 <.L2>:
/home/xmodem.c:66

  while (1) {
    if (!receiving)
 704:	6f 62 ff f4 	mov.w	@(0xfff4:16,er6),r2
 708:	47 1c       	beq	.+28 (0x726)

0000070a <.L8>:
/home/xmodem.c:69
      xmodem_wait(); /* 受信開始されるまで送信要求を出す */

    c = serial_recv_byte(SERIAL_DEFAULT_DEVICE);
 70a:	79 00 00 01 	mov.w	#0x1,r0
 70e:	5e 00 06 ae 	jsr	@0x6ae:24

00000712 <.LM7>:
/home/xmodem.c:71

    if (c == XMODEM_EOT) { /* 受信終了 */
 712:	a8 04       	cmp.b	#0x4,r0l
 714:	46 3e       	bne	.+62 (0x754)
 716:	40 2e       	bra	.+46 (0x746)

00000718 <.L7>:
xmodem_wait():
/home/xmodem.c:22
    if (++cnt >= 50000) {
 718:	1b 72       	dec.l	#1,er2
 71a:	46 10       	bne	.+16 (0x72c)

0000071c <.LM9>:
/home/xmodem.c:24
      serial_send_byte(SERIAL_DEFAULT_DEVICE, XMODEM_NAK);
 71c:	f9 15       	mov.b	#0x15,r1l
 71e:	79 00 00 01 	mov.w	#0x1,r0
 722:	5e 00 06 58 	jsr	@0x658:24

00000726 <.L3>:
xmodem_recv():
/home/xmodem.c:61
  int r, receiving = 0;
 726:	7a 02 00 00 	mov.l	#0xc350,er2
 72a:	c3 50 

0000072c <.L6>:
xmodem_wait():
/home/xmodem.c:21
  while (!serial_is_recv_enable(SERIAL_DEFAULT_DEVICE)) {
 72c:	79 00 00 01 	mov.w	#0x1,r0
 730:	01 00 6f e2 	mov.l	er2,@(0xfff0:16,er6)
 734:	ff f0 
 736:	5e 00 06 8a 	jsr	@0x68a:24

0000073a <.LVL9>:
 73a:	01 00 6f 62 	mov.l	@(0xfff0:16,er6),er2
 73e:	ff f0 
 740:	0d 00       	mov.w	r0,r0
 742:	47 d4       	beq	.-44 (0x718)
 744:	40 c4       	bra	.-60 (0x70a)

00000746 <.L4>:
xmodem_recv():
/home/xmodem.c:72
      serial_send_byte(SERIAL_DEFAULT_DEVICE, XMODEM_ACK);
 746:	f9 06       	mov.b	#0x6,r1l
 748:	79 00 00 01 	mov.w	#0x1,r0
 74c:	5e 00 06 58 	jsr	@0x658:24

00000750 <.LM13>:
/home/xmodem.c:93
      if (receiving)
	return -1;
    }
  }

  return size;
 750:	58 00 00 c4 	bra	.+196 (0x818)

00000754 <.L22>:
/home/xmodem.c:74
    } else if (c == XMODEM_CAN) { /* 受信中断 */
 754:	a8 18       	cmp.b	#0x18,r0l
 756:	58 70 00 ba 	beq	.+186 (0x814)

0000075a <.LM15>:
/home/xmodem.c:77
      receiving++;
 75a:	6f 62 ff f4 	mov.w	@(0xfff4:16,er6),r2

0000075e <.LM16>:
/home/xmodem.c:76
    } else if (c == XMODEM_SOH) { /* 受信開始 */
 75e:	a8 01       	cmp.b	#0x1,r0l
 760:	58 60 00 aa 	bne	.+170 (0x80e)

00000764 <.LM17>:
/home/xmodem.c:77
      receiving++;
 764:	0b 02       	adds	#1,er2
 766:	6f e2 ff f4 	mov.w	r2,@(0xfff4:16,er6)

0000076a <.LBB10>:
xmodem_read_block():
/home/xmodem.c:37
  block_num = serial_recv_byte(SERIAL_DEFAULT_DEVICE);
 76a:	79 00 00 01 	mov.w	#0x1,r0
 76e:	5e 00 06 ae 	jsr	@0x6ae:24

00000772 <.LM19>:
/home/xmodem.c:38
  if (block_num != block_number)
 772:	6e 6a ff f7 	mov.b	@(0xfff7:16,er6),r2l
 776:	1c 8a       	cmp.b	r0l,r2l
 778:	58 60 00 84 	bne	.+132 (0x800)

0000077c <.LM20>:
/home/xmodem.c:41
  block_num ^= serial_recv_byte(SERIAL_DEFAULT_DEVICE);
 77c:	79 00 00 01 	mov.w	#0x1,r0
 780:	5e 00 06 ae 	jsr	@0x6ae:24

00000784 <.LVL18>:
 784:	6e 6a ff f7 	mov.b	@(0xfff7:16,er6),r2l
 788:	15 a8       	xor.b	r2l,r0l

0000078a <.LM21>:
/home/xmodem.c:42
  if (block_num != 0xff)
 78a:	a8 ff       	cmp.b	#0xff,r0l
 78c:	46 72       	bne	.+114 (0x800)
 78e:	0f d2       	mov.l	er5,er2
 790:	1a 91       	sub.l	er1,er1
 792:	89 80       	add.b	#0x80,r1l
 794:	0a d1       	add.l	er5,er1

00000796 <.LM22>:
/home/xmodem.c:45
  check_sum = 0;
 796:	18 bb       	sub.b	r3l,r3l

00000798 <.L12>:
/home/xmodem.c:47
    c = serial_recv_byte(SERIAL_DEFAULT_DEVICE);
 798:	79 00 00 01 	mov.w	#0x1,r0
 79c:	01 00 6f e1 	mov.l	er1,@(0xffe8:16,er6)
 7a0:	ff e8 
 7a2:	01 00 6f e2 	mov.l	er2,@(0xfff0:16,er6)
 7a6:	ff f0 
 7a8:	01 00 6f e3 	mov.l	er3,@(0xffec:16,er6)
 7ac:	ff ec 
 7ae:	5e 00 06 ae 	jsr	@0x6ae:24

000007b2 <.LM24>:
/home/xmodem.c:48
    *(buf++) = c;
 7b2:	01 00 6f 62 	mov.l	@(0xfff0:16,er6),er2
 7b6:	ff f0 
 7b8:	68 a8       	mov.b	r0l,@er2

000007ba <.LM25>:
/home/xmodem.c:49
    check_sum += c;
 7ba:	01 00 6f 63 	mov.l	@(0xffec:16,er6),er3
 7be:	ff ec 
 7c0:	08 8b       	add.b	r0l,r3l
 7c2:	0b 02       	adds	#1,er2

000007c4 <.LM26>:
/home/xmodem.c:46
  for (i = 0; i < XMODEM_BLOCK_SIZE; i++) {
 7c4:	01 00 6f 61 	mov.l	@(0xffe8:16,er6),er1
 7c8:	ff e8 
 7ca:	1f a1       	cmp.l	er2,er1
 7cc:	46 ca       	bne	.-54 (0x798)

000007ce <.LM27>:
/home/xmodem.c:52
  check_sum ^= serial_recv_byte(SERIAL_DEFAULT_DEVICE);
 7ce:	79 00 00 01 	mov.w	#0x1,r0
 7d2:	01 00 6f e3 	mov.l	er3,@(0xffec:16,er6)
 7d6:	ff ec 
 7d8:	5e 00 06 ae 	jsr	@0x6ae:24

000007dc <.LM28>:
/home/xmodem.c:53
  if (check_sum)
 7dc:	01 00 6f 63 	mov.l	@(0xffec:16,er6),er3
 7e0:	ff ec 
 7e2:	1c 8b       	cmp.b	r0l,r3l
 7e4:	46 1a       	bne	.+26 (0x800)

000007e6 <.LM29>:
xmodem_recv():
/home/xmodem.c:82
	block_number++;
 7e6:	6e 6a ff f7 	mov.b	@(0xfff7:16,er6),r2l
 7ea:	8a 01       	add.b	#0x1,r2l
 7ec:	6e ea ff f7 	mov.b	r2l,@(0xfff7:16,er6)

000007f0 <.LM30>:
/home/xmodem.c:83
	size += r;
 7f0:	7a 14 00 00 	add.l	#0x80,er4
 7f4:	00 80 

000007f6 <.LM31>:
/home/xmodem.c:84
	buf  += r;
 7f6:	7a 15 00 00 	add.l	#0x80,er5
 7fa:	00 80 

000007fc <.LM32>:
/home/xmodem.c:85
	serial_send_byte(SERIAL_DEFAULT_DEVICE, XMODEM_ACK);
 7fc:	f9 06       	mov.b	#0x6,r1l
 7fe:	40 02       	bra	.+2 (0x802)

00000800 <.L11>:
/home/xmodem.c:80
	serial_send_byte(SERIAL_DEFAULT_DEVICE, XMODEM_NAK);
 800:	f9 15       	mov.b	#0x15,r1l

00000802 <.L23>:
 802:	79 00 00 01 	mov.w	#0x1,r0
 806:	5e 00 06 58 	jsr	@0x658:24

0000080a <.LVL34>:
 80a:	58 00 fe f6 	bra	.-266 (0x704)

0000080e <.L10>:
/home/xmodem.c:88
      if (receiving)
 80e:	0d 22       	mov.w	r2,r2
 810:	58 70 ff 12 	beq	.-238 (0x726)

00000814 <.L14>:
/home/xmodem.c:75
      return -1;
 814:	1a c4       	sub.l	er4,er4
 816:	1b 04       	subs	#1,er4

00000818 <.L1>:
/home/xmodem.c:94
}
 818:	0f c0       	mov.l	er4,er0
 81a:	7a 17 00 00 	add.l	#0x10,er7
 81e:	00 10 
 820:	01 00 6d 75 	mov.l	@er7+,er5
 824:	01 00 6d 74 	mov.l	@er7+,er4
 828:	01 00 6d 76 	mov.l	@er7+,er6
 82c:	54 70       	rts	

0000082e <_elf_load>:
elf_load():
/home/elf.c:84

  return 0;
}

char *elf_load(char *buf)
{
 82e:	01 00 6d f6 	mov.l	er6,@-er7
 832:	0f f6       	mov.l	er7,er6
 834:	01 00 6d f4 	mov.l	er4,@-er7
 838:	01 00 6d f5 	mov.l	er5,@-er7
 83c:	1b 97       	subs	#4,er7
 83e:	0f 85       	mov.l	er0,er5

00000840 <.LBB6>:
elf_check():
/home/elf.c:44
  if (memcmp(header->id.magic, "\x7f" "ELF", 4))
 840:	1a a2       	sub.l	er2,er2
 842:	8a 04       	add.b	#0x4,r2l
 844:	7a 01 00 00 	mov.l	#0xff6,er1
 848:	0f f6 
 84a:	5e 00 03 d4 	jsr	@0x3d4:24

0000084e <.LVL2>:
 84e:	0d 03       	mov.w	r0,r3
 850:	58 60 00 b0 	bne	.+176 (0x904)

00000854 <.LM3>:
/home/elf.c:47
  if (header->id.class   != 1) return -1; /* ELF32 */
 854:	6e 5a 00 04 	mov.b	@(0x4:16,er5),r2l
 858:	aa 01       	cmp.b	#0x1,r2l
 85a:	58 60 00 a6 	bne	.+166 (0x904)

0000085e <.LM4>:
/home/elf.c:48
  if (header->id.format  != 2) return -1; /* Big endian */
 85e:	6e 5a 00 05 	mov.b	@(0x5:16,er5),r2l
 862:	aa 02       	cmp.b	#0x2,r2l
 864:	58 60 00 9c 	bne	.+156 (0x904)

00000868 <.LM5>:
/home/elf.c:49
  if (header->id.version != 1) return -1; /* version 1 */
 868:	6e 5a 00 06 	mov.b	@(0x6:16,er5),r2l
 86c:	aa 01       	cmp.b	#0x1,r2l
 86e:	58 60 00 92 	bne	.+146 (0x904)

00000872 <.LM6>:
/home/elf.c:50
  if (header->type       != 2) return -1; /* Executable file */
 872:	6f 52 00 10 	mov.w	@(0x10:16,er5),r2
 876:	1b d2       	dec.w	#2,r2
 878:	58 60 00 88 	bne	.+136 (0x904)

0000087c <.LM7>:
/home/elf.c:51
  if (header->version    != 1) return -1; /* version 1 */
 87c:	01 00 6f 52 	mov.l	@(0x14:16,er5),er2
 880:	00 14 
 882:	1b 72       	dec.l	#1,er2
 884:	58 60 00 7c 	bne	.+124 (0x904)

00000888 <.LM8>:
/home/elf.c:54
  if ((header->arch != 46) && (header->arch != 47)) return -1;
 888:	6f 52 00 12 	mov.w	@(0x12:16,er5),r2
 88c:	79 12 ff d2 	add.w	#0xffd2,r2
 890:	11 92       	shar.w	r2
 892:	47 60       	beq	.+96 (0x8f4)
 894:	40 6e       	bra	.+110 (0x904)

00000896 <.L5>:
elf_load_program():
/home/elf.c:69
       header->program_header_size * i);
 896:	6f 54 00 2a 	mov.w	@(0x2a:16,er5),r4
 89a:	01 c0 52 34 	mulxs.w	r3,er4
 89e:	17 f4       	exts.l	er4

000008a0 <.LM10>:
/home/elf.c:68
      ((char *)header + header->program_header_offset +
 8a0:	01 00 6f 52 	mov.l	@(0x1c:16,er5),er2
 8a4:	00 1c 
 8a6:	0a a4       	add.l	er2,er4

000008a8 <.LM11>:
/home/elf.c:67
    phdr = (struct elf_program_header *)
 8a8:	0a d4       	add.l	er5,er4

000008aa <.LM12>:
/home/elf.c:71
    if (phdr->type != 1) /* ロード可能なセグメントか？ */
 8aa:	01 00 69 42 	mov.l	@er4,er2
 8ae:	1b 72       	dec.l	#1,er2
 8b0:	46 40       	bne	.+64 (0x8f2)

000008b2 <.LM13>:
/home/elf.c:74
    memcpy((char *)phdr->physical_addr, (char *)header + phdr->offset,
 8b2:	01 00 6f 41 	mov.l	@(0x4:16,er4),er1
 8b6:	00 04 
 8b8:	01 00 6f 42 	mov.l	@(0x10:16,er4),er2
 8bc:	00 10 
 8be:	0a d1       	add.l	er5,er1
 8c0:	01 00 6f 40 	mov.l	@(0xc:16,er4),er0
 8c4:	00 0c 
 8c6:	01 00 6f e3 	mov.l	er3,@(0xfff4:16,er6)
 8ca:	ff f4 
 8cc:	5e 00 03 9e 	jsr	@0x39e:24

000008d0 <.LM14>:
/home/elf.c:77
	   phdr->memory_size - phdr->file_size);
 8d0:	01 00 6f 40 	mov.l	@(0x10:16,er4),er0
 8d4:	00 10 

000008d6 <.LM15>:
/home/elf.c:76
    memset((char *)phdr->physical_addr + phdr->file_size, 0,
 8d6:	01 00 6f 42 	mov.l	@(0x14:16,er4),er2
 8da:	00 14 
 8dc:	01 00 6f 44 	mov.l	@(0xc:16,er4),er4
 8e0:	00 0c 
 8e2:	1a 82       	sub.l	er0,er2
 8e4:	19 11       	sub.w	r1,r1
 8e6:	0a c0       	add.l	er4,er0
 8e8:	5e 00 03 78 	jsr	@0x378:24

000008ec <.LVL7>:
 8ec:	01 00 6f 63 	mov.l	@(0xfff4:16,er6),er3
 8f0:	ff f4 

000008f2 <.L4>:
/home/elf.c:65
  for (i = 0; i < header->program_header_num; i++) {
 8f2:	0b 03       	adds	#1,er3

000008f4 <.L3>:
 8f4:	6f 52 00 2c 	mov.w	@(0x2c:16,er5),r2
 8f8:	1d 23       	cmp.w	r2,r3
 8fa:	4d 9a       	blt	.-102 (0x896)

000008fc <.LM17>:
elf_load():
/home/elf.c:93
    return NULL;

  if (elf_load_program(header) < 0) /* セグメント単位でのロード */
    return NULL;

  return (char *)header->entry_point;
 8fc:	01 00 6f 50 	mov.l	@(0x18:16,er5),er0
 900:	00 18 
 902:	40 02       	bra	.+2 (0x906)

00000904 <.L12>:
/home/elf.c:88
    return NULL;
 904:	1a 80       	sub.l	er0,er0

00000906 <.L1>:
/home/elf.c:94
}
 906:	0b 97       	adds	#4,er7
 908:	01 00 6d 75 	mov.l	@er7+,er5
 90c:	01 00 6d 74 	mov.l	@er7+,er4
 910:	01 00 6d 76 	mov.l	@er7+,er6
 914:	54 70       	rts	

00000916 <_check_val>:
check_val():
/home/dram.c:77

  return 0;
}

static int check_val(volatile val_t *p, volatile val_t *wval)
{
 916:	01 00 6d f6 	mov.l	er6,@-er7
 91a:	0f f6       	mov.l	er7,er6
 91c:	1b 97       	subs	#4,er7

0000091e <.LM2>:
/home/dram.c:80
  volatile val_t rval;

  p->u.val8[0] = wval->u.val8[0]; p->u.val8[1] = wval->u.val8[1];
 91e:	68 1a       	mov.b	@er1,r2l
 920:	68 8a       	mov.b	r2l,@er0
 922:	6e 1a 00 01 	mov.b	@(0x1:16,er1),r2l
 926:	6e 8a 00 01 	mov.b	r2l,@(0x1:16,er0)

0000092a <.LM3>:
/home/dram.c:81
  p->u.val8[2] = wval->u.val8[2]; p->u.val8[3] = wval->u.val8[3];
 92a:	6e 1a 00 02 	mov.b	@(0x2:16,er1),r2l
 92e:	6e 8a 00 02 	mov.b	r2l,@(0x2:16,er0)
 932:	6e 1a 00 03 	mov.b	@(0x3:16,er1),r2l
 936:	6e 8a 00 03 	mov.b	r2l,@(0x3:16,er0)

0000093a <.LM4>:
/home/dram.c:82
  rval.u.val8[0] = p->u.val8[0]; rval.u.val8[1] = p->u.val8[1];
 93a:	68 0a       	mov.b	@er0,r2l
 93c:	6e ea ff fc 	mov.b	r2l,@(0xfffc:16,er6)
 940:	6e 0a 00 01 	mov.b	@(0x1:16,er0),r2l
 944:	6e ea ff fd 	mov.b	r2l,@(0xfffd:16,er6)

00000948 <.LM5>:
/home/dram.c:83
  rval.u.val8[2] = p->u.val8[2]; rval.u.val8[3] = p->u.val8[3];
 948:	6e 0a 00 02 	mov.b	@(0x2:16,er0),r2l
 94c:	6e ea ff fe 	mov.b	r2l,@(0xfffe:16,er6)
 950:	6e 0a 00 03 	mov.b	@(0x3:16,er0),r2l
 954:	6e ea ff ff 	mov.b	r2l,@(0xffff:16,er6)

00000958 <.LM6>:
/home/dram.c:85

  if (rval.u.val32[0] != wval->u.val32[0])
 958:	01 00 6f 63 	mov.l	@(0xfffc:16,er6),er3
 95c:	ff fc 
 95e:	01 00 69 12 	mov.l	@er1,er2
 962:	1f a3       	cmp.l	er2,er3
 964:	47 06       	beq	.+6 (0x96c)

00000966 <.L4>:
/home/dram.c:86
    return -1;
 966:	79 00 ff ff 	mov.w	#0xffff,r0
 96a:	40 50       	bra	.+80 (0x9bc)

0000096c <.L2>:
/home/dram.c:88

  p->u.val16[0] = wval->u.val16[0]; p->u.val16[1] = wval->u.val16[1];
 96c:	69 12       	mov.w	@er1,r2
 96e:	69 82       	mov.w	r2,@er0
 970:	6f 12 00 02 	mov.w	@(0x2:16,er1),r2
 974:	6f 82 00 02 	mov.w	r2,@(0x2:16,er0)

00000978 <.LM9>:
/home/dram.c:89
  rval.u.val16[0] = p->u.val16[0]; rval.u.val16[1] = p->u.val16[1];
 978:	69 02       	mov.w	@er0,r2
 97a:	6f e2 ff fc 	mov.w	r2,@(0xfffc:16,er6)
 97e:	6f 02 00 02 	mov.w	@(0x2:16,er0),r2
 982:	6f e2 ff fe 	mov.w	r2,@(0xfffe:16,er6)

00000986 <.LM10>:
/home/dram.c:91

  if (rval.u.val32[0] != wval->u.val32[0])
 986:	01 00 6f 63 	mov.l	@(0xfffc:16,er6),er3
 98a:	ff fc 
 98c:	01 00 69 12 	mov.l	@er1,er2
 990:	1f a3       	cmp.l	er2,er3
 992:	46 d2       	bne	.-46 (0x966)

00000994 <.LM11>:
/home/dram.c:94
    return -1;

  p->u.val32[0] = wval->u.val32[0];
 994:	01 00 69 12 	mov.l	@er1,er2
 998:	01 00 69 82 	mov.l	er2,@er0

0000099c <.LM12>:
/home/dram.c:95
  rval.u.val32[0] = p->u.val32[0];
 99c:	01 00 69 02 	mov.l	@er0,er2
 9a0:	01 00 6f e2 	mov.l	er2,@(0xfffc:16,er6)
 9a4:	ff fc 

000009a6 <.LM13>:
/home/dram.c:97

  if (rval.u.val32[0] != wval->u.val32[0])
 9a6:	01 00 6f 63 	mov.l	@(0xfffc:16,er6),er3
 9aa:	ff fc 
 9ac:	01 00 69 12 	mov.l	@er1,er2
 9b0:	79 00 00 01 	mov.w	#0x1,r0
 9b4:	1f a3       	cmp.l	er2,er3
 9b6:	46 02       	bne	.+2 (0x9ba)
 9b8:	19 00       	sub.w	r0,r0

000009ba <.L5>:
 9ba:	17 90       	neg.w	r0

000009bc <.L1>:
/home/dram.c:101
    return -1;

  return 0;
}
 9bc:	0b 97       	adds	#4,er7
 9be:	01 00 6d 76 	mov.l	@er7+,er6
 9c2:	54 70       	rts	

000009c4 <_dram_check2_val0>:
dram_check2_val0():
/home/dram.c:139
  putxval((unsigned long)*p, 8);
  puts("\n");
  return -1;
}

static uint32 dram_check2_val0(uint32 *addr) {  return  0x55555555UL; }
 9c4:	01 00 6d f6 	mov.l	er6,@-er7
 9c8:	0f f6       	mov.l	er7,er6

000009ca <.LM16>:
 9ca:	7a 00 55 55 	mov.l	#0x55555555,er0
 9ce:	55 55 
 9d0:	01 00 6d 76 	mov.l	@er7+,er6
 9d4:	54 70       	rts	

000009d6 <_dram_check2_val1>:
dram_check2_val1():
/home/dram.c:140
static uint32 dram_check2_val1(uint32 *addr) {  return  0xaaaaaaaaUL; }
 9d6:	01 00 6d f6 	mov.l	er6,@-er7
 9da:	0f f6       	mov.l	er7,er6

000009dc <.LM18>:
 9dc:	7a 00 aa aa 	mov.l	#0xaaaaaaaa,er0
 9e0:	aa aa 
 9e2:	01 00 6d 76 	mov.l	@er7+,er6
 9e6:	54 70       	rts	

000009e8 <_dram_check2_val2>:
dram_check2_val2():
/home/dram.c:141
static uint32 dram_check2_val2(uint32 *addr) {  return  0x00000000UL; }
 9e8:	01 00 6d f6 	mov.l	er6,@-er7
 9ec:	0f f6       	mov.l	er7,er6

000009ee <.LM20>:
 9ee:	1a 80       	sub.l	er0,er0
 9f0:	01 00 6d 76 	mov.l	@er7+,er6
 9f4:	54 70       	rts	

000009f6 <_dram_check2_val3>:
dram_check2_val3():
/home/dram.c:142
static uint32 dram_check2_val3(uint32 *addr) {  return  0xffffffffUL; }
 9f6:	01 00 6d f6 	mov.l	er6,@-er7
 9fa:	0f f6       	mov.l	er7,er6

000009fc <.LM22>:
 9fc:	1a 80       	sub.l	er0,er0
 9fe:	1b 00       	subs	#1,er0
 a00:	01 00 6d 76 	mov.l	@er7+,er6
 a04:	54 70       	rts	

00000a06 <_dram_check2_val4>:
dram_check2_val4():
/home/dram.c:143
static uint32 dram_check2_val4(uint32 *addr) {  return  (uint32)addr; }
 a06:	01 00 6d f6 	mov.l	er6,@-er7
 a0a:	0f f6       	mov.l	er7,er6

00000a0c <.LM24>:
 a0c:	01 00 6d 76 	mov.l	@er7+,er6
 a10:	54 70       	rts	

00000a12 <_dram_check2_val5>:
dram_check2_val5():
/home/dram.c:144
static uint32 dram_check2_val5(uint32 *addr) {  return ~(uint32)addr; }
 a12:	01 00 6d f6 	mov.l	er6,@-er7
 a16:	0f f6       	mov.l	er7,er6

00000a18 <.LM26>:
 a18:	17 30       	not.l	er0
 a1a:	01 00 6d 76 	mov.l	@er7+,er6
 a1e:	54 70       	rts	

00000a20 <_dram_init>:
dram_init():
/home/dram.c:29
{
 a20:	01 00 6d f6 	mov.l	er6,@-er7
 a24:	0f f6       	mov.l	er7,er6

00000a26 <.LM28>:
/home/dram.c:37
  *H8_3069F_ABWCR  = 0xff;
 a26:	fa ff       	mov.b	#0xff,r2l
 a28:	6a aa 00 fe 	mov.b	r2l,@0xfee020:32
 a2c:	e0 20 

00000a2e <.LM29>:
/home/dram.c:41
  *H8_3069F_RTCOR  = 0x03; /* リフレッシュ周期を短めに設定 */
 a2e:	fb 03       	mov.b	#0x3,r3l
 a30:	6a ab 00 fe 	mov.b	r3l,@0xfee02a:32
 a34:	e0 2a 

00000a36 <.LM30>:
/home/dram.c:44
  *H8_3069F_RTMCSR = 0x37;
 a36:	fb 37       	mov.b	#0x37,r3l
 a38:	6a ab 00 fe 	mov.b	r3l,@0xfee028:32
 a3c:	e0 28 

00000a3e <.LM31>:
/home/dram.c:49
  *H8_3069F_DRCRB  = 0x98;
 a3e:	fb 98       	mov.b	#0x98,r3l
 a40:	6a ab 00 fe 	mov.b	r3l,@0xfee027:32
 a44:	e0 27 

00000a46 <.LM32>:
/home/dram.c:53
  *H8_3069F_DRCRA  = 0x30;
 a46:	fb 30       	mov.b	#0x30,r3l
 a48:	6a ab 00 fe 	mov.b	r3l,@0xfee026:32
 a4c:	e0 26 

00000a4e <.LM33>:
/home/dram.c:55
  *H8_3069F_P1DDR  = 0xff;
 a4e:	6a aa 00 fe 	mov.b	r2l,@0xfee000:32
 a52:	e0 00 

00000a54 <.LM34>:
/home/dram.c:56
  *H8_3069F_P2DDR  = 0x07;
 a54:	fa 07       	mov.b	#0x7,r2l
 a56:	6a aa 00 fe 	mov.b	r2l,@0xfee001:32
 a5a:	e0 01 

00000a5c <.LM35>:
/home/dram.c:57
  *H8_3069F_P8DDR  = 0xe4;
 a5c:	fa e4       	mov.b	#0xe4,r2l
 a5e:	6a aa 00 fe 	mov.b	r2l,@0xfee007:32
 a62:	e0 07 

00000a64 <.LM36>:
/home/dram.c:62
  *H8_3069F_WCRL = 0xcf;
 a64:	fa cf       	mov.b	#0xcf,r2l
 a66:	6a aa 00 fe 	mov.b	r2l,@0xfee023:32
 a6a:	e0 23 

00000a6c <.LM37>:
/home/dram.c:68
  *H8_3069F_ASTCR = 0xfb; /* 2ステートアクセス */
 a6c:	fa fb       	mov.b	#0xfb,r2l
 a6e:	6a aa 00 fe 	mov.b	r2l,@0xfee021:32
 a72:	e0 21 

00000a74 <.LM38>:
/home/dram.c:74
}
 a74:	19 00       	sub.w	r0,r0
 a76:	01 00 6d 76 	mov.l	@er7+,er6
 a7a:	54 70       	rts	

00000a7c <_dram_check>:
dram_check():
/home/dram.c:104
{
 a7c:	01 00 6d f6 	mov.l	er6,@-er7
 a80:	0f f6       	mov.l	er7,er6
 a82:	01 00 6d f4 	mov.l	er4,@-er7
 a86:	1b 97       	subs	#4,er7

00000a88 <.LM40>:
/home/dram.c:109
  puts("DRAM checking...\n");
 a88:	7a 00 00 00 	mov.l	#0x1045,er0
 a8c:	10 45 
 a8e:	5e 00 05 26 	jsr	@0x526:24

00000a92 <.LM41>:
/home/dram.c:111
  for (p = (uint32 *)DRAM_START; p < (uint32 *)DRAM_END; p++) {
 a92:	7a 04 00 40 	mov.l	#0x400000,er4
 a96:	00 00 

00000a98 <.L15>:
/home/dram.c:112
    putxval((unsigned long)p, 8);
 a98:	79 01 00 08 	mov.w	#0x8,r1
 a9c:	0f c0       	mov.l	er4,er0
 a9e:	5e 00 05 90 	jsr	@0x590:24

00000aa2 <.LM43>:
/home/dram.c:115
    val.u.val32[0] = (uint32)p;
 aa2:	01 00 6f e4 	mov.l	er4,@(0xfff8:16,er6)
 aa6:	ff f8 

00000aa8 <.LM44>:
/home/dram.c:116
    if (check_val((val_t *)p, &val) < 0)
 aa8:	0f e1       	mov.l	er6,er1
 aaa:	1b 91       	subs	#4,er1
 aac:	1b 91       	subs	#4,er1
 aae:	0f c0       	mov.l	er4,er0
 ab0:	5e 00 09 16 	jsr	@0x916:24

00000ab4 <.LVL18>:
 ab4:	0d 00       	mov.w	r0,r0
 ab6:	4d 54       	blt	.+84 (0xb0c)

00000ab8 <.LM45>:
/home/dram.c:119
    val.u.val32[0] = 0;
 ab8:	1a a2       	sub.l	er2,er2
 aba:	01 00 6f e2 	mov.l	er2,@(0xfff8:16,er6)
 abe:	ff f8 

00000ac0 <.LM46>:
/home/dram.c:120
    if (check_val((val_t *)p, &val) < 0)
 ac0:	0f e1       	mov.l	er6,er1
 ac2:	1b 91       	subs	#4,er1
 ac4:	1b 91       	subs	#4,er1
 ac6:	0f c0       	mov.l	er4,er0
 ac8:	5e 00 09 16 	jsr	@0x916:24

00000acc <.LVL19>:
 acc:	0d 00       	mov.w	r0,r0
 ace:	4d 3c       	blt	.+60 (0xb0c)

00000ad0 <.LM47>:
/home/dram.c:123
    val.u.val32[0] = 0xffffffffUL;
 ad0:	1a a2       	sub.l	er2,er2
 ad2:	1b 02       	subs	#1,er2
 ad4:	01 00 6f e2 	mov.l	er2,@(0xfff8:16,er6)
 ad8:	ff f8 

00000ada <.LM48>:
/home/dram.c:124
    if (check_val((val_t *)p, &val) < 0)
 ada:	0f e1       	mov.l	er6,er1
 adc:	1b 91       	subs	#4,er1
 ade:	1b 91       	subs	#4,er1
 ae0:	0f c0       	mov.l	er4,er0
 ae2:	5e 00 09 16 	jsr	@0x916:24

00000ae6 <.LVL20>:
 ae6:	0d 00       	mov.w	r0,r0
 ae8:	4d 22       	blt	.+34 (0xb0c)

00000aea <.LM49>:
/home/dram.c:127 (discriminator 2)
    puts("\x08\x08\x08\x08\x08\x08\x08\x08");
 aea:	7a 00 00 00 	mov.l	#0xffb,er0
 aee:	0f fb 
 af0:	5e 00 05 26 	jsr	@0x526:24

00000af4 <.LM50>:
/home/dram.c:111
  for (p = (uint32 *)DRAM_START; p < (uint32 *)DRAM_END; p++) {
 af4:	0b 94       	adds	#4,er4
 af6:	7a 24 00 60 	cmp.l	#0x600000,er4
 afa:	00 00 
 afc:	46 9a       	bne	.-102 (0xa98)

00000afe <.LM51>:
/home/dram.c:129
  puts("\nall check OK.\n");
 afe:	7a 00 00 00 	mov.l	#0x1004,er0
 b02:	10 04 
 b04:	5e 00 05 26 	jsr	@0x526:24

00000b08 <.LM52>:
/home/dram.c:130
  return 0;
 b08:	19 00       	sub.w	r0,r0
 b0a:	40 24       	bra	.+36 (0xb30)

00000b0c <.L14>:
/home/dram.c:133
  puts("\nERROR: ");
 b0c:	7a 00 00 00 	mov.l	#0x1014,er0
 b10:	10 14 
 b12:	5e 00 05 26 	jsr	@0x526:24

00000b16 <.LM54>:
/home/dram.c:134
  putxval((unsigned long)*p, 8);
 b16:	79 01 00 08 	mov.w	#0x8,r1
 b1a:	01 00 69 40 	mov.l	@er4,er0
 b1e:	5e 00 05 90 	jsr	@0x590:24

00000b22 <.LM55>:
/home/dram.c:135
  puts("\n");
 b22:	7a 00 00 00 	mov.l	#0xf65,er0
 b26:	0f 65 
 b28:	5e 00 05 26 	jsr	@0x526:24

00000b2c <.LM56>:
/home/dram.c:136
  return -1;
 b2c:	79 00 ff ff 	mov.w	#0xffff,r0

00000b30 <.L13>:
/home/dram.c:137
}
 b30:	0b 97       	adds	#4,er7
 b32:	01 00 6d 74 	mov.l	@er7+,er4
 b36:	01 00 6d 76 	mov.l	@er7+,er6
 b3a:	54 70       	rts	

00000b3c <_dram_check2>:
dram_check2():
/home/dram.c:147

int dram_check2()
{
 b3c:	01 00 6d f6 	mov.l	er6,@-er7
 b40:	0f f6       	mov.l	er7,er6
 b42:	01 00 6d f4 	mov.l	er4,@-er7
 b46:	01 00 6d f5 	mov.l	er5,@-er7
 b4a:	7a 37 00 00 	sub.l	#0x2c,er7
 b4e:	00 2c 

00000b50 <.LM59>:
/home/dram.c:150
  uint32 *p;
  int ret = 0, i;
  uint32 (*getval[])(uint32 *) = {
 b50:	1a a2       	sub.l	er2,er2
 b52:	8a 1c       	add.b	#0x1c,r2l
 b54:	7a 01 00 00 	mov.l	#0xf00,er1
 b58:	0f 00 
 b5a:	0f e0       	mov.l	er6,er0
 b5c:	7a 30 00 00 	sub.l	#0x24,er0
 b60:	00 24 
 b62:	5e 00 03 9e 	jsr	@0x39e:24

00000b66 <.LVL29>:
 b66:	0f e2       	mov.l	er6,er2
 b68:	7a 32 00 00 	sub.l	#0x24,er2
 b6c:	00 24 
 b6e:	01 00 6f e2 	mov.l	er2,@(0xffd4:16,er6)
 b72:	ff d4 

00000b74 <.LM60>:
/home/dram.c:160
    dram_check2_val4,
    dram_check2_val5,
    NULL
  };

  for (i = 0; getval[i]; i++) {
 b74:	1a d5       	sub.l	er5,er5

00000b76 <.LM61>:
/home/dram.c:149
  int ret = 0, i;
 b76:	19 22       	sub.w	r2,r2
 b78:	6f e2 ff d2 	mov.w	r2,@(0xffd2:16,er6)

00000b7c <.LM62>:
/home/dram.c:160
  for (i = 0; getval[i]; i++) {
 b7c:	58 00 01 02 	bra	.+258 (0xc82)

00000b80 <.L25>:
/home/dram.c:162

    puts("DRAM check pattern: ");
 b80:	7a 00 00 00 	mov.l	#0x101d,er0
 b84:	10 1d 
 b86:	5e 00 05 26 	jsr	@0x526:24

00000b8a <.LM64>:
/home/dram.c:163
    putxval(i, 0);
 b8a:	19 11       	sub.w	r1,r1
 b8c:	0f d0       	mov.l	er5,er0
 b8e:	5e 00 05 90 	jsr	@0x590:24

00000b92 <.LM65>:
/home/dram.c:165

    puts("\nDRAM setting...\n");
 b92:	7a 00 00 00 	mov.l	#0x1032,er0
 b96:	10 32 
 b98:	5e 00 05 26 	jsr	@0x526:24

00000b9c <.LM66>:
/home/dram.c:167

    for (p = (uint32 *)DRAM_START; p < (uint32 *)DRAM_END; p++) {
 b9c:	7a 04 00 40 	mov.l	#0x400000,er4
 ba0:	00 00 

00000ba2 <.L21>:
/home/dram.c:168
      *p = getval[i](p);
 ba2:	0f c0       	mov.l	er4,er0
 ba4:	01 00 6f 62 	mov.l	@(0xffd8:16,er6),er2
 ba8:	ff d8 
 baa:	5d 20       	jsr	@er2

00000bac <.LVL35>:
 bac:	01 00 69 c0 	mov.l	er0,@er4

00000bb0 <.LM68>:
/home/dram.c:169
      if (!((uint32)p & 0xfff)) {
 bb0:	0f c3       	mov.l	er4,er3
 bb2:	e3 0f       	and.b	#0xf,r3h
 bb4:	0d 33       	mov.w	r3,r3
 bb6:	46 14       	bne	.+20 (0xbcc)

00000bb8 <.LM69>:
/home/dram.c:170
	putxval((unsigned long)p, 8);
 bb8:	79 01 00 08 	mov.w	#0x8,r1
 bbc:	0f c0       	mov.l	er4,er0
 bbe:	5e 00 05 90 	jsr	@0x590:24

00000bc2 <.LM70>:
/home/dram.c:171
	puts("\x08\x08\x08\x08\x08\x08\x08\x08");
 bc2:	7a 00 00 00 	mov.l	#0xffb,er0
 bc6:	0f fb 
 bc8:	5e 00 05 26 	jsr	@0x526:24

00000bcc <.L20>:
/home/dram.c:167 (discriminator 2)
    for (p = (uint32 *)DRAM_START; p < (uint32 *)DRAM_END; p++) {
 bcc:	0b 94       	adds	#4,er4
 bce:	7a 24 00 60 	cmp.l	#0x600000,er4
 bd2:	00 00 
 bd4:	46 cc       	bne	.-52 (0xba2)

00000bd6 <.LM72>:
/home/dram.c:175
      }
    }

    puts("\nDRAM checking...\n");
 bd6:	7a 00 00 00 	mov.l	#0x1044,er0
 bda:	10 44 
 bdc:	5e 00 05 26 	jsr	@0x526:24

00000be0 <.LM73>:
/home/dram.c:177

    for (p = (uint32 *)DRAM_START; p < (uint32 *)DRAM_END; p++) {
 be0:	7a 04 00 40 	mov.l	#0x400000,er4
 be4:	00 00 

00000be6 <.L24>:
/home/dram.c:178
      if (*p != getval[i](p)) {
 be6:	01 00 69 43 	mov.l	@er4,er3
 bea:	0f c0       	mov.l	er4,er0
 bec:	01 00 6f e3 	mov.l	er3,@(0xffcc:16,er6)
 bf0:	ff cc 
 bf2:	01 00 6f 62 	mov.l	@(0xffd8:16,er6),er2
 bf6:	ff d8 
 bf8:	5d 20       	jsr	@er2

00000bfa <.LVL41>:
 bfa:	01 00 6f 63 	mov.l	@(0xffcc:16,er6),er3
 bfe:	ff cc 
 c00:	1f 83       	cmp.l	er0,er3
 c02:	47 3c       	beq	.+60 (0xc40)

00000c04 <.LM75>:
/home/dram.c:179
	puts("\nERROR! :");
 c04:	7a 00 00 00 	mov.l	#0x1057,er0
 c08:	10 57 
 c0a:	5e 00 05 26 	jsr	@0x526:24

00000c0e <.LM76>:
/home/dram.c:180
	putxval((unsigned long)p, 8);
 c0e:	79 01 00 08 	mov.w	#0x8,r1
 c12:	0f c0       	mov.l	er4,er0
 c14:	5e 00 05 90 	jsr	@0x590:24

00000c18 <.LM77>:
/home/dram.c:181
	puts(" ");
 c18:	7a 00 00 00 	mov.l	#0x101b,er0
 c1c:	10 1b 
 c1e:	5e 00 05 26 	jsr	@0x526:24

00000c22 <.LM78>:
/home/dram.c:182
	putxval((unsigned long)*p, 8);
 c22:	79 01 00 08 	mov.w	#0x8,r1
 c26:	01 00 69 40 	mov.l	@er4,er0
 c2a:	5e 00 05 90 	jsr	@0x590:24

00000c2e <.LM79>:
/home/dram.c:183
	puts("\n");
 c2e:	7a 00 00 00 	mov.l	#0xf65,er0
 c32:	0f 65 
 c34:	5e 00 05 26 	jsr	@0x526:24

00000c38 <.LM80>:
/home/dram.c:184
	ret = -1;
 c38:	79 02 ff ff 	mov.w	#0xffff,r2
 c3c:	6f e2 ff d2 	mov.w	r2,@(0xffd2:16,er6)

00000c40 <.L22>:
/home/dram.c:186
      }
      if (!((uint32)p & 0xfff)) {
 c40:	0f c3       	mov.l	er4,er3
 c42:	e3 0f       	and.b	#0xf,r3h
 c44:	0d 33       	mov.w	r3,r3
 c46:	46 14       	bne	.+20 (0xc5c)

00000c48 <.LM82>:
/home/dram.c:187
	putxval((unsigned long)p, 8);
 c48:	79 01 00 08 	mov.w	#0x8,r1
 c4c:	0f c0       	mov.l	er4,er0
 c4e:	5e 00 05 90 	jsr	@0x590:24

00000c52 <.LM83>:
/home/dram.c:188
	puts("\x08\x08\x08\x08\x08\x08\x08\x08");
 c52:	7a 00 00 00 	mov.l	#0xffb,er0
 c56:	0f fb 
 c58:	5e 00 05 26 	jsr	@0x526:24

00000c5c <.L23>:
/home/dram.c:177 (discriminator 2)
    for (p = (uint32 *)DRAM_START; p < (uint32 *)DRAM_END; p++) {
 c5c:	0b 94       	adds	#4,er4
 c5e:	7a 24 00 60 	cmp.l	#0x600000,er4
 c62:	00 00 
 c64:	58 60 ff 7e 	bne	.-130 (0xbe6)

00000c68 <.LM85>:
/home/dram.c:192
      }
    }

    puts("\n");
 c68:	7a 00 00 00 	mov.l	#0xf65,er0
 c6c:	0f 65 
 c6e:	5e 00 05 26 	jsr	@0x526:24

00000c72 <.LVL51>:
 c72:	0b 05       	adds	#1,er5
 c74:	01 00 6f 62 	mov.l	@(0xffd4:16,er6),er2
 c78:	ff d4 
 c7a:	0b 92       	adds	#4,er2
 c7c:	01 00 6f e2 	mov.l	er2,@(0xffd4:16,er6)
 c80:	ff d4 

00000c82 <.L19>:
/home/dram.c:160 (discriminator 1)
  for (i = 0; getval[i]; i++) {
 c82:	01 00 6f 62 	mov.l	@(0xffd4:16,er6),er2
 c86:	ff d4 
 c88:	01 00 69 22 	mov.l	@er2,er2
 c8c:	01 00 6f e2 	mov.l	er2,@(0xffd8:16,er6)
 c90:	ff d8 
 c92:	58 60 fe ea 	bne	.-278 (0xb80)

00000c96 <.LM87>:
/home/dram.c:196

  }

  if (ret == 0) {
 c96:	6f 62 ff d2 	mov.w	@(0xffd2:16,er6),r2
 c9a:	46 0a       	bne	.+10 (0xca6)

00000c9c <.LM88>:
/home/dram.c:197
    puts("\nall check OK.\n");
 c9c:	7a 00 00 00 	mov.l	#0x1004,er0
 ca0:	10 04 
 ca2:	5e 00 05 26 	jsr	@0x526:24

00000ca6 <.L18>:
/home/dram.c:201
  }

  return ret;
}
 ca6:	6f 60 ff d2 	mov.w	@(0xffd2:16,er6),r0
 caa:	7a 17 00 00 	add.l	#0x2c,er7
 cae:	00 2c 
 cb0:	01 00 6d 75 	mov.l	@er7+,er5
 cb4:	01 00 6d 74 	mov.l	@er7+,er4
 cb8:	01 00 6d 76 	mov.l	@er7+,er6
 cbc:	54 70       	rts	

00000cbe <_dram_clear>:
dram_clear():
/home/dram.c:204

int dram_clear()
{
 cbe:	01 00 6d f6 	mov.l	er6,@-er7
 cc2:	0f f6       	mov.l	er7,er6

00000cc4 <.LM91>:
/home/dram.c:207
  uint32 *p;

  puts("DRAM clearing...\n");
 cc4:	7a 00 00 00 	mov.l	#0x1061,er0
 cc8:	10 61 
 cca:	5e 00 05 26 	jsr	@0x526:24

00000cce <.LM92>:
/home/dram.c:209

  for (p = (uint32 *)DRAM_START; p < (uint32 *)DRAM_END; p++)
 cce:	7a 02 00 40 	mov.l	#0x400000,er2
 cd2:	00 00 

00000cd4 <.LM93>:
/home/dram.c:210
    *p = 0;
 cd4:	1a b3       	sub.l	er3,er3

00000cd6 <.L30>:
/home/dram.c:210 (discriminator 3)
 cd6:	01 00 69 a3 	mov.l	er3,@er2

00000cda <.LM95>:
/home/dram.c:209
  for (p = (uint32 *)DRAM_START; p < (uint32 *)DRAM_END; p++)
 cda:	0b 92       	adds	#4,er2
 cdc:	7a 22 00 60 	cmp.l	#0x600000,er2
 ce0:	00 00 
 ce2:	46 f2       	bne	.-14 (0xcd6)

00000ce4 <.LM96>:
/home/dram.c:212

  puts("DRAM cleared.\n");
 ce4:	7a 00 00 00 	mov.l	#0x1073,er0
 ce8:	10 73 
 cea:	5e 00 05 26 	jsr	@0x526:24

00000cee <.LM97>:
/home/dram.c:215

  return 0;
}
 cee:	19 00       	sub.w	r0,r0
 cf0:	01 00 6d 76 	mov.l	@er7+,er6
 cf4:	54 70       	rts	

Disassembly of section .text.startup:

00000cf6 <_main>:
main():
/home/main.c:66
  for (i = 0; i < 15000; i++)
    ;
}

int main(void)
{
 cf6:	01 00 6d f6 	mov.l	er6,@-er7
 cfa:	0f f6       	mov.l	er7,er6
 cfc:	7a 37 00 00 	sub.l	#0x8,er7
 d00:	00 08 

00000d02 <.LM2>:
/home/main.c:74
  static unsigned char *loadbuf = NULL;
  char *entry_point;
  void (*f)(void);
  extern int buffer_start; /* リンカ・スクリプトで定義されているバッファ */

  INTR_DISABLE; /* 割込み無効にする */
 d02:	04 c0       	orc	#0xc0,ccr

00000d04 <.LBB8>:
init():
/home/main.c:24
  softvec_init();
 d04:	5e 00 02 b0 	jsr	@0x2b0:24

00000d08 <.LM4>:
/home/main.c:27
  serial_init(SERIAL_DEFAULT_DEVICE);
 d08:	79 00 00 01 	mov.w	#0x1,r0
 d0c:	5e 00 05 fe 	jsr	@0x5fe:24

00000d10 <.LM5>:
/home/main.c:30
  dram_init();
 d10:	5e 00 0a 20 	jsr	@0xa20:24

00000d14 <.LM6>:
main():
/home/main.c:78

  init();

  puts("kzload (kozos boot loader) started.\n");
 d14:	7a 00 00 00 	mov.l	#0xf1c,er0
 d18:	0f 1c 

00000d1a <.L20>:
 d1a:	5e 00 05 26 	jsr	@0x526:24

00000d1e <.L2>:
/home/main.c:81

  while (1) {
    puts("kzload> "); /* プロンプト表示 */
 d1e:	7a 00 00 00 	mov.l	#0xf41,er0
 d22:	0f 41 
 d24:	5e 00 05 26 	jsr	@0x526:24

00000d28 <.LM8>:
/home/main.c:82
    gets(buf); /* シリアルからのコマンド受信 */
 d28:	7a 00 00 ff 	mov.l	#0xffc008,er0
 d2c:	c0 08 
 d2e:	5e 00 05 4a 	jsr	@0x54a:24

00000d32 <.LM9>:
/home/main.c:84

    if (!strcmp(buf, "load")) { /* XMODEMでのファイルのダウンロード */
 d32:	7a 01 00 00 	mov.l	#0xf4a,er1
 d36:	0f 4a 
 d38:	7a 00 00 ff 	mov.l	#0xffc008,er0
 d3c:	c0 08 
 d3e:	5e 00 04 46 	jsr	@0x446:24

00000d42 <.LVL6>:
 d42:	0d 00       	mov.w	r0,r0
 d44:	46 4a       	bne	.+74 (0xd90)

00000d46 <.LM10>:
/home/main.c:85
      loadbuf = (char *)(&buffer_start);
 d46:	7a 02 00 50 	mov.l	#0x500000,er2
 d4a:	00 00 
 d4c:	01 00 6b a2 	mov.l	er2,@0xffc004:32
 d50:	00 ff c0 04 

00000d54 <.LM11>:
/home/main.c:86
      size = xmodem_recv(loadbuf);
 d54:	0f a0       	mov.l	er2,er0
 d56:	5e 00 06 e0 	jsr	@0x6e0:24

00000d5a <.LVL7>:
 d5a:	01 00 6b a0 	mov.l	er0,@0xffc000:32
 d5e:	00 ff c0 00 

00000d62 <.LBB10>:
wait():
/home/main.c:61
  for (i = 0; i < 15000; i++)
 d62:	1a a2       	sub.l	er2,er2
 d64:	40 06       	bra	.+6 (0xd6c)

00000d66 <.L5>:
 d66:	01 00 69 62 	mov.l	@er6,er2
 d6a:	0b 02       	adds	#1,er2

00000d6c <.L21>:
 d6c:	01 00 69 e2 	mov.l	er2,@er6
 d70:	01 00 69 62 	mov.l	@er6,er2
 d74:	7a 22 00 00 	cmp.l	#0x3a97,er2
 d78:	3a 97 
 d7a:	4f ea       	ble	.-22 (0xd66)

00000d7c <.LM13>:
main():
/home/main.c:88
      wait(); /* 転送アプリが終了し端末アプリに制御が戻るまで待ち合わせる */
      if (size < 0) {
 d7c:	0f 80       	mov.l	er0,er0
 d7e:	4c 08       	bge	.+8 (0xd88)

00000d80 <.LM14>:
/home/main.c:89
	puts("\nXMODEM receive error!\n");
 d80:	7a 00 00 00 	mov.l	#0xf4f,er0
 d84:	0f 4f 
 d86:	40 92       	bra	.-110 (0xd1a)

00000d88 <.L6>:
/home/main.c:91
      } else {
	puts("\nXMODEM receive succeeded.\n");
 d88:	7a 00 00 00 	mov.l	#0xf67,er0
 d8c:	0f 67 
 d8e:	40 8a       	bra	.-118 (0xd1a)

00000d90 <.L3>:
/home/main.c:93
      }
    } else if (!strcmp(buf, "dump")) { /* メモリの16進ダンプ出力 */
 d90:	7a 01 00 00 	mov.l	#0xf83,er1
 d94:	0f 83 
 d96:	7a 00 00 ff 	mov.l	#0xffc008,er0
 d9a:	c0 08 
 d9c:	5e 00 04 46 	jsr	@0x446:24

00000da0 <.LVL8>:
 da0:	0d 00       	mov.w	r0,r0
 da2:	58 60 00 9e 	bne	.+158 (0xe44)

00000da6 <.LM17>:
/home/main.c:94
      puts("size: ");
 da6:	7a 00 00 00 	mov.l	#0xf88,er0
 daa:	0f 88 
 dac:	5e 00 05 26 	jsr	@0x526:24

00000db0 <.LM18>:
/home/main.c:95
      putxval(size, 0);
 db0:	19 11       	sub.w	r1,r1
 db2:	01 00 6b 20 	mov.l	@0xffc000:32,er0
 db6:	00 ff c0 00 
 dba:	5e 00 05 90 	jsr	@0x590:24

00000dbe <.LM19>:
/home/main.c:96
      puts("\n");
 dbe:	7a 00 00 00 	mov.l	#0xf65,er0
 dc2:	0f 65 
 dc4:	5e 00 05 26 	jsr	@0x526:24

00000dc8 <.LM20>:
/home/main.c:97
      dump(loadbuf, size);
 dc8:	01 00 6b 25 	mov.l	@0xffc000:32,er5
 dcc:	00 ff c0 00 
 dd0:	01 00 6b 22 	mov.l	@0xffc004:32,er2
 dd4:	00 ff c0 04 
 dd8:	01 00 6f e2 	mov.l	er2,@(0xfffc:16,er6)
 ddc:	ff fc 

00000dde <.LBB12>:
dump():
/home/main.c:40
  if (size < 0) {
 dde:	0f d5       	mov.l	er5,er5
 de0:	4c 52       	bge	.+82 (0xe34)

00000de2 <.LM22>:
/home/main.c:41
    puts("no data.\n");
 de2:	7a 00 00 00 	mov.l	#0xf8f,er0
 de6:	0f 8f 
 de8:	58 00 ff 2e 	bra	.-210 (0xd1a)

00000dec <.L13>:
/home/main.c:45
    putxval(buf[i], 2);
 dec:	79 01 00 02 	mov.w	#0x2,r1
 df0:	01 00 6f 62 	mov.l	@(0xfffc:16,er6),er2
 df4:	ff fc 
 df6:	0a c2       	add.l	er4,er2
 df8:	1a 80       	sub.l	er0,er0
 dfa:	68 28       	mov.b	@er2,r0l
 dfc:	5e 00 05 90 	jsr	@0x590:24

00000e00 <.LM24>:
/home/main.c:46
    if ((i & 0xf) == 15) {
 e00:	1a a2       	sub.l	er2,er2
 e02:	0c ca       	mov.b	r4l,r2l
 e04:	ea 0f       	and.b	#0xf,r2l
 e06:	7a 22 00 00 	cmp.l	#0xf,er2
 e0a:	00 0f 
 e0c:	46 08       	bne	.+8 (0xe16)

00000e0e <.LM25>:
/home/main.c:47
      puts("\n");
 e0e:	7a 00 00 00 	mov.l	#0xf65,er0
 e12:	0f 65 
 e14:	40 16       	bra	.+22 (0xe2c)

00000e16 <.L10>:
/home/main.c:49
      if ((i & 0xf) == 7) puts(" ");
 e16:	da 07       	xor.b	#0x7,r2l
 e18:	0f a2       	mov.l	er2,er2
 e1a:	46 0a       	bne	.+10 (0xe26)
 e1c:	7a 00 00 00 	mov.l	#0x101b,er0
 e20:	10 1b 
 e22:	5e 00 05 26 	jsr	@0x526:24

00000e26 <.L12>:
/home/main.c:50
      puts(" ");
 e26:	7a 00 00 00 	mov.l	#0x101b,er0
 e2a:	10 1b 

00000e2c <.L22>:
 e2c:	5e 00 05 26 	jsr	@0x526:24

00000e30 <.LM28>:
/home/main.c:44
  for (i = 0; i < size; i++) {
 e30:	0b 04       	adds	#1,er4
 e32:	40 02       	bra	.+2 (0xe36)

00000e34 <.L19>:
 e34:	1a c4       	sub.l	er4,er4

00000e36 <.L9>:
 e36:	1f c5       	cmp.l	er4,er5
 e38:	46 b2       	bne	.-78 (0xdec)

00000e3a <.LM29>:
/home/main.c:53
  puts("\n");
 e3a:	7a 00 00 00 	mov.l	#0xf65,er0
 e3e:	0f 65 
 e40:	58 00 fe d6 	bra	.-298 (0xd1a)

00000e44 <.L8>:
main():
/home/main.c:98
    } else if (!strcmp(buf, "run")) { /* ELF形式ファイルの実行 */
 e44:	7a 01 00 00 	mov.l	#0xf99,er1
 e48:	0f 99 
 e4a:	7a 00 00 ff 	mov.l	#0xffc008,er0
 e4e:	c0 08 
 e50:	5e 00 04 46 	jsr	@0x446:24

00000e54 <.LVL21>:
 e54:	0d 00       	mov.w	r0,r0
 e56:	46 3c       	bne	.+60 (0xe94)

00000e58 <.LM31>:
/home/main.c:99
      entry_point = elf_load(loadbuf); /* メモリ上に展開(ロード) */
 e58:	01 00 6b 20 	mov.l	@0xffc004:32,er0
 e5c:	00 ff c0 04 
 e60:	5e 00 08 2e 	jsr	@0x82e:24

00000e64 <.LVL22>:
 e64:	0f 84       	mov.l	er0,er4

00000e66 <.LM32>:
/home/main.c:100
      if (!entry_point) {
 e66:	46 0a       	bne	.+10 (0xe72)

00000e68 <.LM33>:
/home/main.c:101
	puts("run error!\n");
 e68:	7a 00 00 00 	mov.l	#0xf9d,er0
 e6c:	0f 9d 

00000e6e <.LVL24>:
 e6e:	58 00 fe a8 	bra	.-344 (0xd1a)

00000e72 <.L15>:
/home/main.c:103
      } else {
	puts("starting from entry point: ");
 e72:	7a 00 00 00 	mov.l	#0xfa9,er0
 e76:	0f a9 

00000e78 <.LVL26>:
 e78:	5e 00 05 26 	jsr	@0x526:24

00000e7c <.LM35>:
/home/main.c:104
	putxval((unsigned long)entry_point, 0);
 e7c:	19 11       	sub.w	r1,r1
 e7e:	0f c0       	mov.l	er4,er0
 e80:	5e 00 05 90 	jsr	@0x590:24

00000e84 <.LM36>:
/home/main.c:105
	puts("\n");
 e84:	7a 00 00 00 	mov.l	#0xf65,er0
 e88:	0f 65 
 e8a:	5e 00 05 26 	jsr	@0x526:24

00000e8e <.LM37>:
/home/main.c:107
	f = (void (*)(void))entry_point;
	f(); /* ここで，ロードしたプログラムに処理を渡す */
 e8e:	5d 40       	jsr	@er4

00000e90 <.LVL30>:
 e90:	58 00 fe 8a 	bra	.-374 (0xd1e)

00000e94 <.L14>:
/home/main.c:110
	/* ここには返ってこない */
      }
    } else if (!strcmp(buf, "ramchk")) {
 e94:	7a 01 00 00 	mov.l	#0xfc5,er1
 e98:	0f c5 
 e9a:	7a 00 00 ff 	mov.l	#0xffc008,er0
 e9e:	c0 08 
 ea0:	5e 00 04 46 	jsr	@0x446:24

00000ea4 <.LVL32>:
 ea4:	0d 00       	mov.w	r0,r0
 ea6:	46 08       	bne	.+8 (0xeb0)

00000ea8 <.LM39>:
/home/main.c:111
      dram_check();
 ea8:	5e 00 0a 7c 	jsr	@0xa7c:24

00000eac <.LVL33>:
 eac:	58 00 fe 6e 	bra	.-402 (0xd1e)

00000eb0 <.L16>:
/home/main.c:112
    } else if (!strcmp(buf, "ramchk2")) {
 eb0:	7a 01 00 00 	mov.l	#0xfcc,er1
 eb4:	0f cc 
 eb6:	7a 00 00 ff 	mov.l	#0xffc008,er0
 eba:	c0 08 
 ebc:	5e 00 04 46 	jsr	@0x446:24

00000ec0 <.LVL34>:
 ec0:	0d 00       	mov.w	r0,r0
 ec2:	46 08       	bne	.+8 (0xecc)

00000ec4 <.LM41>:
/home/main.c:113
      dram_check2();
 ec4:	5e 00 0b 3c 	jsr	@0xb3c:24

00000ec8 <.LVL35>:
 ec8:	58 00 fe 52 	bra	.-430 (0xd1e)

00000ecc <.L17>:
/home/main.c:114
    } else if (!strcmp(buf, "ramclr")) {
 ecc:	7a 01 00 00 	mov.l	#0xfd4,er1
 ed0:	0f d4 
 ed2:	7a 00 00 ff 	mov.l	#0xffc008,er0
 ed6:	c0 08 
 ed8:	5e 00 04 46 	jsr	@0x446:24

00000edc <.LVL36>:
 edc:	0d 00       	mov.w	r0,r0
 ede:	46 08       	bne	.+8 (0xee8)

00000ee0 <.LM43>:
/home/main.c:115
      dram_clear();
 ee0:	5e 00 0c be 	jsr	@0xcbe:24

00000ee4 <.LVL37>:
 ee4:	58 00 fe 36 	bra	.-458 (0xd1e)

00000ee8 <.L18>:
/home/main.c:117
    } else {
      puts("unknown.\n");
 ee8:	7a 00 00 00 	mov.l	#0xfdb,er0
 eec:	0f db 
 eee:	58 00 fe 28 	bra	.-472 (0xd1a)
