
kozos.elf:     file format elf32-h8300


Disassembly of section .vectors:

00000000 <_vectors>:
   0:	00 40       	.word	H'0,H'40
   2:	01 00       	.word	H'1,H'0
	...
  20:	00 40       	.word	H'0,H'40
  22:	51 3c       	divxu.b	r3h,e4
  24:	00 40       	.word	H'0,H'40
  26:	50 e8       	mulxu.b	r6l,e0
  28:	00 40       	.word	H'0,H'40
  2a:	50 e8       	mulxu.b	r6l,e0
  2c:	00 40       	.word	H'0,H'40
  2e:	50 e8       	mulxu.b	r6l,e0
	...
  44:	00 40       	.word	H'0,H'40
  46:	52 38       	.word	H'52,H'38
	...
  90:	00 40       	.word	H'0,H'40
  92:	51 e4       	divxu.b	r6l,r4
  94:	00 40       	.word	H'0,H'40
  96:	51 e4       	divxu.b	r6l,r4
  98:	00 40       	.word	H'0,H'40
  9a:	51 e4       	divxu.b	r6l,r4
  9c:	00 40       	.word	H'0,H'40
  9e:	51 e4       	divxu.b	r6l,r4
  a0:	00 40       	.word	H'0,H'40
  a2:	51 e4       	divxu.b	r6l,r4
  a4:	00 40       	.word	H'0,H'40
  a6:	51 e4       	divxu.b	r6l,r4
  a8:	00 40       	.word	H'0,H'40
  aa:	51 e4       	divxu.b	r6l,r4
  ac:	00 40       	.word	H'0,H'40
  ae:	51 e4       	divxu.b	r6l,r4
	...
  d0:	00 40       	.word	H'0,H'40
  d2:	51 90       	divxu.b	r1l,r0
  d4:	00 40       	.word	H'0,H'40
  d6:	51 90       	divxu.b	r1l,r0
  d8:	00 40       	.word	H'0,H'40
  da:	51 90       	divxu.b	r1l,r0
  dc:	00 40       	.word	H'0,H'40
  de:	51 90       	divxu.b	r1l,r0
  e0:	00 40       	.word	H'0,H'40
  e2:	51 90       	divxu.b	r1l,r0
  e4:	00 40       	.word	H'0,H'40
  e6:	51 90       	divxu.b	r1l,r0
  e8:	00 40       	.word	H'0,H'40
  ea:	51 90       	divxu.b	r1l,r0
  ec:	00 40       	.word	H'0,H'40
  ee:	51 90       	divxu.b	r1l,r0
  f0:	00 40       	.word	H'0,H'40
  f2:	51 90       	divxu.b	r1l,r0
  f4:	00 40       	.word	H'0,H'40
  f6:	51 90       	divxu.b	r1l,r0
  f8:	00 40       	.word	H'0,H'40
  fa:	51 90       	divxu.b	r1l,r0
  fc:	00 40       	.word	H'0,H'40
  fe:	51 90       	divxu.b	r1l,r0

Disassembly of section .text:

00400100 <_start>:
_text_start():
  400100:	7a 07 00 ff 	mov.l	#0xffff00,er7
  400104:	ff 00 
  400106:	5e 40 03 20 	jsr	@0x400320:24

0040010a <.L11>:
.L11():
  40010a:	40 fe       	bra	.-2 (0x40010a)

0040010c <_dispatch>:
_dispatch():
  40010c:	01 00 69 07 	mov.l	@er0,er7
  400110:	01 00 6d 70 	mov.l	@er7+,er0
  400114:	01 00 6d 71 	mov.l	@er7+,er1
  400118:	01 00 6d 72 	mov.l	@er7+,er2
  40011c:	01 00 6d 73 	mov.l	@er7+,er3
  400120:	01 00 6d 74 	mov.l	@er7+,er4
  400124:	01 00 6d 75 	mov.l	@er7+,er5
  400128:	01 00 6d 76 	mov.l	@er7+,er6
  40012c:	56 70       	rte	

0040012e <_start_threads>:
start_threads():
/home/main.c:9
#include "serial.h"
#include "lib.h"

/* システム・タスクとユーザ・タスクの起動 */
static int start_threads(int argc, char *argv[])
{
  40012e:	01 00 6d f6 	mov.l	er6,@-er7
  400132:	0f f6       	mov.l	er7,er6
  400134:	7a 37 00 00 	sub.l	#0x8,er7
  400138:	00 08 
  40013a:	6f e0 ff fe 	mov.w	r0,@(0xfffe:16,er6)
  40013e:	01 00 6f e1 	mov.l	er1,@(0xfff8:16,er6)
  400142:	ff f8 

00400144 <.LM2>:
/home/main.c:10
  kz_run(consdrv_main,  "consdrv",  1, 0x100, 0, NULL);
  400144:	1a a2       	sub.l	er2,er2
  400146:	01 00 6d f2 	mov.l	er2,@-er7
  40014a:	0f f2       	mov.l	er7,er2
  40014c:	1b 92       	subs	#4,er2
  40014e:	0f a7       	mov.l	er2,er7
  400150:	19 22       	sub.w	r2,r2
  400152:	6f f2 00 02 	mov.w	r2,@(0x2:16,er7)
  400156:	0f f2       	mov.l	er7,er2
  400158:	1b 92       	subs	#4,er2
  40015a:	0f a7       	mov.l	er2,er7
  40015c:	79 02 01 00 	mov.w	#0x100,r2
  400160:	6f f2 00 02 	mov.w	r2,@(0x2:16,er7)
  400164:	79 02 00 01 	mov.w	#0x1,r2
  400168:	7a 01 00 40 	mov.l	#0x40528c,er1
  40016c:	52 8c 
  40016e:	7a 00 00 40 	mov.l	#0x404b0c,er0
  400172:	4b 0c 
  400174:	5e 40 27 c4 	jsr	@0x4027c4:24
  400178:	7a 17 00 00 	add.l	#0xc,er7
  40017c:	00 0c 

0040017e <.LM3>:
/home/main.c:11
  kz_run(command_main,  "command",  8, 0x100, 0, NULL);
  40017e:	1a a2       	sub.l	er2,er2
  400180:	01 00 6d f2 	mov.l	er2,@-er7
  400184:	0f f2       	mov.l	er7,er2
  400186:	1b 92       	subs	#4,er2
  400188:	0f a7       	mov.l	er2,er7
  40018a:	19 22       	sub.w	r2,r2
  40018c:	6f f2 00 02 	mov.w	r2,@(0x2:16,er7)
  400190:	0f f2       	mov.l	er7,er2
  400192:	1b 92       	subs	#4,er2
  400194:	0f a7       	mov.l	er2,er7
  400196:	79 02 01 00 	mov.w	#0x100,r2
  40019a:	6f f2 00 02 	mov.w	r2,@(0x2:16,er7)
  40019e:	79 02 00 08 	mov.w	#0x8,r2
  4001a2:	7a 01 00 40 	mov.l	#0x405294,er1
  4001a6:	52 94 
  4001a8:	7a 00 00 40 	mov.l	#0x40304e,er0
  4001ac:	30 4e 
  4001ae:	5e 40 27 c4 	jsr	@0x4027c4:24
  4001b2:	7a 17 00 00 	add.l	#0xc,er7
  4001b6:	00 0c 

004001b8 <.LM4>:
/home/main.c:12
  kz_run(timerdrv_main, "timerdrv", 2, 0x100, 0, NULL);
  4001b8:	1a a2       	sub.l	er2,er2
  4001ba:	01 00 6d f2 	mov.l	er2,@-er7
  4001be:	0f f2       	mov.l	er7,er2
  4001c0:	1b 92       	subs	#4,er2
  4001c2:	0f a7       	mov.l	er2,er7
  4001c4:	19 22       	sub.w	r2,r2
  4001c6:	6f f2 00 02 	mov.w	r2,@(0x2:16,er7)
  4001ca:	0f f2       	mov.l	er7,er2
  4001cc:	1b 92       	subs	#4,er2
  4001ce:	0f a7       	mov.l	er2,er7
  4001d0:	79 02 01 00 	mov.w	#0x100,r2
  4001d4:	6f f2 00 02 	mov.w	r2,@(0x2:16,er7)
  4001d8:	79 02 00 02 	mov.w	#0x2,r2
  4001dc:	7a 01 00 40 	mov.l	#0x40529c,er1
  4001e0:	52 9c 
  4001e2:	7a 00 00 40 	mov.l	#0x404eca,er0
  4001e6:	4e ca 
  4001e8:	5e 40 27 c4 	jsr	@0x4027c4:24
  4001ec:	7a 17 00 00 	add.l	#0xc,er7
  4001f0:	00 0c 

004001f2 <.LM5>:
/home/main.c:16
#if 0
  kz_run(clock_main,    "clock",    9, 0x100, 0, NULL);
#endif
  kz_run(netdrv_main,   "netdrv",  10, 0x100, 0, NULL);
  4001f2:	1a a2       	sub.l	er2,er2
  4001f4:	01 00 6d f2 	mov.l	er2,@-er7
  4001f8:	0f f2       	mov.l	er7,er2
  4001fa:	1b 92       	subs	#4,er2
  4001fc:	0f a7       	mov.l	er2,er7
  4001fe:	19 22       	sub.w	r2,r2
  400200:	6f f2 00 02 	mov.w	r2,@(0x2:16,er7)
  400204:	0f f2       	mov.l	er7,er2
  400206:	1b 92       	subs	#4,er2
  400208:	0f a7       	mov.l	er2,er7
  40020a:	79 02 01 00 	mov.w	#0x100,r2
  40020e:	6f f2 00 02 	mov.w	r2,@(0x2:16,er7)
  400212:	79 02 00 0a 	mov.w	#0xa,r2
  400216:	7a 01 00 40 	mov.l	#0x4052a5,er1
  40021a:	52 a5 
  40021c:	7a 00 00 40 	mov.l	#0x405098,er0
  400220:	50 98 
  400222:	5e 40 27 c4 	jsr	@0x4027c4:24
  400226:	7a 17 00 00 	add.l	#0xc,er7
  40022a:	00 0c 

0040022c <.LM6>:
/home/main.c:17
  kz_run(ethernet_main, "ethernet",11, 0x100, 0, NULL);
  40022c:	1a a2       	sub.l	er2,er2
  40022e:	01 00 6d f2 	mov.l	er2,@-er7
  400232:	0f f2       	mov.l	er7,er2
  400234:	1b 92       	subs	#4,er2
  400236:	0f a7       	mov.l	er2,er7
  400238:	19 22       	sub.w	r2,r2
  40023a:	6f f2 00 02 	mov.w	r2,@(0x2:16,er7)
  40023e:	0f f2       	mov.l	er7,er2
  400240:	1b 92       	subs	#4,er2
  400242:	0f a7       	mov.l	er2,er7
  400244:	79 02 01 00 	mov.w	#0x100,r2
  400248:	6f f2 00 02 	mov.w	r2,@(0x2:16,er7)
  40024c:	79 02 00 0b 	mov.w	#0xb,r2
  400250:	7a 01 00 40 	mov.l	#0x4052ac,er1
  400254:	52 ac 
  400256:	7a 00 00 40 	mov.l	#0x403554,er0
  40025a:	35 54 
  40025c:	5e 40 27 c4 	jsr	@0x4027c4:24
  400260:	7a 17 00 00 	add.l	#0xc,er7
  400264:	00 0c 

00400266 <.LM7>:
/home/main.c:18
  kz_run(arp_main,      "arp",     11, 0x100, 0, NULL);
  400266:	1a a2       	sub.l	er2,er2
  400268:	01 00 6d f2 	mov.l	er2,@-er7
  40026c:	0f f2       	mov.l	er7,er2
  40026e:	1b 92       	subs	#4,er2
  400270:	0f a7       	mov.l	er2,er7
  400272:	19 22       	sub.w	r2,r2
  400274:	6f f2 00 02 	mov.w	r2,@(0x2:16,er7)
  400278:	0f f2       	mov.l	er7,er2
  40027a:	1b 92       	subs	#4,er2
  40027c:	0f a7       	mov.l	er2,er7
  40027e:	79 02 01 00 	mov.w	#0x100,r2
  400282:	6f f2 00 02 	mov.w	r2,@(0x2:16,er7)
  400286:	79 02 00 0b 	mov.w	#0xb,r2
  40028a:	7a 01 00 40 	mov.l	#0x4052b5,er1
  40028e:	52 b5 
  400290:	7a 00 00 40 	mov.l	#0x403be4,er0
  400294:	3b e4 
  400296:	5e 40 27 c4 	jsr	@0x4027c4:24
  40029a:	7a 17 00 00 	add.l	#0xc,er7
  40029e:	00 0c 

004002a0 <.LM8>:
/home/main.c:19
  kz_run(ip_main,       "ip",      12, 0x100, 0, NULL);
  4002a0:	1a a2       	sub.l	er2,er2
  4002a2:	01 00 6d f2 	mov.l	er2,@-er7
  4002a6:	0f f2       	mov.l	er7,er2
  4002a8:	1b 92       	subs	#4,er2
  4002aa:	0f a7       	mov.l	er2,er7
  4002ac:	19 22       	sub.w	r2,r2
  4002ae:	6f f2 00 02 	mov.w	r2,@(0x2:16,er7)
  4002b2:	0f f2       	mov.l	er7,er2
  4002b4:	1b 92       	subs	#4,er2
  4002b6:	0f a7       	mov.l	er2,er7
  4002b8:	79 02 01 00 	mov.w	#0x100,r2
  4002bc:	6f f2 00 02 	mov.w	r2,@(0x2:16,er7)
  4002c0:	79 02 00 0c 	mov.w	#0xc,r2
  4002c4:	7a 01 00 40 	mov.l	#0x4052b9,er1
  4002c8:	52 b9 
  4002ca:	7a 00 00 40 	mov.l	#0x404118,er0
  4002ce:	41 18 
  4002d0:	5e 40 27 c4 	jsr	@0x4027c4:24
  4002d4:	7a 17 00 00 	add.l	#0xc,er7
  4002d8:	00 0c 

004002da <.LM9>:
/home/main.c:20
  kz_run(icmp_main,     "icmp",    12, 0x100, 0, NULL);
  4002da:	1a a2       	sub.l	er2,er2
  4002dc:	01 00 6d f2 	mov.l	er2,@-er7
  4002e0:	0f f2       	mov.l	er7,er2
  4002e2:	1b 92       	subs	#4,er2
  4002e4:	0f a7       	mov.l	er2,er7
  4002e6:	19 22       	sub.w	r2,r2
  4002e8:	6f f2 00 02 	mov.w	r2,@(0x2:16,er7)
  4002ec:	0f f2       	mov.l	er7,er2
  4002ee:	1b 92       	subs	#4,er2
  4002f0:	0f a7       	mov.l	er2,er7
  4002f2:	79 02 01 00 	mov.w	#0x100,r2
  4002f6:	6f f2 00 02 	mov.w	r2,@(0x2:16,er7)
  4002fa:	79 02 00 0c 	mov.w	#0xc,r2
  4002fe:	7a 01 00 40 	mov.l	#0x4052bc,er1
  400302:	52 bc 
  400304:	7a 00 00 40 	mov.l	#0x40459c,er0
  400308:	45 9c 
  40030a:	5e 40 27 c4 	jsr	@0x4027c4:24
  40030e:	7a 17 00 00 	add.l	#0xc,er7
  400312:	00 0c 

00400314 <.LM10>:
/home/main.c:22

  kz_chpri(15); /* 優先順位を下げて，アイドルスレッドに移行する */
  400314:	79 00 00 0f 	mov.w	#0xf,r0
  400318:	5e 40 29 2c 	jsr	@0x40292c:24

0040031c <.LM11>:
/home/main.c:23
  INTR_ENABLE; /* 割込み有効にする */
  40031c:	06 3f       	andc	#0x3f,ccr

0040031e <.L2>:
/home/main.c:24 (discriminator 1)
  while (1) {
  40031e:	40 fe       	bra	.-2 (0x40031e)

00400320 <_main>:
main():
/home/main.c:34

  return 0;
}

int main(void)
{
  400320:	01 00 6d f6 	mov.l	er6,@-er7
  400324:	0f f6       	mov.l	er7,er6

00400326 <.LM14>:
/home/main.c:35
  INTR_DISABLE; /* 割込み無効にする */
  400326:	04 c0       	orc	#0xc0,ccr

00400328 <.LM15>:
/home/main.c:40

#ifdef SIMULATOR
  extern int bss_start, ebss;

  memset(&bss_start, 0, (long)&ebss - (long)&bss_start);
  400328:	7a 03 00 40 	mov.l	#0x4059d6,er3
  40032c:	59 d6 
  40032e:	7a 02 00 40 	mov.l	#0x405400,er2
  400332:	54 00 
  400334:	0f b0       	mov.l	er3,er0
  400336:	1a a0       	sub.l	er2,er0
  400338:	0f 82       	mov.l	er0,er2
  40033a:	19 11       	sub.w	r1,r1
  40033c:	7a 00 00 40 	mov.l	#0x405400,er0
  400340:	54 00 
  400342:	5e 40 04 76 	jsr	@0x400476:24

00400346 <.LM16>:
/home/main.c:43

  /* ソフトウエア・割り込みベクタを初期化する */
  softvec_init();
  400346:	5e 40 03 9e 	jsr	@0x40039e:24

0040034a <.LM17>:
/home/main.c:46

  /* シリアルの初期化 */
  serial_init(SERIAL_DEFAULT_DEVICE);
  40034a:	79 00 00 01 	mov.w	#0x1,r0
  40034e:	5e 40 0b 10 	jsr	@0x400b10:24

00400352 <.LM18>:
/home/main.c:54
  /* DRAMの初期化 */
  dram_init();
#endif
#endif

  puts("kozos boot succeed!\n");
  400352:	7a 00 00 40 	mov.l	#0x4052c1,er0
  400356:	52 c1 
  400358:	5e 40 09 94 	jsr	@0x400994:24

0040035c <.LM19>:
/home/main.c:57

  /* OSの動作開始 */
  kz_start(start_threads, "idle", 0, 0x100, 0, NULL);
  40035c:	1a a2       	sub.l	er2,er2
  40035e:	01 00 6d f2 	mov.l	er2,@-er7
  400362:	0f f2       	mov.l	er7,er2
  400364:	1b 92       	subs	#4,er2
  400366:	0f a7       	mov.l	er2,er7
  400368:	19 22       	sub.w	r2,r2
  40036a:	6f f2 00 02 	mov.w	r2,@(0x2:16,er7)
  40036e:	0f f2       	mov.l	er7,er2
  400370:	1b 92       	subs	#4,er2
  400372:	0f a7       	mov.l	er2,er7
  400374:	79 02 01 00 	mov.w	#0x100,r2
  400378:	6f f2 00 02 	mov.w	r2,@(0x2:16,er7)
  40037c:	19 22       	sub.w	r2,r2
  40037e:	7a 01 00 40 	mov.l	#0x4052d6,er1
  400382:	52 d6 
  400384:	7a 00 00 40 	mov.l	#0x40012e,er0
  400388:	01 2e 
  40038a:	5e 40 26 40 	jsr	@0x402640:24
  40038e:	7a 17 00 00 	add.l	#0xc,er7
  400392:	00 0c 

00400394 <.LM20>:
/home/main.c:60
  /* ここには戻ってこない */

  return 0;
  400394:	19 22       	sub.w	r2,r2

00400396 <.LM21>:
/home/main.c:61
}
  400396:	0d 20       	mov.w	r2,r0
  400398:	01 00 6d 76 	mov.l	@er7+,er6
  40039c:	54 70       	rts	

0040039e <_softvec_init>:
softvec_init():
/home/interrupt.c:7
#include "intr.h"
#include "interrupt.h"

/* ソフトウエア・割込みベクタの初期化 */
int softvec_init(void)
{
  40039e:	01 00 6d f6 	mov.l	er6,@-er7
  4003a2:	0f f6       	mov.l	er7,er6
  4003a4:	1b 97       	subs	#4,er7

004003a6 <.LM2>:
/home/interrupt.c:9
  int type;
  for (type = 0; type < SOFTVEC_TYPE_NUM; type++)
  4003a6:	19 22       	sub.w	r2,r2
  4003a8:	6f e2 ff fe 	mov.w	r2,@(0xfffe:16,er6)
  4003ac:	40 16       	bra	.+22 (0x4003c4)

004003ae <.L3>:
/home/interrupt.c:10 (discriminator 3)
    softvec_setintr(type, NULL);
  4003ae:	6f 62 ff fe 	mov.w	@(0xfffe:16,er6),r2
  4003b2:	1a 91       	sub.l	er1,er1
  4003b4:	0d 20       	mov.w	r2,r0
  4003b6:	5e 40 03 da 	jsr	@0x4003da:24

004003ba <.LM4>:
/home/interrupt.c:9
  for (type = 0; type < SOFTVEC_TYPE_NUM; type++)
  4003ba:	6f 62 ff fe 	mov.w	@(0xfffe:16,er6),r2
  4003be:	0b 02       	adds	#1,er2
  4003c0:	6f e2 ff fe 	mov.w	r2,@(0xfffe:16,er6)

004003c4 <.L2>:
/home/interrupt.c:9 (discriminator 1)
  4003c4:	6f 62 ff fe 	mov.w	@(0xfffe:16,er6),r2
  4003c8:	79 22 00 04 	cmp.w	#0x4,r2
  4003cc:	4f e0       	ble	.-32 (0x4003ae)

004003ce <.LM6>:
/home/interrupt.c:11
  return 0;
  4003ce:	19 22       	sub.w	r2,r2

004003d0 <.LM7>:
/home/interrupt.c:12
}
  4003d0:	0d 20       	mov.w	r2,r0
  4003d2:	0b 97       	adds	#4,er7
  4003d4:	01 00 6d 76 	mov.l	@er7+,er6
  4003d8:	54 70       	rts	

004003da <_softvec_setintr>:
softvec_setintr():
/home/interrupt.c:16

/* ソフトウエア・割込みベクタの設定 */
int softvec_setintr(softvec_type_t type, softvec_handler_t handler)
{
  4003da:	01 00 6d f6 	mov.l	er6,@-er7
  4003de:	0f f6       	mov.l	er7,er6
  4003e0:	7a 37 00 00 	sub.l	#0x8,er7
  4003e4:	00 08 
  4003e6:	6f e0 ff fe 	mov.w	r0,@(0xfffe:16,er6)
  4003ea:	01 00 6f e1 	mov.l	er1,@(0xfff8:16,er6)
  4003ee:	ff f8 

004003f0 <.LM9>:
/home/interrupt.c:17
  SOFTVECS[type] = handler;
  4003f0:	6f 62 ff fe 	mov.w	@(0xfffe:16,er6),r2
  4003f4:	17 f2       	exts.l	er2
  4003f6:	10 32       	shll.l	er2
  4003f8:	10 32       	shll.l	er2
  4003fa:	7a 12 00 ff 	add.l	#0xffbf20,er2
  4003fe:	bf 20 
  400400:	01 00 6f 63 	mov.l	@(0xfff8:16,er6),er3
  400404:	ff f8 
  400406:	01 00 69 a3 	mov.l	er3,@er2

0040040a <.LM10>:
/home/interrupt.c:18
  return 0;
  40040a:	19 22       	sub.w	r2,r2

0040040c <.LM11>:
/home/interrupt.c:19
}
  40040c:	0d 20       	mov.w	r2,r0
  40040e:	0b 97       	adds	#4,er7
  400410:	0b 97       	adds	#4,er7
  400412:	01 00 6d 76 	mov.l	@er7+,er6
  400416:	54 70       	rts	

00400418 <_interrupt>:
interrupt():
/home/interrupt.c:26
/*
 * 共通割込みハンドラ．
 * ソフトウエア・割込みベクタを見て，各ハンドラに分岐する．
 */
void interrupt(softvec_type_t type, unsigned long sp)
{
  400418:	01 00 6d f6 	mov.l	er6,@-er7
  40041c:	0f f6       	mov.l	er7,er6
  40041e:	7a 37 00 00 	sub.l	#0xc,er7
  400422:	00 0c 
  400424:	6f e0 ff fa 	mov.w	r0,@(0xfffa:16,er6)
  400428:	01 00 6f e1 	mov.l	er1,@(0xfff4:16,er6)
  40042c:	ff f4 

0040042e <.LM13>:
/home/interrupt.c:27
  softvec_handler_t handler = SOFTVECS[type];
  40042e:	6f 62 ff fa 	mov.w	@(0xfffa:16,er6),r2
  400432:	17 f2       	exts.l	er2
  400434:	10 32       	shll.l	er2
  400436:	10 32       	shll.l	er2
  400438:	7a 12 00 ff 	add.l	#0xffbf20,er2
  40043c:	bf 20 
  40043e:	01 00 69 22 	mov.l	@er2,er2
  400442:	01 00 6f e2 	mov.l	er2,@(0xfffc:16,er6)
  400446:	ff fc 

00400448 <.LM14>:
/home/interrupt.c:28
  if (handler)
  400448:	01 00 6f 62 	mov.l	@(0xfffc:16,er6),er2
  40044c:	ff fc 
  40044e:	0f a2       	mov.l	er2,er2
  400450:	47 16       	beq	.+22 (0x400468)

00400452 <.LM15>:
/home/interrupt.c:29
    handler(type, sp);
  400452:	01 00 6f 60 	mov.l	@(0xfff4:16,er6),er0
  400456:	ff f4 
  400458:	6f 63 ff fa 	mov.w	@(0xfffa:16,er6),r3
  40045c:	01 00 6f 62 	mov.l	@(0xfffc:16,er6),er2
  400460:	ff fc 
  400462:	0f 81       	mov.l	er0,er1
  400464:	0d 30       	mov.w	r3,r0
  400466:	5d 20       	jsr	@er2

00400468 <.L9>:
/home/interrupt.c:30
}
  400468:	00 00       	nop	
  40046a:	7a 17 00 00 	add.l	#0xc,er7
  40046e:	00 0c 
  400470:	01 00 6d 76 	mov.l	@er7+,er6
  400474:	54 70       	rts	

00400476 <_memset>:
memset():
/home/lib.c:6
#include "defines.h"
#include "serial.h"
#include "lib.h"

void *memset(void *b, int c, long len)
{
  400476:	01 00 6d f6 	mov.l	er6,@-er7
  40047a:	0f f6       	mov.l	er7,er6
  40047c:	7a 37 00 00 	sub.l	#0x10,er7
  400480:	00 10 
  400482:	01 00 6f e0 	mov.l	er0,@(0xfff8:16,er6)
  400486:	ff f8 
  400488:	6f e1 ff f6 	mov.w	r1,@(0xfff6:16,er6)
  40048c:	01 00 6f e2 	mov.l	er2,@(0xfff0:16,er6)
  400490:	ff f0 

00400492 <.LM2>:
/home/lib.c:8
  char *p;
  for (p = b; len > 0; len--)
  400492:	01 00 6f 62 	mov.l	@(0xfff8:16,er6),er2
  400496:	ff f8 
  400498:	01 00 6f e2 	mov.l	er2,@(0xfffc:16,er6)
  40049c:	ff fc 
  40049e:	40 24       	bra	.+36 (0x4004c4)

004004a0 <.L3>:
/home/lib.c:9 (discriminator 3)
    *(p++) = c;
  4004a0:	01 00 6f 62 	mov.l	@(0xfffc:16,er6),er2
  4004a4:	ff fc 
  4004a6:	0f a3       	mov.l	er2,er3
  4004a8:	0b 03       	adds	#1,er3
  4004aa:	01 00 6f e3 	mov.l	er3,@(0xfffc:16,er6)
  4004ae:	ff fc 
  4004b0:	6f 63 ff f6 	mov.w	@(0xfff6:16,er6),r3
  4004b4:	68 ab       	mov.b	r3l,@er2

004004b6 <.LM4>:
/home/lib.c:8
  for (p = b; len > 0; len--)
  4004b6:	01 00 6f 62 	mov.l	@(0xfff0:16,er6),er2
  4004ba:	ff f0 
  4004bc:	1b 02       	subs	#1,er2
  4004be:	01 00 6f e2 	mov.l	er2,@(0xfff0:16,er6)
  4004c2:	ff f0 

004004c4 <.L2>:
/home/lib.c:8 (discriminator 1)
  4004c4:	01 00 6f 62 	mov.l	@(0xfff0:16,er6),er2
  4004c8:	ff f0 
  4004ca:	0f a2       	mov.l	er2,er2
  4004cc:	4e d2       	bgt	.-46 (0x4004a0)

004004ce <.LM6>:
/home/lib.c:10
  return b;
  4004ce:	01 00 6f 62 	mov.l	@(0xfff8:16,er6),er2
  4004d2:	ff f8 

004004d4 <.LM7>:
/home/lib.c:11
}
  4004d4:	0f a0       	mov.l	er2,er0
  4004d6:	7a 17 00 00 	add.l	#0x10,er7
  4004da:	00 10 
  4004dc:	01 00 6d 76 	mov.l	@er7+,er6
  4004e0:	54 70       	rts	

004004e2 <_memcpy>:
memcpy():
/home/lib.c:14

void *memcpy(void *dst, const void *src, long len)
{
  4004e2:	01 00 6d f6 	mov.l	er6,@-er7
  4004e6:	0f f6       	mov.l	er7,er6
  4004e8:	7a 37 00 00 	sub.l	#0x14,er7
  4004ec:	00 14 
  4004ee:	01 00 6f e0 	mov.l	er0,@(0xfff4:16,er6)
  4004f2:	ff f4 
  4004f4:	01 00 6f e1 	mov.l	er1,@(0xfff0:16,er6)
  4004f8:	ff f0 
  4004fa:	01 00 6f e2 	mov.l	er2,@(0xffec:16,er6)
  4004fe:	ff ec 

00400500 <.LM9>:
/home/lib.c:15
  char *d = dst;
  400500:	01 00 6f 62 	mov.l	@(0xfff4:16,er6),er2
  400504:	ff f4 
  400506:	01 00 6f e2 	mov.l	er2,@(0xfffc:16,er6)
  40050a:	ff fc 

0040050c <.LM10>:
/home/lib.c:16
  const char *s = src;
  40050c:	01 00 6f 62 	mov.l	@(0xfff0:16,er6),er2
  400510:	ff f0 
  400512:	01 00 6f e2 	mov.l	er2,@(0xfff8:16,er6)
  400516:	ff f8 

00400518 <.LM11>:
/home/lib.c:17
  for (; len > 0; len--)
  400518:	40 32       	bra	.+50 (0x40054c)

0040051a <.L7>:
/home/lib.c:18 (discriminator 2)
    *(d++) = *(s++);
  40051a:	01 00 6f 63 	mov.l	@(0xfff8:16,er6),er3
  40051e:	ff f8 
  400520:	0f b2       	mov.l	er3,er2
  400522:	0b 02       	adds	#1,er2
  400524:	01 00 6f e2 	mov.l	er2,@(0xfff8:16,er6)
  400528:	ff f8 
  40052a:	01 00 6f 62 	mov.l	@(0xfffc:16,er6),er2
  40052e:	ff fc 
  400530:	0f a0       	mov.l	er2,er0
  400532:	0b 00       	adds	#1,er0
  400534:	01 00 6f e0 	mov.l	er0,@(0xfffc:16,er6)
  400538:	ff fc 
  40053a:	68 3b       	mov.b	@er3,r3l
  40053c:	68 ab       	mov.b	r3l,@er2

0040053e <.LM13>:
/home/lib.c:17
  for (; len > 0; len--)
  40053e:	01 00 6f 62 	mov.l	@(0xffec:16,er6),er2
  400542:	ff ec 
  400544:	1b 02       	subs	#1,er2
  400546:	01 00 6f e2 	mov.l	er2,@(0xffec:16,er6)
  40054a:	ff ec 

0040054c <.L6>:
/home/lib.c:17 (discriminator 1)
  40054c:	01 00 6f 62 	mov.l	@(0xffec:16,er6),er2
  400550:	ff ec 
  400552:	0f a2       	mov.l	er2,er2
  400554:	4e c4       	bgt	.-60 (0x40051a)

00400556 <.LM15>:
/home/lib.c:19
  return dst;
  400556:	01 00 6f 62 	mov.l	@(0xfff4:16,er6),er2
  40055a:	ff f4 

0040055c <.LM16>:
/home/lib.c:20
}
  40055c:	0f a0       	mov.l	er2,er0
  40055e:	7a 17 00 00 	add.l	#0x14,er7
  400562:	00 14 
  400564:	01 00 6d 76 	mov.l	@er7+,er6
  400568:	54 70       	rts	

0040056a <_memmove>:
memmove():
/home/lib.c:23

void *memmove(void *dst, const void *src, long len)
{
  40056a:	01 00 6d f6 	mov.l	er6,@-er7
  40056e:	0f f6       	mov.l	er7,er6
  400570:	7a 37 00 00 	sub.l	#0x14,er7
  400574:	00 14 
  400576:	01 00 6f e0 	mov.l	er0,@(0xfff4:16,er6)
  40057a:	ff f4 
  40057c:	01 00 6f e1 	mov.l	er1,@(0xfff0:16,er6)
  400580:	ff f0 
  400582:	01 00 6f e2 	mov.l	er2,@(0xffec:16,er6)
  400586:	ff ec 

00400588 <.LM18>:
/home/lib.c:24
  char *d = dst;
  400588:	01 00 6f 62 	mov.l	@(0xfff4:16,er6),er2
  40058c:	ff f4 
  40058e:	01 00 6f e2 	mov.l	er2,@(0xfffc:16,er6)
  400592:	ff fc 

00400594 <.LM19>:
/home/lib.c:25
  const char *s = src;
  400594:	01 00 6f 62 	mov.l	@(0xfff0:16,er6),er2
  400598:	ff f0 
  40059a:	01 00 6f e2 	mov.l	er2,@(0xfff8:16,er6)
  40059e:	ff f8 

004005a0 <.LM20>:
/home/lib.c:27

  if (d < s) {
  4005a0:	01 00 6f 63 	mov.l	@(0xfffc:16,er6),er3
  4005a4:	ff fc 
  4005a6:	01 00 6f 62 	mov.l	@(0xfff8:16,er6),er2
  4005aa:	ff f8 
  4005ac:	1f a3       	cmp.l	er2,er3
  4005ae:	44 40       	bcc	.+64 (0x4005f0)

004005b0 <.LM21>:
/home/lib.c:28
    for (; len > 0; len--)
  4005b0:	40 32       	bra	.+50 (0x4005e4)

004005b2 <.L12>:
/home/lib.c:29 (discriminator 2)
      *(d++) = *(s++);
  4005b2:	01 00 6f 63 	mov.l	@(0xfff8:16,er6),er3
  4005b6:	ff f8 
  4005b8:	0f b2       	mov.l	er3,er2
  4005ba:	0b 02       	adds	#1,er2
  4005bc:	01 00 6f e2 	mov.l	er2,@(0xfff8:16,er6)
  4005c0:	ff f8 
  4005c2:	01 00 6f 62 	mov.l	@(0xfffc:16,er6),er2
  4005c6:	ff fc 
  4005c8:	0f a0       	mov.l	er2,er0
  4005ca:	0b 00       	adds	#1,er0
  4005cc:	01 00 6f e0 	mov.l	er0,@(0xfffc:16,er6)
  4005d0:	ff fc 
  4005d2:	68 3b       	mov.b	@er3,r3l
  4005d4:	68 ab       	mov.b	r3l,@er2

004005d6 <.LM23>:
/home/lib.c:28
    for (; len > 0; len--)
  4005d6:	01 00 6f 62 	mov.l	@(0xffec:16,er6),er2
  4005da:	ff ec 
  4005dc:	1b 02       	subs	#1,er2
  4005de:	01 00 6f e2 	mov.l	er2,@(0xffec:16,er6)
  4005e2:	ff ec 

004005e4 <.L11>:
/home/lib.c:28 (discriminator 1)
  4005e4:	01 00 6f 62 	mov.l	@(0xffec:16,er6),er2
  4005e8:	ff ec 
  4005ea:	0f a2       	mov.l	er2,er2
  4005ec:	4e c4       	bgt	.-60 (0x4005b2)
  4005ee:	40 6e       	bra	.+110 (0x40065e)

004005f0 <.L10>:
/home/lib.c:31
  } else {
    d += len;
  4005f0:	01 00 6f 62 	mov.l	@(0xffec:16,er6),er2
  4005f4:	ff ec 
  4005f6:	01 00 6f 63 	mov.l	@(0xfffc:16,er6),er3
  4005fa:	ff fc 
  4005fc:	0a b2       	add.l	er3,er2
  4005fe:	01 00 6f e2 	mov.l	er2,@(0xfffc:16,er6)
  400602:	ff fc 

00400604 <.LM26>:
/home/lib.c:32
    s += len;
  400604:	01 00 6f 62 	mov.l	@(0xffec:16,er6),er2
  400608:	ff ec 
  40060a:	01 00 6f 63 	mov.l	@(0xfff8:16,er6),er3
  40060e:	ff f8 
  400610:	0a b2       	add.l	er3,er2
  400612:	01 00 6f e2 	mov.l	er2,@(0xfff8:16,er6)
  400616:	ff f8 

00400618 <.LM27>:
/home/lib.c:33
    for (; len > 0; len--)
  400618:	40 3a       	bra	.+58 (0x400654)

0040061a <.L15>:
/home/lib.c:34 (discriminator 2)
      *(--d) = *(--s);
  40061a:	01 00 6f 62 	mov.l	@(0xfff8:16,er6),er2
  40061e:	ff f8 
  400620:	1b 02       	subs	#1,er2
  400622:	01 00 6f e2 	mov.l	er2,@(0xfff8:16,er6)
  400626:	ff f8 
  400628:	01 00 6f 62 	mov.l	@(0xfffc:16,er6),er2
  40062c:	ff fc 
  40062e:	1b 02       	subs	#1,er2
  400630:	01 00 6f e2 	mov.l	er2,@(0xfffc:16,er6)
  400634:	ff fc 
  400636:	01 00 6f 62 	mov.l	@(0xfff8:16,er6),er2
  40063a:	ff f8 
  40063c:	68 2b       	mov.b	@er2,r3l
  40063e:	01 00 6f 62 	mov.l	@(0xfffc:16,er6),er2
  400642:	ff fc 
  400644:	68 ab       	mov.b	r3l,@er2

00400646 <.LM29>:
/home/lib.c:33
    for (; len > 0; len--)
  400646:	01 00 6f 62 	mov.l	@(0xffec:16,er6),er2
  40064a:	ff ec 
  40064c:	1b 02       	subs	#1,er2
  40064e:	01 00 6f e2 	mov.l	er2,@(0xffec:16,er6)
  400652:	ff ec 

00400654 <.L14>:
/home/lib.c:33 (discriminator 1)
  400654:	01 00 6f 62 	mov.l	@(0xffec:16,er6),er2
  400658:	ff ec 
  40065a:	0f a2       	mov.l	er2,er2
  40065c:	4e bc       	bgt	.-68 (0x40061a)

0040065e <.L13>:
/home/lib.c:37
  }

  return dst;
  40065e:	01 00 6f 62 	mov.l	@(0xfff4:16,er6),er2
  400662:	ff f4 

00400664 <.LM32>:
/home/lib.c:38
}
  400664:	0f a0       	mov.l	er2,er0
  400666:	7a 17 00 00 	add.l	#0x14,er7
  40066a:	00 14 
  40066c:	01 00 6d 76 	mov.l	@er7+,er6
  400670:	54 70       	rts	

00400672 <_memcmp>:
memcmp():
/home/lib.c:41

int memcmp(const void *b1, const void *b2, long len)
{
  400672:	01 00 6d f6 	mov.l	er6,@-er7
  400676:	0f f6       	mov.l	er7,er6
  400678:	7a 37 00 00 	sub.l	#0x14,er7
  40067c:	00 14 
  40067e:	01 00 6f e0 	mov.l	er0,@(0xfff4:16,er6)
  400682:	ff f4 
  400684:	01 00 6f e1 	mov.l	er1,@(0xfff0:16,er6)
  400688:	ff f0 
  40068a:	01 00 6f e2 	mov.l	er2,@(0xffec:16,er6)
  40068e:	ff ec 

00400690 <.LM34>:
/home/lib.c:42
  const char *p1 = b1, *p2 = b2;
  400690:	01 00 6f 62 	mov.l	@(0xfff4:16,er6),er2
  400694:	ff f4 
  400696:	01 00 6f e2 	mov.l	er2,@(0xfffc:16,er6)
  40069a:	ff fc 
  40069c:	01 00 6f 62 	mov.l	@(0xfff0:16,er6),er2
  4006a0:	ff f0 
  4006a2:	01 00 6f e2 	mov.l	er2,@(0xfff8:16,er6)
  4006a6:	ff f8 

004006a8 <.LM35>:
/home/lib.c:43
  for (; len > 0; len--) {
  4006a8:	40 5e       	bra	.+94 (0x400708)

004006aa <.L23>:
/home/lib.c:44
    if (*p1 != *p2)
  4006aa:	01 00 6f 62 	mov.l	@(0xfffc:16,er6),er2
  4006ae:	ff fc 
  4006b0:	68 2b       	mov.b	@er2,r3l
  4006b2:	01 00 6f 62 	mov.l	@(0xfff8:16,er6),er2
  4006b6:	ff f8 
  4006b8:	68 2a       	mov.b	@er2,r2l
  4006ba:	1c ab       	cmp.b	r2l,r3l
  4006bc:	47 20       	beq	.+32 (0x4006de)

004006be <.LM37>:
/home/lib.c:45
      return (*p1 > *p2) ? 1 : -1;
  4006be:	01 00 6f 62 	mov.l	@(0xfffc:16,er6),er2
  4006c2:	ff fc 
  4006c4:	68 2b       	mov.b	@er2,r3l
  4006c6:	01 00 6f 62 	mov.l	@(0xfff8:16,er6),er2
  4006ca:	ff f8 
  4006cc:	68 2a       	mov.b	@er2,r2l
  4006ce:	1c ab       	cmp.b	r2l,r3l
  4006d0:	43 06       	bls	.+6 (0x4006d8)

004006d2 <.LM38>:
/home/lib.c:45 (discriminator 1)
  4006d2:	79 02 00 01 	mov.w	#0x1,r2
  4006d6:	40 3c       	bra	.+60 (0x400714)

004006d8 <.L20>:
/home/lib.c:45 (discriminator 2)
  4006d8:	79 02 ff ff 	mov.w	#0xffff,r2
  4006dc:	40 36       	bra	.+54 (0x400714)

004006de <.L19>:
/home/lib.c:46
    p1++;
  4006de:	01 00 6f 62 	mov.l	@(0xfffc:16,er6),er2
  4006e2:	ff fc 
  4006e4:	0b 02       	adds	#1,er2
  4006e6:	01 00 6f e2 	mov.l	er2,@(0xfffc:16,er6)
  4006ea:	ff fc 

004006ec <.LM41>:
/home/lib.c:47
    p2++;
  4006ec:	01 00 6f 62 	mov.l	@(0xfff8:16,er6),er2
  4006f0:	ff f8 
  4006f2:	0b 02       	adds	#1,er2
  4006f4:	01 00 6f e2 	mov.l	er2,@(0xfff8:16,er6)
  4006f8:	ff f8 

004006fa <.LM42>:
/home/lib.c:43
  for (; len > 0; len--) {
  4006fa:	01 00 6f 62 	mov.l	@(0xffec:16,er6),er2
  4006fe:	ff ec 
  400700:	1b 02       	subs	#1,er2
  400702:	01 00 6f e2 	mov.l	er2,@(0xffec:16,er6)
  400706:	ff ec 

00400708 <.L18>:
/home/lib.c:43 (discriminator 1)
  400708:	01 00 6f 62 	mov.l	@(0xffec:16,er6),er2
  40070c:	ff ec 
  40070e:	0f a2       	mov.l	er2,er2
  400710:	4e 98       	bgt	.-104 (0x4006aa)

00400712 <.LM44>:
/home/lib.c:49
  }
  return 0;
  400712:	19 22       	sub.w	r2,r2

00400714 <.L22>:
/home/lib.c:50
}
  400714:	0d 20       	mov.w	r2,r0
  400716:	7a 17 00 00 	add.l	#0x14,er7
  40071a:	00 14 
  40071c:	01 00 6d 76 	mov.l	@er7+,er6
  400720:	54 70       	rts	

00400722 <_strlen>:
strlen():
/home/lib.c:53

int strlen(const char *s)
{
  400722:	01 00 6d f6 	mov.l	er6,@-er7
  400726:	0f f6       	mov.l	er7,er6
  400728:	7a 37 00 00 	sub.l	#0x8,er7
  40072c:	00 08 
  40072e:	01 00 6f e0 	mov.l	er0,@(0xfff8:16,er6)
  400732:	ff f8 

00400734 <.LM47>:
/home/lib.c:55
  int len;
  for (len = 0; *s; s++, len++)
  400734:	19 22       	sub.w	r2,r2
  400736:	6f e2 ff fe 	mov.w	r2,@(0xfffe:16,er6)
  40073a:	40 18       	bra	.+24 (0x400754)

0040073c <.L26>:
/home/lib.c:55 (discriminator 3)
  40073c:	01 00 6f 62 	mov.l	@(0xfff8:16,er6),er2
  400740:	ff f8 
  400742:	0b 02       	adds	#1,er2
  400744:	01 00 6f e2 	mov.l	er2,@(0xfff8:16,er6)
  400748:	ff f8 
  40074a:	6f 62 ff fe 	mov.w	@(0xfffe:16,er6),r2
  40074e:	0b 02       	adds	#1,er2
  400750:	6f e2 ff fe 	mov.w	r2,@(0xfffe:16,er6)

00400754 <.L25>:
/home/lib.c:55 (discriminator 1)
  400754:	01 00 6f 62 	mov.l	@(0xfff8:16,er6),er2
  400758:	ff f8 
  40075a:	68 2a       	mov.b	@er2,r2l
  40075c:	0c aa       	mov.b	r2l,r2l
  40075e:	46 dc       	bne	.-36 (0x40073c)

00400760 <.LM50>:
/home/lib.c:57
    ;
  return len;
  400760:	6f 62 ff fe 	mov.w	@(0xfffe:16,er6),r2

00400764 <.LM51>:
/home/lib.c:58
}
  400764:	0d 20       	mov.w	r2,r0
  400766:	0b 97       	adds	#4,er7
  400768:	0b 97       	adds	#4,er7
  40076a:	01 00 6d 76 	mov.l	@er7+,er6
  40076e:	54 70       	rts	

00400770 <_strcpy>:
strcpy():
/home/lib.c:61

char *strcpy(char *dst, const char *src)
{
  400770:	01 00 6d f6 	mov.l	er6,@-er7
  400774:	0f f6       	mov.l	er7,er6
  400776:	7a 37 00 00 	sub.l	#0xc,er7
  40077a:	00 0c 
  40077c:	01 00 6f e0 	mov.l	er0,@(0xfff8:16,er6)
  400780:	ff f8 
  400782:	01 00 6f e1 	mov.l	er1,@(0xfff4:16,er6)
  400786:	ff f4 

00400788 <.LM53>:
/home/lib.c:62
  char *d = dst;
  400788:	01 00 6f 62 	mov.l	@(0xfff8:16,er6),er2
  40078c:	ff f8 
  40078e:	01 00 6f e2 	mov.l	er2,@(0xfffc:16,er6)
  400792:	ff fc 

00400794 <.L31>:
/home/lib.c:64
  for (;; dst++, src++) {
    *dst = *src;
  400794:	01 00 6f 62 	mov.l	@(0xfff4:16,er6),er2
  400798:	ff f4 
  40079a:	68 2b       	mov.b	@er2,r3l
  40079c:	01 00 6f 62 	mov.l	@(0xfff8:16,er6),er2
  4007a0:	ff f8 
  4007a2:	68 ab       	mov.b	r3l,@er2

004007a4 <.LM55>:
/home/lib.c:65
    if (!*src) break;
  4007a4:	01 00 6f 62 	mov.l	@(0xfff4:16,er6),er2
  4007a8:	ff f4 
  4007aa:	68 2a       	mov.b	@er2,r2l
  4007ac:	0c aa       	mov.b	r2l,r2l
  4007ae:	47 1e       	beq	.+30 (0x4007ce)

004007b0 <.LM56>:
/home/lib.c:63
  for (;; dst++, src++) {
  4007b0:	01 00 6f 62 	mov.l	@(0xfff8:16,er6),er2
  4007b4:	ff f8 
  4007b6:	0b 02       	adds	#1,er2
  4007b8:	01 00 6f e2 	mov.l	er2,@(0xfff8:16,er6)
  4007bc:	ff f8 
  4007be:	01 00 6f 62 	mov.l	@(0xfff4:16,er6),er2
  4007c2:	ff f4 
  4007c4:	0b 02       	adds	#1,er2
  4007c6:	01 00 6f e2 	mov.l	er2,@(0xfff4:16,er6)
  4007ca:	ff f4 

004007cc <.LM57>:
/home/lib.c:64
    *dst = *src;
  4007cc:	40 c6       	bra	.-58 (0x400794)

004007ce <.L34>:
	...

004007d0 <.LM59>:
/home/lib.c:67
  }
  return d;
  4007d0:	01 00 6f 62 	mov.l	@(0xfffc:16,er6),er2
  4007d4:	ff fc 

004007d6 <.LM60>:
/home/lib.c:68
}
  4007d6:	0f a0       	mov.l	er2,er0
  4007d8:	7a 17 00 00 	add.l	#0xc,er7
  4007dc:	00 0c 
  4007de:	01 00 6d 76 	mov.l	@er7+,er6
  4007e2:	54 70       	rts	

004007e4 <_strcmp>:
strcmp():
/home/lib.c:71

int strcmp(const char *s1, const char *s2)
{
  4007e4:	01 00 6d f6 	mov.l	er6,@-er7
  4007e8:	0f f6       	mov.l	er7,er6
  4007ea:	7a 37 00 00 	sub.l	#0x8,er7
  4007ee:	00 08 
  4007f0:	01 00 6f e0 	mov.l	er0,@(0xfffc:16,er6)
  4007f4:	ff fc 
  4007f6:	01 00 6f e1 	mov.l	er1,@(0xfff8:16,er6)
  4007fa:	ff f8 

004007fc <.LM62>:
/home/lib.c:72
  while (*s1 || *s2) {
  4007fc:	40 50       	bra	.+80 (0x40084e)

004007fe <.L41>:
/home/lib.c:73
    if (*s1 != *s2)
  4007fe:	01 00 6f 62 	mov.l	@(0xfffc:16,er6),er2
  400802:	ff fc 
  400804:	68 2b       	mov.b	@er2,r3l
  400806:	01 00 6f 62 	mov.l	@(0xfff8:16,er6),er2
  40080a:	ff f8 
  40080c:	68 2a       	mov.b	@er2,r2l
  40080e:	1c ab       	cmp.b	r2l,r3l
  400810:	47 20       	beq	.+32 (0x400832)

00400812 <.LM64>:
/home/lib.c:74
      return (*s1 > *s2) ? 1 : -1;
  400812:	01 00 6f 62 	mov.l	@(0xfffc:16,er6),er2
  400816:	ff fc 
  400818:	68 2b       	mov.b	@er2,r3l
  40081a:	01 00 6f 62 	mov.l	@(0xfff8:16,er6),er2
  40081e:	ff f8 
  400820:	68 2a       	mov.b	@er2,r2l
  400822:	1c ab       	cmp.b	r2l,r3l
  400824:	43 06       	bls	.+6 (0x40082c)

00400826 <.LM65>:
/home/lib.c:74 (discriminator 1)
  400826:	79 02 00 01 	mov.w	#0x1,r2
  40082a:	40 3c       	bra	.+60 (0x400868)

0040082c <.L38>:
/home/lib.c:74 (discriminator 2)
  40082c:	79 02 ff ff 	mov.w	#0xffff,r2
  400830:	40 36       	bra	.+54 (0x400868)

00400832 <.L37>:
/home/lib.c:75
    s1++;
  400832:	01 00 6f 62 	mov.l	@(0xfffc:16,er6),er2
  400836:	ff fc 
  400838:	0b 02       	adds	#1,er2
  40083a:	01 00 6f e2 	mov.l	er2,@(0xfffc:16,er6)
  40083e:	ff fc 

00400840 <.LM68>:
/home/lib.c:76
    s2++;
  400840:	01 00 6f 62 	mov.l	@(0xfff8:16,er6),er2
  400844:	ff f8 
  400846:	0b 02       	adds	#1,er2
  400848:	01 00 6f e2 	mov.l	er2,@(0xfff8:16,er6)
  40084c:	ff f8 

0040084e <.L36>:
/home/lib.c:72
  while (*s1 || *s2) {
  40084e:	01 00 6f 62 	mov.l	@(0xfffc:16,er6),er2
  400852:	ff fc 
  400854:	68 2a       	mov.b	@er2,r2l
  400856:	0c aa       	mov.b	r2l,r2l
  400858:	46 a4       	bne	.-92 (0x4007fe)

0040085a <.LM70>:
/home/lib.c:72 (discriminator 1)
  40085a:	01 00 6f 62 	mov.l	@(0xfff8:16,er6),er2
  40085e:	ff f8 
  400860:	68 2a       	mov.b	@er2,r2l
  400862:	0c aa       	mov.b	r2l,r2l
  400864:	46 98       	bne	.-104 (0x4007fe)

00400866 <.LM71>:
/home/lib.c:78
  }
  return 0;
  400866:	19 22       	sub.w	r2,r2

00400868 <.L40>:
/home/lib.c:79
}
  400868:	0d 20       	mov.w	r2,r0
  40086a:	0b 97       	adds	#4,er7
  40086c:	0b 97       	adds	#4,er7
  40086e:	01 00 6d 76 	mov.l	@er7+,er6
  400872:	54 70       	rts	

00400874 <_strncmp>:
strncmp():
/home/lib.c:82

int strncmp(const char *s1, const char *s2, int len)
{
  400874:	01 00 6d f6 	mov.l	er6,@-er7
  400878:	0f f6       	mov.l	er7,er6
  40087a:	7a 37 00 00 	sub.l	#0xc,er7
  40087e:	00 0c 
  400880:	01 00 6f e0 	mov.l	er0,@(0xfffc:16,er6)
  400884:	ff fc 
  400886:	01 00 6f e1 	mov.l	er1,@(0xfff8:16,er6)
  40088a:	ff f8 
  40088c:	6f e2 ff f6 	mov.w	r2,@(0xfff6:16,er6)

00400890 <.LM74>:
/home/lib.c:83
  while ((*s1 || *s2) && (len > 0)) {
  400890:	40 5a       	bra	.+90 (0x4008ec)

00400892 <.L50>:
/home/lib.c:84
    if (*s1 != *s2)
  400892:	01 00 6f 62 	mov.l	@(0xfffc:16,er6),er2
  400896:	ff fc 
  400898:	68 2b       	mov.b	@er2,r3l
  40089a:	01 00 6f 62 	mov.l	@(0xfff8:16,er6),er2
  40089e:	ff f8 
  4008a0:	68 2a       	mov.b	@er2,r2l
  4008a2:	1c ab       	cmp.b	r2l,r3l
  4008a4:	47 20       	beq	.+32 (0x4008c6)

004008a6 <.LM76>:
/home/lib.c:85
      return (*s1 > *s2) ? 1 : -1;
  4008a6:	01 00 6f 62 	mov.l	@(0xfffc:16,er6),er2
  4008aa:	ff fc 
  4008ac:	68 2b       	mov.b	@er2,r3l
  4008ae:	01 00 6f 62 	mov.l	@(0xfff8:16,er6),er2
  4008b2:	ff f8 
  4008b4:	68 2a       	mov.b	@er2,r2l
  4008b6:	1c ab       	cmp.b	r2l,r3l
  4008b8:	43 06       	bls	.+6 (0x4008c0)

004008ba <.LM77>:
/home/lib.c:85 (discriminator 1)
  4008ba:	79 02 00 01 	mov.w	#0x1,r2
  4008be:	40 4e       	bra	.+78 (0x40090e)

004008c0 <.L45>:
/home/lib.c:85 (discriminator 2)
  4008c0:	79 02 ff ff 	mov.w	#0xffff,r2
  4008c4:	40 48       	bra	.+72 (0x40090e)

004008c6 <.L44>:
/home/lib.c:86
    s1++;
  4008c6:	01 00 6f 62 	mov.l	@(0xfffc:16,er6),er2
  4008ca:	ff fc 
  4008cc:	0b 02       	adds	#1,er2
  4008ce:	01 00 6f e2 	mov.l	er2,@(0xfffc:16,er6)
  4008d2:	ff fc 

004008d4 <.LM80>:
/home/lib.c:87
    s2++;
  4008d4:	01 00 6f 62 	mov.l	@(0xfff8:16,er6),er2
  4008d8:	ff f8 
  4008da:	0b 02       	adds	#1,er2
  4008dc:	01 00 6f e2 	mov.l	er2,@(0xfff8:16,er6)
  4008e0:	ff f8 

004008e2 <.LM81>:
/home/lib.c:88
    len--;
  4008e2:	6f 62 ff f6 	mov.w	@(0xfff6:16,er6),r2
  4008e6:	1b 02       	subs	#1,er2
  4008e8:	6f e2 ff f6 	mov.w	r2,@(0xfff6:16,er6)

004008ec <.L43>:
/home/lib.c:83
  while ((*s1 || *s2) && (len > 0)) {
  4008ec:	01 00 6f 62 	mov.l	@(0xfffc:16,er6),er2
  4008f0:	ff fc 
  4008f2:	68 2a       	mov.b	@er2,r2l
  4008f4:	0c aa       	mov.b	r2l,r2l
  4008f6:	46 0c       	bne	.+12 (0x400904)

004008f8 <.LM83>:
/home/lib.c:83 (discriminator 2)
  4008f8:	01 00 6f 62 	mov.l	@(0xfff8:16,er6),er2
  4008fc:	ff f8 
  4008fe:	68 2a       	mov.b	@er2,r2l
  400900:	0c aa       	mov.b	r2l,r2l
  400902:	47 08       	beq	.+8 (0x40090c)

00400904 <.L48>:
/home/lib.c:83 (discriminator 3)
  400904:	6f 62 ff f6 	mov.w	@(0xfff6:16,er6),r2
  400908:	0d 22       	mov.w	r2,r2
  40090a:	4e 86       	bgt	.-122 (0x400892)

0040090c <.L49>:
/home/lib.c:90
  }
  return 0;
  40090c:	19 22       	sub.w	r2,r2

0040090e <.L47>:
/home/lib.c:91
}
  40090e:	0d 20       	mov.w	r2,r0
  400910:	7a 17 00 00 	add.l	#0xc,er7
  400914:	00 0c 
  400916:	01 00 6d 76 	mov.l	@er7+,er6
  40091a:	54 70       	rts	

0040091c <_putc>:
putc():
/home/lib.c:95

/* １文字送信 */
int putc(unsigned char c)
{
  40091c:	01 00 6d f6 	mov.l	er6,@-er7
  400920:	0f f6       	mov.l	er7,er6
  400922:	1b 97       	subs	#4,er7
  400924:	6e e8 ff ff 	mov.b	r0l,@(0xffff:16,er6)

00400928 <.LM88>:
/home/lib.c:96
  if (c == '\n')
  400928:	6e 6a ff ff 	mov.b	@(0xffff:16,er6),r2l
  40092c:	aa 0a       	cmp.b	#0xa,r2l
  40092e:	46 0a       	bne	.+10 (0x40093a)

00400930 <.LM89>:
/home/lib.c:97
    serial_send_byte(SERIAL_DEFAULT_DEVICE, '\r');
  400930:	f9 0d       	mov.b	#0xd,r1l
  400932:	79 00 00 01 	mov.w	#0x1,r0
  400936:	5e 40 0b c8 	jsr	@0x400bc8:24

0040093a <.L52>:
/home/lib.c:98
  return serial_send_byte(SERIAL_DEFAULT_DEVICE, c);
  40093a:	6e 6a ff ff 	mov.b	@(0xffff:16,er6),r2l
  40093e:	0c a9       	mov.b	r2l,r1l
  400940:	79 00 00 01 	mov.w	#0x1,r0
  400944:	5e 40 0b c8 	jsr	@0x400bc8:24
  400948:	0d 02       	mov.w	r0,r2

0040094a <.LM91>:
/home/lib.c:99
}
  40094a:	0d 20       	mov.w	r2,r0
  40094c:	0b 97       	adds	#4,er7
  40094e:	01 00 6d 76 	mov.l	@er7+,er6
  400952:	54 70       	rts	

00400954 <_getc>:
getc():
/home/lib.c:103

/* １文字受信 */
unsigned char getc(void)
{
  400954:	01 00 6d f6 	mov.l	er6,@-er7
  400958:	0f f6       	mov.l	er7,er6
  40095a:	1b 97       	subs	#4,er7

0040095c <.LM93>:
/home/lib.c:104
  unsigned char c = serial_recv_byte(SERIAL_DEFAULT_DEVICE);
  40095c:	79 00 00 01 	mov.w	#0x1,r0
  400960:	5e 40 0c 82 	jsr	@0x400c82:24
  400964:	6e e8 ff ff 	mov.b	r0l,@(0xffff:16,er6)

00400968 <.LM94>:
/home/lib.c:105
  c = (c == '\r') ? '\n' : c;
  400968:	6e 6a ff ff 	mov.b	@(0xffff:16,er6),r2l
  40096c:	aa 0d       	cmp.b	#0xd,r2l
  40096e:	47 06       	beq	.+6 (0x400976)

00400970 <.LM95>:
/home/lib.c:105 (discriminator 1)
  400970:	6e 6a ff ff 	mov.b	@(0xffff:16,er6),r2l
  400974:	40 02       	bra	.+2 (0x400978)

00400976 <.L55>:
/home/lib.c:105 (discriminator 2)
  400976:	fa 0a       	mov.b	#0xa,r2l

00400978 <.L56>:
/home/lib.c:105 (discriminator 4)
  400978:	6e ea ff ff 	mov.b	r2l,@(0xffff:16,er6)

0040097c <.LM98>:
/home/lib.c:106
  putc(c); /* エコー・バック */
  40097c:	6e 6a ff ff 	mov.b	@(0xffff:16,er6),r2l
  400980:	0c a8       	mov.b	r2l,r0l
  400982:	5e 40 09 1c 	jsr	@0x40091c:24

00400986 <.LM99>:
/home/lib.c:107
  return c;
  400986:	6e 6a ff ff 	mov.b	@(0xffff:16,er6),r2l

0040098a <.LM100>:
/home/lib.c:108
}
  40098a:	0c a8       	mov.b	r2l,r0l
  40098c:	0b 97       	adds	#4,er7
  40098e:	01 00 6d 76 	mov.l	@er7+,er6
  400992:	54 70       	rts	

00400994 <_puts>:
puts():
/home/lib.c:112

/* 文字列送信 */
int puts(unsigned char *str)
{
  400994:	01 00 6d f6 	mov.l	er6,@-er7
  400998:	0f f6       	mov.l	er7,er6
  40099a:	1b 97       	subs	#4,er7
  40099c:	01 00 6f e0 	mov.l	er0,@(0xfffc:16,er6)
  4009a0:	ff fc 

004009a2 <.LM102>:
/home/lib.c:113
  while (*str)
  4009a2:	40 18       	bra	.+24 (0x4009bc)

004009a4 <.L60>:
/home/lib.c:114
    putc(*(str++));
  4009a4:	01 00 6f 62 	mov.l	@(0xfffc:16,er6),er2
  4009a8:	ff fc 
  4009aa:	0f a3       	mov.l	er2,er3
  4009ac:	0b 03       	adds	#1,er3
  4009ae:	01 00 6f e3 	mov.l	er3,@(0xfffc:16,er6)
  4009b2:	ff fc 
  4009b4:	68 2a       	mov.b	@er2,r2l
  4009b6:	0c a8       	mov.b	r2l,r0l
  4009b8:	5e 40 09 1c 	jsr	@0x40091c:24

004009bc <.L59>:
/home/lib.c:113
  while (*str)
  4009bc:	01 00 6f 62 	mov.l	@(0xfffc:16,er6),er2
  4009c0:	ff fc 
  4009c2:	68 2a       	mov.b	@er2,r2l
  4009c4:	0c aa       	mov.b	r2l,r2l
  4009c6:	46 dc       	bne	.-36 (0x4009a4)

004009c8 <.LM105>:
/home/lib.c:115
  return 0;
  4009c8:	19 22       	sub.w	r2,r2

004009ca <.LM106>:
/home/lib.c:116
}
  4009ca:	0d 20       	mov.w	r2,r0
  4009cc:	0b 97       	adds	#4,er7
  4009ce:	01 00 6d 76 	mov.l	@er7+,er6
  4009d2:	54 70       	rts	

004009d4 <_gets>:
gets():
/home/lib.c:120

/* 文字列受信 */
int gets(unsigned char *buf)
{
  4009d4:	01 00 6d f6 	mov.l	er6,@-er7
  4009d8:	0f f6       	mov.l	er7,er6
  4009da:	7a 37 00 00 	sub.l	#0x8,er7
  4009de:	00 08 
  4009e0:	01 00 6f e0 	mov.l	er0,@(0xfff8:16,er6)
  4009e4:	ff f8 

004009e6 <.LM108>:
/home/lib.c:121
  int i = 0;
  4009e6:	19 22       	sub.w	r2,r2
  4009e8:	6f e2 ff fe 	mov.w	r2,@(0xfffe:16,er6)

004009ec <.L64>:
/home/lib.c:124
  unsigned char c;
  do {
    c = getc();
  4009ec:	5e 40 09 54 	jsr	@0x400954:24
  4009f0:	6e e8 ff fd 	mov.b	r0l,@(0xfffd:16,er6)

004009f4 <.LM110>:
/home/lib.c:125
    if (c == '\n')
  4009f4:	6e 6a ff fd 	mov.b	@(0xfffd:16,er6),r2l
  4009f8:	aa 0a       	cmp.b	#0xa,r2l
  4009fa:	46 06       	bne	.+6 (0x400a02)

004009fc <.LM111>:
/home/lib.c:126
      c = '\0';
  4009fc:	18 aa       	sub.b	r2l,r2l
  4009fe:	6e ea ff fd 	mov.b	r2l,@(0xfffd:16,er6)

00400a02 <.L63>:
/home/lib.c:127
    buf[i++] = c;
  400a02:	6f 62 ff fe 	mov.w	@(0xfffe:16,er6),r2
  400a06:	0d 23       	mov.w	r2,r3
  400a08:	0b 03       	adds	#1,er3
  400a0a:	6f e3 ff fe 	mov.w	r3,@(0xfffe:16,er6)
  400a0e:	17 f2       	exts.l	er2
  400a10:	01 00 6f 63 	mov.l	@(0xfff8:16,er6),er3
  400a14:	ff f8 
  400a16:	0a b2       	add.l	er3,er2
  400a18:	6e 6b ff fd 	mov.b	@(0xfffd:16,er6),r3l
  400a1c:	68 ab       	mov.b	r3l,@er2

00400a1e <.LM113>:
/home/lib.c:128
  } while (c);
  400a1e:	6e 6a ff fd 	mov.b	@(0xfffd:16,er6),r2l
  400a22:	0c aa       	mov.b	r2l,r2l
  400a24:	46 c6       	bne	.-58 (0x4009ec)

00400a26 <.LM114>:
/home/lib.c:129
  return i - 1;
  400a26:	6f 62 ff fe 	mov.w	@(0xfffe:16,er6),r2
  400a2a:	1b 02       	subs	#1,er2

00400a2c <.LM115>:
/home/lib.c:130
}
  400a2c:	0d 20       	mov.w	r2,r0
  400a2e:	0b 97       	adds	#4,er7
  400a30:	0b 97       	adds	#4,er7
  400a32:	01 00 6d 76 	mov.l	@er7+,er6
  400a36:	54 70       	rts	

00400a38 <_putxval>:
putxval():
/home/lib.c:134

/* 数値の16進表示 */
int putxval(unsigned long value, int column)
{
  400a38:	01 00 6d f6 	mov.l	er6,@-er7
  400a3c:	0f f6       	mov.l	er7,er6
  400a3e:	7a 37 00 00 	sub.l	#0x18,er7
  400a42:	00 18 
  400a44:	01 00 6f e0 	mov.l	er0,@(0xffec:16,er6)
  400a48:	ff ec 
  400a4a:	6f e1 ff ea 	mov.w	r1,@(0xffea:16,er6)

00400a4e <.LM117>:
/home/lib.c:138
  char buf[9];
  char *p;

  p = buf + sizeof(buf) - 1;
  400a4e:	0f e2       	mov.l	er6,er2
  400a50:	7a 32 00 00 	sub.l	#0xd,er2
  400a54:	00 0d 
  400a56:	0b 92       	adds	#4,er2
  400a58:	0b 92       	adds	#4,er2
  400a5a:	01 00 6f e2 	mov.l	er2,@(0xfffc:16,er6)
  400a5e:	ff fc 

00400a60 <.LM118>:
/home/lib.c:139
  *(p--) = '\0';
  400a60:	01 00 6f 62 	mov.l	@(0xfffc:16,er6),er2
  400a64:	ff fc 
  400a66:	0f a3       	mov.l	er2,er3
  400a68:	1b 03       	subs	#1,er3
  400a6a:	01 00 6f e3 	mov.l	er3,@(0xfffc:16,er6)
  400a6e:	ff fc 
  400a70:	18 bb       	sub.b	r3l,r3l
  400a72:	68 ab       	mov.b	r3l,@er2

00400a74 <.LM119>:
/home/lib.c:141

  if (!value && !column)
  400a74:	01 00 6f 62 	mov.l	@(0xffec:16,er6),er2
  400a78:	ff ec 
  400a7a:	0f a2       	mov.l	er2,er2
  400a7c:	46 62       	bne	.+98 (0x400ae0)

00400a7e <.LM120>:
/home/lib.c:141 (discriminator 1)
  400a7e:	6f 62 ff ea 	mov.w	@(0xffea:16,er6),r2
  400a82:	0d 22       	mov.w	r2,r2
  400a84:	46 5a       	bne	.+90 (0x400ae0)

00400a86 <.LM121>:
/home/lib.c:142
    column++;
  400a86:	6f 62 ff ea 	mov.w	@(0xffea:16,er6),r2
  400a8a:	0b 02       	adds	#1,er2
  400a8c:	6f e2 ff ea 	mov.w	r2,@(0xffea:16,er6)

00400a90 <.LM122>:
/home/lib.c:144

  while (value || column) {
  400a90:	40 4e       	bra	.+78 (0x400ae0)

00400a92 <.L69>:
/home/lib.c:145
    *(p--) = "0123456789abcdef"[value & 0xf];
  400a92:	01 00 6f 62 	mov.l	@(0xffec:16,er6),er2
  400a96:	ff ec 
  400a98:	0f a3       	mov.l	er2,er3
  400a9a:	7a 63 00 00 	and.l	#0xf,er3
  400a9e:	00 0f 
  400aa0:	01 00 6f 62 	mov.l	@(0xfffc:16,er6),er2
  400aa4:	ff fc 
  400aa6:	0f a0       	mov.l	er2,er0
  400aa8:	1b 00       	subs	#1,er0
  400aaa:	01 00 6f e0 	mov.l	er0,@(0xfffc:16,er6)
  400aae:	ff fc 
  400ab0:	78 30 6a 2b 	mov.b	@(0x4052db:32,er3),r3l
  400ab4:	00 40 52 db 
  400ab8:	68 ab       	mov.b	r3l,@er2

00400aba <.LM124>:
/home/lib.c:146
    value >>= 4;
  400aba:	01 00 6f 62 	mov.l	@(0xffec:16,er6),er2
  400abe:	ff ec 
  400ac0:	11 32       	shlr.l	er2
  400ac2:	11 32       	shlr.l	er2
  400ac4:	11 32       	shlr.l	er2
  400ac6:	11 32       	shlr.l	er2
  400ac8:	01 00 6f e2 	mov.l	er2,@(0xffec:16,er6)
  400acc:	ff ec 

00400ace <.LM125>:
/home/lib.c:147
    if (column) column--;
  400ace:	6f 62 ff ea 	mov.w	@(0xffea:16,er6),r2
  400ad2:	0d 22       	mov.w	r2,r2
  400ad4:	47 0a       	beq	.+10 (0x400ae0)

00400ad6 <.LM126>:
/home/lib.c:147 (discriminator 1)
  400ad6:	6f 62 ff ea 	mov.w	@(0xffea:16,er6),r2
  400ada:	1b 02       	subs	#1,er2
  400adc:	6f e2 ff ea 	mov.w	r2,@(0xffea:16,er6)

00400ae0 <.L68>:
/home/lib.c:144
  while (value || column) {
  400ae0:	01 00 6f 62 	mov.l	@(0xffec:16,er6),er2
  400ae4:	ff ec 
  400ae6:	0f a2       	mov.l	er2,er2
  400ae8:	46 a8       	bne	.-88 (0x400a92)

00400aea <.LM128>:
/home/lib.c:144 (discriminator 1)
  400aea:	6f 62 ff ea 	mov.w	@(0xffea:16,er6),r2
  400aee:	0d 22       	mov.w	r2,r2
  400af0:	46 a0       	bne	.-96 (0x400a92)

00400af2 <.LM129>:
/home/lib.c:150
  }

  puts(p + 1);
  400af2:	01 00 6f 62 	mov.l	@(0xfffc:16,er6),er2
  400af6:	ff fc 
  400af8:	0b 02       	adds	#1,er2
  400afa:	0f a0       	mov.l	er2,er0
  400afc:	5e 40 09 94 	jsr	@0x400994:24

00400b00 <.LM130>:
/home/lib.c:152

  return 0;
  400b00:	19 22       	sub.w	r2,r2

00400b02 <.LM131>:
/home/lib.c:153
}
  400b02:	0d 20       	mov.w	r2,r0
  400b04:	7a 17 00 00 	add.l	#0x18,er7
  400b08:	00 18 
  400b0a:	01 00 6d 76 	mov.l	@er7+,er6
  400b0e:	54 70       	rts	

00400b10 <_serial_init>:
serial_init():
/home/serial.c:59
  { H8_3069F_SCI2 }, 
};

/* デバイス初期化 */
int serial_init(int index)
{
  400b10:	01 00 6d f6 	mov.l	er6,@-er7
  400b14:	0f f6       	mov.l	er7,er6
  400b16:	7a 37 00 00 	sub.l	#0x8,er7
  400b1a:	00 08 
  400b1c:	6f e0 ff fa 	mov.w	r0,@(0xfffa:16,er6)

00400b20 <.LM2>:
/home/serial.c:60
  volatile struct h8_3069f_sci *sci = regs[index].sci;
  400b20:	6f 62 ff fa 	mov.w	@(0xfffa:16,er6),r2
  400b24:	17 f2       	exts.l	er2
  400b26:	10 32       	shll.l	er2
  400b28:	10 32       	shll.l	er2
  400b2a:	7a 12 00 40 	add.l	#0x4053c0,er2
  400b2e:	53 c0 
  400b30:	01 00 69 22 	mov.l	@er2,er2
  400b34:	01 00 6f e2 	mov.l	er2,@(0xfffc:16,er6)
  400b38:	ff fc 

00400b3a <.LM3>:
/home/serial.c:62

  sci->scr = 0;
  400b3a:	01 00 6f 62 	mov.l	@(0xfffc:16,er6),er2
  400b3e:	ff fc 
  400b40:	18 bb       	sub.b	r3l,r3l
  400b42:	6e ab 00 02 	mov.b	r3l,@(0x2:16,er2)

00400b46 <.LM4>:
/home/serial.c:63
  sci->smr = 0;
  400b46:	01 00 6f 62 	mov.l	@(0xfffc:16,er6),er2
  400b4a:	ff fc 
  400b4c:	18 bb       	sub.b	r3l,r3l
  400b4e:	68 ab       	mov.b	r3l,@er2

00400b50 <.LM5>:
/home/serial.c:64
  sci->brr = 64; /* 20MHzのクロックから9600bpsを生成(25MHzの場合は80にする) */
  400b50:	01 00 6f 62 	mov.l	@(0xfffc:16,er6),er2
  400b54:	ff fc 
  400b56:	fb 40       	mov.b	#0x40,r3l
  400b58:	6e ab 00 01 	mov.b	r3l,@(0x1:16,er2)

00400b5c <.LM6>:
/home/serial.c:65
  sci->scr = H8_3069F_SCI_SCR_RE | H8_3069F_SCI_SCR_TE; /* 送受信可能 */
  400b5c:	01 00 6f 62 	mov.l	@(0xfffc:16,er6),er2
  400b60:	ff fc 
  400b62:	fb 30       	mov.b	#0x30,r3l
  400b64:	6e ab 00 02 	mov.b	r3l,@(0x2:16,er2)

00400b68 <.LM7>:
/home/serial.c:66
  sci->ssr = 0;
  400b68:	01 00 6f 62 	mov.l	@(0xfffc:16,er6),er2
  400b6c:	ff fc 
  400b6e:	18 bb       	sub.b	r3l,r3l
  400b70:	6e ab 00 04 	mov.b	r3l,@(0x4:16,er2)

00400b74 <.LM8>:
/home/serial.c:68

  return 0;
  400b74:	19 22       	sub.w	r2,r2

00400b76 <.LM9>:
/home/serial.c:69
}
  400b76:	0d 20       	mov.w	r2,r0
  400b78:	0b 97       	adds	#4,er7
  400b7a:	0b 97       	adds	#4,er7
  400b7c:	01 00 6d 76 	mov.l	@er7+,er6
  400b80:	54 70       	rts	

00400b82 <_serial_is_send_enable>:
serial_is_send_enable():
/home/serial.c:73

/* 送信可能か？ */
int serial_is_send_enable(int index)
{
  400b82:	01 00 6d f6 	mov.l	er6,@-er7
  400b86:	0f f6       	mov.l	er7,er6
  400b88:	7a 37 00 00 	sub.l	#0x8,er7
  400b8c:	00 08 
  400b8e:	6f e0 ff fa 	mov.w	r0,@(0xfffa:16,er6)

00400b92 <.LM11>:
/home/serial.c:74
  volatile struct h8_3069f_sci *sci = regs[index].sci;
  400b92:	6f 62 ff fa 	mov.w	@(0xfffa:16,er6),r2
  400b96:	17 f2       	exts.l	er2
  400b98:	10 32       	shll.l	er2
  400b9a:	10 32       	shll.l	er2
  400b9c:	7a 12 00 40 	add.l	#0x4053c0,er2
  400ba0:	53 c0 
  400ba2:	01 00 69 22 	mov.l	@er2,er2
  400ba6:	01 00 6f e2 	mov.l	er2,@(0xfffc:16,er6)
  400baa:	ff fc 

00400bac <.LM12>:
/home/serial.c:75
  return (sci->ssr & H8_3069F_SCI_SSR_TDRE);
  400bac:	01 00 6f 62 	mov.l	@(0xfffc:16,er6),er2
  400bb0:	ff fc 
  400bb2:	6e 2a 00 04 	mov.b	@(0x4:16,er2),r2l
  400bb6:	17 52       	extu.w	r2
  400bb8:	79 62 00 80 	and.w	#0x80,r2

00400bbc <.LM13>:
/home/serial.c:76
}
  400bbc:	0d 20       	mov.w	r2,r0
  400bbe:	0b 97       	adds	#4,er7
  400bc0:	0b 97       	adds	#4,er7
  400bc2:	01 00 6d 76 	mov.l	@er7+,er6
  400bc6:	54 70       	rts	

00400bc8 <_serial_send_byte>:
serial_send_byte():
/home/serial.c:80

/* １文字送信 */
int serial_send_byte(int index, unsigned char c)
{
  400bc8:	01 00 6d f6 	mov.l	er6,@-er7
  400bcc:	0f f6       	mov.l	er7,er6
  400bce:	7a 37 00 00 	sub.l	#0x8,er7
  400bd2:	00 08 
  400bd4:	6f e0 ff fa 	mov.w	r0,@(0xfffa:16,er6)
  400bd8:	6e e9 ff f9 	mov.b	r1l,@(0xfff9:16,er6)

00400bdc <.LM15>:
/home/serial.c:81
  volatile struct h8_3069f_sci *sci = regs[index].sci;
  400bdc:	6f 62 ff fa 	mov.w	@(0xfffa:16,er6),r2
  400be0:	17 f2       	exts.l	er2
  400be2:	10 32       	shll.l	er2
  400be4:	10 32       	shll.l	er2
  400be6:	7a 12 00 40 	add.l	#0x4053c0,er2
  400bea:	53 c0 
  400bec:	01 00 69 22 	mov.l	@er2,er2
  400bf0:	01 00 6f e2 	mov.l	er2,@(0xfffc:16,er6)
  400bf4:	ff fc 

00400bf6 <.LM16>:
	...

00400bf8 <.L6>:
/home/serial.c:84 (discriminator 1)

  /* 送信可能になるまで待つ */
  while (!serial_is_send_enable(index))
  400bf8:	6f 62 ff fa 	mov.w	@(0xfffa:16,er6),r2
  400bfc:	0d 20       	mov.w	r2,r0
  400bfe:	5e 40 0b 82 	jsr	@0x400b82:24
  400c02:	0d 02       	mov.w	r0,r2
  400c04:	0d 22       	mov.w	r2,r2
  400c06:	47 f0       	beq	.-16 (0x400bf8)

00400c08 <.LM18>:
/home/serial.c:86
    ;
  sci->tdr = c;
  400c08:	01 00 6f 62 	mov.l	@(0xfffc:16,er6),er2
  400c0c:	ff fc 
  400c0e:	6e 6b ff f9 	mov.b	@(0xfff9:16,er6),r3l
  400c12:	6e ab 00 03 	mov.b	r3l,@(0x3:16,er2)

00400c16 <.LM19>:
/home/serial.c:87
  sci->ssr &= ~H8_3069F_SCI_SSR_TDRE; /* 送信開始 */
  400c16:	01 00 6f 62 	mov.l	@(0xfffc:16,er6),er2
  400c1a:	ff fc 
  400c1c:	6e 2a 00 04 	mov.b	@(0x4:16,er2),r2l
  400c20:	0c ab       	mov.b	r2l,r3l
  400c22:	72 7b       	bclr	#0x7,r3l
  400c24:	01 00 6f 62 	mov.l	@(0xfffc:16,er6),er2
  400c28:	ff fc 
  400c2a:	6e ab 00 04 	mov.b	r3l,@(0x4:16,er2)

00400c2e <.LM20>:
/home/serial.c:89

  return 0;
  400c2e:	19 22       	sub.w	r2,r2

00400c30 <.LM21>:
/home/serial.c:90
}
  400c30:	0d 20       	mov.w	r2,r0
  400c32:	0b 97       	adds	#4,er7
  400c34:	0b 97       	adds	#4,er7
  400c36:	01 00 6d 76 	mov.l	@er7+,er6
  400c3a:	54 70       	rts	

00400c3c <_serial_is_recv_enable>:
serial_is_recv_enable():
/home/serial.c:94

/* 受信可能か？ */
int serial_is_recv_enable(int index)
{
  400c3c:	01 00 6d f6 	mov.l	er6,@-er7
  400c40:	0f f6       	mov.l	er7,er6
  400c42:	7a 37 00 00 	sub.l	#0x8,er7
  400c46:	00 08 
  400c48:	6f e0 ff fa 	mov.w	r0,@(0xfffa:16,er6)

00400c4c <.LM23>:
/home/serial.c:95
  volatile struct h8_3069f_sci *sci = regs[index].sci;
  400c4c:	6f 62 ff fa 	mov.w	@(0xfffa:16,er6),r2
  400c50:	17 f2       	exts.l	er2
  400c52:	10 32       	shll.l	er2
  400c54:	10 32       	shll.l	er2
  400c56:	7a 12 00 40 	add.l	#0x4053c0,er2
  400c5a:	53 c0 
  400c5c:	01 00 69 22 	mov.l	@er2,er2
  400c60:	01 00 6f e2 	mov.l	er2,@(0xfffc:16,er6)
  400c64:	ff fc 

00400c66 <.LM24>:
/home/serial.c:96
  return (sci->ssr & H8_3069F_SCI_SSR_RDRF);
  400c66:	01 00 6f 62 	mov.l	@(0xfffc:16,er6),er2
  400c6a:	ff fc 
  400c6c:	6e 2a 00 04 	mov.b	@(0x4:16,er2),r2l
  400c70:	17 52       	extu.w	r2
  400c72:	79 62 00 40 	and.w	#0x40,r2

00400c76 <.LM25>:
/home/serial.c:97
}
  400c76:	0d 20       	mov.w	r2,r0
  400c78:	0b 97       	adds	#4,er7
  400c7a:	0b 97       	adds	#4,er7
  400c7c:	01 00 6d 76 	mov.l	@er7+,er6
  400c80:	54 70       	rts	

00400c82 <_serial_recv_byte>:
serial_recv_byte():
/home/serial.c:101

/* １文字受信 */
unsigned char serial_recv_byte(int index)
{
  400c82:	01 00 6d f6 	mov.l	er6,@-er7
  400c86:	0f f6       	mov.l	er7,er6
  400c88:	7a 37 00 00 	sub.l	#0xc,er7
  400c8c:	00 0c 
  400c8e:	6f e0 ff f6 	mov.w	r0,@(0xfff6:16,er6)

00400c92 <.LM27>:
/home/serial.c:102
  volatile struct h8_3069f_sci *sci = regs[index].sci;
  400c92:	6f 62 ff f6 	mov.w	@(0xfff6:16,er6),r2
  400c96:	17 f2       	exts.l	er2
  400c98:	10 32       	shll.l	er2
  400c9a:	10 32       	shll.l	er2
  400c9c:	7a 12 00 40 	add.l	#0x4053c0,er2
  400ca0:	53 c0 
  400ca2:	01 00 69 22 	mov.l	@er2,er2
  400ca6:	01 00 6f e2 	mov.l	er2,@(0xfffc:16,er6)
  400caa:	ff fc 

00400cac <.LM28>:
	...

00400cae <.L11>:
/home/serial.c:106 (discriminator 1)
  unsigned char c;

  /* 受信文字が来るまで待つ */
  while (!serial_is_recv_enable(index))
  400cae:	6f 62 ff f6 	mov.w	@(0xfff6:16,er6),r2
  400cb2:	0d 20       	mov.w	r2,r0
  400cb4:	5e 40 0c 3c 	jsr	@0x400c3c:24
  400cb8:	0d 02       	mov.w	r0,r2
  400cba:	0d 22       	mov.w	r2,r2
  400cbc:	47 f0       	beq	.-16 (0x400cae)

00400cbe <.LM30>:
/home/serial.c:108
    ;
  c = sci->rdr;
  400cbe:	01 00 6f 62 	mov.l	@(0xfffc:16,er6),er2
  400cc2:	ff fc 
  400cc4:	6e 2a 00 05 	mov.b	@(0x5:16,er2),r2l
  400cc8:	6e ea ff fb 	mov.b	r2l,@(0xfffb:16,er6)

00400ccc <.LM31>:
/home/serial.c:109
  sci->ssr &= ~H8_3069F_SCI_SSR_RDRF; /* 受信完了 */
  400ccc:	01 00 6f 62 	mov.l	@(0xfffc:16,er6),er2
  400cd0:	ff fc 
  400cd2:	6e 2a 00 04 	mov.b	@(0x4:16,er2),r2l
  400cd6:	0c ab       	mov.b	r2l,r3l
  400cd8:	72 6b       	bclr	#0x6,r3l
  400cda:	01 00 6f 62 	mov.l	@(0xfffc:16,er6),er2
  400cde:	ff fc 
  400ce0:	6e ab 00 04 	mov.b	r3l,@(0x4:16,er2)

00400ce4 <.LM32>:
/home/serial.c:111

  return c;
  400ce4:	6e 6a ff fb 	mov.b	@(0xfffb:16,er6),r2l

00400ce8 <.LM33>:
/home/serial.c:112
}
  400ce8:	0c a8       	mov.b	r2l,r0l
  400cea:	7a 17 00 00 	add.l	#0xc,er7
  400cee:	00 0c 
  400cf0:	01 00 6d 76 	mov.l	@er7+,er6
  400cf4:	54 70       	rts	

00400cf6 <_serial_intr_is_send_enable>:
serial_intr_is_send_enable():
/home/serial.c:116

/* 送信割込み有効か？ */
int serial_intr_is_send_enable(int index)
{
  400cf6:	01 00 6d f6 	mov.l	er6,@-er7
  400cfa:	0f f6       	mov.l	er7,er6
  400cfc:	7a 37 00 00 	sub.l	#0x8,er7
  400d00:	00 08 
  400d02:	6f e0 ff fa 	mov.w	r0,@(0xfffa:16,er6)

00400d06 <.LM35>:
/home/serial.c:117
  volatile struct h8_3069f_sci *sci = regs[index].sci;
  400d06:	6f 62 ff fa 	mov.w	@(0xfffa:16,er6),r2
  400d0a:	17 f2       	exts.l	er2
  400d0c:	10 32       	shll.l	er2
  400d0e:	10 32       	shll.l	er2
  400d10:	7a 12 00 40 	add.l	#0x4053c0,er2
  400d14:	53 c0 
  400d16:	01 00 69 22 	mov.l	@er2,er2
  400d1a:	01 00 6f e2 	mov.l	er2,@(0xfffc:16,er6)
  400d1e:	ff fc 

00400d20 <.LM36>:
/home/serial.c:118
  return (sci->scr & H8_3069F_SCI_SCR_TIE) ? 1 : 0;
  400d20:	01 00 6f 62 	mov.l	@(0xfffc:16,er6),er2
  400d24:	ff fc 
  400d26:	6e 2a 00 02 	mov.b	@(0x2:16,er2),r2l
  400d2a:	12 8a       	rotl.b	r2l
  400d2c:	ea 01       	and.b	#0x1,r2l
  400d2e:	17 52       	extu.w	r2

00400d30 <.LM37>:
/home/serial.c:119
}
  400d30:	0d 20       	mov.w	r2,r0
  400d32:	0b 97       	adds	#4,er7
  400d34:	0b 97       	adds	#4,er7
  400d36:	01 00 6d 76 	mov.l	@er7+,er6
  400d3a:	54 70       	rts	

00400d3c <_serial_intr_send_enable>:
serial_intr_send_enable():
/home/serial.c:123

/* 送信割込み有効化 */
void serial_intr_send_enable(int index)
{
  400d3c:	01 00 6d f6 	mov.l	er6,@-er7
  400d40:	0f f6       	mov.l	er7,er6
  400d42:	7a 37 00 00 	sub.l	#0x8,er7
  400d46:	00 08 
  400d48:	6f e0 ff fa 	mov.w	r0,@(0xfffa:16,er6)

00400d4c <.LM39>:
/home/serial.c:124
  volatile struct h8_3069f_sci *sci = regs[index].sci;
  400d4c:	6f 62 ff fa 	mov.w	@(0xfffa:16,er6),r2
  400d50:	17 f2       	exts.l	er2
  400d52:	10 32       	shll.l	er2
  400d54:	10 32       	shll.l	er2
  400d56:	7a 12 00 40 	add.l	#0x4053c0,er2
  400d5a:	53 c0 
  400d5c:	01 00 69 22 	mov.l	@er2,er2
  400d60:	01 00 6f e2 	mov.l	er2,@(0xfffc:16,er6)
  400d64:	ff fc 

00400d66 <.LM40>:
/home/serial.c:125
  sci->scr |= H8_3069F_SCI_SCR_TIE;
  400d66:	01 00 6f 62 	mov.l	@(0xfffc:16,er6),er2
  400d6a:	ff fc 
  400d6c:	6e 2a 00 02 	mov.b	@(0x2:16,er2),r2l
  400d70:	0c ab       	mov.b	r2l,r3l
  400d72:	70 7b       	bset	#0x7,r3l
  400d74:	01 00 6f 62 	mov.l	@(0xfffc:16,er6),er2
  400d78:	ff fc 
  400d7a:	6e ab 00 02 	mov.b	r3l,@(0x2:16,er2)

00400d7e <.LM41>:
/home/serial.c:126
}
  400d7e:	00 00       	nop	
  400d80:	0b 97       	adds	#4,er7
  400d82:	0b 97       	adds	#4,er7
  400d84:	01 00 6d 76 	mov.l	@er7+,er6
  400d88:	54 70       	rts	

00400d8a <_serial_intr_send_disable>:
serial_intr_send_disable():
/home/serial.c:130

/* 送信割込み無効化 */
void serial_intr_send_disable(int index)
{
  400d8a:	01 00 6d f6 	mov.l	er6,@-er7
  400d8e:	0f f6       	mov.l	er7,er6
  400d90:	7a 37 00 00 	sub.l	#0x8,er7
  400d94:	00 08 
  400d96:	6f e0 ff fa 	mov.w	r0,@(0xfffa:16,er6)

00400d9a <.LM43>:
/home/serial.c:131
  volatile struct h8_3069f_sci *sci = regs[index].sci;
  400d9a:	6f 62 ff fa 	mov.w	@(0xfffa:16,er6),r2
  400d9e:	17 f2       	exts.l	er2
  400da0:	10 32       	shll.l	er2
  400da2:	10 32       	shll.l	er2
  400da4:	7a 12 00 40 	add.l	#0x4053c0,er2
  400da8:	53 c0 
  400daa:	01 00 69 22 	mov.l	@er2,er2
  400dae:	01 00 6f e2 	mov.l	er2,@(0xfffc:16,er6)
  400db2:	ff fc 

00400db4 <.LM44>:
/home/serial.c:132
  sci->scr &= ~H8_3069F_SCI_SCR_TIE;
  400db4:	01 00 6f 62 	mov.l	@(0xfffc:16,er6),er2
  400db8:	ff fc 
  400dba:	6e 2a 00 02 	mov.b	@(0x2:16,er2),r2l
  400dbe:	0c ab       	mov.b	r2l,r3l
  400dc0:	72 7b       	bclr	#0x7,r3l
  400dc2:	01 00 6f 62 	mov.l	@(0xfffc:16,er6),er2
  400dc6:	ff fc 
  400dc8:	6e ab 00 02 	mov.b	r3l,@(0x2:16,er2)

00400dcc <.LM45>:
/home/serial.c:133
}
  400dcc:	00 00       	nop	
  400dce:	0b 97       	adds	#4,er7
  400dd0:	0b 97       	adds	#4,er7
  400dd2:	01 00 6d 76 	mov.l	@er7+,er6
  400dd6:	54 70       	rts	

00400dd8 <_serial_intr_is_recv_enable>:
serial_intr_is_recv_enable():
/home/serial.c:137

/* 受信割込み有効か？ */
int serial_intr_is_recv_enable(int index)
{
  400dd8:	01 00 6d f6 	mov.l	er6,@-er7
  400ddc:	0f f6       	mov.l	er7,er6
  400dde:	7a 37 00 00 	sub.l	#0x8,er7
  400de2:	00 08 
  400de4:	6f e0 ff fa 	mov.w	r0,@(0xfffa:16,er6)

00400de8 <.LM47>:
/home/serial.c:138
  volatile struct h8_3069f_sci *sci = regs[index].sci;
  400de8:	6f 62 ff fa 	mov.w	@(0xfffa:16,er6),r2
  400dec:	17 f2       	exts.l	er2
  400dee:	10 32       	shll.l	er2
  400df0:	10 32       	shll.l	er2
  400df2:	7a 12 00 40 	add.l	#0x4053c0,er2
  400df6:	53 c0 
  400df8:	01 00 69 22 	mov.l	@er2,er2
  400dfc:	01 00 6f e2 	mov.l	er2,@(0xfffc:16,er6)
  400e00:	ff fc 

00400e02 <.LM48>:
/home/serial.c:139
  return (sci->scr & H8_3069F_SCI_SCR_RIE) ? 1 : 0;
  400e02:	01 00 6f 62 	mov.l	@(0xfffc:16,er6),er2
  400e06:	ff fc 
  400e08:	6e 2a 00 02 	mov.b	@(0x2:16,er2),r2l
  400e0c:	17 52       	extu.w	r2
  400e0e:	0d 23       	mov.w	r2,r3
  400e10:	79 63 00 40 	and.w	#0x40,r3
  400e14:	fa 01       	mov.b	#0x1,r2l
  400e16:	0d 33       	mov.w	r3,r3
  400e18:	46 02       	bne	.+2 (0x400e1c)
  400e1a:	18 aa       	sub.b	r2l,r2l

00400e1c <.L18>:
  400e1c:	17 52       	extu.w	r2

00400e1e <.LM49>:
/home/serial.c:140
}
  400e1e:	0d 20       	mov.w	r2,r0
  400e20:	0b 97       	adds	#4,er7
  400e22:	0b 97       	adds	#4,er7
  400e24:	01 00 6d 76 	mov.l	@er7+,er6
  400e28:	54 70       	rts	

00400e2a <_serial_intr_recv_enable>:
serial_intr_recv_enable():
/home/serial.c:144

/* 受信割込み有効化 */
void serial_intr_recv_enable(int index)
{
  400e2a:	01 00 6d f6 	mov.l	er6,@-er7
  400e2e:	0f f6       	mov.l	er7,er6
  400e30:	7a 37 00 00 	sub.l	#0x8,er7
  400e34:	00 08 
  400e36:	6f e0 ff fa 	mov.w	r0,@(0xfffa:16,er6)

00400e3a <.LM51>:
/home/serial.c:145
  volatile struct h8_3069f_sci *sci = regs[index].sci;
  400e3a:	6f 62 ff fa 	mov.w	@(0xfffa:16,er6),r2
  400e3e:	17 f2       	exts.l	er2
  400e40:	10 32       	shll.l	er2
  400e42:	10 32       	shll.l	er2
  400e44:	7a 12 00 40 	add.l	#0x4053c0,er2
  400e48:	53 c0 
  400e4a:	01 00 69 22 	mov.l	@er2,er2
  400e4e:	01 00 6f e2 	mov.l	er2,@(0xfffc:16,er6)
  400e52:	ff fc 

00400e54 <.LM52>:
/home/serial.c:146
  sci->scr |= H8_3069F_SCI_SCR_RIE;
  400e54:	01 00 6f 62 	mov.l	@(0xfffc:16,er6),er2
  400e58:	ff fc 
  400e5a:	6e 2a 00 02 	mov.b	@(0x2:16,er2),r2l
  400e5e:	0c ab       	mov.b	r2l,r3l
  400e60:	70 6b       	bset	#0x6,r3l
  400e62:	01 00 6f 62 	mov.l	@(0xfffc:16,er6),er2
  400e66:	ff fc 
  400e68:	6e ab 00 02 	mov.b	r3l,@(0x2:16,er2)

00400e6c <.LM53>:
/home/serial.c:147
}
  400e6c:	00 00       	nop	
  400e6e:	0b 97       	adds	#4,er7
  400e70:	0b 97       	adds	#4,er7
  400e72:	01 00 6d 76 	mov.l	@er7+,er6
  400e76:	54 70       	rts	

00400e78 <_serial_intr_recv_disable>:
serial_intr_recv_disable():
/home/serial.c:151

/* 受信割込み無効化 */
void serial_intr_recv_disable(int index)
{
  400e78:	01 00 6d f6 	mov.l	er6,@-er7
  400e7c:	0f f6       	mov.l	er7,er6
  400e7e:	7a 37 00 00 	sub.l	#0x8,er7
  400e82:	00 08 
  400e84:	6f e0 ff fa 	mov.w	r0,@(0xfffa:16,er6)

00400e88 <.LM55>:
/home/serial.c:152
  volatile struct h8_3069f_sci *sci = regs[index].sci;
  400e88:	6f 62 ff fa 	mov.w	@(0xfffa:16,er6),r2
  400e8c:	17 f2       	exts.l	er2
  400e8e:	10 32       	shll.l	er2
  400e90:	10 32       	shll.l	er2
  400e92:	7a 12 00 40 	add.l	#0x4053c0,er2
  400e96:	53 c0 
  400e98:	01 00 69 22 	mov.l	@er2,er2
  400e9c:	01 00 6f e2 	mov.l	er2,@(0xfffc:16,er6)
  400ea0:	ff fc 

00400ea2 <.LM56>:
/home/serial.c:153
  sci->scr &= ~H8_3069F_SCI_SCR_RIE;
  400ea2:	01 00 6f 62 	mov.l	@(0xfffc:16,er6),er2
  400ea6:	ff fc 
  400ea8:	6e 2a 00 02 	mov.b	@(0x2:16,er2),r2l
  400eac:	0c ab       	mov.b	r2l,r3l
  400eae:	72 6b       	bclr	#0x6,r3l
  400eb0:	01 00 6f 62 	mov.l	@(0xfffc:16,er6),er2
  400eb4:	ff fc 
  400eb6:	6e ab 00 02 	mov.b	r3l,@(0x2:16,er2)

00400eba <.LM57>:
/home/serial.c:154
}
  400eba:	00 00       	nop	
  400ebc:	0b 97       	adds	#4,er7
  400ebe:	0b 97       	adds	#4,er7
  400ec0:	01 00 6d 76 	mov.l	@er7+,er6
  400ec4:	54 70       	rts	

00400ec6 <_timer_start>:
timer_start():
/home/timer.c:57
  { H8_3069F_TMR23 }, 
};

/* タイマ開始 */
int timer_start(int index, int msec, int flags)
{
  400ec6:	01 00 6d f6 	mov.l	er6,@-er7
  400eca:	0f f6       	mov.l	er7,er6
  400ecc:	7a 37 00 00 	sub.l	#0x14,er7
  400ed0:	00 14 
  400ed2:	6f e0 ff f2 	mov.w	r0,@(0xfff2:16,er6)
  400ed6:	6f e1 ff f0 	mov.w	r1,@(0xfff0:16,er6)
  400eda:	6f e2 ff ee 	mov.w	r2,@(0xffee:16,er6)

00400ede <.LM2>:
/home/timer.c:58
  volatile struct h8_3069f_tmr *tmr = regs[index].tmr;
  400ede:	6f 62 ff f2 	mov.w	@(0xfff2:16,er6),r2
  400ee2:	17 f2       	exts.l	er2
  400ee4:	10 32       	shll.l	er2
  400ee6:	10 32       	shll.l	er2
  400ee8:	7a 12 00 40 	add.l	#0x4053cc,er2
  400eec:	53 cc 
  400eee:	01 00 69 22 	mov.l	@er2,er2
  400ef2:	01 00 6f e2 	mov.l	er2,@(0xfff8:16,er6)
  400ef6:	ff f8 

00400ef8 <.LM3>:
/home/timer.c:62
  int count;
  uint8 tcr;

  tcr = H8_3069F_TMR_TCR_OVF;
  400ef8:	fa 04       	mov.b	#0x4,r2l
  400efa:	6e ea ff ff 	mov.b	r2l,@(0xffff:16,er6)

00400efe <.LM4>:
/home/timer.c:63
  if (flags & TIMER_START_FLAG_CYCLE)
  400efe:	6f 62 ff ee 	mov.w	@(0xffee:16,er6),r2
  400f02:	79 62 00 01 	and.w	#0x1,r2
  400f06:	0d 22       	mov.w	r2,r2
  400f08:	47 0a       	beq	.+10 (0x400f14)

00400f0a <.LM5>:
/home/timer.c:64
    tcr |= H8_3069F_TMR_TCR_CCLR_CLRCMFA;
  400f0a:	6e 6a ff ff 	mov.b	@(0xffff:16,er6),r2l
  400f0e:	70 3a       	bset	#0x3,r2l
  400f10:	6e ea ff ff 	mov.b	r2l,@(0xffff:16,er6)

00400f14 <.L3>:
/home/timer.c:67
  else
    tcr |= H8_3069F_TMR_TCR_CCLR_DISCLR;
  tmr->tcr0 = tcr;
  400f14:	01 00 6f 62 	mov.l	@(0xfff8:16,er6),er2
  400f18:	ff f8 
  400f1a:	6e 6b ff ff 	mov.b	@(0xffff:16,er6),r3l
  400f1e:	68 ab       	mov.b	r3l,@er2

00400f20 <.LM7>:
/home/timer.c:68
  tmr->tcr1 = H8_3069F_TMR_TCR_CLK8192 | H8_3069F_TMR_TCR_CCLR_DISCLR;
  400f20:	01 00 6f 62 	mov.l	@(0xfff8:16,er6),er2
  400f24:	ff f8 
  400f26:	fb 03       	mov.b	#0x3,r3l
  400f28:	6e ab 00 01 	mov.b	r3l,@(0x1:16,er2)

00400f2c <.LM8>:
/home/timer.c:70

  tmr->tcsr0 = 0;
  400f2c:	01 00 6f 62 	mov.l	@(0xfff8:16,er6),er2
  400f30:	ff f8 
  400f32:	18 bb       	sub.b	r3l,r3l
  400f34:	6e ab 00 02 	mov.b	r3l,@(0x2:16,er2)

00400f38 <.LM9>:
/home/timer.c:71
  tmr->tcsr1 = 0;
  400f38:	01 00 6f 62 	mov.l	@(0xfff8:16,er6),er2
  400f3c:	ff f8 
  400f3e:	18 bb       	sub.b	r3l,r3l
  400f40:	6e ab 00 03 	mov.b	r3l,@(0x3:16,er2)

00400f44 <.LM10>:
/home/timer.c:73

  count = msec / 105; /* 20MHz: (msec * 20000000 / 8192 / 256 / 1000) */
  400f44:	6f 62 ff f0 	mov.w	@(0xfff0:16,er6),r2
  400f48:	0d 23       	mov.w	r2,r3
  400f4a:	17 f3       	exts.l	er3
  400f4c:	79 02 00 69 	mov.w	#0x69,r2
  400f50:	0f b0       	mov.l	er3,er0
  400f52:	01 d0 53 20 	divxs.w	r2,er0
  400f56:	0d 83       	mov.w	e0,r3
  400f58:	0d 02       	mov.w	r0,r2
  400f5a:	6f e2 ff f6 	mov.w	r2,@(0xfff6:16,er6)

00400f5e <.LM11>:
/home/timer.c:75

  tmr->tcnt = 0;
  400f5e:	01 00 6f 62 	mov.l	@(0xfff8:16,er6),er2
  400f62:	ff f8 
  400f64:	19 33       	sub.w	r3,r3
  400f66:	6f a3 00 08 	mov.w	r3,@(0x8:16,er2)

00400f6a <.LM12>:
/home/timer.c:76
  tmr->tcora0 = count;
  400f6a:	6f 62 ff f6 	mov.w	@(0xfff6:16,er6),r2
  400f6e:	0c ab       	mov.b	r2l,r3l
  400f70:	01 00 6f 62 	mov.l	@(0xfff8:16,er6),er2
  400f74:	ff f8 
  400f76:	6e ab 00 04 	mov.b	r3l,@(0x4:16,er2)

00400f7a <.LM13>:
/home/timer.c:77
  tmr->tcr0 |= H8_3069F_TMR_TCR_CMIEA; /* 割込み有効化 */
  400f7a:	01 00 6f 62 	mov.l	@(0xfff8:16,er6),er2
  400f7e:	ff f8 
  400f80:	68 2a       	mov.b	@er2,r2l
  400f82:	0c ab       	mov.b	r2l,r3l
  400f84:	70 6b       	bset	#0x6,r3l
  400f86:	01 00 6f 62 	mov.l	@(0xfff8:16,er6),er2
  400f8a:	ff f8 
  400f8c:	68 ab       	mov.b	r3l,@er2

00400f8e <.LM14>:
/home/timer.c:79

  return 0;
  400f8e:	19 22       	sub.w	r2,r2

00400f90 <.LM15>:
/home/timer.c:80
}
  400f90:	0d 20       	mov.w	r2,r0
  400f92:	7a 17 00 00 	add.l	#0x14,er7
  400f96:	00 14 
  400f98:	01 00 6d 76 	mov.l	@er7+,er6
  400f9c:	54 70       	rts	

00400f9e <_timer_is_expired>:
timer_is_expired():
/home/timer.c:84

/* タイマ満了したか？ */
int timer_is_expired(int index)
{
  400f9e:	01 00 6d f6 	mov.l	er6,@-er7
  400fa2:	0f f6       	mov.l	er7,er6
  400fa4:	7a 37 00 00 	sub.l	#0x8,er7
  400fa8:	00 08 
  400faa:	6f e0 ff fa 	mov.w	r0,@(0xfffa:16,er6)

00400fae <.LM17>:
/home/timer.c:85
  volatile struct h8_3069f_tmr *tmr = regs[index].tmr;
  400fae:	6f 62 ff fa 	mov.w	@(0xfffa:16,er6),r2
  400fb2:	17 f2       	exts.l	er2
  400fb4:	10 32       	shll.l	er2
  400fb6:	10 32       	shll.l	er2
  400fb8:	7a 12 00 40 	add.l	#0x4053cc,er2
  400fbc:	53 cc 
  400fbe:	01 00 69 22 	mov.l	@er2,er2
  400fc2:	01 00 6f e2 	mov.l	er2,@(0xfffc:16,er6)
  400fc6:	ff fc 

00400fc8 <.LM18>:
/home/timer.c:86
  return (tmr->tcsr0 & H8_3069F_TMR_TCSR_CMFA) ? 1 : 0;
  400fc8:	01 00 6f 62 	mov.l	@(0xfffc:16,er6),er2
  400fcc:	ff fc 
  400fce:	6e 2a 00 02 	mov.b	@(0x2:16,er2),r2l
  400fd2:	17 52       	extu.w	r2
  400fd4:	0d 23       	mov.w	r2,r3
  400fd6:	79 63 00 40 	and.w	#0x40,r3
  400fda:	fa 01       	mov.b	#0x1,r2l
  400fdc:	0d 33       	mov.w	r3,r3
  400fde:	46 02       	bne	.+2 (0x400fe2)
  400fe0:	18 aa       	sub.b	r2l,r2l

00400fe2 <.L6>:
  400fe2:	17 52       	extu.w	r2

00400fe4 <.LM19>:
/home/timer.c:87
}
  400fe4:	0d 20       	mov.w	r2,r0
  400fe6:	0b 97       	adds	#4,er7
  400fe8:	0b 97       	adds	#4,er7
  400fea:	01 00 6d 76 	mov.l	@er7+,er6
  400fee:	54 70       	rts	

00400ff0 <_timer_expire>:
timer_expire():
/home/timer.c:91

/* タイマ満了処理 */
int timer_expire(int index)
{
  400ff0:	01 00 6d f6 	mov.l	er6,@-er7
  400ff4:	0f f6       	mov.l	er7,er6
  400ff6:	7a 37 00 00 	sub.l	#0x8,er7
  400ffa:	00 08 
  400ffc:	6f e0 ff fa 	mov.w	r0,@(0xfffa:16,er6)

00401000 <.LM21>:
/home/timer.c:92
  volatile struct h8_3069f_tmr *tmr = regs[index].tmr;
  401000:	6f 62 ff fa 	mov.w	@(0xfffa:16,er6),r2
  401004:	17 f2       	exts.l	er2
  401006:	10 32       	shll.l	er2
  401008:	10 32       	shll.l	er2
  40100a:	7a 12 00 40 	add.l	#0x4053cc,er2
  40100e:	53 cc 
  401010:	01 00 69 22 	mov.l	@er2,er2
  401014:	01 00 6f e2 	mov.l	er2,@(0xfffc:16,er6)
  401018:	ff fc 

0040101a <.LM22>:
/home/timer.c:94

  tmr->tcsr0 &= ~H8_3069F_TMR_TCSR_CMFA;
  40101a:	01 00 6f 62 	mov.l	@(0xfffc:16,er6),er2
  40101e:	ff fc 
  401020:	6e 2a 00 02 	mov.b	@(0x2:16,er2),r2l
  401024:	0c ab       	mov.b	r2l,r3l
  401026:	72 6b       	bclr	#0x6,r3l
  401028:	01 00 6f 62 	mov.l	@(0xfffc:16,er6),er2
  40102c:	ff fc 
  40102e:	6e ab 00 02 	mov.b	r3l,@(0x2:16,er2)

00401032 <.LM23>:
/home/timer.c:96

  return 0;
  401032:	19 22       	sub.w	r2,r2

00401034 <.LM24>:
/home/timer.c:97
}
  401034:	0d 20       	mov.w	r2,r0
  401036:	0b 97       	adds	#4,er7
  401038:	0b 97       	adds	#4,er7
  40103a:	01 00 6d 76 	mov.l	@er7+,er6
  40103e:	54 70       	rts	

00401040 <_timer_cancel>:
timer_cancel():
/home/timer.c:101

/* タイマキャンセル */
int timer_cancel(int index)
{
  401040:	01 00 6d f6 	mov.l	er6,@-er7
  401044:	0f f6       	mov.l	er7,er6
  401046:	7a 37 00 00 	sub.l	#0x8,er7
  40104a:	00 08 
  40104c:	6f e0 ff fa 	mov.w	r0,@(0xfffa:16,er6)

00401050 <.LM26>:
/home/timer.c:102
  volatile struct h8_3069f_tmr *tmr = regs[index].tmr;
  401050:	6f 62 ff fa 	mov.w	@(0xfffa:16,er6),r2
  401054:	17 f2       	exts.l	er2
  401056:	10 32       	shll.l	er2
  401058:	10 32       	shll.l	er2
  40105a:	7a 12 00 40 	add.l	#0x4053cc,er2
  40105e:	53 cc 
  401060:	01 00 69 22 	mov.l	@er2,er2
  401064:	01 00 6f e2 	mov.l	er2,@(0xfffc:16,er6)
  401068:	ff fc 

0040106a <.LM27>:
/home/timer.c:104

  timer_expire(index);
  40106a:	6f 62 ff fa 	mov.w	@(0xfffa:16,er6),r2
  40106e:	0d 20       	mov.w	r2,r0
  401070:	5e 40 0f f0 	jsr	@0x400ff0:24

00401074 <.LM28>:
/home/timer.c:106

  tmr->tcr0 = 0;
  401074:	01 00 6f 62 	mov.l	@(0xfffc:16,er6),er2
  401078:	ff fc 
  40107a:	18 bb       	sub.b	r3l,r3l
  40107c:	68 ab       	mov.b	r3l,@er2

0040107e <.LM29>:
/home/timer.c:107
  tmr->tcr1 = 0;
  40107e:	01 00 6f 62 	mov.l	@(0xfffc:16,er6),er2
  401082:	ff fc 
  401084:	18 bb       	sub.b	r3l,r3l
  401086:	6e ab 00 01 	mov.b	r3l,@(0x1:16,er2)

0040108a <.LM30>:
/home/timer.c:109

  tmr->tcr0 &= ~H8_3069F_TMR_TCR_CMIEA; /* 割込み無効化 */
  40108a:	01 00 6f 62 	mov.l	@(0xfffc:16,er6),er2
  40108e:	ff fc 
  401090:	68 2a       	mov.b	@er2,r2l
  401092:	0c ab       	mov.b	r2l,r3l
  401094:	72 6b       	bclr	#0x6,r3l
  401096:	01 00 6f 62 	mov.l	@(0xfffc:16,er6),er2
  40109a:	ff fc 
  40109c:	68 ab       	mov.b	r3l,@er2

0040109e <.LM31>:
/home/timer.c:111

  return 0;
  40109e:	19 22       	sub.w	r2,r2

004010a0 <.LM32>:
/home/timer.c:112
}
  4010a0:	0d 20       	mov.w	r2,r0
  4010a2:	0b 97       	adds	#4,er7
  4010a4:	0b 97       	adds	#4,er7
  4010a6:	01 00 6d 76 	mov.l	@er7+,er6
  4010aa:	54 70       	rts	

004010ac <_timer_is_running>:
timer_is_running():
/home/timer.c:116

/* タイマ動作中か？ */
int timer_is_running(int index)
{
  4010ac:	01 00 6d f6 	mov.l	er6,@-er7
  4010b0:	0f f6       	mov.l	er7,er6
  4010b2:	7a 37 00 00 	sub.l	#0x8,er7
  4010b6:	00 08 
  4010b8:	6f e0 ff fa 	mov.w	r0,@(0xfffa:16,er6)

004010bc <.LM34>:
/home/timer.c:117
  volatile struct h8_3069f_tmr *tmr = regs[index].tmr;
  4010bc:	6f 62 ff fa 	mov.w	@(0xfffa:16,er6),r2
  4010c0:	17 f2       	exts.l	er2
  4010c2:	10 32       	shll.l	er2
  4010c4:	10 32       	shll.l	er2
  4010c6:	7a 12 00 40 	add.l	#0x4053cc,er2
  4010ca:	53 cc 
  4010cc:	01 00 69 22 	mov.l	@er2,er2
  4010d0:	01 00 6f e2 	mov.l	er2,@(0xfffc:16,er6)
  4010d4:	ff fc 

004010d6 <.LM35>:
/home/timer.c:118
  return (tmr->tcr0 & H8_3069F_TMR_TCR_CMIEA) ? 1 : 0;
  4010d6:	01 00 6f 62 	mov.l	@(0xfffc:16,er6),er2
  4010da:	ff fc 
  4010dc:	68 2a       	mov.b	@er2,r2l
  4010de:	17 52       	extu.w	r2
  4010e0:	0d 23       	mov.w	r2,r3
  4010e2:	79 63 00 40 	and.w	#0x40,r3
  4010e6:	fa 01       	mov.b	#0x1,r2l
  4010e8:	0d 33       	mov.w	r3,r3
  4010ea:	46 02       	bne	.+2 (0x4010ee)
  4010ec:	18 aa       	sub.b	r2l,r2l

004010ee <.L13>:
  4010ee:	17 52       	extu.w	r2

004010f0 <.LM36>:
/home/timer.c:119
}
  4010f0:	0d 20       	mov.w	r2,r0
  4010f2:	0b 97       	adds	#4,er7
  4010f4:	0b 97       	adds	#4,er7
  4010f6:	01 00 6d 76 	mov.l	@er7+,er6
  4010fa:	54 70       	rts	

004010fc <_timer_gettime>:
timer_gettime():
/home/timer.c:123

/* タイマの現在値 */
int timer_gettime(int index)
{
  4010fc:	01 00 6d f6 	mov.l	er6,@-er7
  401100:	0f f6       	mov.l	er7,er6
  401102:	7a 37 00 00 	sub.l	#0xc,er7
  401106:	00 0c 
  401108:	6f e0 ff f6 	mov.w	r0,@(0xfff6:16,er6)

0040110c <.LM38>:
/home/timer.c:124
  volatile struct h8_3069f_tmr *tmr = regs[index].tmr;
  40110c:	6f 62 ff f6 	mov.w	@(0xfff6:16,er6),r2
  401110:	17 f2       	exts.l	er2
  401112:	10 32       	shll.l	er2
  401114:	10 32       	shll.l	er2
  401116:	7a 12 00 40 	add.l	#0x4053cc,er2
  40111a:	53 cc 
  40111c:	01 00 69 22 	mov.l	@er2,er2
  401120:	01 00 6f e2 	mov.l	er2,@(0xfffc:16,er6)
  401124:	ff fc 

00401126 <.LM39>:
/home/timer.c:132

  /*
   * 周期タイマの場合は動作中かどうかのチェックの直後にタイマ満了すると
   * カウンタがゼロに初期化されてしまうので，前もって値を取得しておく．
   */
  count = tmr->tcnt;
  401126:	01 00 6f 62 	mov.l	@(0xfffc:16,er6),er2
  40112a:	ff fc 
  40112c:	6f 22 00 08 	mov.w	@(0x8:16,er2),r2
  401130:	6f e2 ff f8 	mov.w	r2,@(0xfff8:16,er6)

00401134 <.LM40>:
/home/timer.c:133
  msec = count * 2 / 5; /* 20MHz: (count * 8192 * 1000 / 20000000) */
  401134:	6f 62 ff f8 	mov.w	@(0xfff8:16,er6),r2
  401138:	10 12       	shll.w	r2
  40113a:	79 03 66 67 	mov.w	#0x6667,r3
  40113e:	01 c0 52 23 	mulxs.w	r2,er3
  401142:	0d b3       	mov.w	e3,r3
  401144:	17 73       	extu.l	er3
  401146:	11 93       	shar.w	r3
  401148:	10 02       	shll.b	r2h
  40114a:	1e 22       	subx	r2h,r2h
  40114c:	0c 2a       	mov.b	r2h,r2l
  40114e:	0d 30       	mov.w	r3,r0
  401150:	19 20       	sub.w	r2,r0
  401152:	0d 02       	mov.w	r0,r2
  401154:	6f e2 ff fa 	mov.w	r2,@(0xfffa:16,er6)

00401158 <.LM41>:
/home/timer.c:135

  return timer_is_running(index) ? msec : -1;
  401158:	6f 62 ff f6 	mov.w	@(0xfff6:16,er6),r2
  40115c:	0d 20       	mov.w	r2,r0
  40115e:	5e 40 10 ac 	jsr	@0x4010ac:24
  401162:	0d 02       	mov.w	r0,r2
  401164:	0d 22       	mov.w	r2,r2
  401166:	47 06       	beq	.+6 (0x40116e)

00401168 <.LM42>:
/home/timer.c:135 (discriminator 1)
  401168:	6f 62 ff fa 	mov.w	@(0xfffa:16,er6),r2
  40116c:	40 04       	bra	.+4 (0x401172)

0040116e <.L16>:
/home/timer.c:135 (discriminator 2)
  40116e:	79 02 ff ff 	mov.w	#0xffff,r2

00401172 <.L18>:
/home/timer.c:136 (discriminator 5)
}
  401172:	0d 20       	mov.w	r2,r0
  401174:	7a 17 00 00 	add.l	#0xc,er7
  401178:	00 0c 
  40117a:	01 00 6d 76 	mov.l	@er7+,er6
  40117e:	54 70       	rts	

00401180 <_udelay>:
udelay():
/home/rtl8019.c:112
#define NE2000_TP_START 0x40
#define NE2000_RP_START 0x46
#define NE2000_RP_STOP  0x80

static void udelay(int usec)
{
  401180:	01 00 6d f6 	mov.l	er6,@-er7
  401184:	0f f6       	mov.l	er7,er6
  401186:	7a 37 00 00 	sub.l	#0x8,er7
  40118a:	00 08 
  40118c:	6f e0 ff fa 	mov.w	r0,@(0xfffa:16,er6)

00401190 <.LM2>:
/home/rtl8019.c:114
  volatile int i;
  for (i = 0; i < 20; i++) /* 20MHz */
  401190:	19 22       	sub.w	r2,r2
  401192:	6f e2 ff fe 	mov.w	r2,@(0xfffe:16,er6)
  401196:	40 0a       	bra	.+10 (0x4011a2)

00401198 <.L3>:
/home/rtl8019.c:114 (discriminator 3)
  401198:	6f 62 ff fe 	mov.w	@(0xfffe:16,er6),r2
  40119c:	0b 02       	adds	#1,er2
  40119e:	6f e2 ff fe 	mov.w	r2,@(0xfffe:16,er6)

004011a2 <.L2>:
/home/rtl8019.c:114 (discriminator 1)
  4011a2:	6f 62 ff fe 	mov.w	@(0xfffe:16,er6),r2
  4011a6:	79 22 00 13 	cmp.w	#0x13,r2
  4011aa:	4f ec       	ble	.-20 (0x401198)

004011ac <.LM5>:
/home/rtl8019.c:116
    ;
}
  4011ac:	00 00       	nop	
  4011ae:	0b 97       	adds	#4,er7
  4011b0:	0b 97       	adds	#4,er7
  4011b2:	01 00 6d 76 	mov.l	@er7+,er6
  4011b6:	54 70       	rts	

004011b8 <_mdelay>:
mdelay():
/home/rtl8019.c:119

static void mdelay(int msec)
{
  4011b8:	01 00 6d f6 	mov.l	er6,@-er7
  4011bc:	0f f6       	mov.l	er7,er6
  4011be:	7a 37 00 00 	sub.l	#0x8,er7
  4011c2:	00 08 
  4011c4:	6f e0 ff fa 	mov.w	r0,@(0xfffa:16,er6)

004011c8 <.LM7>:
/home/rtl8019.c:121
  volatile int i;
  for (i = 0; i < msec; i++) {
  4011c8:	19 22       	sub.w	r2,r2
  4011ca:	6f e2 ff fe 	mov.w	r2,@(0xfffe:16,er6)
  4011ce:	40 12       	bra	.+18 (0x4011e2)

004011d0 <.L6>:
/home/rtl8019.c:122 (discriminator 3)
    udelay(1000);
  4011d0:	79 00 03 e8 	mov.w	#0x3e8,r0
  4011d4:	5e 40 11 80 	jsr	@0x401180:24

004011d8 <.LM9>:
/home/rtl8019.c:121
  for (i = 0; i < msec; i++) {
  4011d8:	6f 62 ff fe 	mov.w	@(0xfffe:16,er6),r2
  4011dc:	0b 02       	adds	#1,er2
  4011de:	6f e2 ff fe 	mov.w	r2,@(0xfffe:16,er6)

004011e2 <.L5>:
/home/rtl8019.c:121 (discriminator 1)
  4011e2:	6f 62 ff fe 	mov.w	@(0xfffe:16,er6),r2
  4011e6:	6f 63 ff fa 	mov.w	@(0xfffa:16,er6),r3
  4011ea:	1d 23       	cmp.w	r2,r3
  4011ec:	4e e2       	bgt	.-30 (0x4011d0)

004011ee <.LM11>:
/home/rtl8019.c:124
  }
}
  4011ee:	00 00       	nop	
  4011f0:	0b 97       	adds	#4,er7
  4011f2:	0b 97       	adds	#4,er7
  4011f4:	01 00 6d 76 	mov.l	@er7+,er6
  4011f8:	54 70       	rts	

004011fa <_read_data>:
read_data():
/home/rtl8019.c:127

static int read_data(int addr, int size, char *buf)
{
  4011fa:	01 00 6d f6 	mov.l	er6,@-er7
  4011fe:	0f f6       	mov.l	er7,er6
  401200:	7a 37 00 00 	sub.l	#0xc,er7
  401204:	00 0c 
  401206:	6f e0 ff fa 	mov.w	r0,@(0xfffa:16,er6)
  40120a:	6f e1 ff f8 	mov.w	r1,@(0xfff8:16,er6)
  40120e:	01 00 6f e2 	mov.l	er2,@(0xfff4:16,er6)
  401212:	ff f4 

00401214 <.LM13>:
/home/rtl8019.c:130
  int i;

  *NE2000_CR    = NE2000_CR_P0 | NE2000_CR_RD_ABORT | NE2000_CR_STA;
  401214:	7a 02 00 20 	mov.l	#0x200000,er2
  401218:	00 00 
  40121a:	fb 22       	mov.b	#0x22,r3l
  40121c:	68 ab       	mov.b	r3l,@er2

0040121e <.LM14>:
/home/rtl8019.c:131
  *NE2000_RBCR0 = size & 0xff;
  40121e:	7a 02 00 20 	mov.l	#0x20000a,er2
  401222:	00 0a 
  401224:	6f 63 ff f8 	mov.w	@(0xfff8:16,er6),r3
  401228:	68 ab       	mov.b	r3l,@er2

0040122a <.LM15>:
/home/rtl8019.c:132
  *NE2000_RBCR1 = (size >> 8) & 0xff;
  40122a:	6f 62 ff f8 	mov.w	@(0xfff8:16,er6),r2
  40122e:	0c 2a       	mov.b	r2h,r2l
  401230:	17 52       	extu.w	r2
  401232:	7a 03 00 20 	mov.l	#0x20000b,er3
  401236:	00 0b 
  401238:	68 ba       	mov.b	r2l,@er3

0040123a <.LM16>:
/home/rtl8019.c:133
  *NE2000_RSAR0 = addr & 0xff;
  40123a:	7a 02 00 20 	mov.l	#0x200008,er2
  40123e:	00 08 
  401240:	6f 63 ff fa 	mov.w	@(0xfffa:16,er6),r3
  401244:	68 ab       	mov.b	r3l,@er2

00401246 <.LM17>:
/home/rtl8019.c:134
  *NE2000_RSAR1 = (addr >> 8) & 0xff;
  401246:	6f 62 ff fa 	mov.w	@(0xfffa:16,er6),r2
  40124a:	0c 2a       	mov.b	r2h,r2l
  40124c:	17 52       	extu.w	r2
  40124e:	7a 03 00 20 	mov.l	#0x200009,er3
  401252:	00 09 
  401254:	68 ba       	mov.b	r2l,@er3

00401256 <.LM18>:
/home/rtl8019.c:135
  *NE2000_CR    = NE2000_CR_P0 | NE2000_CR_RD_READ | NE2000_CR_STA;
  401256:	7a 02 00 20 	mov.l	#0x200000,er2
  40125a:	00 00 
  40125c:	fb 0a       	mov.b	#0xa,r3l
  40125e:	68 ab       	mov.b	r3l,@er2

00401260 <.LM19>:
/home/rtl8019.c:136
  for (i = 0; i < size; i++) {
  401260:	19 22       	sub.w	r2,r2
  401262:	6f e2 ff fe 	mov.w	r2,@(0xfffe:16,er6)
  401266:	40 48       	bra	.+72 (0x4012b0)

00401268 <.L10>:
/home/rtl8019.c:138
#ifdef SIMULATOR
    *RTL8019_SIM_SR |= RTL8019_SIM_SR_NRDY;
  401268:	7a 02 00 20 	mov.l	#0x2000ff,er2
  40126c:	00 ff 
  40126e:	68 2b       	mov.b	@er2,r3l
  401270:	7a 02 00 20 	mov.l	#0x2000ff,er2
  401274:	00 ff 
  401276:	70 0b       	bset	#0x0,r3l
  401278:	68 ab       	mov.b	r3l,@er2

0040127a <.LM21>:
	...

0040127c <.L9>:
/home/rtl8019.c:139 (discriminator 1)
    while (*RTL8019_SIM_SR & RTL8019_SIM_SR_NRDY)
  40127c:	7a 02 00 20 	mov.l	#0x2000ff,er2
  401280:	00 ff 
  401282:	68 2a       	mov.b	@er2,r2l
  401284:	17 52       	extu.w	r2
  401286:	79 62 00 01 	and.w	#0x1,r2
  40128a:	0d 22       	mov.w	r2,r2
  40128c:	46 ee       	bne	.-18 (0x40127c)

0040128e <.LM23>:
/home/rtl8019.c:142 (discriminator 2)
      ;
#endif
    buf[i] = *RTL8019_RDMAP;
  40128e:	7a 03 00 20 	mov.l	#0x200010,er3
  401292:	00 10 
  401294:	6f 62 ff fe 	mov.w	@(0xfffe:16,er6),r2
  401298:	17 f2       	exts.l	er2
  40129a:	01 00 6f 60 	mov.l	@(0xfff4:16,er6),er0
  40129e:	ff f4 
  4012a0:	0a 82       	add.l	er0,er2
  4012a2:	68 3b       	mov.b	@er3,r3l
  4012a4:	68 ab       	mov.b	r3l,@er2

004012a6 <.LM24>:
/home/rtl8019.c:136
  for (i = 0; i < size; i++) {
  4012a6:	6f 62 ff fe 	mov.w	@(0xfffe:16,er6),r2
  4012aa:	0b 02       	adds	#1,er2
  4012ac:	6f e2 ff fe 	mov.w	r2,@(0xfffe:16,er6)

004012b0 <.L8>:
/home/rtl8019.c:136 (discriminator 1)
  4012b0:	6f 63 ff fe 	mov.w	@(0xfffe:16,er6),r3
  4012b4:	6f 62 ff f8 	mov.w	@(0xfff8:16,er6),r2
  4012b8:	1d 23       	cmp.w	r2,r3
  4012ba:	4d ac       	blt	.-84 (0x401268)

004012bc <.LM26>:
	...

004012be <.L11>:
/home/rtl8019.c:144 (discriminator 1)
  }
  while ((*NE2000_ISR & NE2000_ISR_RDC) == 0)
  4012be:	7a 02 00 20 	mov.l	#0x200007,er2
  4012c2:	00 07 
  4012c4:	68 2a       	mov.b	@er2,r2l
  4012c6:	17 52       	extu.w	r2
  4012c8:	79 62 00 40 	and.w	#0x40,r2
  4012cc:	0d 22       	mov.w	r2,r2
  4012ce:	47 ee       	beq	.-18 (0x4012be)

004012d0 <.LM28>:
/home/rtl8019.c:147
    ;

  return 0;
  4012d0:	19 22       	sub.w	r2,r2

004012d2 <.LM29>:
/home/rtl8019.c:148
}
  4012d2:	0d 20       	mov.w	r2,r0
  4012d4:	7a 17 00 00 	add.l	#0xc,er7
  4012d8:	00 0c 
  4012da:	01 00 6d 76 	mov.l	@er7+,er6
  4012de:	54 70       	rts	

004012e0 <_write_data>:
write_data():
/home/rtl8019.c:151

static int write_data(int addr, int size, char *buf)
{
  4012e0:	01 00 6d f6 	mov.l	er6,@-er7
  4012e4:	0f f6       	mov.l	er7,er6
  4012e6:	7a 37 00 00 	sub.l	#0xc,er7
  4012ea:	00 0c 
  4012ec:	6f e0 ff fa 	mov.w	r0,@(0xfffa:16,er6)
  4012f0:	6f e1 ff f8 	mov.w	r1,@(0xfff8:16,er6)
  4012f4:	01 00 6f e2 	mov.l	er2,@(0xfff4:16,er6)
  4012f8:	ff f4 

004012fa <.LM31>:
/home/rtl8019.c:154
  int i;
        
  *NE2000_CR    = NE2000_CR_P0 | NE2000_CR_RD_ABORT | NE2000_CR_STA;
  4012fa:	7a 02 00 20 	mov.l	#0x200000,er2
  4012fe:	00 00 
  401300:	fb 22       	mov.b	#0x22,r3l
  401302:	68 ab       	mov.b	r3l,@er2

00401304 <.LM32>:
/home/rtl8019.c:155
  *NE2000_RBCR0 = size & 0xff;
  401304:	7a 02 00 20 	mov.l	#0x20000a,er2
  401308:	00 0a 
  40130a:	6f 63 ff f8 	mov.w	@(0xfff8:16,er6),r3
  40130e:	68 ab       	mov.b	r3l,@er2

00401310 <.LM33>:
/home/rtl8019.c:156
  *NE2000_RBCR1 = (size >> 8) & 0xff;
  401310:	6f 62 ff f8 	mov.w	@(0xfff8:16,er6),r2
  401314:	0c 2a       	mov.b	r2h,r2l
  401316:	17 52       	extu.w	r2
  401318:	7a 03 00 20 	mov.l	#0x20000b,er3
  40131c:	00 0b 
  40131e:	68 ba       	mov.b	r2l,@er3

00401320 <.LM34>:
/home/rtl8019.c:157
  *NE2000_RSAR0 = addr & 0xff;
  401320:	7a 02 00 20 	mov.l	#0x200008,er2
  401324:	00 08 
  401326:	6f 63 ff fa 	mov.w	@(0xfffa:16,er6),r3
  40132a:	68 ab       	mov.b	r3l,@er2

0040132c <.LM35>:
/home/rtl8019.c:158
  *NE2000_RSAR1 = (addr >> 8) & 0xff;
  40132c:	6f 62 ff fa 	mov.w	@(0xfffa:16,er6),r2
  401330:	0c 2a       	mov.b	r2h,r2l
  401332:	17 52       	extu.w	r2
  401334:	7a 03 00 20 	mov.l	#0x200009,er3
  401338:	00 09 
  40133a:	68 ba       	mov.b	r2l,@er3

0040133c <.LM36>:
/home/rtl8019.c:159
  *NE2000_CR    = NE2000_CR_P0 | NE2000_CR_RD_WRITE | NE2000_CR_STA;
  40133c:	7a 02 00 20 	mov.l	#0x200000,er2
  401340:	00 00 
  401342:	fb 12       	mov.b	#0x12,r3l
  401344:	68 ab       	mov.b	r3l,@er2

00401346 <.LM37>:
/home/rtl8019.c:160
  for (i = 0; i < size; i++) {
  401346:	19 22       	sub.w	r2,r2
  401348:	6f e2 ff fe 	mov.w	r2,@(0xfffe:16,er6)
  40134c:	40 48       	bra	.+72 (0x401396)

0040134e <.L16>:
/home/rtl8019.c:161
    *RTL8019_RDMAP = buf[i];
  40134e:	6f 62 ff fe 	mov.w	@(0xfffe:16,er6),r2
  401352:	17 f2       	exts.l	er2
  401354:	01 00 6f 63 	mov.l	@(0xfff4:16,er6),er3
  401358:	ff f4 
  40135a:	0a a3       	add.l	er2,er3
  40135c:	7a 02 00 20 	mov.l	#0x200010,er2
  401360:	00 10 
  401362:	68 3b       	mov.b	@er3,r3l
  401364:	68 ab       	mov.b	r3l,@er2

00401366 <.LM39>:
/home/rtl8019.c:163
#ifdef SIMULATOR
    *RTL8019_SIM_SR |= RTL8019_SIM_SR_NRDY;
  401366:	7a 02 00 20 	mov.l	#0x2000ff,er2
  40136a:	00 ff 
  40136c:	68 2b       	mov.b	@er2,r3l
  40136e:	7a 02 00 20 	mov.l	#0x2000ff,er2
  401372:	00 ff 
  401374:	70 0b       	bset	#0x0,r3l
  401376:	68 ab       	mov.b	r3l,@er2

00401378 <.LM40>:
	...

0040137a <.L15>:
/home/rtl8019.c:164 (discriminator 1)
    while (*RTL8019_SIM_SR & RTL8019_SIM_SR_NRDY)
  40137a:	7a 02 00 20 	mov.l	#0x2000ff,er2
  40137e:	00 ff 
  401380:	68 2a       	mov.b	@er2,r2l
  401382:	17 52       	extu.w	r2
  401384:	79 62 00 01 	and.w	#0x1,r2
  401388:	0d 22       	mov.w	r2,r2
  40138a:	46 ee       	bne	.-18 (0x40137a)

0040138c <.LM42>:
/home/rtl8019.c:160 (discriminator 2)
  for (i = 0; i < size; i++) {
  40138c:	6f 62 ff fe 	mov.w	@(0xfffe:16,er6),r2
  401390:	0b 02       	adds	#1,er2
  401392:	6f e2 ff fe 	mov.w	r2,@(0xfffe:16,er6)

00401396 <.L14>:
/home/rtl8019.c:160 (discriminator 1)
  401396:	6f 63 ff fe 	mov.w	@(0xfffe:16,er6),r3
  40139a:	6f 62 ff f8 	mov.w	@(0xfff8:16,er6),r2
  40139e:	1d 23       	cmp.w	r2,r3
  4013a0:	4d ac       	blt	.-84 (0x40134e)

004013a2 <.LM44>:
	...

004013a4 <.L17>:
/home/rtl8019.c:168 (discriminator 1)
      ;
#endif
  }
  while ((*NE2000_ISR & NE2000_ISR_RDC) == 0)
  4013a4:	7a 02 00 20 	mov.l	#0x200007,er2
  4013a8:	00 07 
  4013aa:	68 2a       	mov.b	@er2,r2l
  4013ac:	17 52       	extu.w	r2
  4013ae:	79 62 00 40 	and.w	#0x40,r2
  4013b2:	0d 22       	mov.w	r2,r2
  4013b4:	47 ee       	beq	.-18 (0x4013a4)

004013b6 <.LM46>:
/home/rtl8019.c:171
    ;

  return 0;
  4013b6:	19 22       	sub.w	r2,r2

004013b8 <.LM47>:
/home/rtl8019.c:172
}
  4013b8:	0d 20       	mov.w	r2,r0
  4013ba:	7a 17 00 00 	add.l	#0xc,er7
  4013be:	00 0c 
  4013c0:	01 00 6d 76 	mov.l	@er7+,er6
  4013c4:	54 70       	rts	

004013c6 <_port_init>:
port_init():
/home/rtl8019.c:175

static int port_init()
{
  4013c6:	01 00 6d f6 	mov.l	er6,@-er7
  4013ca:	0f f6       	mov.l	er7,er6

004013cc <.LM49>:
/home/rtl8019.c:185
#endif

#if 0
  *H8_3069F_P8DDR = 0xe8; /* CS1 */
#else
  *H8_3069F_P8DDR = 0xec; /* CS1(ether) and CS2(DRAM) */
  4013cc:	7a 02 00 fe 	mov.l	#0xfee007,er2
  4013d0:	e0 07 
  4013d2:	fb ec       	mov.b	#0xec,r3l
  4013d4:	68 ab       	mov.b	r3l,@er2

004013d6 <.LM50>:
/home/rtl8019.c:192

#if 0
  *H8_3069F_P9DDR = ...; /* IERの設定によるので設定不要 */
#endif

  *H8_3069F_ISCR = 0x00; /* lowレベルで割り込み */
  4013d6:	7a 02 00 fe 	mov.l	#0xfee014,er2
  4013da:	e0 14 
  4013dc:	18 bb       	sub.b	r3l,r3l
  4013de:	68 ab       	mov.b	r3l,@er2

004013e0 <.LM51>:
/home/rtl8019.c:193
  *H8_3069F_IPRA = 0x00;
  4013e0:	7a 02 00 fe 	mov.l	#0xfee018,er2
  4013e4:	e0 18 
  4013e6:	18 bb       	sub.b	r3l,r3l
  4013e8:	68 ab       	mov.b	r3l,@er2

004013ea <.LM52>:
/home/rtl8019.c:194
  *H8_3069F_IER  = 0x20; /* IRQ5割り込み有効化 */
  4013ea:	7a 02 00 fe 	mov.l	#0xfee015,er2
  4013ee:	e0 15 
  4013f0:	fb 20       	mov.b	#0x20,r3l
  4013f2:	68 ab       	mov.b	r3l,@er2

004013f4 <.LM53>:
/home/rtl8019.c:196

  return 0;
  4013f4:	19 22       	sub.w	r2,r2

004013f6 <.LM54>:
/home/rtl8019.c:197
}
  4013f6:	0d 20       	mov.w	r2,r0
  4013f8:	01 00 6d 76 	mov.l	@er7+,er6
  4013fc:	54 70       	rts	

004013fe <_rtl8019_init>:
rtl8019_init():
/home/rtl8019.c:200

int rtl8019_init(int index, unsigned char macaddr[])
{
  4013fe:	01 00 6d f6 	mov.l	er6,@-er7
  401402:	0f f6       	mov.l	er7,er6
  401404:	7a 37 00 00 	sub.l	#0x18,er7
  401408:	00 18 
  40140a:	6f e0 ff ee 	mov.w	r0,@(0xffee:16,er6)
  40140e:	01 00 6f e1 	mov.l	er1,@(0xffe8:16,er6)
  401412:	ff e8 

00401414 <.LM56>:
/home/rtl8019.c:205
  unsigned char t1;
  unsigned char t2[12];
  int i;

  port_init();
  401414:	5e 40 13 c6 	jsr	@0x4013c6:24

00401418 <.LM57>:
/home/rtl8019.c:207
        
  t1 = *RTL8019_RP;
  401418:	7a 02 00 20 	mov.l	#0x200018,er2
  40141c:	00 18 
  40141e:	68 2a       	mov.b	@er2,r2l
  401420:	6e ea ff fd 	mov.b	r2l,@(0xfffd:16,er6)

00401424 <.LM58>:
/home/rtl8019.c:208
  *RTL8019_RP = t1;
  401424:	7a 02 00 20 	mov.l	#0x200018,er2
  401428:	00 18 
  40142a:	6e 6b ff fd 	mov.b	@(0xfffd:16,er6),r3l
  40142e:	68 ab       	mov.b	r3l,@er2

00401430 <.LM59>:
/home/rtl8019.c:210

  mdelay(10);
  401430:	79 00 00 0a 	mov.w	#0xa,r0
  401434:	5e 40 11 b8 	jsr	@0x4011b8:24

00401438 <.LM60>:
/home/rtl8019.c:212

  *NE2000_CR     = NE2000_CR_P0 | NE2000_CR_RD_ABORT | NE2000_CR_STP;
  401438:	7a 02 00 20 	mov.l	#0x200000,er2
  40143c:	00 00 
  40143e:	fb 21       	mov.b	#0x21,r3l
  401440:	68 ab       	mov.b	r3l,@er2

00401442 <.LM61>:
/home/rtl8019.c:213
  *NE2000_DCR    = NE2000_DCR_F1 | NE2000_DCR_LS | NE2000_DCR_BOS;
  401442:	7a 02 00 20 	mov.l	#0x20000e,er2
  401446:	00 0e 
  401448:	fb 4a       	mov.b	#0x4a,r3l
  40144a:	68 ab       	mov.b	r3l,@er2

0040144c <.LM62>:
/home/rtl8019.c:214
  *NE2000_RBCR0  = 0x00;
  40144c:	7a 02 00 20 	mov.l	#0x20000a,er2
  401450:	00 0a 
  401452:	18 bb       	sub.b	r3l,r3l
  401454:	68 ab       	mov.b	r3l,@er2

00401456 <.LM63>:
/home/rtl8019.c:215
  *NE2000_RBCR1  = 0x00;
  401456:	7a 02 00 20 	mov.l	#0x20000b,er2
  40145a:	00 0b 
  40145c:	18 bb       	sub.b	r3l,r3l
  40145e:	68 ab       	mov.b	r3l,@er2

00401460 <.LM64>:
/home/rtl8019.c:216
  *NE2000_RCR    = 0;
  401460:	7a 02 00 20 	mov.l	#0x20000c,er2
  401464:	00 0c 
  401466:	18 bb       	sub.b	r3l,r3l
  401468:	68 ab       	mov.b	r3l,@er2

0040146a <.LM65>:
/home/rtl8019.c:217
  *NE2000_TCR    = 0;
  40146a:	7a 02 00 20 	mov.l	#0x20000d,er2
  40146e:	00 0d 
  401470:	18 bb       	sub.b	r3l,r3l
  401472:	68 ab       	mov.b	r3l,@er2

00401474 <.LM66>:
/home/rtl8019.c:218
  *NE2000_TPSR   = NE2000_TP_START;
  401474:	7a 02 00 20 	mov.l	#0x200004,er2
  401478:	00 04 
  40147a:	fb 40       	mov.b	#0x40,r3l
  40147c:	68 ab       	mov.b	r3l,@er2

0040147e <.LM67>:
/home/rtl8019.c:219
  *NE2000_PSTART = NE2000_RP_START;
  40147e:	7a 02 00 20 	mov.l	#0x200001,er2
  401482:	00 01 
  401484:	fb 46       	mov.b	#0x46,r3l
  401486:	68 ab       	mov.b	r3l,@er2

00401488 <.LM68>:
/home/rtl8019.c:220
  *NE2000_BNRY   = NE2000_RP_START;
  401488:	7a 02 00 20 	mov.l	#0x200003,er2
  40148c:	00 03 
  40148e:	fb 46       	mov.b	#0x46,r3l
  401490:	68 ab       	mov.b	r3l,@er2

00401492 <.LM69>:
/home/rtl8019.c:221
  *NE2000_PSTOP  = NE2000_RP_STOP;
  401492:	7a 02 00 20 	mov.l	#0x200002,er2
  401496:	00 02 
  401498:	fb 80       	mov.b	#0x80,r3l
  40149a:	68 ab       	mov.b	r3l,@er2

0040149c <.LM70>:
/home/rtl8019.c:222
  *NE2000_IMR    = 0x00;
  40149c:	7a 02 00 20 	mov.l	#0x20000f,er2
  4014a0:	00 0f 
  4014a2:	18 bb       	sub.b	r3l,r3l
  4014a4:	68 ab       	mov.b	r3l,@er2

004014a6 <.LM71>:
/home/rtl8019.c:223
  *NE2000_ISR    = 0xff;
  4014a6:	7a 02 00 20 	mov.l	#0x200007,er2
  4014aa:	00 07 
  4014ac:	fb ff       	mov.b	#0xff,r3l
  4014ae:	68 ab       	mov.b	r3l,@er2

004014b0 <.LM72>:
/home/rtl8019.c:225
        
  read_data(0, 12, t2);
  4014b0:	0f e2       	mov.l	er6,er2
  4014b2:	7a 32 00 00 	sub.l	#0xf,er2
  4014b6:	00 0f 
  4014b8:	79 01 00 0c 	mov.w	#0xc,r1
  4014bc:	19 00       	sub.w	r0,r0
  4014be:	5e 40 11 fa 	jsr	@0x4011fa:24

004014c2 <.LM73>:
/home/rtl8019.c:226
  puts("MAC: ");
  4014c2:	7a 00 00 40 	mov.l	#0x4052ec,er0
  4014c6:	52 ec 
  4014c8:	5e 40 09 94 	jsr	@0x400994:24

004014cc <.LM74>:
/home/rtl8019.c:227
  for (i = 0; i < 6; i++) {
  4014cc:	19 22       	sub.w	r2,r2
  4014ce:	6f e2 ff fe 	mov.w	r2,@(0xfffe:16,er6)
  4014d2:	40 4e       	bra	.+78 (0x401522)

004014d4 <.L23>:
/home/rtl8019.c:228 (discriminator 3)
    macaddr[i] = t2[i * 2];
  4014d4:	6f 62 ff fe 	mov.w	@(0xfffe:16,er6),r2
  4014d8:	10 12       	shll.w	r2
  4014da:	6f 63 ff fe 	mov.w	@(0xfffe:16,er6),r3
  4014de:	17 f3       	exts.l	er3
  4014e0:	01 00 6f 60 	mov.l	@(0xffe8:16,er6),er0
  4014e4:	ff e8 
  4014e6:	0a 83       	add.l	er0,er3
  4014e8:	17 f2       	exts.l	er2
  4014ea:	0f e0       	mov.l	er6,er0
  4014ec:	7a 30 00 00 	sub.l	#0xf,er0
  4014f0:	00 0f 
  4014f2:	0a 82       	add.l	er0,er2
  4014f4:	68 2a       	mov.b	@er2,r2l
  4014f6:	68 ba       	mov.b	r2l,@er3

004014f8 <.LM76>:
/home/rtl8019.c:229
    putxval((unsigned char)macaddr[i], 2);
  4014f8:	6f 62 ff fe 	mov.w	@(0xfffe:16,er6),r2
  4014fc:	17 f2       	exts.l	er2
  4014fe:	01 00 6f 63 	mov.l	@(0xffe8:16,er6),er3
  401502:	ff e8 
  401504:	0a b2       	add.l	er3,er2
  401506:	68 2a       	mov.b	@er2,r2l
  401508:	0c aa       	mov.b	r2l,r2l
  40150a:	17 52       	extu.w	r2
  40150c:	17 72       	extu.l	er2
  40150e:	79 01 00 02 	mov.w	#0x2,r1
  401512:	0f a0       	mov.l	er2,er0
  401514:	5e 40 0a 38 	jsr	@0x400a38:24

00401518 <.LM77>:
/home/rtl8019.c:227
  for (i = 0; i < 6; i++) {
  401518:	6f 62 ff fe 	mov.w	@(0xfffe:16,er6),r2
  40151c:	0b 02       	adds	#1,er2
  40151e:	6f e2 ff fe 	mov.w	r2,@(0xfffe:16,er6)

00401522 <.L22>:
/home/rtl8019.c:227 (discriminator 1)
  401522:	6f 62 ff fe 	mov.w	@(0xfffe:16,er6),r2
  401526:	79 22 00 05 	cmp.w	#0x5,r2
  40152a:	4f a8       	ble	.-88 (0x4014d4)

0040152c <.LM79>:
/home/rtl8019.c:231
  }
  puts("\n");
  40152c:	7a 00 00 40 	mov.l	#0x4052f2,er0
  401530:	52 f2 
  401532:	5e 40 09 94 	jsr	@0x400994:24

00401536 <.LM80>:
/home/rtl8019.c:233

  *NE2000_CR   = NE2000_CR_P1 | NE2000_CR_RD_ABORT | NE2000_CR_STP;
  401536:	7a 02 00 20 	mov.l	#0x200000,er2
  40153a:	00 00 
  40153c:	fb 61       	mov.b	#0x61,r3l
  40153e:	68 ab       	mov.b	r3l,@er2

00401540 <.LM81>:
/home/rtl8019.c:234
  *NE2000_PAR0 = macaddr[0];
  401540:	7a 02 00 20 	mov.l	#0x200001,er2
  401544:	00 01 
  401546:	01 00 6f 63 	mov.l	@(0xffe8:16,er6),er3
  40154a:	ff e8 
  40154c:	68 3b       	mov.b	@er3,r3l
  40154e:	68 ab       	mov.b	r3l,@er2

00401550 <.LM82>:
/home/rtl8019.c:235
  *NE2000_PAR1 = macaddr[1];
  401550:	7a 02 00 20 	mov.l	#0x200002,er2
  401554:	00 02 
  401556:	01 00 6f 63 	mov.l	@(0xffe8:16,er6),er3
  40155a:	ff e8 
  40155c:	6e 3b 00 01 	mov.b	@(0x1:16,er3),r3l
  401560:	68 ab       	mov.b	r3l,@er2

00401562 <.LM83>:
/home/rtl8019.c:236
  *NE2000_PAR2 = macaddr[2];
  401562:	7a 02 00 20 	mov.l	#0x200003,er2
  401566:	00 03 
  401568:	01 00 6f 63 	mov.l	@(0xffe8:16,er6),er3
  40156c:	ff e8 
  40156e:	6e 3b 00 02 	mov.b	@(0x2:16,er3),r3l
  401572:	68 ab       	mov.b	r3l,@er2

00401574 <.LM84>:
/home/rtl8019.c:237
  *NE2000_PAR3 = macaddr[3];
  401574:	7a 02 00 20 	mov.l	#0x200004,er2
  401578:	00 04 
  40157a:	01 00 6f 63 	mov.l	@(0xffe8:16,er6),er3
  40157e:	ff e8 
  401580:	6e 3b 00 03 	mov.b	@(0x3:16,er3),r3l
  401584:	68 ab       	mov.b	r3l,@er2

00401586 <.LM85>:
/home/rtl8019.c:238
  *NE2000_PAR4 = macaddr[4];
  401586:	7a 02 00 20 	mov.l	#0x200005,er2
  40158a:	00 05 
  40158c:	01 00 6f 63 	mov.l	@(0xffe8:16,er6),er3
  401590:	ff e8 
  401592:	6e 3b 00 04 	mov.b	@(0x4:16,er3),r3l
  401596:	68 ab       	mov.b	r3l,@er2

00401598 <.LM86>:
/home/rtl8019.c:239
  *NE2000_PAR5 = macaddr[5];
  401598:	7a 02 00 20 	mov.l	#0x200006,er2
  40159c:	00 06 
  40159e:	01 00 6f 63 	mov.l	@(0xffe8:16,er6),er3
  4015a2:	ff e8 
  4015a4:	6e 3b 00 05 	mov.b	@(0x5:16,er3),r3l
  4015a8:	68 ab       	mov.b	r3l,@er2

004015aa <.LM87>:
/home/rtl8019.c:240
  *NE2000_CURR = NE2000_RP_START + 1;
  4015aa:	7a 02 00 20 	mov.l	#0x200007,er2
  4015ae:	00 07 
  4015b0:	fb 47       	mov.b	#0x47,r3l
  4015b2:	68 ab       	mov.b	r3l,@er2

004015b4 <.LM88>:
/home/rtl8019.c:241
  *NE2000_MAR0 = 0x00;
  4015b4:	7a 02 00 20 	mov.l	#0x200008,er2
  4015b8:	00 08 
  4015ba:	18 bb       	sub.b	r3l,r3l
  4015bc:	68 ab       	mov.b	r3l,@er2

004015be <.LM89>:
/home/rtl8019.c:242
  *NE2000_MAR1 = 0x00;
  4015be:	7a 02 00 20 	mov.l	#0x200009,er2
  4015c2:	00 09 
  4015c4:	18 bb       	sub.b	r3l,r3l
  4015c6:	68 ab       	mov.b	r3l,@er2

004015c8 <.LM90>:
/home/rtl8019.c:243
  *NE2000_MAR2 = 0x00;
  4015c8:	7a 02 00 20 	mov.l	#0x20000a,er2
  4015cc:	00 0a 
  4015ce:	18 bb       	sub.b	r3l,r3l
  4015d0:	68 ab       	mov.b	r3l,@er2

004015d2 <.LM91>:
/home/rtl8019.c:244
  *NE2000_MAR3 = 0x00;
  4015d2:	7a 02 00 20 	mov.l	#0x20000b,er2
  4015d6:	00 0b 
  4015d8:	18 bb       	sub.b	r3l,r3l
  4015da:	68 ab       	mov.b	r3l,@er2

004015dc <.LM92>:
/home/rtl8019.c:245
  *NE2000_MAR4 = 0x00;
  4015dc:	7a 02 00 20 	mov.l	#0x20000c,er2
  4015e0:	00 0c 
  4015e2:	18 bb       	sub.b	r3l,r3l
  4015e4:	68 ab       	mov.b	r3l,@er2

004015e6 <.LM93>:
/home/rtl8019.c:246
  *NE2000_MAR5 = 0x00;
  4015e6:	7a 02 00 20 	mov.l	#0x20000d,er2
  4015ea:	00 0d 
  4015ec:	18 bb       	sub.b	r3l,r3l
  4015ee:	68 ab       	mov.b	r3l,@er2

004015f0 <.LM94>:
/home/rtl8019.c:247
  *NE2000_MAR6 = 0x00;
  4015f0:	7a 02 00 20 	mov.l	#0x20000e,er2
  4015f4:	00 0e 
  4015f6:	18 bb       	sub.b	r3l,r3l
  4015f8:	68 ab       	mov.b	r3l,@er2

004015fa <.LM95>:
/home/rtl8019.c:248
  *NE2000_MAR7 = 0x00;
  4015fa:	7a 02 00 20 	mov.l	#0x20000f,er2
  4015fe:	00 0f 
  401600:	18 bb       	sub.b	r3l,r3l
  401602:	68 ab       	mov.b	r3l,@er2

00401604 <.LM96>:
/home/rtl8019.c:258
  *RTL8019_CONFIG1 = 0x80 | 0x40;
  *RTL8019_CONFIG2 = 0x00;
  *RTL8019_9346CR  = 0x00;
#endif

  *NE2000_CR   = NE2000_CR_P0 | NE2000_CR_RD_ABORT | NE2000_CR_STP;
  401604:	7a 02 00 20 	mov.l	#0x200000,er2
  401608:	00 00 
  40160a:	fb 21       	mov.b	#0x21,r3l
  40160c:	68 ab       	mov.b	r3l,@er2

0040160e <.LM97>:
/home/rtl8019.c:259
  *NE2000_RCR  = NE2000_RCR_AM | NE2000_RCR_AB | NE2000_RCR_MON;
  40160e:	7a 02 00 20 	mov.l	#0x20000c,er2
  401612:	00 0c 
  401614:	fb 2c       	mov.b	#0x2c,r3l
  401616:	68 ab       	mov.b	r3l,@er2

00401618 <.LM98>:
/home/rtl8019.c:260
  *NE2000_CR   = NE2000_CR_P0 | NE2000_CR_RD_ABORT | NE2000_CR_STA;
  401618:	7a 02 00 20 	mov.l	#0x200000,er2
  40161c:	00 00 
  40161e:	fb 22       	mov.b	#0x22,r3l
  401620:	68 ab       	mov.b	r3l,@er2

00401622 <.LM99>:
/home/rtl8019.c:261
  *NE2000_TCR  = NE2000_TCR_NORMAL;
  401622:	7a 02 00 20 	mov.l	#0x20000d,er2
  401626:	00 0d 
  401628:	18 bb       	sub.b	r3l,r3l
  40162a:	68 ab       	mov.b	r3l,@er2

0040162c <.LM100>:
/home/rtl8019.c:262
  *NE2000_IMR  = 0x00;
  40162c:	7a 02 00 20 	mov.l	#0x20000f,er2
  401630:	00 0f 
  401632:	18 bb       	sub.b	r3l,r3l
  401634:	68 ab       	mov.b	r3l,@er2

00401636 <.LM101>:
/home/rtl8019.c:264

  return 0;
  401636:	19 22       	sub.w	r2,r2

00401638 <.LM102>:
/home/rtl8019.c:265
}
  401638:	0d 20       	mov.w	r2,r0
  40163a:	7a 17 00 00 	add.l	#0x18,er7
  40163e:	00 18 
  401640:	01 00 6d 76 	mov.l	@er7+,er6
  401644:	54 70       	rts	

00401646 <_rtl8019_intr_enable>:
rtl8019_intr_enable():
/home/rtl8019.c:268

void rtl8019_intr_enable(int index)
{
  401646:	01 00 6d f6 	mov.l	er6,@-er7
  40164a:	0f f6       	mov.l	er7,er6
  40164c:	1b 97       	subs	#4,er7
  40164e:	6f e0 ff fe 	mov.w	r0,@(0xfffe:16,er6)

00401652 <.LM104>:
/home/rtl8019.c:269
  *NE2000_CR  = NE2000_CR_P0 | NE2000_CR_RD_ABORT | NE2000_CR_STA;
  401652:	7a 02 00 20 	mov.l	#0x200000,er2
  401656:	00 00 
  401658:	fb 22       	mov.b	#0x22,r3l
  40165a:	68 ab       	mov.b	r3l,@er2

0040165c <.LM105>:
/home/rtl8019.c:270
  *NE2000_IMR = 0x01;
  40165c:	7a 02 00 20 	mov.l	#0x20000f,er2
  401660:	00 0f 
  401662:	fb 01       	mov.b	#0x1,r3l
  401664:	68 ab       	mov.b	r3l,@er2

00401666 <.LM106>:
/home/rtl8019.c:271
}
  401666:	00 00       	nop	
  401668:	0b 97       	adds	#4,er7
  40166a:	01 00 6d 76 	mov.l	@er7+,er6
  40166e:	54 70       	rts	

00401670 <_rtl8019_intr_disable>:
rtl8019_intr_disable():
/home/rtl8019.c:274

void rtl8019_intr_disable(int index)
{
  401670:	01 00 6d f6 	mov.l	er6,@-er7
  401674:	0f f6       	mov.l	er7,er6
  401676:	1b 97       	subs	#4,er7
  401678:	6f e0 ff fe 	mov.w	r0,@(0xfffe:16,er6)

0040167c <.LM108>:
/home/rtl8019.c:275
  *NE2000_CR  = NE2000_CR_P0 | NE2000_CR_RD_ABORT | NE2000_CR_STP;
  40167c:	7a 02 00 20 	mov.l	#0x200000,er2
  401680:	00 00 
  401682:	fb 21       	mov.b	#0x21,r3l
  401684:	68 ab       	mov.b	r3l,@er2

00401686 <.LM109>:
/home/rtl8019.c:276
  *NE2000_IMR = 0x00;
  401686:	7a 02 00 20 	mov.l	#0x20000f,er2
  40168a:	00 0f 
  40168c:	18 bb       	sub.b	r3l,r3l
  40168e:	68 ab       	mov.b	r3l,@er2

00401690 <.LM110>:
/home/rtl8019.c:277
}
  401690:	00 00       	nop	
  401692:	0b 97       	adds	#4,er7
  401694:	01 00 6d 76 	mov.l	@er7+,er6
  401698:	54 70       	rts	

0040169a <_rtl8019_checkintr>:
rtl8019_checkintr():
/home/rtl8019.c:280

int rtl8019_checkintr(int index)
{
  40169a:	01 00 6d f6 	mov.l	er6,@-er7
  40169e:	0f f6       	mov.l	er7,er6
  4016a0:	7a 37 00 00 	sub.l	#0x8,er7
  4016a4:	00 08 
  4016a6:	6f e0 ff fa 	mov.w	r0,@(0xfffa:16,er6)

004016aa <.LM112>:
/home/rtl8019.c:286
  unsigned char status;
#if 0
  status = *H8_3069F_ISR;
  return (status & 0x20) ? 1 : 0;
#else
  *NE2000_CR = NE2000_CR_P0 | NE2000_CR_RD_ABORT | NE2000_CR_STA;
  4016aa:	7a 02 00 20 	mov.l	#0x200000,er2
  4016ae:	00 00 
  4016b0:	fb 22       	mov.b	#0x22,r3l
  4016b2:	68 ab       	mov.b	r3l,@er2

004016b4 <.LM113>:
/home/rtl8019.c:287
  status = *NE2000_ISR;
  4016b4:	7a 02 00 20 	mov.l	#0x200007,er2
  4016b8:	00 07 
  4016ba:	68 2a       	mov.b	@er2,r2l
  4016bc:	6e ea ff ff 	mov.b	r2l,@(0xffff:16,er6)

004016c0 <.LM114>:
/home/rtl8019.c:288
  return (status & 0x01) ? 1 : 0;
  4016c0:	6e 6a ff ff 	mov.b	@(0xffff:16,er6),r2l
  4016c4:	17 52       	extu.w	r2
  4016c6:	79 62 00 01 	and.w	#0x1,r2

004016ca <.LM115>:
/home/rtl8019.c:290
#endif
}
  4016ca:	0d 20       	mov.w	r2,r0
  4016cc:	0b 97       	adds	#4,er7
  4016ce:	0b 97       	adds	#4,er7
  4016d0:	01 00 6d 76 	mov.l	@er7+,er6
  4016d4:	54 70       	rts	

004016d6 <_clear_irq>:
clear_irq():
/home/rtl8019.c:293

static int clear_irq(int index)
{
  4016d6:	01 00 6d f6 	mov.l	er6,@-er7
  4016da:	0f f6       	mov.l	er7,er6
  4016dc:	1b 97       	subs	#4,er7
  4016de:	6f e0 ff fe 	mov.w	r0,@(0xfffe:16,er6)

004016e2 <.LM117>:
/home/rtl8019.c:294
  if (rtl8019_checkintr(index)) {
  4016e2:	6f 62 ff fe 	mov.w	@(0xfffe:16,er6),r2
  4016e6:	0d 20       	mov.w	r2,r0
  4016e8:	5e 40 16 9a 	jsr	@0x40169a:24
  4016ec:	0d 02       	mov.w	r0,r2
  4016ee:	0d 22       	mov.w	r2,r2
  4016f0:	47 1e       	beq	.+30 (0x401710)

004016f2 <.LM118>:
/home/rtl8019.c:295
    *H8_3069F_ISR = 0x00;
  4016f2:	7a 02 00 fe 	mov.l	#0xfee016,er2
  4016f6:	e0 16 
  4016f8:	18 bb       	sub.b	r3l,r3l
  4016fa:	68 ab       	mov.b	r3l,@er2

004016fc <.LM119>:
/home/rtl8019.c:296
    *NE2000_CR    = NE2000_CR_P0 | NE2000_CR_RD_ABORT | NE2000_CR_STA;
  4016fc:	7a 02 00 20 	mov.l	#0x200000,er2
  401700:	00 00 
  401702:	fb 22       	mov.b	#0x22,r3l
  401704:	68 ab       	mov.b	r3l,@er2

00401706 <.LM120>:
/home/rtl8019.c:297
    *NE2000_ISR   = 0xff;
  401706:	7a 02 00 20 	mov.l	#0x200007,er2
  40170a:	00 07 
  40170c:	fb ff       	mov.b	#0xff,r3l
  40170e:	68 ab       	mov.b	r3l,@er2

00401710 <.L30>:
/home/rtl8019.c:299
  }
  return 0;
  401710:	19 22       	sub.w	r2,r2

00401712 <.LM122>:
/home/rtl8019.c:300
}
  401712:	0d 20       	mov.w	r2,r0
  401714:	0b 97       	adds	#4,er7
  401716:	01 00 6d 76 	mov.l	@er7+,er6
  40171a:	54 70       	rts	

0040171c <_rtl8019_recv>:
rtl8019_recv():
/home/rtl8019.c:303

int rtl8019_recv(int index, char *buf)
{
  40171c:	01 00 6d f6 	mov.l	er6,@-er7
  401720:	0f f6       	mov.l	er7,er6
  401722:	7a 37 00 00 	sub.l	#0x10,er7
  401726:	00 10 
  401728:	6f e0 ff f6 	mov.w	r0,@(0xfff6:16,er6)
  40172c:	01 00 6f e1 	mov.l	er1,@(0xfff0:16,er6)
  401730:	ff f0 

00401732 <.LM124>:
/home/rtl8019.c:308
  unsigned char start, curr;
  unsigned char header[4];
  int size;

  *NE2000_CR = NE2000_CR_P0 | NE2000_CR_RD_ABORT | NE2000_CR_STA;
  401732:	7a 02 00 20 	mov.l	#0x200000,er2
  401736:	00 00 
  401738:	fb 22       	mov.b	#0x22,r3l
  40173a:	68 ab       	mov.b	r3l,@er2

0040173c <.LM125>:
/home/rtl8019.c:309
  start = *NE2000_BNRY + 1;
  40173c:	7a 02 00 20 	mov.l	#0x200003,er2
  401740:	00 03 
  401742:	68 2a       	mov.b	@er2,r2l
  401744:	8a 01       	add.b	#0x1,r2l
  401746:	6e ea ff ff 	mov.b	r2l,@(0xffff:16,er6)

0040174a <.LM126>:
/home/rtl8019.c:311

  *NE2000_CR = NE2000_CR_P1 | NE2000_CR_RD_ABORT | NE2000_CR_STA;
  40174a:	7a 02 00 20 	mov.l	#0x200000,er2
  40174e:	00 00 
  401750:	fb 62       	mov.b	#0x62,r3l
  401752:	68 ab       	mov.b	r3l,@er2

00401754 <.LM127>:
/home/rtl8019.c:312
  curr = *NE2000_CURR;
  401754:	7a 02 00 20 	mov.l	#0x200007,er2
  401758:	00 07 
  40175a:	68 2a       	mov.b	@er2,r2l
  40175c:	6e ea ff fe 	mov.b	r2l,@(0xfffe:16,er6)

00401760 <.LM128>:
/home/rtl8019.c:314

  if (curr < start)
  401760:	6e 6b ff fe 	mov.b	@(0xfffe:16,er6),r3l
  401764:	6e 6a ff ff 	mov.b	@(0xffff:16,er6),r2l
  401768:	1c ab       	cmp.b	r2l,r3l
  40176a:	44 0a       	bcc	.+10 (0x401776)

0040176c <.LM129>:
/home/rtl8019.c:315
    curr += NE2000_RP_STOP - NE2000_RP_START;
  40176c:	6e 6a ff fe 	mov.b	@(0xfffe:16,er6),r2l
  401770:	8a 3a       	add.b	#0x3a,r2l
  401772:	6e ea ff fe 	mov.b	r2l,@(0xfffe:16,er6)

00401776 <.L33>:
/home/rtl8019.c:316
  if (start == curr)
  401776:	6e 6b ff ff 	mov.b	@(0xffff:16,er6),r3l
  40177a:	6e 6a ff fe 	mov.b	@(0xfffe:16,er6),r2l
  40177e:	1c ab       	cmp.b	r2l,r3l
  401780:	46 06       	bne	.+6 (0x401788)

00401782 <.LM131>:
/home/rtl8019.c:317
    return 0;
  401782:	19 22       	sub.w	r2,r2
  401784:	58 00 00 96 	bra	.+150 (0x40181e)

00401788 <.L34>:
/home/rtl8019.c:318
  if (start == NE2000_RP_STOP)
  401788:	6e 6a ff ff 	mov.b	@(0xffff:16,er6),r2l
  40178c:	aa 80       	cmp.b	#0x80,r2l
  40178e:	46 06       	bne	.+6 (0x401796)

00401790 <.LM133>:
/home/rtl8019.c:319
    start = NE2000_RP_START;
  401790:	fa 46       	mov.b	#0x46,r2l
  401792:	6e ea ff ff 	mov.b	r2l,@(0xffff:16,er6)

00401796 <.L36>:
/home/rtl8019.c:321

  read_data(start * 256, 4, header);
  401796:	6e 6a ff ff 	mov.b	@(0xffff:16,er6),r2l
  40179a:	17 52       	extu.w	r2
  40179c:	0d 23       	mov.w	r2,r3
  40179e:	0c b3       	mov.b	r3l,r3h
  4017a0:	18 bb       	sub.b	r3l,r3l
  4017a2:	0f e2       	mov.l	er6,er2
  4017a4:	1b 92       	subs	#4,er2
  4017a6:	1b 92       	subs	#4,er2
  4017a8:	79 01 00 04 	mov.w	#0x4,r1
  4017ac:	0d 30       	mov.w	r3,r0
  4017ae:	5e 40 11 fa 	jsr	@0x4011fa:24

004017b2 <.LM135>:
/home/rtl8019.c:323

  size = ((int)header[3] << 8) + header[2] - 4;
  4017b2:	6e 6a ff fb 	mov.b	@(0xfffb:16,er6),r2l
  4017b6:	17 52       	extu.w	r2
  4017b8:	0c a2       	mov.b	r2l,r2h
  4017ba:	18 aa       	sub.b	r2l,r2l
  4017bc:	6e 6b ff fa 	mov.b	@(0xfffa:16,er6),r3l
  4017c0:	17 53       	extu.w	r3
  4017c2:	09 32       	add.w	r3,r2
  4017c4:	1b 92       	subs	#4,er2
  4017c6:	6f e2 ff fc 	mov.w	r2,@(0xfffc:16,er6)

004017ca <.LM136>:
/home/rtl8019.c:324
  read_data((start * 256) + 4, size, buf);
  4017ca:	6e 6a ff ff 	mov.b	@(0xffff:16,er6),r2l
  4017ce:	17 52       	extu.w	r2
  4017d0:	0c a2       	mov.b	r2l,r2h
  4017d2:	18 aa       	sub.b	r2l,r2l
  4017d4:	0d 23       	mov.w	r2,r3
  4017d6:	0b 93       	adds	#4,er3
  4017d8:	01 00 6f 62 	mov.l	@(0xfff0:16,er6),er2
  4017dc:	ff f0 
  4017de:	6f 60 ff fc 	mov.w	@(0xfffc:16,er6),r0
  4017e2:	0d 01       	mov.w	r0,r1
  4017e4:	0d 30       	mov.w	r3,r0
  4017e6:	5e 40 11 fa 	jsr	@0x4011fa:24

004017ea <.LM137>:
/home/rtl8019.c:326

  *NE2000_CR = NE2000_CR_P0 | NE2000_CR_RD_ABORT | NE2000_CR_STA;
  4017ea:	7a 02 00 20 	mov.l	#0x200000,er2
  4017ee:	00 00 
  4017f0:	fb 22       	mov.b	#0x22,r3l
  4017f2:	68 ab       	mov.b	r3l,@er2

004017f4 <.LM138>:
/home/rtl8019.c:327
  if (header[1] == NE2000_RP_START)
  4017f4:	6e 6a ff f9 	mov.b	@(0xfff9:16,er6),r2l
  4017f8:	aa 46       	cmp.b	#0x46,r2l
  4017fa:	46 06       	bne	.+6 (0x401802)

004017fc <.LM139>:
/home/rtl8019.c:328
    header[1] = NE2000_RP_STOP;
  4017fc:	fa 80       	mov.b	#0x80,r2l
  4017fe:	6e ea ff f9 	mov.b	r2l,@(0xfff9:16,er6)

00401802 <.L37>:
/home/rtl8019.c:329
  *NE2000_BNRY = header[1] - 1;
  401802:	6e 6b ff f9 	mov.b	@(0xfff9:16,er6),r3l
  401806:	7a 02 00 20 	mov.l	#0x200003,er2
  40180a:	00 03 
  40180c:	8b ff       	add.b	#0xff,r3l
  40180e:	68 ab       	mov.b	r3l,@er2

00401810 <.LM141>:
/home/rtl8019.c:331

  clear_irq(index);
  401810:	6f 62 ff f6 	mov.w	@(0xfff6:16,er6),r2
  401814:	0d 20       	mov.w	r2,r0
  401816:	5e 40 16 d6 	jsr	@0x4016d6:24

0040181a <.LM142>:
/home/rtl8019.c:333

  return size;
  40181a:	6f 62 ff fc 	mov.w	@(0xfffc:16,er6),r2

0040181e <.L38>:
/home/rtl8019.c:334 (discriminator 1)
}
  40181e:	0d 20       	mov.w	r2,r0
  401820:	7a 17 00 00 	add.l	#0x10,er7
  401824:	00 10 
  401826:	01 00 6d 76 	mov.l	@er7+,er6
  40182a:	54 70       	rts	

0040182c <_rtl8019_send>:
rtl8019_send():
/home/rtl8019.c:337

int rtl8019_send(int index, int size, char *buf)
{
  40182c:	01 00 6d f6 	mov.l	er6,@-er7
  401830:	0f f6       	mov.l	er7,er6
  401832:	7a 37 00 00 	sub.l	#0x8,er7
  401836:	00 08 
  401838:	6f e0 ff fe 	mov.w	r0,@(0xfffe:16,er6)
  40183c:	6f e1 ff fc 	mov.w	r1,@(0xfffc:16,er6)
  401840:	01 00 6f e2 	mov.l	er2,@(0xfff8:16,er6)
  401844:	ff f8 

00401846 <.LM145>:
/home/rtl8019.c:338
  write_data(NE2000_TP_START * 256, size, buf);
  401846:	01 00 6f 62 	mov.l	@(0xfff8:16,er6),er2
  40184a:	ff f8 
  40184c:	6f 63 ff fc 	mov.w	@(0xfffc:16,er6),r3
  401850:	0d 31       	mov.w	r3,r1
  401852:	79 00 40 00 	mov.w	#0x4000,r0
  401856:	5e 40 12 e0 	jsr	@0x4012e0:24

0040185a <.LM146>:
/home/rtl8019.c:340
        
  if(size < 60)
  40185a:	6f 62 ff fc 	mov.w	@(0xfffc:16,er6),r2
  40185e:	79 22 00 3b 	cmp.w	#0x3b,r2
  401862:	4e 08       	bgt	.+8 (0x40186c)

00401864 <.LM147>:
/home/rtl8019.c:341
    size = 60;
  401864:	79 02 00 3c 	mov.w	#0x3c,r2
  401868:	6f e2 ff fc 	mov.w	r2,@(0xfffc:16,er6)

0040186c <.L40>:
/home/rtl8019.c:343

  *NE2000_CR    = NE2000_CR_P0 | NE2000_CR_RD_ABORT | NE2000_CR_STA;
  40186c:	7a 02 00 20 	mov.l	#0x200000,er2
  401870:	00 00 
  401872:	fb 22       	mov.b	#0x22,r3l
  401874:	68 ab       	mov.b	r3l,@er2

00401876 <.LM149>:
/home/rtl8019.c:344
  *NE2000_TBCR0 = size & 0xff;
  401876:	7a 02 00 20 	mov.l	#0x200005,er2
  40187a:	00 05 
  40187c:	6f 63 ff fc 	mov.w	@(0xfffc:16,er6),r3
  401880:	68 ab       	mov.b	r3l,@er2

00401882 <.LM150>:
/home/rtl8019.c:345
  *NE2000_TBCR1 = (size >> 8) & 0xff;
  401882:	6f 62 ff fc 	mov.w	@(0xfffc:16,er6),r2
  401886:	0c 2a       	mov.b	r2h,r2l
  401888:	17 52       	extu.w	r2
  40188a:	7a 03 00 20 	mov.l	#0x200006,er3
  40188e:	00 06 
  401890:	68 ba       	mov.b	r2l,@er3

00401892 <.LM151>:
/home/rtl8019.c:346
  *NE2000_TPSR  = NE2000_TP_START;
  401892:	7a 02 00 20 	mov.l	#0x200004,er2
  401896:	00 04 
  401898:	fb 40       	mov.b	#0x40,r3l
  40189a:	68 ab       	mov.b	r3l,@er2

0040189c <.LM152>:
/home/rtl8019.c:347
  *NE2000_CR    = NE2000_CR_P0 | NE2000_CR_RD_ABORT | NE2000_CR_TXP | NE2000_CR_STA;
  40189c:	7a 02 00 20 	mov.l	#0x200000,er2
  4018a0:	00 00 
  4018a2:	fb 26       	mov.b	#0x26,r3l
  4018a4:	68 ab       	mov.b	r3l,@er2

004018a6 <.LM153>:
	...

004018a8 <.L41>:
/home/rtl8019.c:348 (discriminator 1)
  while ((*NE2000_CR & NE2000_CR_TXP) != 0)
  4018a8:	7a 02 00 20 	mov.l	#0x200000,er2
  4018ac:	00 00 
  4018ae:	68 2a       	mov.b	@er2,r2l
  4018b0:	17 52       	extu.w	r2
  4018b2:	79 62 00 04 	and.w	#0x4,r2
  4018b6:	0d 22       	mov.w	r2,r2
  4018b8:	46 ee       	bne	.-18 (0x4018a8)

004018ba <.LM155>:
/home/rtl8019.c:351
    ;

  return 0;
  4018ba:	19 22       	sub.w	r2,r2

004018bc <.LM156>:
/home/rtl8019.c:352
}
  4018bc:	0d 20       	mov.w	r2,r0
  4018be:	0b 97       	adds	#4,er7
  4018c0:	0b 97       	adds	#4,er7
  4018c2:	01 00 6d 76 	mov.l	@er7+,er6
  4018c6:	54 70       	rts	

004018c8 <_getcurrent>:
getcurrent():
/home/kozos.c:84

void dispatch(kz_context *context);

/* カレント・スレッドをレディー・キューから抜き出す */
static int getcurrent(void)
{
  4018c8:	01 00 6d f6 	mov.l	er6,@-er7
  4018cc:	0f f6       	mov.l	er7,er6

004018ce <.LM2>:
/home/kozos.c:85
  if (current == NULL) {
  4018ce:	01 00 6b 22 	mov.l	@0x405480:32,er2
  4018d2:	00 40 54 80 
  4018d6:	0f a2       	mov.l	er2,er2
  4018d8:	46 08       	bne	.+8 (0x4018e2)

004018da <.LM3>:
/home/kozos.c:86
    return -1;
  4018da:	79 02 ff ff 	mov.w	#0xffff,r2
  4018de:	58 00 00 ba 	bra	.+186 (0x40199c)

004018e2 <.L2>:
/home/kozos.c:88
  }
  if (!(current->flags & KZ_THREAD_FLAG_READY)) {
  4018e2:	01 00 6b 22 	mov.l	@0x405480:32,er2
  4018e6:	00 40 54 80 
  4018ea:	01 00 6f 22 	mov.l	@(0x1c:16,er2),er2
  4018ee:	00 1c 
  4018f0:	7a 62 00 00 	and.l	#0x1,er2
  4018f4:	00 01 
  4018f6:	0f a2       	mov.l	er2,er2
  4018f8:	46 08       	bne	.+8 (0x401902)

004018fa <.LM5>:
/home/kozos.c:90
    /* すでに無い場合は無視 */
    return 1;
  4018fa:	79 02 00 01 	mov.w	#0x1,r2
  4018fe:	58 00 00 9a 	bra	.+154 (0x40199c)

00401902 <.L4>:
/home/kozos.c:94
  }

  /* カレント・スレッドは必ず先頭にあるはずなので，先頭から抜き出す */
  readyque[current->priority].head = current->next;
  401902:	01 00 6b 23 	mov.l	@0x405480:32,er3
  401906:	00 40 54 80 
  40190a:	01 00 6b 22 	mov.l	@0x405480:32,er2
  40190e:	00 40 54 80 
  401912:	6f 22 00 14 	mov.w	@(0x14:16,er2),r2
  401916:	01 00 69 33 	mov.l	@er3,er3
  40191a:	17 f2       	exts.l	er2
  40191c:	10 32       	shll.l	er2
  40191e:	10 32       	shll.l	er2
  401920:	10 32       	shll.l	er2
  401922:	7a 12 00 40 	add.l	#0x405400,er2
  401926:	54 00 
  401928:	01 00 69 a3 	mov.l	er3,@er2

0040192c <.LM7>:
/home/kozos.c:95
  if (readyque[current->priority].head == NULL) {
  40192c:	01 00 6b 22 	mov.l	@0x405480:32,er2
  401930:	00 40 54 80 
  401934:	6f 22 00 14 	mov.w	@(0x14:16,er2),r2
  401938:	17 f2       	exts.l	er2
  40193a:	10 32       	shll.l	er2
  40193c:	10 32       	shll.l	er2
  40193e:	10 32       	shll.l	er2
  401940:	7a 12 00 40 	add.l	#0x405400,er2
  401944:	54 00 
  401946:	01 00 69 22 	mov.l	@er2,er2
  40194a:	0f a2       	mov.l	er2,er2
  40194c:	46 20       	bne	.+32 (0x40196e)

0040194e <.LM8>:
/home/kozos.c:96
    readyque[current->priority].tail = NULL;
  40194e:	01 00 6b 22 	mov.l	@0x405480:32,er2
  401952:	00 40 54 80 
  401956:	6f 22 00 14 	mov.w	@(0x14:16,er2),r2
  40195a:	17 f2       	exts.l	er2
  40195c:	10 32       	shll.l	er2
  40195e:	10 32       	shll.l	er2
  401960:	10 32       	shll.l	er2
  401962:	7a 12 00 40 	add.l	#0x405404,er2
  401966:	54 04 
  401968:	1a b3       	sub.l	er3,er3
  40196a:	01 00 69 a3 	mov.l	er3,@er2

0040196e <.L5>:
/home/kozos.c:98
  }
  current->flags &= ~KZ_THREAD_FLAG_READY;
  40196e:	01 00 6b 22 	mov.l	@0x405480:32,er2
  401972:	00 40 54 80 
  401976:	01 00 6f 23 	mov.l	@(0x1c:16,er2),er3
  40197a:	00 1c 
  40197c:	01 00 6b 22 	mov.l	@0x405480:32,er2
  401980:	00 40 54 80 
  401984:	eb fe       	and.b	#0xfe,r3l
  401986:	01 00 6f a3 	mov.l	er3,@(0x1c:16,er2)
  40198a:	00 1c 

0040198c <.LM10>:
/home/kozos.c:99
  current->next = NULL;
  40198c:	01 00 6b 22 	mov.l	@0x405480:32,er2
  401990:	00 40 54 80 
  401994:	1a b3       	sub.l	er3,er3
  401996:	01 00 69 a3 	mov.l	er3,@er2

0040199a <.LM11>:
/home/kozos.c:101

  return 0;
  40199a:	19 22       	sub.w	r2,r2

0040199c <.L3>:
/home/kozos.c:102
}
  40199c:	0d 20       	mov.w	r2,r0
  40199e:	01 00 6d 76 	mov.l	@er7+,er6
  4019a2:	54 70       	rts	

004019a4 <_putcurrent>:
putcurrent():
/home/kozos.c:106

/* カレント・スレッドをレディー・キューに繋げる */
static int putcurrent(void)
{
  4019a4:	01 00 6d f6 	mov.l	er6,@-er7
  4019a8:	0f f6       	mov.l	er7,er6

004019aa <.LM14>:
/home/kozos.c:107
  if (current == NULL) {
  4019aa:	01 00 6b 22 	mov.l	@0x405480:32,er2
  4019ae:	00 40 54 80 
  4019b2:	0f a2       	mov.l	er2,er2
  4019b4:	46 08       	bne	.+8 (0x4019be)

004019b6 <.LM15>:
/home/kozos.c:108
    return -1;
  4019b6:	79 02 ff ff 	mov.w	#0xffff,r2
  4019ba:	58 00 00 da 	bra	.+218 (0x401a98)

004019be <.L7>:
/home/kozos.c:110
  }
  if (current->flags & KZ_THREAD_FLAG_READY) {
  4019be:	01 00 6b 22 	mov.l	@0x405480:32,er2
  4019c2:	00 40 54 80 
  4019c6:	01 00 6f 22 	mov.l	@(0x1c:16,er2),er2
  4019ca:	00 1c 
  4019cc:	7a 62 00 00 	and.l	#0x1,er2
  4019d0:	00 01 
  4019d2:	0f a2       	mov.l	er2,er2
  4019d4:	47 08       	beq	.+8 (0x4019de)

004019d6 <.LM17>:
/home/kozos.c:112
    /* すでに有る場合は無視 */
    return 1;
  4019d6:	79 02 00 01 	mov.w	#0x1,r2
  4019da:	58 00 00 ba 	bra	.+186 (0x401a98)

004019de <.L9>:
/home/kozos.c:116
  }

  /* レディー・キューの末尾に接続する */
  if (readyque[current->priority].tail) {
  4019de:	01 00 6b 22 	mov.l	@0x405480:32,er2
  4019e2:	00 40 54 80 
  4019e6:	6f 22 00 14 	mov.w	@(0x14:16,er2),r2
  4019ea:	17 f2       	exts.l	er2
  4019ec:	10 32       	shll.l	er2
  4019ee:	10 32       	shll.l	er2
  4019f0:	10 32       	shll.l	er2
  4019f2:	7a 12 00 40 	add.l	#0x405404,er2
  4019f6:	54 04 
  4019f8:	01 00 69 22 	mov.l	@er2,er2
  4019fc:	0f a2       	mov.l	er2,er2
  4019fe:	47 2c       	beq	.+44 (0x401a2c)

00401a00 <.LM19>:
/home/kozos.c:117
    readyque[current->priority].tail->next = current;
  401a00:	01 00 6b 22 	mov.l	@0x405480:32,er2
  401a04:	00 40 54 80 
  401a08:	6f 22 00 14 	mov.w	@(0x14:16,er2),r2
  401a0c:	17 f2       	exts.l	er2
  401a0e:	10 32       	shll.l	er2
  401a10:	10 32       	shll.l	er2
  401a12:	10 32       	shll.l	er2
  401a14:	7a 12 00 40 	add.l	#0x405404,er2
  401a18:	54 04 
  401a1a:	01 00 69 22 	mov.l	@er2,er2
  401a1e:	01 00 6b 23 	mov.l	@0x405480:32,er3
  401a22:	00 40 54 80 
  401a26:	01 00 69 a3 	mov.l	er3,@er2
  401a2a:	40 26       	bra	.+38 (0x401a52)

00401a2c <.L10>:
/home/kozos.c:119
  } else {
    readyque[current->priority].head = current;
  401a2c:	01 00 6b 22 	mov.l	@0x405480:32,er2
  401a30:	00 40 54 80 
  401a34:	6f 22 00 14 	mov.w	@(0x14:16,er2),r2
  401a38:	01 00 6b 23 	mov.l	@0x405480:32,er3
  401a3c:	00 40 54 80 
  401a40:	17 f2       	exts.l	er2
  401a42:	10 32       	shll.l	er2
  401a44:	10 32       	shll.l	er2
  401a46:	10 32       	shll.l	er2
  401a48:	7a 12 00 40 	add.l	#0x405400,er2
  401a4c:	54 00 
  401a4e:	01 00 69 a3 	mov.l	er3,@er2

00401a52 <.L11>:
/home/kozos.c:121
  }
  readyque[current->priority].tail = current;
  401a52:	01 00 6b 22 	mov.l	@0x405480:32,er2
  401a56:	00 40 54 80 
  401a5a:	6f 22 00 14 	mov.w	@(0x14:16,er2),r2
  401a5e:	01 00 6b 23 	mov.l	@0x405480:32,er3
  401a62:	00 40 54 80 
  401a66:	17 f2       	exts.l	er2
  401a68:	10 32       	shll.l	er2
  401a6a:	10 32       	shll.l	er2
  401a6c:	10 32       	shll.l	er2
  401a6e:	7a 12 00 40 	add.l	#0x405404,er2
  401a72:	54 04 
  401a74:	01 00 69 a3 	mov.l	er3,@er2

00401a78 <.LM22>:
/home/kozos.c:122
  current->flags |= KZ_THREAD_FLAG_READY;
  401a78:	01 00 6b 22 	mov.l	@0x405480:32,er2
  401a7c:	00 40 54 80 
  401a80:	01 00 6f 23 	mov.l	@(0x1c:16,er2),er3
  401a84:	00 1c 
  401a86:	01 00 6b 22 	mov.l	@0x405480:32,er2
  401a8a:	00 40 54 80 
  401a8e:	cb 01       	or.b	#0x1,r3l
  401a90:	01 00 6f a3 	mov.l	er3,@(0x1c:16,er2)
  401a94:	00 1c 

00401a96 <.LM23>:
/home/kozos.c:124

  return 0;
  401a96:	19 22       	sub.w	r2,r2

00401a98 <.L8>:
/home/kozos.c:125
}
  401a98:	0d 20       	mov.w	r2,r0
  401a9a:	01 00 6d 76 	mov.l	@er7+,er6
  401a9e:	54 70       	rts	

00401aa0 <_thread_end>:
thread_end():
/home/kozos.c:128

static void thread_end(void)
{
  401aa0:	01 00 6d f6 	mov.l	er6,@-er7
  401aa4:	0f f6       	mov.l	er7,er6

00401aa6 <.LM26>:
/home/kozos.c:129
  kz_exit();
  401aa6:	5e 40 28 40 	jsr	@0x402840:24

00401aaa <.LM27>:
/home/kozos.c:130
}
  401aaa:	00 00       	nop	
  401aac:	01 00 6d 76 	mov.l	@er7+,er6
  401ab0:	54 70       	rts	

00401ab2 <_thread_init>:
thread_init():
/home/kozos.c:134

/* スレッドのスタート・アップ */
static void thread_init(kz_thread *thp)
{
  401ab2:	01 00 6d f6 	mov.l	er6,@-er7
  401ab6:	0f f6       	mov.l	er7,er6
  401ab8:	1b 97       	subs	#4,er7
  401aba:	01 00 6f e0 	mov.l	er0,@(0xfffc:16,er6)
  401abe:	ff fc 

00401ac0 <.LM29>:
/home/kozos.c:136
  /* スレッドのメイン関数を呼び出す */
  thp->init.func(thp->init.argc, thp->init.argv);
  401ac0:	01 00 6f 62 	mov.l	@(0xfffc:16,er6),er2
  401ac4:	ff fc 
  401ac6:	01 00 6f 22 	mov.l	@(0x20:16,er2),er2
  401aca:	00 20 
  401acc:	01 00 6f 63 	mov.l	@(0xfffc:16,er6),er3
  401ad0:	ff fc 
  401ad2:	01 00 6f 30 	mov.l	@(0x28:16,er3),er0
  401ad6:	00 28 
  401ad8:	01 00 6f 63 	mov.l	@(0xfffc:16,er6),er3
  401adc:	ff fc 
  401ade:	6f 33 00 24 	mov.w	@(0x24:16,er3),r3
  401ae2:	0f 81       	mov.l	er0,er1
  401ae4:	0d 30       	mov.w	r3,r0
  401ae6:	5d 20       	jsr	@er2

00401ae8 <.LM30>:
/home/kozos.c:137
  thread_end();
  401ae8:	5e 40 1a a0 	jsr	@0x401aa0:24

00401aec <.LM31>:
/home/kozos.c:138
}
  401aec:	00 00       	nop	
  401aee:	0b 97       	adds	#4,er7
  401af0:	01 00 6d 76 	mov.l	@er7+,er6
  401af4:	54 70       	rts	

00401af6 <_thread_run>:
thread_run():
/home/kozos.c:143

/* システム・コールの処理(kz_run():スレッドの起動) */
static kz_thread_id_t thread_run(kz_func_t func, char *name, int priority,
				 int stacksize, int argc, char *argv[])
{
  401af6:	01 00 6d f6 	mov.l	er6,@-er7
  401afa:	0f f6       	mov.l	er7,er6
  401afc:	7a 37 00 00 	sub.l	#0x18,er7
  401b00:	00 18 
  401b02:	01 00 6f e0 	mov.l	er0,@(0xfff0:16,er6)
  401b06:	ff f0 
  401b08:	01 00 6f e1 	mov.l	er1,@(0xffec:16,er6)
  401b0c:	ff ec 
  401b0e:	6f e2 ff ea 	mov.w	r2,@(0xffea:16,er6)

00401b12 <.LM33>:
/home/kozos.c:151
  uint32 *sp;
  extern char userstack; /* リンカ・スクリプトで定義されるスタック領域 */
  static char *thread_stack = &userstack;

  /* 空いているタスク・コントロール・ブロックを検索 */
  for (i = 0; i < THREAD_NUM; i++) {
  401b12:	19 22       	sub.w	r2,r2
  401b14:	6f e2 ff fe 	mov.w	r2,@(0xfffe:16,er6)
  401b18:	40 34       	bra	.+52 (0x401b4e)

00401b1a <.L18>:
/home/kozos.c:152
    thp = &threads[i];
  401b1a:	6f 62 ff fe 	mov.w	@(0xfffe:16,er6),r2
  401b1e:	17 f2       	exts.l	er2
  401b20:	fb 06       	mov.b	#0x6,r3l

00401b22 <.Llt8>:
  401b22:	10 32       	shll.l	er2
  401b24:	8b ff       	add.b	#0xff,r3l
  401b26:	46 fa       	bne	.-6 (0x401b22)
  401b28:	7a 12 00 40 	add.l	#0x405484,er2
  401b2c:	54 84 
  401b2e:	01 00 6f e2 	mov.l	er2,@(0xfff8:16,er6)
  401b32:	ff f8 

00401b34 <.LM35>:
/home/kozos.c:153
    if (!thp->init.func) /* 見つかった */
  401b34:	01 00 6f 62 	mov.l	@(0xfff8:16,er6),er2
  401b38:	ff f8 
  401b3a:	01 00 6f 22 	mov.l	@(0x20:16,er2),er2
  401b3e:	00 20 
  401b40:	0f a2       	mov.l	er2,er2
  401b42:	47 16       	beq	.+22 (0x401b5a)

00401b44 <.LM36>:
/home/kozos.c:151 (discriminator 2)
  for (i = 0; i < THREAD_NUM; i++) {
  401b44:	6f 62 ff fe 	mov.w	@(0xfffe:16,er6),r2
  401b48:	0b 02       	adds	#1,er2
  401b4a:	6f e2 ff fe 	mov.w	r2,@(0xfffe:16,er6)

00401b4e <.L15>:
/home/kozos.c:151 (discriminator 1)
  401b4e:	6f 62 ff fe 	mov.w	@(0xfffe:16,er6),r2
  401b52:	79 22 00 0f 	cmp.w	#0xf,r2
  401b56:	4f c2       	ble	.-62 (0x401b1a)
  401b58:	40 02       	bra	.+2 (0x401b5c)

00401b5a <.L23>:
	...

00401b5c <.L17>:
/home/kozos.c:156
      break;
  }
  if (i == THREAD_NUM) /* 見つからなかった */
  401b5c:	6f 62 ff fe 	mov.w	@(0xfffe:16,er6),r2
  401b60:	79 22 00 10 	cmp.w	#0x10,r2
  401b64:	46 08       	bne	.+8 (0x401b6e)

00401b66 <.LM40>:
/home/kozos.c:157
    return -1;
  401b66:	1a a2       	sub.l	er2,er2
  401b68:	1b 02       	subs	#1,er2
  401b6a:	58 00 02 10 	bra	.+528 (0x401d7e)

00401b6e <.L19>:
/home/kozos.c:159

  memset(thp, 0, sizeof(*thp));
  401b6e:	01 00 6f 63 	mov.l	@(0xfff8:16,er6),er3
  401b72:	ff f8 
  401b74:	1a a2       	sub.l	er2,er2
  401b76:	8a 40       	add.b	#0x40,r2l
  401b78:	19 11       	sub.w	r1,r1
  401b7a:	0f b0       	mov.l	er3,er0
  401b7c:	5e 40 04 76 	jsr	@0x400476:24

00401b80 <.LM42>:
/home/kozos.c:162

  /* タスク・コントロール・ブロック(TCB)の設定 */
  strcpy(thp->name, name);
  401b80:	01 00 6f 62 	mov.l	@(0xfff8:16,er6),er2
  401b84:	ff f8 
  401b86:	0b 92       	adds	#4,er2
  401b88:	01 00 6f 63 	mov.l	@(0xffec:16,er6),er3
  401b8c:	ff ec 
  401b8e:	0f b1       	mov.l	er3,er1
  401b90:	0f a0       	mov.l	er2,er0
  401b92:	5e 40 07 70 	jsr	@0x400770:24

00401b96 <.LM43>:
/home/kozos.c:163
  thp->next     = NULL;
  401b96:	01 00 6f 62 	mov.l	@(0xfff8:16,er6),er2
  401b9a:	ff f8 
  401b9c:	1a b3       	sub.l	er3,er3
  401b9e:	01 00 69 a3 	mov.l	er3,@er2

00401ba2 <.LM44>:
/home/kozos.c:164
  thp->priority = priority;
  401ba2:	01 00 6f 62 	mov.l	@(0xfff8:16,er6),er2
  401ba6:	ff f8 
  401ba8:	6f 63 ff ea 	mov.w	@(0xffea:16,er6),r3
  401bac:	6f a3 00 14 	mov.w	r3,@(0x14:16,er2)

00401bb0 <.LM45>:
/home/kozos.c:165
  thp->flags    = 0;
  401bb0:	01 00 6f 62 	mov.l	@(0xfff8:16,er6),er2
  401bb4:	ff f8 
  401bb6:	1a b3       	sub.l	er3,er3
  401bb8:	01 00 6f a3 	mov.l	er3,@(0x1c:16,er2)
  401bbc:	00 1c 

00401bbe <.LM46>:
/home/kozos.c:167

  thp->init.func = func;
  401bbe:	01 00 6f 62 	mov.l	@(0xfff8:16,er6),er2
  401bc2:	ff f8 
  401bc4:	01 00 6f 63 	mov.l	@(0xfff0:16,er6),er3
  401bc8:	ff f0 
  401bca:	01 00 6f a3 	mov.l	er3,@(0x20:16,er2)
  401bce:	00 20 

00401bd0 <.LM47>:
/home/kozos.c:168
  thp->init.argc = argc;
  401bd0:	01 00 6f 62 	mov.l	@(0xfff8:16,er6),er2
  401bd4:	ff f8 
  401bd6:	6f 63 00 0e 	mov.w	@(0xe:16,er6),r3
  401bda:	6f a3 00 24 	mov.w	r3,@(0x24:16,er2)

00401bde <.LM48>:
/home/kozos.c:169
  thp->init.argv = argv;
  401bde:	01 00 6f 62 	mov.l	@(0xfff8:16,er6),er2
  401be2:	ff f8 
  401be4:	01 00 6f 63 	mov.l	@(0x10:16,er6),er3
  401be8:	00 10 
  401bea:	01 00 6f a3 	mov.l	er3,@(0x28:16,er2)
  401bee:	00 28 

00401bf0 <.LM49>:
/home/kozos.c:172

  /* スタック領域を獲得 */
  memset(thread_stack, 0, stacksize);
  401bf0:	6f 62 00 0a 	mov.w	@(0xa:16,er6),r2
  401bf4:	17 f2       	exts.l	er2
  401bf6:	01 00 6b 23 	mov.l	@0x4053d4:32,er3
  401bfa:	00 40 53 d4 
  401bfe:	19 11       	sub.w	r1,r1
  401c00:	0f b0       	mov.l	er3,er0
  401c02:	5e 40 04 76 	jsr	@0x400476:24

00401c06 <.LM50>:
/home/kozos.c:173
  thread_stack += stacksize;
  401c06:	01 00 6b 23 	mov.l	@0x4053d4:32,er3
  401c0a:	00 40 53 d4 
  401c0e:	6f 62 00 0a 	mov.w	@(0xa:16,er6),r2
  401c12:	17 f2       	exts.l	er2
  401c14:	0a b2       	add.l	er3,er2
  401c16:	01 00 6b a2 	mov.l	er2,@0x4053d4:32
  401c1a:	00 40 53 d4 

00401c1e <.LM51>:
/home/kozos.c:175

  thp->stack = thread_stack; /* スタックを設定 */
  401c1e:	01 00 6b 23 	mov.l	@0x4053d4:32,er3
  401c22:	00 40 53 d4 
  401c26:	01 00 6f 62 	mov.l	@(0xfff8:16,er6),er2
  401c2a:	ff f8 
  401c2c:	01 00 6f a3 	mov.l	er3,@(0x18:16,er2)
  401c30:	00 18 

00401c32 <.LM52>:
/home/kozos.c:178

  /* スタックの初期化 */
  sp = (uint32 *)thp->stack;
  401c32:	01 00 6f 62 	mov.l	@(0xfff8:16,er6),er2
  401c36:	ff f8 
  401c38:	01 00 6f 22 	mov.l	@(0x18:16,er2),er2
  401c3c:	00 18 
  401c3e:	01 00 6f e2 	mov.l	er2,@(0xfff4:16,er6)
  401c42:	ff f4 

00401c44 <.LM53>:
/home/kozos.c:179
  *(--sp) = (uint32)thread_end;
  401c44:	01 00 6f 62 	mov.l	@(0xfff4:16,er6),er2
  401c48:	ff f4 
  401c4a:	1b 92       	subs	#4,er2
  401c4c:	01 00 6f e2 	mov.l	er2,@(0xfff4:16,er6)
  401c50:	ff f4 
  401c52:	7a 03 00 40 	mov.l	#0x401aa0,er3
  401c56:	1a a0 
  401c58:	01 00 6f 62 	mov.l	@(0xfff4:16,er6),er2
  401c5c:	ff f4 
  401c5e:	01 00 69 a3 	mov.l	er3,@er2

00401c62 <.LM54>:
/home/kozos.c:185

  /*
   * プログラム・カウンタを設定する．
   * スレッドの優先度がゼロの場合には，割込み禁止スレッドとする．
   */
  *(--sp) = (uint32)thread_init | ((uint32)(priority ? 0 : 0xc0) << 24);
  401c62:	6f 62 ff ea 	mov.w	@(0xffea:16,er6),r2
  401c66:	0d 22       	mov.w	r2,r2
  401c68:	47 08       	beq	.+8 (0x401c72)

00401c6a <.LM55>:
/home/kozos.c:185 (discriminator 1)
  401c6a:	7a 02 00 40 	mov.l	#0x401ab2,er2
  401c6e:	1a b2 
  401c70:	40 0a       	bra	.+10 (0x401c7c)

00401c72 <.L21>:
/home/kozos.c:185 (discriminator 2)
  401c72:	7a 02 00 40 	mov.l	#0x401ab2,er2
  401c76:	1a b2 
  401c78:	79 4a c0 00 	or.w	#0xc000,e2

00401c7c <.L22>:
/home/kozos.c:185 (discriminator 4)
  401c7c:	01 00 6f 63 	mov.l	@(0xfff4:16,er6),er3
  401c80:	ff f4 
  401c82:	1b 93       	subs	#4,er3
  401c84:	01 00 6f e3 	mov.l	er3,@(0xfff4:16,er6)
  401c88:	ff f4 
  401c8a:	01 00 6f 63 	mov.l	@(0xfff4:16,er6),er3
  401c8e:	ff f4 
  401c90:	01 00 69 b2 	mov.l	er2,@er3

00401c94 <.LM58>:
/home/kozos.c:187

  *(--sp) = 0; /* ER6 */
  401c94:	01 00 6f 62 	mov.l	@(0xfff4:16,er6),er2
  401c98:	ff f4 
  401c9a:	1b 92       	subs	#4,er2
  401c9c:	01 00 6f e2 	mov.l	er2,@(0xfff4:16,er6)
  401ca0:	ff f4 
  401ca2:	01 00 6f 62 	mov.l	@(0xfff4:16,er6),er2
  401ca6:	ff f4 
  401ca8:	1a b3       	sub.l	er3,er3
  401caa:	01 00 69 a3 	mov.l	er3,@er2

00401cae <.LM59>:
/home/kozos.c:188
  *(--sp) = 0; /* ER5 */
  401cae:	01 00 6f 62 	mov.l	@(0xfff4:16,er6),er2
  401cb2:	ff f4 
  401cb4:	1b 92       	subs	#4,er2
  401cb6:	01 00 6f e2 	mov.l	er2,@(0xfff4:16,er6)
  401cba:	ff f4 
  401cbc:	01 00 6f 62 	mov.l	@(0xfff4:16,er6),er2
  401cc0:	ff f4 
  401cc2:	1a b3       	sub.l	er3,er3
  401cc4:	01 00 69 a3 	mov.l	er3,@er2

00401cc8 <.LM60>:
/home/kozos.c:189
  *(--sp) = 0; /* ER4 */
  401cc8:	01 00 6f 62 	mov.l	@(0xfff4:16,er6),er2
  401ccc:	ff f4 
  401cce:	1b 92       	subs	#4,er2
  401cd0:	01 00 6f e2 	mov.l	er2,@(0xfff4:16,er6)
  401cd4:	ff f4 
  401cd6:	01 00 6f 62 	mov.l	@(0xfff4:16,er6),er2
  401cda:	ff f4 
  401cdc:	1a b3       	sub.l	er3,er3
  401cde:	01 00 69 a3 	mov.l	er3,@er2

00401ce2 <.LM61>:
/home/kozos.c:190
  *(--sp) = 0; /* ER3 */
  401ce2:	01 00 6f 62 	mov.l	@(0xfff4:16,er6),er2
  401ce6:	ff f4 
  401ce8:	1b 92       	subs	#4,er2
  401cea:	01 00 6f e2 	mov.l	er2,@(0xfff4:16,er6)
  401cee:	ff f4 
  401cf0:	01 00 6f 62 	mov.l	@(0xfff4:16,er6),er2
  401cf4:	ff f4 
  401cf6:	1a b3       	sub.l	er3,er3
  401cf8:	01 00 69 a3 	mov.l	er3,@er2

00401cfc <.LM62>:
/home/kozos.c:191
  *(--sp) = 0; /* ER2 */
  401cfc:	01 00 6f 62 	mov.l	@(0xfff4:16,er6),er2
  401d00:	ff f4 
  401d02:	1b 92       	subs	#4,er2
  401d04:	01 00 6f e2 	mov.l	er2,@(0xfff4:16,er6)
  401d08:	ff f4 
  401d0a:	01 00 6f 62 	mov.l	@(0xfff4:16,er6),er2
  401d0e:	ff f4 
  401d10:	1a b3       	sub.l	er3,er3
  401d12:	01 00 69 a3 	mov.l	er3,@er2

00401d16 <.LM63>:
/home/kozos.c:192
  *(--sp) = 0; /* ER1 */
  401d16:	01 00 6f 62 	mov.l	@(0xfff4:16,er6),er2
  401d1a:	ff f4 
  401d1c:	1b 92       	subs	#4,er2
  401d1e:	01 00 6f e2 	mov.l	er2,@(0xfff4:16,er6)
  401d22:	ff f4 
  401d24:	01 00 6f 62 	mov.l	@(0xfff4:16,er6),er2
  401d28:	ff f4 
  401d2a:	1a b3       	sub.l	er3,er3
  401d2c:	01 00 69 a3 	mov.l	er3,@er2

00401d30 <.LM64>:
/home/kozos.c:195

  /* スレッドのスタート・アップ(thread_init())に渡す引数 */
  *(--sp) = (uint32)thp;  /* ER0 */
  401d30:	01 00 6f 62 	mov.l	@(0xfff4:16,er6),er2
  401d34:	ff f4 
  401d36:	1b 92       	subs	#4,er2
  401d38:	01 00 6f e2 	mov.l	er2,@(0xfff4:16,er6)
  401d3c:	ff f4 
  401d3e:	01 00 6f 63 	mov.l	@(0xfff8:16,er6),er3
  401d42:	ff f8 
  401d44:	01 00 6f 62 	mov.l	@(0xfff4:16,er6),er2
  401d48:	ff f4 
  401d4a:	01 00 69 a3 	mov.l	er3,@er2

00401d4e <.LM65>:
/home/kozos.c:198

  /* スレッドのコンテキストを設定 */
  thp->context.sp = (uint32)sp;
  401d4e:	01 00 6f 63 	mov.l	@(0xfff4:16,er6),er3
  401d52:	ff f4 
  401d54:	01 00 6f 62 	mov.l	@(0xfff8:16,er6),er2
  401d58:	ff f8 
  401d5a:	01 00 6f a3 	mov.l	er3,@(0x34:16,er2)
  401d5e:	00 34 

00401d60 <.LM66>:
/home/kozos.c:201

  /* システム・コールを呼び出したスレッドをレディー・キューに戻す */
  putcurrent();
  401d60:	5e 40 19 a4 	jsr	@0x4019a4:24

00401d64 <.LM67>:
/home/kozos.c:204

  /* 新規作成したスレッドを，レディー・キューに接続する */
  current = thp;
  401d64:	01 00 6f 62 	mov.l	@(0xfff8:16,er6),er2
  401d68:	ff f8 
  401d6a:	01 00 6b a2 	mov.l	er2,@0x405480:32
  401d6e:	00 40 54 80 

00401d72 <.LM68>:
/home/kozos.c:205
  putcurrent();
  401d72:	5e 40 19 a4 	jsr	@0x4019a4:24

00401d76 <.LM69>:
/home/kozos.c:207

  return (kz_thread_id_t)current;
  401d76:	01 00 6b 22 	mov.l	@0x405480:32,er2
  401d7a:	00 40 54 80 

00401d7e <.L20>:
/home/kozos.c:208
}
  401d7e:	0f a0       	mov.l	er2,er0
  401d80:	7a 17 00 00 	add.l	#0x18,er7
  401d84:	00 18 
  401d86:	01 00 6d 76 	mov.l	@er7+,er6
  401d8a:	54 70       	rts	

00401d8c <_thread_exit>:
thread_exit():
/home/kozos.c:212

/* システム・コールの処理(kz_exit():スレッドの終了) */
static int thread_exit(void)
{
  401d8c:	01 00 6d f6 	mov.l	er6,@-er7
  401d90:	0f f6       	mov.l	er7,er6

00401d92 <.LM72>:
/home/kozos.c:217
  /*
   * 本来ならスタックも解放して再利用できるようにすべきだが省略．
   * このため，スレッドを頻繁に生成・消去するようなことは現状でできない．
   */
  puts(current->name);
  401d92:	01 00 6b 22 	mov.l	@0x405480:32,er2
  401d96:	00 40 54 80 
  401d9a:	0b 92       	adds	#4,er2
  401d9c:	0f a0       	mov.l	er2,er0
  401d9e:	5e 40 09 94 	jsr	@0x400994:24

00401da2 <.LM73>:
/home/kozos.c:218
  puts(" EXIT.\n");
  401da2:	7a 00 00 40 	mov.l	#0x4052f4,er0
  401da6:	52 f4 
  401da8:	5e 40 09 94 	jsr	@0x400994:24

00401dac <.LM74>:
/home/kozos.c:219
  memset(current, 0, sizeof(*current));
  401dac:	01 00 6b 23 	mov.l	@0x405480:32,er3
  401db0:	00 40 54 80 
  401db4:	1a a2       	sub.l	er2,er2
  401db6:	8a 40       	add.b	#0x40,r2l
  401db8:	19 11       	sub.w	r1,r1
  401dba:	0f b0       	mov.l	er3,er0
  401dbc:	5e 40 04 76 	jsr	@0x400476:24

00401dc0 <.LM75>:
/home/kozos.c:220
  return 0;
  401dc0:	19 22       	sub.w	r2,r2

00401dc2 <.LM76>:
/home/kozos.c:221
}
  401dc2:	0d 20       	mov.w	r2,r0
  401dc4:	01 00 6d 76 	mov.l	@er7+,er6
  401dc8:	54 70       	rts	

00401dca <_thread_wait>:
thread_wait():
/home/kozos.c:225

/* システム・コールの処理(kz_wait():スレッドの実行権放棄) */
static int thread_wait(void)
{
  401dca:	01 00 6d f6 	mov.l	er6,@-er7
  401dce:	0f f6       	mov.l	er7,er6

00401dd0 <.LM78>:
/home/kozos.c:226
  putcurrent();
  401dd0:	5e 40 19 a4 	jsr	@0x4019a4:24

00401dd4 <.LM79>:
/home/kozos.c:227
  return 0;
  401dd4:	19 22       	sub.w	r2,r2

00401dd6 <.LM80>:
/home/kozos.c:228
}
  401dd6:	0d 20       	mov.w	r2,r0
  401dd8:	01 00 6d 76 	mov.l	@er7+,er6
  401ddc:	54 70       	rts	

00401dde <_thread_sleep>:
thread_sleep():
/home/kozos.c:232

/* システム・コールの処理(kz_sleep():スレッドのスリープ) */
static int thread_sleep(void)
{
  401dde:	01 00 6d f6 	mov.l	er6,@-er7
  401de2:	0f f6       	mov.l	er7,er6

00401de4 <.LM82>:
/home/kozos.c:233
  return 0;
  401de4:	19 22       	sub.w	r2,r2

00401de6 <.LM83>:
/home/kozos.c:234
}
  401de6:	0d 20       	mov.w	r2,r0
  401de8:	01 00 6d 76 	mov.l	@er7+,er6
  401dec:	54 70       	rts	

00401dee <_thread_wakeup>:
thread_wakeup():
/home/kozos.c:238

/* システム・コールの処理(kz_wakeup():スレッドのウェイク・アップ) */
static int thread_wakeup(kz_thread_id_t id)
{
  401dee:	01 00 6d f6 	mov.l	er6,@-er7
  401df2:	0f f6       	mov.l	er7,er6
  401df4:	1b 97       	subs	#4,er7
  401df6:	01 00 6f e0 	mov.l	er0,@(0xfffc:16,er6)
  401dfa:	ff fc 

00401dfc <.LM85>:
/home/kozos.c:240
  /* ウェイク・アップを呼び出したスレッドをレディー・キューに戻す */
  putcurrent();
  401dfc:	5e 40 19 a4 	jsr	@0x4019a4:24

00401e00 <.LM86>:
/home/kozos.c:243

  /* 指定されたスレッドをレディー・キューに接続してウェイク・アップする */
  current = (kz_thread *)id;
  401e00:	01 00 6f 62 	mov.l	@(0xfffc:16,er6),er2
  401e04:	ff fc 
  401e06:	01 00 6b a2 	mov.l	er2,@0x405480:32
  401e0a:	00 40 54 80 

00401e0e <.LM87>:
/home/kozos.c:244
  putcurrent();
  401e0e:	5e 40 19 a4 	jsr	@0x4019a4:24

00401e12 <.LM88>:
/home/kozos.c:246

  return 0;
  401e12:	19 22       	sub.w	r2,r2

00401e14 <.LM89>:
/home/kozos.c:247
}
  401e14:	0d 20       	mov.w	r2,r0
  401e16:	0b 97       	adds	#4,er7
  401e18:	01 00 6d 76 	mov.l	@er7+,er6
  401e1c:	54 70       	rts	

00401e1e <_thread_getid>:
thread_getid():
/home/kozos.c:251

/* システム・コールの処理(kz_getid():スレッドID取得) */
static kz_thread_id_t thread_getid(void)
{
  401e1e:	01 00 6d f6 	mov.l	er6,@-er7
  401e22:	0f f6       	mov.l	er7,er6

00401e24 <.LM91>:
/home/kozos.c:252
  putcurrent();
  401e24:	5e 40 19 a4 	jsr	@0x4019a4:24

00401e28 <.LM92>:
/home/kozos.c:253
  return (kz_thread_id_t)current;
  401e28:	01 00 6b 22 	mov.l	@0x405480:32,er2
  401e2c:	00 40 54 80 

00401e30 <.LM93>:
/home/kozos.c:254
}
  401e30:	0f a0       	mov.l	er2,er0
  401e32:	01 00 6d 76 	mov.l	@er7+,er6
  401e36:	54 70       	rts	

00401e38 <_thread_chpri>:
thread_chpri():
/home/kozos.c:258

/* システム・コールの処理(kz_chpri():スレッドの優先度変更) */
static int thread_chpri(int priority)
{
  401e38:	01 00 6d f6 	mov.l	er6,@-er7
  401e3c:	0f f6       	mov.l	er7,er6
  401e3e:	7a 37 00 00 	sub.l	#0x8,er7
  401e42:	00 08 
  401e44:	6f e0 ff fa 	mov.w	r0,@(0xfffa:16,er6)

00401e48 <.LM95>:
/home/kozos.c:259
  int old = current->priority;
  401e48:	01 00 6b 22 	mov.l	@0x405480:32,er2
  401e4c:	00 40 54 80 
  401e50:	6f 22 00 14 	mov.w	@(0x14:16,er2),r2
  401e54:	6f e2 ff fe 	mov.w	r2,@(0xfffe:16,er6)

00401e58 <.LM96>:
/home/kozos.c:260
  if (priority >= 0)
  401e58:	6f 62 ff fa 	mov.w	@(0xfffa:16,er6),r2
  401e5c:	0d 22       	mov.w	r2,r2
  401e5e:	4d 10       	blt	.+16 (0x401e70)

00401e60 <.LM97>:
/home/kozos.c:261
    current->priority = priority; /* 優先度変更 */
  401e60:	01 00 6b 22 	mov.l	@0x405480:32,er2
  401e64:	00 40 54 80 
  401e68:	6f 63 ff fa 	mov.w	@(0xfffa:16,er6),r3
  401e6c:	6f a3 00 14 	mov.w	r3,@(0x14:16,er2)

00401e70 <.L35>:
/home/kozos.c:262
  putcurrent(); /* 新しい優先度のレディー・キューに繋ぎ直す */
  401e70:	5e 40 19 a4 	jsr	@0x4019a4:24

00401e74 <.LM99>:
/home/kozos.c:263
  return old;
  401e74:	6f 62 ff fe 	mov.w	@(0xfffe:16,er6),r2

00401e78 <.LM100>:
/home/kozos.c:264
}
  401e78:	0d 20       	mov.w	r2,r0
  401e7a:	0b 97       	adds	#4,er7
  401e7c:	0b 97       	adds	#4,er7
  401e7e:	01 00 6d 76 	mov.l	@er7+,er6
  401e82:	54 70       	rts	

00401e84 <_thread_kmalloc>:
thread_kmalloc():
/home/kozos.c:268

/* システム・コールの処理(kz_kmalloc():動的メモリ獲得) */
static void *thread_kmalloc(int size)
{
  401e84:	01 00 6d f6 	mov.l	er6,@-er7
  401e88:	0f f6       	mov.l	er7,er6
  401e8a:	1b 97       	subs	#4,er7
  401e8c:	6f e0 ff fe 	mov.w	r0,@(0xfffe:16,er6)

00401e90 <.LM102>:
/home/kozos.c:269
  putcurrent();
  401e90:	5e 40 19 a4 	jsr	@0x4019a4:24

00401e94 <.LM103>:
/home/kozos.c:270
  return kzmem_alloc(size);
  401e94:	6f 62 ff fe 	mov.w	@(0xfffe:16,er6),r2
  401e98:	0d 20       	mov.w	r2,r0
  401e9a:	5e 40 2d 30 	jsr	@0x402d30:24
  401e9e:	0f 82       	mov.l	er0,er2

00401ea0 <.LM104>:
/home/kozos.c:271
}
  401ea0:	0f a0       	mov.l	er2,er0
  401ea2:	0b 97       	adds	#4,er7
  401ea4:	01 00 6d 76 	mov.l	@er7+,er6
  401ea8:	54 70       	rts	

00401eaa <_thread_kmfree>:
thread_kmfree():
/home/kozos.c:275

/* システム・コールの処理(kz_kfree():メモリ解放) */
static int thread_kmfree(char *p)
{
  401eaa:	01 00 6d f6 	mov.l	er6,@-er7
  401eae:	0f f6       	mov.l	er7,er6
  401eb0:	1b 97       	subs	#4,er7
  401eb2:	01 00 6f e0 	mov.l	er0,@(0xfffc:16,er6)
  401eb6:	ff fc 

00401eb8 <.LM106>:
/home/kozos.c:276
  kzmem_free(p);
  401eb8:	01 00 6f 62 	mov.l	@(0xfffc:16,er6),er2
  401ebc:	ff fc 
  401ebe:	0f a0       	mov.l	er2,er0
  401ec0:	5e 40 2e 04 	jsr	@0x402e04:24

00401ec4 <.LM107>:
/home/kozos.c:277
  putcurrent();
  401ec4:	5e 40 19 a4 	jsr	@0x4019a4:24

00401ec8 <.LM108>:
/home/kozos.c:278
  return 0;
  401ec8:	19 22       	sub.w	r2,r2

00401eca <.LM109>:
/home/kozos.c:279
}
  401eca:	0d 20       	mov.w	r2,r0
  401ecc:	0b 97       	adds	#4,er7
  401ece:	01 00 6d 76 	mov.l	@er7+,er6
  401ed2:	54 70       	rts	

00401ed4 <_sendmsg>:
sendmsg():
/home/kozos.c:283

/* メッセージの送信処理 */
static void sendmsg(kz_msgbox *mboxp, kz_thread *thp, int size, char *p)
{
  401ed4:	01 00 6d f6 	mov.l	er6,@-er7
  401ed8:	0f f6       	mov.l	er7,er6
  401eda:	7a 37 00 00 	sub.l	#0x10,er7
  401ede:	00 10 
  401ee0:	01 00 6f e0 	mov.l	er0,@(0xfff8:16,er6)
  401ee4:	ff f8 
  401ee6:	01 00 6f e1 	mov.l	er1,@(0xfff4:16,er6)
  401eea:	ff f4 
  401eec:	6f e2 ff f2 	mov.w	r2,@(0xfff2:16,er6)

00401ef0 <.LM111>:
/home/kozos.c:287
  kz_msgbuf *mp;

  /* メッセージ・バッファの作成 */
  mp = (kz_msgbuf *)kzmem_alloc(sizeof(*mp));
  401ef0:	79 00 00 10 	mov.w	#0x10,r0
  401ef4:	5e 40 2d 30 	jsr	@0x402d30:24
  401ef8:	01 00 6f e0 	mov.l	er0,@(0xfffc:16,er6)
  401efc:	ff fc 

00401efe <.LM112>:
/home/kozos.c:288
  if (mp == NULL)
  401efe:	01 00 6f 62 	mov.l	@(0xfffc:16,er6),er2
  401f02:	ff fc 
  401f04:	0f a2       	mov.l	er2,er2
  401f06:	46 04       	bne	.+4 (0x401f0c)

00401f08 <.LM113>:
/home/kozos.c:289
    kz_sysdown();
  401f08:	5e 40 27 36 	jsr	@0x402736:24

00401f0c <.L42>:
/home/kozos.c:290
  mp->next       = NULL;
  401f0c:	01 00 6f 62 	mov.l	@(0xfffc:16,er6),er2
  401f10:	ff fc 
  401f12:	1a b3       	sub.l	er3,er3
  401f14:	01 00 69 a3 	mov.l	er3,@er2

00401f18 <.LM115>:
/home/kozos.c:291
  mp->sender     = thp;
  401f18:	01 00 6f 62 	mov.l	@(0xfffc:16,er6),er2
  401f1c:	ff fc 
  401f1e:	01 00 6f 63 	mov.l	@(0xfff4:16,er6),er3
  401f22:	ff f4 
  401f24:	01 00 6f a3 	mov.l	er3,@(0x4:16,er2)
  401f28:	00 04 

00401f2a <.LM116>:
/home/kozos.c:292
  mp->param.size = size;
  401f2a:	01 00 6f 62 	mov.l	@(0xfffc:16,er6),er2
  401f2e:	ff fc 
  401f30:	6f 63 ff f2 	mov.w	@(0xfff2:16,er6),r3
  401f34:	6f a3 00 08 	mov.w	r3,@(0x8:16,er2)

00401f38 <.LM117>:
/home/kozos.c:293
  mp->param.p    = p;
  401f38:	01 00 6f 62 	mov.l	@(0xfffc:16,er6),er2
  401f3c:	ff fc 
  401f3e:	01 00 6f 63 	mov.l	@(0x8:16,er6),er3
  401f42:	00 08 
  401f44:	01 00 6f a3 	mov.l	er3,@(0xc:16,er2)
  401f48:	00 0c 

00401f4a <.LM118>:
/home/kozos.c:296

  /* メッセージ・ボックスの末尾にメッセージを接続する */
  if (mboxp->tail) {
  401f4a:	01 00 6f 62 	mov.l	@(0xfff8:16,er6),er2
  401f4e:	ff f8 
  401f50:	01 00 6f 22 	mov.l	@(0x8:16,er2),er2
  401f54:	00 08 
  401f56:	0f a2       	mov.l	er2,er2
  401f58:	47 18       	beq	.+24 (0x401f72)

00401f5a <.LM119>:
/home/kozos.c:297
    mboxp->tail->next = mp;
  401f5a:	01 00 6f 62 	mov.l	@(0xfff8:16,er6),er2
  401f5e:	ff f8 
  401f60:	01 00 6f 22 	mov.l	@(0x8:16,er2),er2
  401f64:	00 08 
  401f66:	01 00 6f 63 	mov.l	@(0xfffc:16,er6),er3
  401f6a:	ff fc 
  401f6c:	01 00 69 a3 	mov.l	er3,@er2
  401f70:	40 12       	bra	.+18 (0x401f84)

00401f72 <.L43>:
/home/kozos.c:299
  } else {
    mboxp->head = mp;
  401f72:	01 00 6f 62 	mov.l	@(0xfff8:16,er6),er2
  401f76:	ff f8 
  401f78:	01 00 6f 63 	mov.l	@(0xfffc:16,er6),er3
  401f7c:	ff fc 
  401f7e:	01 00 6f a3 	mov.l	er3,@(0x4:16,er2)
  401f82:	00 04 

00401f84 <.L44>:
/home/kozos.c:301
  }
  mboxp->tail = mp;
  401f84:	01 00 6f 62 	mov.l	@(0xfff8:16,er6),er2
  401f88:	ff f8 
  401f8a:	01 00 6f 63 	mov.l	@(0xfffc:16,er6),er3
  401f8e:	ff fc 
  401f90:	01 00 6f a3 	mov.l	er3,@(0x8:16,er2)
  401f94:	00 08 

00401f96 <.LM122>:
/home/kozos.c:302
}
  401f96:	00 00       	nop	
  401f98:	7a 17 00 00 	add.l	#0x10,er7
  401f9c:	00 10 
  401f9e:	01 00 6d 76 	mov.l	@er7+,er6
  401fa2:	54 70       	rts	

00401fa4 <_recvmsg>:
recvmsg():
/home/kozos.c:306

/* メッセージの受信処理 */
static void recvmsg(kz_msgbox *mboxp)
{
  401fa4:	01 00 6d f6 	mov.l	er6,@-er7
  401fa8:	0f f6       	mov.l	er7,er6
  401faa:	7a 37 00 00 	sub.l	#0xc,er7
  401fae:	00 0c 
  401fb0:	01 00 6f e0 	mov.l	er0,@(0xfff4:16,er6)
  401fb4:	ff f4 

00401fb6 <.LM124>:
/home/kozos.c:311
  kz_msgbuf *mp;
  kz_syscall_param_t *p;

  /* メッセージ・ボックスの先頭にあるメッセージを抜き出す */
  mp = mboxp->head;
  401fb6:	01 00 6f 62 	mov.l	@(0xfff4:16,er6),er2
  401fba:	ff f4 
  401fbc:	01 00 6f 22 	mov.l	@(0x4:16,er2),er2
  401fc0:	00 04 
  401fc2:	01 00 6f e2 	mov.l	er2,@(0xfffc:16,er6)
  401fc6:	ff fc 

00401fc8 <.LM125>:
/home/kozos.c:312
  mboxp->head = mp->next;
  401fc8:	01 00 6f 62 	mov.l	@(0xfffc:16,er6),er2
  401fcc:	ff fc 
  401fce:	01 00 69 23 	mov.l	@er2,er3
  401fd2:	01 00 6f 62 	mov.l	@(0xfff4:16,er6),er2
  401fd6:	ff f4 
  401fd8:	01 00 6f a3 	mov.l	er3,@(0x4:16,er2)
  401fdc:	00 04 

00401fde <.LM126>:
/home/kozos.c:313
  if (mboxp->head == NULL)
  401fde:	01 00 6f 62 	mov.l	@(0xfff4:16,er6),er2
  401fe2:	ff f4 
  401fe4:	01 00 6f 22 	mov.l	@(0x4:16,er2),er2
  401fe8:	00 04 
  401fea:	0f a2       	mov.l	er2,er2
  401fec:	46 0e       	bne	.+14 (0x401ffc)

00401fee <.LM127>:
/home/kozos.c:314
    mboxp->tail = NULL;
  401fee:	01 00 6f 62 	mov.l	@(0xfff4:16,er6),er2
  401ff2:	ff f4 
  401ff4:	1a b3       	sub.l	er3,er3
  401ff6:	01 00 6f a3 	mov.l	er3,@(0x8:16,er2)
  401ffa:	00 08 

00401ffc <.L46>:
/home/kozos.c:315
  mp->next = NULL;
  401ffc:	01 00 6f 62 	mov.l	@(0xfffc:16,er6),er2
  402000:	ff fc 
  402002:	1a b3       	sub.l	er3,er3
  402004:	01 00 69 a3 	mov.l	er3,@er2

00402008 <.LM129>:
/home/kozos.c:318

  /* メッセージを受信するスレッドに返す値を設定する */
  p = mboxp->receiver->syscall.param;
  402008:	01 00 6f 62 	mov.l	@(0xfff4:16,er6),er2
  40200c:	ff f4 
  40200e:	01 00 69 22 	mov.l	@er2,er2
  402012:	01 00 6f 22 	mov.l	@(0x30:16,er2),er2
  402016:	00 30 
  402018:	01 00 6f e2 	mov.l	er2,@(0xfff8:16,er6)
  40201c:	ff f8 

0040201e <.LM130>:
/home/kozos.c:319
  p->un.recv.ret = (kz_thread_id_t)mp->sender;
  40201e:	01 00 6f 62 	mov.l	@(0xfffc:16,er6),er2
  402022:	ff fc 
  402024:	01 00 6f 22 	mov.l	@(0x4:16,er2),er2
  402028:	00 04 
  40202a:	0f a3       	mov.l	er2,er3
  40202c:	01 00 6f 62 	mov.l	@(0xfff8:16,er6),er2
  402030:	ff f8 
  402032:	01 00 6f a3 	mov.l	er3,@(0xc:16,er2)
  402036:	00 0c 

00402038 <.LM131>:
/home/kozos.c:320
  if (p->un.recv.sizep)
  402038:	01 00 6f 62 	mov.l	@(0xfff8:16,er6),er2
  40203c:	ff f8 
  40203e:	01 00 6f 22 	mov.l	@(0x4:16,er2),er2
  402042:	00 04 
  402044:	0f a2       	mov.l	er2,er2
  402046:	47 18       	beq	.+24 (0x402060)

00402048 <.LM132>:
/home/kozos.c:321
    *(p->un.recv.sizep) = mp->param.size;
  402048:	01 00 6f 62 	mov.l	@(0xfff8:16,er6),er2
  40204c:	ff f8 
  40204e:	01 00 6f 22 	mov.l	@(0x4:16,er2),er2
  402052:	00 04 
  402054:	01 00 6f 63 	mov.l	@(0xfffc:16,er6),er3
  402058:	ff fc 
  40205a:	6f 33 00 08 	mov.w	@(0x8:16,er3),r3
  40205e:	69 a3       	mov.w	r3,@er2

00402060 <.L47>:
/home/kozos.c:322
  if (p->un.recv.pp)
  402060:	01 00 6f 62 	mov.l	@(0xfff8:16,er6),er2
  402064:	ff f8 
  402066:	01 00 6f 22 	mov.l	@(0x8:16,er2),er2
  40206a:	00 08 
  40206c:	0f a2       	mov.l	er2,er2
  40206e:	47 1c       	beq	.+28 (0x40208c)

00402070 <.LM134>:
/home/kozos.c:323
    *(p->un.recv.pp) = mp->param.p;
  402070:	01 00 6f 62 	mov.l	@(0xfff8:16,er6),er2
  402074:	ff f8 
  402076:	01 00 6f 22 	mov.l	@(0x8:16,er2),er2
  40207a:	00 08 
  40207c:	01 00 6f 63 	mov.l	@(0xfffc:16,er6),er3
  402080:	ff fc 
  402082:	01 00 6f 33 	mov.l	@(0xc:16,er3),er3
  402086:	00 0c 
  402088:	01 00 69 a3 	mov.l	er3,@er2

0040208c <.L48>:
/home/kozos.c:326

  /* 受信待ちスレッドはいなくなったので，NULLに戻す */
  mboxp->receiver = NULL;
  40208c:	01 00 6f 62 	mov.l	@(0xfff4:16,er6),er2
  402090:	ff f4 
  402092:	1a b3       	sub.l	er3,er3
  402094:	01 00 69 a3 	mov.l	er3,@er2

00402098 <.LM136>:
/home/kozos.c:329

  /* メッセージ・バッファの解放 */
  kzmem_free(mp);
  402098:	01 00 6f 62 	mov.l	@(0xfffc:16,er6),er2
  40209c:	ff fc 
  40209e:	0f a0       	mov.l	er2,er0
  4020a0:	5e 40 2e 04 	jsr	@0x402e04:24

004020a4 <.LM137>:
/home/kozos.c:330
}
  4020a4:	00 00       	nop	
  4020a6:	7a 17 00 00 	add.l	#0xc,er7
  4020aa:	00 0c 
  4020ac:	01 00 6d 76 	mov.l	@er7+,er6
  4020b0:	54 70       	rts	

004020b2 <_thread_send>:
thread_send():
/home/kozos.c:334

/* システム・コールの処理(kz_send():メッセージ送信) */
static int thread_send(kz_msgbox_id_t id, int size, char *p)
{
  4020b2:	01 00 6d f6 	mov.l	er6,@-er7
  4020b6:	0f f6       	mov.l	er7,er6
  4020b8:	7a 37 00 00 	sub.l	#0xc,er7
  4020bc:	00 0c 
  4020be:	6f e0 ff fa 	mov.w	r0,@(0xfffa:16,er6)
  4020c2:	6f e1 ff f8 	mov.w	r1,@(0xfff8:16,er6)
  4020c6:	01 00 6f e2 	mov.l	er2,@(0xfff4:16,er6)
  4020ca:	ff f4 

004020cc <.LM139>:
/home/kozos.c:335
  kz_msgbox *mboxp = &msgboxes[id];
  4020cc:	6f 62 ff fa 	mov.w	@(0xfffa:16,er6),r2
  4020d0:	17 72       	extu.l	er2
  4020d2:	10 32       	shll.l	er2
  4020d4:	10 32       	shll.l	er2
  4020d6:	10 32       	shll.l	er2
  4020d8:	10 32       	shll.l	er2
  4020da:	7a 12 00 40 	add.l	#0x405898,er2
  4020de:	58 98 
  4020e0:	01 00 6f e2 	mov.l	er2,@(0xfffc:16,er6)
  4020e4:	ff fc 

004020e6 <.LM140>:
/home/kozos.c:337

  putcurrent();
  4020e6:	5e 40 19 a4 	jsr	@0x4019a4:24

004020ea <.LM141>:
/home/kozos.c:338
  sendmsg(mboxp, current, size, p); /* メッセージの送信処理 */
  4020ea:	01 00 6b 20 	mov.l	@0x405480:32,er0
  4020ee:	00 40 54 80 
  4020f2:	6f 61 ff f8 	mov.w	@(0xfff8:16,er6),r1
  4020f6:	01 00 6f 63 	mov.l	@(0xfffc:16,er6),er3
  4020fa:	ff fc 
  4020fc:	01 00 6f 62 	mov.l	@(0xfff4:16,er6),er2
  402100:	ff f4 
  402102:	01 00 6d f2 	mov.l	er2,@-er7
  402106:	0d 12       	mov.w	r1,r2
  402108:	0f 81       	mov.l	er0,er1
  40210a:	0f b0       	mov.l	er3,er0
  40210c:	5e 40 1e d4 	jsr	@0x401ed4:24
  402110:	0b 97       	adds	#4,er7

00402112 <.LM142>:
/home/kozos.c:341

  /* 受信待ちスレッドが存在している場合には受信処理を行う */
  if (mboxp->receiver) {
  402112:	01 00 6f 62 	mov.l	@(0xfffc:16,er6),er2
  402116:	ff fc 
  402118:	01 00 69 22 	mov.l	@er2,er2
  40211c:	0f a2       	mov.l	er2,er2
  40211e:	47 22       	beq	.+34 (0x402142)

00402120 <.LM143>:
/home/kozos.c:342
    current = mboxp->receiver; /* 受信待ちスレッド */
  402120:	01 00 6f 62 	mov.l	@(0xfffc:16,er6),er2
  402124:	ff fc 
  402126:	01 00 69 22 	mov.l	@er2,er2
  40212a:	01 00 6b a2 	mov.l	er2,@0x405480:32
  40212e:	00 40 54 80 

00402132 <.LM144>:
/home/kozos.c:343
    recvmsg(mboxp); /* メッセージの受信処理 */
  402132:	01 00 6f 62 	mov.l	@(0xfffc:16,er6),er2
  402136:	ff fc 
  402138:	0f a0       	mov.l	er2,er0
  40213a:	5e 40 1f a4 	jsr	@0x401fa4:24

0040213e <.LM145>:
/home/kozos.c:344
    putcurrent(); /* 受信により動作可能になったので，ブロック解除する */
  40213e:	5e 40 19 a4 	jsr	@0x4019a4:24

00402142 <.L50>:
/home/kozos.c:347
  }

  return size;
  402142:	6f 62 ff f8 	mov.w	@(0xfff8:16,er6),r2

00402146 <.LM147>:
/home/kozos.c:348
}
  402146:	0d 20       	mov.w	r2,r0
  402148:	7a 17 00 00 	add.l	#0xc,er7
  40214c:	00 0c 
  40214e:	01 00 6d 76 	mov.l	@er7+,er6
  402152:	54 70       	rts	

00402154 <_thread_recv>:
thread_recv():
/home/kozos.c:352

/* システム・コールの処理(kz_recv():メッセージ受信) */
static kz_thread_id_t thread_recv(kz_msgbox_id_t id, int *sizep, char **pp)
{
  402154:	01 00 6d f6 	mov.l	er6,@-er7
  402158:	0f f6       	mov.l	er7,er6
  40215a:	7a 37 00 00 	sub.l	#0x10,er7
  40215e:	00 10 
  402160:	6f e0 ff fa 	mov.w	r0,@(0xfffa:16,er6)
  402164:	01 00 6f e1 	mov.l	er1,@(0xfff4:16,er6)
  402168:	ff f4 
  40216a:	01 00 6f e2 	mov.l	er2,@(0xfff0:16,er6)
  40216e:	ff f0 

00402170 <.LM149>:
/home/kozos.c:353
  kz_msgbox *mboxp = &msgboxes[id];
  402170:	6f 62 ff fa 	mov.w	@(0xfffa:16,er6),r2
  402174:	17 72       	extu.l	er2
  402176:	10 32       	shll.l	er2
  402178:	10 32       	shll.l	er2
  40217a:	10 32       	shll.l	er2
  40217c:	10 32       	shll.l	er2
  40217e:	7a 12 00 40 	add.l	#0x405898,er2
  402182:	58 98 
  402184:	01 00 6f e2 	mov.l	er2,@(0xfffc:16,er6)
  402188:	ff fc 

0040218a <.LM150>:
/home/kozos.c:355

  if (mboxp->receiver) /* 他のスレッドがすでに受信待ちしている */
  40218a:	01 00 6f 62 	mov.l	@(0xfffc:16,er6),er2
  40218e:	ff fc 
  402190:	01 00 69 22 	mov.l	@er2,er2
  402194:	0f a2       	mov.l	er2,er2
  402196:	47 04       	beq	.+4 (0x40219c)

00402198 <.LM151>:
/home/kozos.c:356
    kz_sysdown();
  402198:	5e 40 27 36 	jsr	@0x402736:24

0040219c <.L53>:
/home/kozos.c:358

  mboxp->receiver = current; /* 受信待ちスレッドに設定 */
  40219c:	01 00 6b 23 	mov.l	@0x405480:32,er3
  4021a0:	00 40 54 80 
  4021a4:	01 00 6f 62 	mov.l	@(0xfffc:16,er6),er2
  4021a8:	ff fc 
  4021aa:	01 00 69 a3 	mov.l	er3,@er2

004021ae <.LM153>:
/home/kozos.c:360

  if (mboxp->head == NULL) {
  4021ae:	01 00 6f 62 	mov.l	@(0xfffc:16,er6),er2
  4021b2:	ff fc 
  4021b4:	01 00 6f 22 	mov.l	@(0x4:16,er2),er2
  4021b8:	00 04 
  4021ba:	0f a2       	mov.l	er2,er2
  4021bc:	46 06       	bne	.+6 (0x4021c4)

004021be <.LM154>:
/home/kozos.c:365
    /*
     * メッセージ・ボックスにメッセージが無いので，スレッドを
     * スリープさせる．(システム・コールがブロックする)
     */
    return -1;
  4021be:	1a a2       	sub.l	er2,er2
  4021c0:	1b 02       	subs	#1,er2
  4021c2:	40 24       	bra	.+36 (0x4021e8)

004021c4 <.L54>:
/home/kozos.c:368
  }

  recvmsg(mboxp); /* メッセージの受信処理 */
  4021c4:	01 00 6f 62 	mov.l	@(0xfffc:16,er6),er2
  4021c8:	ff fc 
  4021ca:	0f a0       	mov.l	er2,er0
  4021cc:	5e 40 1f a4 	jsr	@0x401fa4:24

004021d0 <.LM156>:
/home/kozos.c:369
  putcurrent(); /* メッセージを受信できたので，レディー状態にする */
  4021d0:	5e 40 19 a4 	jsr	@0x4019a4:24

004021d4 <.LM157>:
/home/kozos.c:371

  return current->syscall.param->un.recv.ret;
  4021d4:	01 00 6b 22 	mov.l	@0x405480:32,er2
  4021d8:	00 40 54 80 
  4021dc:	01 00 6f 22 	mov.l	@(0x30:16,er2),er2
  4021e0:	00 30 
  4021e2:	01 00 6f 22 	mov.l	@(0xc:16,er2),er2
  4021e6:	00 0c 

004021e8 <.L55>:
/home/kozos.c:372
}
  4021e8:	0f a0       	mov.l	er2,er0
  4021ea:	7a 17 00 00 	add.l	#0x10,er7
  4021ee:	00 10 
  4021f0:	01 00 6d 76 	mov.l	@er7+,er6
  4021f4:	54 70       	rts	

004021f6 <_thread_setintr>:
thread_setintr():
/home/kozos.c:377

/* システム・コールの処理(kz_setintr():割込みハンドラ登録) */
static void thread_intr(softvec_type_t type, unsigned long sp);
static int thread_setintr(softvec_type_t type, kz_handler_t handler)
{
  4021f6:	01 00 6d f6 	mov.l	er6,@-er7
  4021fa:	0f f6       	mov.l	er7,er6
  4021fc:	7a 37 00 00 	sub.l	#0x8,er7
  402200:	00 08 
  402202:	6f e0 ff fe 	mov.w	r0,@(0xfffe:16,er6)
  402206:	01 00 6f e1 	mov.l	er1,@(0xfff8:16,er6)
  40220a:	ff f8 

0040220c <.LM160>:
/home/kozos.c:383

  /*
   * 割込みを受け付けるために，ソフトウエア・割込みベクタに
   * OSの割込み処理の入口となる関数を登録する．
   */
  softvec_setintr(type, thread_intr);
  40220c:	6f 62 ff fe 	mov.w	@(0xfffe:16,er6),r2
  402210:	7a 01 00 40 	mov.l	#0x4025c4,er1
  402214:	25 c4 
  402216:	0d 20       	mov.w	r2,r0
  402218:	5e 40 03 da 	jsr	@0x4003da:24

0040221c <.LM161>:
/home/kozos.c:385

  handlers[type] = handler; /* OS側から呼び出す割込みハンドラを登録 */
  40221c:	6f 62 ff fe 	mov.w	@(0xfffe:16,er6),r2
  402220:	17 f2       	exts.l	er2
  402222:	10 32       	shll.l	er2
  402224:	10 32       	shll.l	er2
  402226:	7a 12 00 40 	add.l	#0x405884,er2
  40222a:	58 84 
  40222c:	01 00 6f 63 	mov.l	@(0xfff8:16,er6),er3
  402230:	ff f8 
  402232:	01 00 69 a3 	mov.l	er3,@er2

00402236 <.LM162>:
/home/kozos.c:386
  putcurrent();
  402236:	5e 40 19 a4 	jsr	@0x4019a4:24

0040223a <.LM163>:
/home/kozos.c:388

  return 0;
  40223a:	19 22       	sub.w	r2,r2

0040223c <.LM164>:
/home/kozos.c:389
}
  40223c:	0d 20       	mov.w	r2,r0
  40223e:	0b 97       	adds	#4,er7
  402240:	0b 97       	adds	#4,er7
  402242:	01 00 6d 76 	mov.l	@er7+,er6
  402246:	54 70       	rts	

00402248 <_call_functions>:
call_functions():
/home/kozos.c:392

static void call_functions(kz_syscall_type_t type, kz_syscall_param_t *p)
{
  402248:	01 00 6d f6 	mov.l	er6,@-er7
  40224c:	0f f6       	mov.l	er7,er6
  40224e:	01 00 6d f4 	mov.l	er4,@-er7
  402252:	01 00 6d f5 	mov.l	er5,@-er7
  402256:	7a 37 00 00 	sub.l	#0x8,er7
  40225a:	00 08 
  40225c:	6f e0 ff f6 	mov.w	r0,@(0xfff6:16,er6)
  402260:	01 00 6f e1 	mov.l	er1,@(0xfff0:16,er6)
  402264:	ff f0 

00402266 <.LM166>:
/home/kozos.c:394
  /* システム・コールの実行中にcurrentが書き換わるので注意 */
  switch (type) {
  402266:	6f 62 ff f6 	mov.w	@(0xfff6:16,er6),r2
  40226a:	79 22 00 0b 	cmp.w	#0xb,r2
  40226e:	58 20 01 ee 	bhi	.+494 (0x402460)
  402272:	6f 62 ff f6 	mov.w	@(0xfff6:16,er6),r2
  402276:	17 72       	extu.l	er2
  402278:	10 32       	shll.l	er2
  40227a:	10 32       	shll.l	er2
  40227c:	7a 12 00 40 	add.l	#0x4052fc,er2
  402280:	52 fc 
  402282:	01 00 69 22 	mov.l	@er2,er2
  402286:	59 20       	jmp	@er2

00402288 <.L60>:
/home/kozos.c:396
  case KZ_SYSCALL_TYPE_RUN: /* kz_run() */
    p->un.run.ret = thread_run(p->un.run.func, p->un.run.name,
  402288:	01 00 6f 62 	mov.l	@(0xfff0:16,er6),er2
  40228c:	ff f0 
  40228e:	01 00 6f 20 	mov.l	@(0x10:16,er2),er0
  402292:	00 10 
  402294:	01 00 6f 62 	mov.l	@(0xfff0:16,er6),er2
  402298:	ff f0 
  40229a:	6f 23 00 0c 	mov.w	@(0xc:16,er2),r3
  40229e:	01 00 6f 62 	mov.l	@(0xfff0:16,er6),er2
  4022a2:	ff f0 
  4022a4:	6f 22 00 0a 	mov.w	@(0xa:16,er2),r2
  4022a8:	01 00 6f 61 	mov.l	@(0xfff0:16,er6),er1
  4022ac:	ff f0 
  4022ae:	6f 11 00 08 	mov.w	@(0x8:16,er1),r1
  4022b2:	6f e1 ff f4 	mov.w	r1,@(0xfff4:16,er6)
  4022b6:	01 00 6f 61 	mov.l	@(0xfff0:16,er6),er1
  4022ba:	ff f0 
  4022bc:	01 00 6f 15 	mov.l	@(0x4:16,er1),er5
  4022c0:	00 04 
  4022c2:	01 00 6f 61 	mov.l	@(0xfff0:16,er6),er1
  4022c6:	ff f0 
  4022c8:	01 00 69 14 	mov.l	@er1,er4
  4022cc:	01 00 6d f0 	mov.l	er0,@-er7
  4022d0:	0f f0       	mov.l	er7,er0
  4022d2:	1b 90       	subs	#4,er0
  4022d4:	0f 87       	mov.l	er0,er7
  4022d6:	6f f3 00 02 	mov.w	r3,@(0x2:16,er7)
  4022da:	0f f3       	mov.l	er7,er3
  4022dc:	1b 93       	subs	#4,er3
  4022de:	0f b7       	mov.l	er3,er7
  4022e0:	6f f2 00 02 	mov.w	r2,@(0x2:16,er7)
  4022e4:	6f 62 ff f4 	mov.w	@(0xfff4:16,er6),r2
  4022e8:	0f d1       	mov.l	er5,er1
  4022ea:	0f c0       	mov.l	er4,er0
  4022ec:	5e 40 1a f6 	jsr	@0x401af6:24
  4022f0:	7a 17 00 00 	add.l	#0xc,er7
  4022f4:	00 0c 
  4022f6:	0f 83       	mov.l	er0,er3
  4022f8:	01 00 6f 62 	mov.l	@(0xfff0:16,er6),er2
  4022fc:	ff f0 
  4022fe:	01 00 6f a3 	mov.l	er3,@(0x14:16,er2)
  402302:	00 14 

00402304 <.LM168>:
/home/kozos.c:399
			       p->un.run.priority, p->un.run.stacksize,
			       p->un.run.argc, p->un.run.argv);
    break;
  402304:	58 00 01 5a 	bra	.+346 (0x402462)

00402308 <.L62>:
/home/kozos.c:402
  case KZ_SYSCALL_TYPE_EXIT: /* kz_exit() */
    /* TCBが消去されるので，戻り値を書き込んではいけない */
    thread_exit();
  402308:	5e 40 1d 8c 	jsr	@0x401d8c:24

0040230c <.LM170>:
/home/kozos.c:403
    break;
  40230c:	58 00 01 52 	bra	.+338 (0x402462)

00402310 <.L63>:
/home/kozos.c:405
  case KZ_SYSCALL_TYPE_WAIT: /* kz_wait() */
    p->un.wait.ret = thread_wait();
  402310:	5e 40 1d ca 	jsr	@0x401dca:24
  402314:	0d 03       	mov.w	r0,r3
  402316:	01 00 6f 62 	mov.l	@(0xfff0:16,er6),er2
  40231a:	ff f0 
  40231c:	69 a3       	mov.w	r3,@er2

0040231e <.LM172>:
/home/kozos.c:406
    break;
  40231e:	58 00 01 40 	bra	.+320 (0x402462)

00402322 <.L64>:
/home/kozos.c:408
  case KZ_SYSCALL_TYPE_SLEEP: /* kz_sleep() */
    p->un.sleep.ret = thread_sleep();
  402322:	5e 40 1d de 	jsr	@0x401dde:24
  402326:	0d 03       	mov.w	r0,r3
  402328:	01 00 6f 62 	mov.l	@(0xfff0:16,er6),er2
  40232c:	ff f0 
  40232e:	69 a3       	mov.w	r3,@er2

00402330 <.LM174>:
/home/kozos.c:409
    break;
  402330:	58 00 01 2e 	bra	.+302 (0x402462)

00402334 <.L65>:
/home/kozos.c:411
  case KZ_SYSCALL_TYPE_WAKEUP: /* kz_wakeup() */
    p->un.wakeup.ret = thread_wakeup(p->un.wakeup.id);
  402334:	01 00 6f 62 	mov.l	@(0xfff0:16,er6),er2
  402338:	ff f0 
  40233a:	01 00 69 22 	mov.l	@er2,er2
  40233e:	0f a0       	mov.l	er2,er0
  402340:	5e 40 1d ee 	jsr	@0x401dee:24
  402344:	0d 03       	mov.w	r0,r3
  402346:	01 00 6f 62 	mov.l	@(0xfff0:16,er6),er2
  40234a:	ff f0 
  40234c:	6f a3 00 04 	mov.w	r3,@(0x4:16,er2)

00402350 <.LM176>:
/home/kozos.c:412
    break;
  402350:	58 00 01 0e 	bra	.+270 (0x402462)

00402354 <.L66>:
/home/kozos.c:414
  case KZ_SYSCALL_TYPE_GETID: /* kz_getid() */
    p->un.getid.ret = thread_getid();
  402354:	5e 40 1e 1e 	jsr	@0x401e1e:24
  402358:	0f 83       	mov.l	er0,er3
  40235a:	01 00 6f 62 	mov.l	@(0xfff0:16,er6),er2
  40235e:	ff f0 
  402360:	01 00 69 a3 	mov.l	er3,@er2

00402364 <.LM178>:
/home/kozos.c:415
    break;
  402364:	58 00 00 fa 	bra	.+250 (0x402462)

00402368 <.L67>:
/home/kozos.c:417
  case KZ_SYSCALL_TYPE_CHPRI: /* kz_chpri() */
    p->un.chpri.ret = thread_chpri(p->un.chpri.priority);
  402368:	01 00 6f 62 	mov.l	@(0xfff0:16,er6),er2
  40236c:	ff f0 
  40236e:	69 22       	mov.w	@er2,r2
  402370:	0d 20       	mov.w	r2,r0
  402372:	5e 40 1e 38 	jsr	@0x401e38:24
  402376:	0d 03       	mov.w	r0,r3
  402378:	01 00 6f 62 	mov.l	@(0xfff0:16,er6),er2
  40237c:	ff f0 
  40237e:	6f a3 00 02 	mov.w	r3,@(0x2:16,er2)

00402382 <.LM180>:
/home/kozos.c:418
    break;
  402382:	58 00 00 dc 	bra	.+220 (0x402462)

00402386 <.L68>:
/home/kozos.c:420
  case KZ_SYSCALL_TYPE_KMALLOC: /* kz_kmalloc() */
    p->un.kmalloc.ret = thread_kmalloc(p->un.kmalloc.size);
  402386:	01 00 6f 62 	mov.l	@(0xfff0:16,er6),er2
  40238a:	ff f0 
  40238c:	69 22       	mov.w	@er2,r2
  40238e:	0d 20       	mov.w	r2,r0
  402390:	5e 40 1e 84 	jsr	@0x401e84:24
  402394:	0f 83       	mov.l	er0,er3
  402396:	01 00 6f 62 	mov.l	@(0xfff0:16,er6),er2
  40239a:	ff f0 
  40239c:	01 00 6f a3 	mov.l	er3,@(0x4:16,er2)
  4023a0:	00 04 

004023a2 <.LM182>:
/home/kozos.c:421
    break;
  4023a2:	58 00 00 bc 	bra	.+188 (0x402462)

004023a6 <.L69>:
/home/kozos.c:423
  case KZ_SYSCALL_TYPE_KMFREE: /* kz_kmfree() */
    p->un.kmfree.ret = thread_kmfree(p->un.kmfree.p);
  4023a6:	01 00 6f 62 	mov.l	@(0xfff0:16,er6),er2
  4023aa:	ff f0 
  4023ac:	01 00 69 22 	mov.l	@er2,er2
  4023b0:	0f a0       	mov.l	er2,er0
  4023b2:	5e 40 1e aa 	jsr	@0x401eaa:24
  4023b6:	0d 03       	mov.w	r0,r3
  4023b8:	01 00 6f 62 	mov.l	@(0xfff0:16,er6),er2
  4023bc:	ff f0 
  4023be:	6f a3 00 04 	mov.w	r3,@(0x4:16,er2)

004023c2 <.LM184>:
/home/kozos.c:424
    break;
  4023c2:	58 00 00 9c 	bra	.+156 (0x402462)

004023c6 <.L70>:
/home/kozos.c:426
  case KZ_SYSCALL_TYPE_SEND: /* kz_send() */
    p->un.send.ret = thread_send(p->un.send.id,
  4023c6:	01 00 6f 62 	mov.l	@(0xfff0:16,er6),er2
  4023ca:	ff f0 
  4023cc:	01 00 6f 21 	mov.l	@(0x4:16,er2),er1
  4023d0:	00 04 
  4023d2:	01 00 6f 62 	mov.l	@(0xfff0:16,er6),er2
  4023d6:	ff f0 
  4023d8:	6f 20 00 02 	mov.w	@(0x2:16,er2),r0
  4023dc:	01 00 6f 62 	mov.l	@(0xfff0:16,er6),er2
  4023e0:	ff f0 
  4023e2:	69 23       	mov.w	@er2,r3
  4023e4:	0f 92       	mov.l	er1,er2
  4023e6:	0d 01       	mov.w	r0,r1
  4023e8:	0d 30       	mov.w	r3,r0
  4023ea:	5e 40 20 b2 	jsr	@0x4020b2:24
  4023ee:	0d 03       	mov.w	r0,r3
  4023f0:	01 00 6f 62 	mov.l	@(0xfff0:16,er6),er2
  4023f4:	ff f0 
  4023f6:	6f a3 00 08 	mov.w	r3,@(0x8:16,er2)

004023fa <.LM186>:
/home/kozos.c:428
				 p->un.send.size, p->un.send.p);
    break;
  4023fa:	40 66       	bra	.+102 (0x402462)

004023fc <.L71>:
/home/kozos.c:430
  case KZ_SYSCALL_TYPE_RECV: /* kz_recv() */
    p->un.recv.ret = thread_recv(p->un.recv.id,
  4023fc:	01 00 6f 62 	mov.l	@(0xfff0:16,er6),er2
  402400:	ff f0 
  402402:	01 00 6f 21 	mov.l	@(0x8:16,er2),er1
  402406:	00 08 
  402408:	01 00 6f 62 	mov.l	@(0xfff0:16,er6),er2
  40240c:	ff f0 
  40240e:	01 00 6f 20 	mov.l	@(0x4:16,er2),er0
  402412:	00 04 
  402414:	01 00 6f 62 	mov.l	@(0xfff0:16,er6),er2
  402418:	ff f0 
  40241a:	69 23       	mov.w	@er2,r3
  40241c:	0f 92       	mov.l	er1,er2
  40241e:	0f 81       	mov.l	er0,er1
  402420:	0d 30       	mov.w	r3,r0
  402422:	5e 40 21 54 	jsr	@0x402154:24
  402426:	0f 83       	mov.l	er0,er3
  402428:	01 00 6f 62 	mov.l	@(0xfff0:16,er6),er2
  40242c:	ff f0 
  40242e:	01 00 6f a3 	mov.l	er3,@(0xc:16,er2)
  402432:	00 0c 

00402434 <.LM188>:
/home/kozos.c:432
				 p->un.recv.sizep, p->un.recv.pp);
    break;
  402434:	40 2c       	bra	.+44 (0x402462)

00402436 <.L72>:
/home/kozos.c:434
  case KZ_SYSCALL_TYPE_SETINTR: /* kz_setintr() */
    p->un.setintr.ret = thread_setintr(p->un.setintr.type,
  402436:	01 00 6f 62 	mov.l	@(0xfff0:16,er6),er2
  40243a:	ff f0 
  40243c:	01 00 6f 23 	mov.l	@(0x4:16,er2),er3
  402440:	00 04 
  402442:	01 00 6f 62 	mov.l	@(0xfff0:16,er6),er2
  402446:	ff f0 
  402448:	69 22       	mov.w	@er2,r2
  40244a:	0f b1       	mov.l	er3,er1
  40244c:	0d 20       	mov.w	r2,r0
  40244e:	5e 40 21 f6 	jsr	@0x4021f6:24
  402452:	0d 03       	mov.w	r0,r3
  402454:	01 00 6f 62 	mov.l	@(0xfff0:16,er6),er2
  402458:	ff f0 
  40245a:	6f a3 00 08 	mov.w	r3,@(0x8:16,er2)

0040245e <.LM190>:
/home/kozos.c:436
				       p->un.setintr.handler);
    break;
  40245e:	40 02       	bra	.+2 (0x402462)

00402460 <.L74>:
	...

00402462 <.L73>:
/home/kozos.c:440
  default:
    break;
  }
}
  402462:	00 00       	nop	
  402464:	0b 97       	adds	#4,er7
  402466:	0b 97       	adds	#4,er7
  402468:	01 00 6d 75 	mov.l	@er7+,er5
  40246c:	01 00 6d 74 	mov.l	@er7+,er4
  402470:	01 00 6d 76 	mov.l	@er7+,er6
  402474:	54 70       	rts	

00402476 <_syscall_proc>:
syscall_proc():
/home/kozos.c:444

/* システム・コールの処理 */
static void syscall_proc(kz_syscall_type_t type, kz_syscall_param_t *p)
{
  402476:	01 00 6d f6 	mov.l	er6,@-er7
  40247a:	0f f6       	mov.l	er7,er6
  40247c:	7a 37 00 00 	sub.l	#0x8,er7
  402480:	00 08 
  402482:	6f e0 ff fe 	mov.w	r0,@(0xfffe:16,er6)
  402486:	01 00 6f e1 	mov.l	er1,@(0xfff8:16,er6)
  40248a:	ff f8 

0040248c <.LM194>:
/home/kozos.c:451
   * システム・コールを呼び出したスレッドをレディー・キューから
   * 外した状態で処理関数を呼び出す．このためシステム・コールを
   * 呼び出したスレッドをそのまま動作継続させたい場合には，
   * 処理関数の内部で putcurrent() を行う必要がある．
   */
  getcurrent();
  40248c:	5e 40 18 c8 	jsr	@0x4018c8:24

00402490 <.LM195>:
/home/kozos.c:452
  call_functions(type, p);
  402490:	01 00 6f 63 	mov.l	@(0xfff8:16,er6),er3
  402494:	ff f8 
  402496:	6f 62 ff fe 	mov.w	@(0xfffe:16,er6),r2
  40249a:	0f b1       	mov.l	er3,er1
  40249c:	0d 20       	mov.w	r2,r0
  40249e:	5e 40 22 48 	jsr	@0x402248:24

004024a2 <.LM196>:
/home/kozos.c:453
}
  4024a2:	00 00       	nop	
  4024a4:	0b 97       	adds	#4,er7
  4024a6:	0b 97       	adds	#4,er7
  4024a8:	01 00 6d 76 	mov.l	@er7+,er6
  4024ac:	54 70       	rts	

004024ae <_srvcall_proc>:
srvcall_proc():
/home/kozos.c:457

/* サービス・コールの処理 */
static void srvcall_proc(kz_syscall_type_t type, kz_syscall_param_t *p)
{
  4024ae:	01 00 6d f6 	mov.l	er6,@-er7
  4024b2:	0f f6       	mov.l	er7,er6
  4024b4:	7a 37 00 00 	sub.l	#0x8,er7
  4024b8:	00 08 
  4024ba:	6f e0 ff fe 	mov.w	r0,@(0xfffe:16,er6)
  4024be:	01 00 6f e1 	mov.l	er1,@(0xfff8:16,er6)
  4024c2:	ff f8 

004024c4 <.LM198>:
/home/kozos.c:467
   * current が残っていると誤動作するため NULL に設定する．
   * サービス・コールは thread_intrvec() 内部の割込みハンドラ呼び出しの
   * 延長で呼ばれているはずでなので，呼び出し後に thread_intrvec() で
   * スケジューリング処理が行われ，current は再設定される．
   */
  current = NULL;
  4024c4:	1a a2       	sub.l	er2,er2
  4024c6:	01 00 6b a2 	mov.l	er2,@0x405480:32
  4024ca:	00 40 54 80 

004024ce <.LM199>:
/home/kozos.c:468
  call_functions(type, p);
  4024ce:	01 00 6f 63 	mov.l	@(0xfff8:16,er6),er3
  4024d2:	ff f8 
  4024d4:	6f 62 ff fe 	mov.w	@(0xfffe:16,er6),r2
  4024d8:	0f b1       	mov.l	er3,er1
  4024da:	0d 20       	mov.w	r2,r0
  4024dc:	5e 40 22 48 	jsr	@0x402248:24

004024e0 <.LM200>:
/home/kozos.c:469
}
  4024e0:	00 00       	nop	
  4024e2:	0b 97       	adds	#4,er7
  4024e4:	0b 97       	adds	#4,er7
  4024e6:	01 00 6d 76 	mov.l	@er7+,er6
  4024ea:	54 70       	rts	

004024ec <_schedule>:
schedule():
/home/kozos.c:473

/* スレッドのスケジューリング */
static void schedule(void)
{
  4024ec:	01 00 6d f6 	mov.l	er6,@-er7
  4024f0:	0f f6       	mov.l	er7,er6
  4024f2:	1b 97       	subs	#4,er7

004024f4 <.LM202>:
/home/kozos.c:480

  /*
   * 優先順位の高い順(優先度の数値の小さい順)にレディー・キューを見て，
   * 動作可能なスレッドを検索する．
   */
  for (i = 0; i < PRIORITY_NUM; i++) {
  4024f4:	19 22       	sub.w	r2,r2
  4024f6:	6f e2 ff fe 	mov.w	r2,@(0xfffe:16,er6)
  4024fa:	40 24       	bra	.+36 (0x402520)

004024fc <.L81>:
/home/kozos.c:481
    if (readyque[i].head) /* 見つかった */
  4024fc:	6f 62 ff fe 	mov.w	@(0xfffe:16,er6),r2
  402500:	17 f2       	exts.l	er2
  402502:	10 32       	shll.l	er2
  402504:	10 32       	shll.l	er2
  402506:	10 32       	shll.l	er2
  402508:	7a 12 00 40 	add.l	#0x405400,er2
  40250c:	54 00 
  40250e:	01 00 69 22 	mov.l	@er2,er2
  402512:	0f a2       	mov.l	er2,er2
  402514:	46 16       	bne	.+22 (0x40252c)

00402516 <.LM204>:
/home/kozos.c:480 (discriminator 2)
  for (i = 0; i < PRIORITY_NUM; i++) {
  402516:	6f 62 ff fe 	mov.w	@(0xfffe:16,er6),r2
  40251a:	0b 02       	adds	#1,er2
  40251c:	6f e2 ff fe 	mov.w	r2,@(0xfffe:16,er6)

00402520 <.L78>:
/home/kozos.c:480 (discriminator 1)
  402520:	6f 62 ff fe 	mov.w	@(0xfffe:16,er6),r2
  402524:	79 22 00 0f 	cmp.w	#0xf,r2
  402528:	4f d2       	ble	.-46 (0x4024fc)
  40252a:	40 02       	bra	.+2 (0x40252e)

0040252c <.L83>:
	...

0040252e <.L80>:
/home/kozos.c:484
      break;
  }
  if (i == PRIORITY_NUM) /* 見つからなかった */
  40252e:	6f 62 ff fe 	mov.w	@(0xfffe:16,er6),r2
  402532:	79 22 00 10 	cmp.w	#0x10,r2
  402536:	46 04       	bne	.+4 (0x40253c)

00402538 <.LM208>:
/home/kozos.c:485
    kz_sysdown();
  402538:	5e 40 27 36 	jsr	@0x402736:24

0040253c <.L82>:
/home/kozos.c:487

  current = readyque[i].head; /* カレント・スレッドに設定する */
  40253c:	6f 62 ff fe 	mov.w	@(0xfffe:16,er6),r2
  402540:	17 f2       	exts.l	er2
  402542:	10 32       	shll.l	er2
  402544:	10 32       	shll.l	er2
  402546:	10 32       	shll.l	er2
  402548:	7a 12 00 40 	add.l	#0x405400,er2
  40254c:	54 00 
  40254e:	01 00 69 22 	mov.l	@er2,er2
  402552:	01 00 6b a2 	mov.l	er2,@0x405480:32
  402556:	00 40 54 80 

0040255a <.LM210>:
/home/kozos.c:488
}
  40255a:	00 00       	nop	
  40255c:	0b 97       	adds	#4,er7
  40255e:	01 00 6d 76 	mov.l	@er7+,er6
  402562:	54 70       	rts	

00402564 <_syscall_intr>:
syscall_intr():
/home/kozos.c:491

static void syscall_intr(void)
{
  402564:	01 00 6d f6 	mov.l	er6,@-er7
  402568:	0f f6       	mov.l	er7,er6

0040256a <.LM212>:
/home/kozos.c:492
  syscall_proc(current->syscall.type, current->syscall.param);
  40256a:	01 00 6b 22 	mov.l	@0x405480:32,er2
  40256e:	00 40 54 80 
  402572:	01 00 6f 23 	mov.l	@(0x30:16,er2),er3
  402576:	00 30 
  402578:	01 00 6b 22 	mov.l	@0x405480:32,er2
  40257c:	00 40 54 80 
  402580:	6f 22 00 2c 	mov.w	@(0x2c:16,er2),r2
  402584:	0f b1       	mov.l	er3,er1
  402586:	0d 20       	mov.w	r2,r0
  402588:	5e 40 24 76 	jsr	@0x402476:24

0040258c <.LM213>:
/home/kozos.c:493
}
  40258c:	00 00       	nop	
  40258e:	01 00 6d 76 	mov.l	@er7+,er6
  402592:	54 70       	rts	

00402594 <_softerr_intr>:
softerr_intr():
/home/kozos.c:496

static void softerr_intr(void)
{
  402594:	01 00 6d f6 	mov.l	er6,@-er7
  402598:	0f f6       	mov.l	er7,er6

0040259a <.LM215>:
/home/kozos.c:497
  puts(current->name);
  40259a:	01 00 6b 22 	mov.l	@0x405480:32,er2
  40259e:	00 40 54 80 
  4025a2:	0b 92       	adds	#4,er2
  4025a4:	0f a0       	mov.l	er2,er0
  4025a6:	5e 40 09 94 	jsr	@0x400994:24

004025aa <.LM216>:
/home/kozos.c:498
  puts(" DOWN.\n");
  4025aa:	7a 00 00 40 	mov.l	#0x40532c,er0
  4025ae:	53 2c 
  4025b0:	5e 40 09 94 	jsr	@0x400994:24

004025b4 <.LM217>:
/home/kozos.c:499
  getcurrent(); /* レディーキューから外す */
  4025b4:	5e 40 18 c8 	jsr	@0x4018c8:24

004025b8 <.LM218>:
/home/kozos.c:500
  thread_exit(); /* スレッド終了する */
  4025b8:	5e 40 1d 8c 	jsr	@0x401d8c:24

004025bc <.LM219>:
/home/kozos.c:501
}
  4025bc:	00 00       	nop	
  4025be:	01 00 6d 76 	mov.l	@er7+,er6
  4025c2:	54 70       	rts	

004025c4 <_thread_intr>:
thread_intr():
/home/kozos.c:505

/* 割込み処理の入口関数 */
static void thread_intr(softvec_type_t type, unsigned long sp)
{
  4025c4:	01 00 6d f6 	mov.l	er6,@-er7
  4025c8:	0f f6       	mov.l	er7,er6
  4025ca:	7a 37 00 00 	sub.l	#0x8,er7
  4025ce:	00 08 
  4025d0:	6f e0 ff fe 	mov.w	r0,@(0xfffe:16,er6)
  4025d4:	01 00 6f e1 	mov.l	er1,@(0xfff8:16,er6)
  4025d8:	ff f8 

004025da <.LM221>:
/home/kozos.c:507
  /* カレント・スレッドのコンテキストを保存する */
  current->context.sp = sp;
  4025da:	01 00 6b 22 	mov.l	@0x405480:32,er2
  4025de:	00 40 54 80 
  4025e2:	01 00 6f 63 	mov.l	@(0xfff8:16,er6),er3
  4025e6:	ff f8 
  4025e8:	01 00 6f a3 	mov.l	er3,@(0x34:16,er2)
  4025ec:	00 34 

004025ee <.LM222>:
/home/kozos.c:517
   * syscall_intr(), softerr_intr() がハンドラに登録されているので，
   * それらが実行される．
   * それ以外の場合は，kz_setintr()によってユーザ登録されたハンドラが
   * 実行される．
   */
  if (handlers[type])
  4025ee:	6f 62 ff fe 	mov.w	@(0xfffe:16,er6),r2
  4025f2:	17 f2       	exts.l	er2
  4025f4:	10 32       	shll.l	er2
  4025f6:	10 32       	shll.l	er2
  4025f8:	7a 12 00 40 	add.l	#0x405884,er2
  4025fc:	58 84 
  4025fe:	01 00 69 22 	mov.l	@er2,er2
  402602:	0f a2       	mov.l	er2,er2
  402604:	47 16       	beq	.+22 (0x40261c)

00402606 <.LM223>:
/home/kozos.c:518
    handlers[type]();
  402606:	6f 62 ff fe 	mov.w	@(0xfffe:16,er6),r2
  40260a:	17 f2       	exts.l	er2
  40260c:	10 32       	shll.l	er2
  40260e:	10 32       	shll.l	er2
  402610:	7a 12 00 40 	add.l	#0x405884,er2
  402614:	58 84 
  402616:	01 00 69 22 	mov.l	@er2,er2
  40261a:	5d 20       	jsr	@er2

0040261c <.L87>:
/home/kozos.c:520

  schedule(); /* スレッドのスケジューリング */
  40261c:	5e 40 24 ec 	jsr	@0x4024ec:24

00402620 <.LM225>:
/home/kozos.c:526

  /*
   * スレッドのディスパッチ
   * (dispatch()関数の本体はstartup.sにあり，アセンブラで記述されている)
   */
  dispatch(&current->context);
  402620:	01 00 6b 22 	mov.l	@0x405480:32,er2
  402624:	00 40 54 80 
  402628:	7a 12 00 00 	add.l	#0x34,er2
  40262c:	00 34 
  40262e:	0f a0       	mov.l	er2,er0
  402630:	5e 40 01 0c 	jsr	@0x40010c:24

00402634 <.LM226>:
/home/kozos.c:528
  /* ここには返ってこない */
}
  402634:	00 00       	nop	
  402636:	0b 97       	adds	#4,er7
  402638:	0b 97       	adds	#4,er7
  40263a:	01 00 6d 76 	mov.l	@er7+,er6
  40263e:	54 70       	rts	

00402640 <_kz_start>:
kz_start():
/home/kozos.c:532

void kz_start(kz_func_t func, char *name, int priority, int stacksize,
	      int argc, char *argv[])
{
  402640:	01 00 6d f6 	mov.l	er6,@-er7
  402644:	0f f6       	mov.l	er7,er6
  402646:	7a 37 00 00 	sub.l	#0xc,er7
  40264a:	00 0c 
  40264c:	01 00 6f e0 	mov.l	er0,@(0xfffc:16,er6)
  402650:	ff fc 
  402652:	01 00 6f e1 	mov.l	er1,@(0xfff8:16,er6)
  402656:	ff f8 
  402658:	6f e2 ff f6 	mov.w	r2,@(0xfff6:16,er6)

0040265c <.LM228>:
/home/kozos.c:533
  kzmem_init(); /* 動的メモリの初期化 */
  40265c:	5e 40 2c e8 	jsr	@0x402ce8:24

00402660 <.LM229>:
/home/kozos.c:539

  /*
   * 以降で呼び出すスレッド関連のライブラリ関数の内部で current を
   * 見ている場合があるので，current を NULL に初期化しておく．
   */
  current = NULL;
  402660:	1a a2       	sub.l	er2,er2
  402662:	01 00 6b a2 	mov.l	er2,@0x405480:32
  402666:	00 40 54 80 

0040266a <.LM230>:
/home/kozos.c:541

  memset(readyque, 0, sizeof(readyque));
  40266a:	1a a2       	sub.l	er2,er2
  40266c:	8a 80       	add.b	#0x80,r2l
  40266e:	19 11       	sub.w	r1,r1
  402670:	7a 00 00 40 	mov.l	#0x405400,er0
  402674:	54 00 
  402676:	5e 40 04 76 	jsr	@0x400476:24

0040267a <.LM231>:
/home/kozos.c:542
  memset(threads,  0, sizeof(threads));
  40267a:	1a a2       	sub.l	er2,er2
  40267c:	82 04       	add.b	#0x4,r2h
  40267e:	19 11       	sub.w	r1,r1
  402680:	7a 00 00 40 	mov.l	#0x405484,er0
  402684:	54 84 
  402686:	5e 40 04 76 	jsr	@0x400476:24

0040268a <.LM232>:
/home/kozos.c:543
  memset(handlers, 0, sizeof(handlers));
  40268a:	1a a2       	sub.l	er2,er2
  40268c:	8a 14       	add.b	#0x14,r2l
  40268e:	19 11       	sub.w	r1,r1
  402690:	7a 00 00 40 	mov.l	#0x405884,er0
  402694:	58 84 
  402696:	5e 40 04 76 	jsr	@0x400476:24

0040269a <.LM233>:
/home/kozos.c:544
  memset(msgboxes, 0, sizeof(msgboxes));
  40269a:	1a a2       	sub.l	er2,er2
  40269c:	8a b0       	add.b	#0xb0,r2l
  40269e:	19 11       	sub.w	r1,r1
  4026a0:	7a 00 00 40 	mov.l	#0x405898,er0
  4026a4:	58 98 
  4026a6:	5e 40 04 76 	jsr	@0x400476:24

004026aa <.LM234>:
/home/kozos.c:547

  /* 割込みハンドラの登録 */
  thread_setintr(SOFTVEC_TYPE_SYSCALL, syscall_intr); /* システム・コール */
  4026aa:	7a 01 00 40 	mov.l	#0x402564,er1
  4026ae:	25 64 
  4026b0:	79 00 00 01 	mov.w	#0x1,r0
  4026b4:	5e 40 21 f6 	jsr	@0x4021f6:24

004026b8 <.LM235>:
/home/kozos.c:548
  thread_setintr(SOFTVEC_TYPE_SOFTERR, softerr_intr); /* ダウン要因発生 */
  4026b8:	7a 01 00 40 	mov.l	#0x402594,er1
  4026bc:	25 94 
  4026be:	19 00       	sub.w	r0,r0
  4026c0:	5e 40 21 f6 	jsr	@0x4021f6:24

004026c4 <.LM236>:
/home/kozos.c:551

  /* システム・コール発行不可なので直接関数を呼び出してスレッド作成する */
  current = (kz_thread *)thread_run(func, name, priority, stacksize,
  4026c4:	6f 61 ff f6 	mov.w	@(0xfff6:16,er6),r1
  4026c8:	01 00 6f 60 	mov.l	@(0xfff8:16,er6),er0
  4026cc:	ff f8 
  4026ce:	01 00 6f 63 	mov.l	@(0xfffc:16,er6),er3
  4026d2:	ff fc 
  4026d4:	01 00 6f 62 	mov.l	@(0x10:16,er6),er2
  4026d8:	00 10 
  4026da:	01 00 6d f2 	mov.l	er2,@-er7
  4026de:	0f f2       	mov.l	er7,er2
  4026e0:	1b 92       	subs	#4,er2
  4026e2:	0f a7       	mov.l	er2,er7
  4026e4:	6f 62 00 0e 	mov.w	@(0xe:16,er6),r2
  4026e8:	6f f2 00 02 	mov.w	r2,@(0x2:16,er7)
  4026ec:	0f f2       	mov.l	er7,er2
  4026ee:	1b 92       	subs	#4,er2
  4026f0:	0f a7       	mov.l	er2,er7
  4026f2:	6f 62 00 0a 	mov.w	@(0xa:16,er6),r2
  4026f6:	6f f2 00 02 	mov.w	r2,@(0x2:16,er7)
  4026fa:	0d 12       	mov.w	r1,r2
  4026fc:	0f 81       	mov.l	er0,er1
  4026fe:	0f b0       	mov.l	er3,er0
  402700:	5e 40 1a f6 	jsr	@0x401af6:24
  402704:	7a 17 00 00 	add.l	#0xc,er7
  402708:	00 0c 
  40270a:	0f 82       	mov.l	er0,er2
  40270c:	01 00 6b a2 	mov.l	er2,@0x405480:32
  402710:	00 40 54 80 

00402714 <.LM237>:
/home/kozos.c:555
				    argc, argv);

  /* 最初のスレッドを起動 */
  dispatch(&current->context);
  402714:	01 00 6b 22 	mov.l	@0x405480:32,er2
  402718:	00 40 54 80 
  40271c:	7a 12 00 00 	add.l	#0x34,er2
  402720:	00 34 
  402722:	0f a0       	mov.l	er2,er0
  402724:	5e 40 01 0c 	jsr	@0x40010c:24

00402728 <.LM238>:
/home/kozos.c:558

  /* ここには返ってこない */
}
  402728:	00 00       	nop	
  40272a:	7a 17 00 00 	add.l	#0xc,er7
  40272e:	00 0c 
  402730:	01 00 6d 76 	mov.l	@er7+,er6
  402734:	54 70       	rts	

00402736 <_kz_sysdown>:
kz_sysdown():
/home/kozos.c:561

void kz_sysdown(void)
{
  402736:	01 00 6d f6 	mov.l	er6,@-er7
  40273a:	0f f6       	mov.l	er7,er6

0040273c <.LM240>:
/home/kozos.c:562
  puts("system error!\n");
  40273c:	7a 00 00 40 	mov.l	#0x405334,er0
  402740:	53 34 
  402742:	5e 40 09 94 	jsr	@0x400994:24

00402746 <.L90>:
/home/kozos.c:563 (discriminator 1)
  while (1)
  402746:	40 fe       	bra	.-2 (0x402746)

00402748 <_kz_syscall>:
kz_syscall():
/home/kozos.c:569
    ;
}

/* システム・コール呼び出し用ライブラリ関数 */
void kz_syscall(kz_syscall_type_t type, kz_syscall_param_t *param)
{
  402748:	01 00 6d f6 	mov.l	er6,@-er7
  40274c:	0f f6       	mov.l	er7,er6
  40274e:	7a 37 00 00 	sub.l	#0x8,er7
  402752:	00 08 
  402754:	6f e0 ff fe 	mov.w	r0,@(0xfffe:16,er6)
  402758:	01 00 6f e1 	mov.l	er1,@(0xfff8:16,er6)
  40275c:	ff f8 

0040275e <.LM243>:
/home/kozos.c:570
  current->syscall.type  = type;
  40275e:	01 00 6b 22 	mov.l	@0x405480:32,er2
  402762:	00 40 54 80 
  402766:	6f 63 ff fe 	mov.w	@(0xfffe:16,er6),r3
  40276a:	6f a3 00 2c 	mov.w	r3,@(0x2c:16,er2)

0040276e <.LM244>:
/home/kozos.c:571
  current->syscall.param = param;
  40276e:	01 00 6b 22 	mov.l	@0x405480:32,er2
  402772:	00 40 54 80 
  402776:	01 00 6f 63 	mov.l	@(0xfff8:16,er6),er3
  40277a:	ff f8 
  40277c:	01 00 6f a3 	mov.l	er3,@(0x30:16,er2)
  402780:	00 30 

00402782 <.LM245>:
/home/kozos.c:572
  asm volatile ("trapa #0"); /* トラップ割込み発行 */
  402782:	57 00       	trapa	#0x0

00402784 <.LM246>:
/home/kozos.c:573
}
  402784:	00 00       	nop	
  402786:	0b 97       	adds	#4,er7
  402788:	0b 97       	adds	#4,er7
  40278a:	01 00 6d 76 	mov.l	@er7+,er6
  40278e:	54 70       	rts	

00402790 <_kz_srvcall>:
kz_srvcall():
/home/kozos.c:577

/* サービス・コール呼び出し用ライブラリ関数 */
void kz_srvcall(kz_syscall_type_t type, kz_syscall_param_t *param)
{
  402790:	01 00 6d f6 	mov.l	er6,@-er7
  402794:	0f f6       	mov.l	er7,er6
  402796:	7a 37 00 00 	sub.l	#0x8,er7
  40279a:	00 08 
  40279c:	6f e0 ff fe 	mov.w	r0,@(0xfffe:16,er6)
  4027a0:	01 00 6f e1 	mov.l	er1,@(0xfff8:16,er6)
  4027a4:	ff f8 

004027a6 <.LM248>:
/home/kozos.c:578
  srvcall_proc(type, param);
  4027a6:	01 00 6f 63 	mov.l	@(0xfff8:16,er6),er3
  4027aa:	ff f8 
  4027ac:	6f 62 ff fe 	mov.w	@(0xfffe:16,er6),r2
  4027b0:	0f b1       	mov.l	er3,er1
  4027b2:	0d 20       	mov.w	r2,r0
  4027b4:	5e 40 24 ae 	jsr	@0x4024ae:24

004027b8 <.LM249>:
/home/kozos.c:579
}
  4027b8:	00 00       	nop	
  4027ba:	0b 97       	adds	#4,er7
  4027bc:	0b 97       	adds	#4,er7
  4027be:	01 00 6d 76 	mov.l	@er7+,er6
  4027c2:	54 70       	rts	

004027c4 <_kz_run>:
kz_run():
/home/syscall.c:10

/* システム・コール */

kz_thread_id_t kz_run(kz_func_t func, char *name, int priority, int stacksize,
		      int argc, char *argv[])
{
  4027c4:	01 00 6d f6 	mov.l	er6,@-er7
  4027c8:	0f f6       	mov.l	er7,er6
  4027ca:	7a 37 00 00 	sub.l	#0x24,er7
  4027ce:	00 24 
  4027d0:	01 00 6f e0 	mov.l	er0,@(0xffe4:16,er6)
  4027d4:	ff e4 
  4027d6:	01 00 6f e1 	mov.l	er1,@(0xffe0:16,er6)
  4027da:	ff e0 
  4027dc:	6f e2 ff de 	mov.w	r2,@(0xffde:16,er6)

004027e0 <.LM2>:
/home/syscall.c:12
  kz_syscall_param_t param;
  param.un.run.func = func;
  4027e0:	01 00 6f 62 	mov.l	@(0xffe4:16,er6),er2
  4027e4:	ff e4 
  4027e6:	01 00 6f e2 	mov.l	er2,@(0xffe8:16,er6)
  4027ea:	ff e8 

004027ec <.LM3>:
/home/syscall.c:13
  param.un.run.name = name;
  4027ec:	01 00 6f 62 	mov.l	@(0xffe0:16,er6),er2
  4027f0:	ff e0 
  4027f2:	01 00 6f e2 	mov.l	er2,@(0xffec:16,er6)
  4027f6:	ff ec 

004027f8 <.LM4>:
/home/syscall.c:14
  param.un.run.priority = priority;
  4027f8:	6f 62 ff de 	mov.w	@(0xffde:16,er6),r2
  4027fc:	6f e2 ff f0 	mov.w	r2,@(0xfff0:16,er6)

00402800 <.LM5>:
/home/syscall.c:15
  param.un.run.stacksize = stacksize;
  402800:	6f 62 00 0a 	mov.w	@(0xa:16,er6),r2
  402804:	6f e2 ff f2 	mov.w	r2,@(0xfff2:16,er6)

00402808 <.LM6>:
/home/syscall.c:16
  param.un.run.argc = argc;
  402808:	6f 62 00 0e 	mov.w	@(0xe:16,er6),r2
  40280c:	6f e2 ff f4 	mov.w	r2,@(0xfff4:16,er6)

00402810 <.LM7>:
/home/syscall.c:17
  param.un.run.argv = argv;
  402810:	01 00 6f 62 	mov.l	@(0x10:16,er6),er2
  402814:	00 10 
  402816:	01 00 6f e2 	mov.l	er2,@(0xfff8:16,er6)
  40281a:	ff f8 

0040281c <.LM8>:
/home/syscall.c:18
  kz_syscall(KZ_SYSCALL_TYPE_RUN, &param);
  40281c:	0f e2       	mov.l	er6,er2
  40281e:	7a 32 00 00 	sub.l	#0x18,er2
  402822:	00 18 
  402824:	0f a1       	mov.l	er2,er1
  402826:	19 00       	sub.w	r0,r0
  402828:	5e 40 27 48 	jsr	@0x402748:24

0040282c <.LM9>:
/home/syscall.c:19
  return param.un.run.ret;
  40282c:	01 00 6f 62 	mov.l	@(0xfffc:16,er6),er2
  402830:	ff fc 

00402832 <.LM10>:
/home/syscall.c:20
}
  402832:	0f a0       	mov.l	er2,er0
  402834:	7a 17 00 00 	add.l	#0x24,er7
  402838:	00 24 
  40283a:	01 00 6d 76 	mov.l	@er7+,er6
  40283e:	54 70       	rts	

00402840 <_kz_exit>:
kz_exit():
/home/syscall.c:23

void kz_exit(void)
{
  402840:	01 00 6d f6 	mov.l	er6,@-er7
  402844:	0f f6       	mov.l	er7,er6

00402846 <.LM12>:
/home/syscall.c:24
  kz_syscall(KZ_SYSCALL_TYPE_EXIT, NULL);
  402846:	1a 91       	sub.l	er1,er1
  402848:	79 00 00 01 	mov.w	#0x1,r0
  40284c:	5e 40 27 48 	jsr	@0x402748:24

00402850 <.LM13>:
/home/syscall.c:25
}
  402850:	00 00       	nop	
  402852:	01 00 6d 76 	mov.l	@er7+,er6
  402856:	54 70       	rts	

00402858 <_kz_wait>:
kz_wait():
/home/syscall.c:28

int kz_wait(void)
{
  402858:	01 00 6d f6 	mov.l	er6,@-er7
  40285c:	0f f6       	mov.l	er7,er6
  40285e:	7a 37 00 00 	sub.l	#0x18,er7
  402862:	00 18 

00402864 <.LM15>:
/home/syscall.c:30
  kz_syscall_param_t param;
  kz_syscall(KZ_SYSCALL_TYPE_WAIT, &param);
  402864:	0f e2       	mov.l	er6,er2
  402866:	7a 32 00 00 	sub.l	#0x18,er2
  40286a:	00 18 
  40286c:	0f a1       	mov.l	er2,er1
  40286e:	79 00 00 02 	mov.w	#0x2,r0
  402872:	5e 40 27 48 	jsr	@0x402748:24

00402876 <.LM16>:
/home/syscall.c:31
  return param.un.wait.ret;
  402876:	6f 62 ff e8 	mov.w	@(0xffe8:16,er6),r2

0040287a <.LM17>:
/home/syscall.c:32
}
  40287a:	0d 20       	mov.w	r2,r0
  40287c:	7a 17 00 00 	add.l	#0x18,er7
  402880:	00 18 
  402882:	01 00 6d 76 	mov.l	@er7+,er6
  402886:	54 70       	rts	

00402888 <_kz_sleep>:
kz_sleep():
/home/syscall.c:35

int kz_sleep(void)
{
  402888:	01 00 6d f6 	mov.l	er6,@-er7
  40288c:	0f f6       	mov.l	er7,er6
  40288e:	7a 37 00 00 	sub.l	#0x18,er7
  402892:	00 18 

00402894 <.LM19>:
/home/syscall.c:37
  kz_syscall_param_t param;
  kz_syscall(KZ_SYSCALL_TYPE_SLEEP, &param);
  402894:	0f e2       	mov.l	er6,er2
  402896:	7a 32 00 00 	sub.l	#0x18,er2
  40289a:	00 18 
  40289c:	0f a1       	mov.l	er2,er1
  40289e:	79 00 00 03 	mov.w	#0x3,r0
  4028a2:	5e 40 27 48 	jsr	@0x402748:24

004028a6 <.LM20>:
/home/syscall.c:38
  return param.un.sleep.ret;
  4028a6:	6f 62 ff e8 	mov.w	@(0xffe8:16,er6),r2

004028aa <.LM21>:
/home/syscall.c:39
}
  4028aa:	0d 20       	mov.w	r2,r0
  4028ac:	7a 17 00 00 	add.l	#0x18,er7
  4028b0:	00 18 
  4028b2:	01 00 6d 76 	mov.l	@er7+,er6
  4028b6:	54 70       	rts	

004028b8 <_kz_wakeup>:
kz_wakeup():
/home/syscall.c:42

int kz_wakeup(kz_thread_id_t id)
{
  4028b8:	01 00 6d f6 	mov.l	er6,@-er7
  4028bc:	0f f6       	mov.l	er7,er6
  4028be:	7a 37 00 00 	sub.l	#0x1c,er7
  4028c2:	00 1c 
  4028c4:	01 00 6f e0 	mov.l	er0,@(0xffe4:16,er6)
  4028c8:	ff e4 

004028ca <.LM23>:
/home/syscall.c:44
  kz_syscall_param_t param;
  param.un.wakeup.id = id;
  4028ca:	01 00 6f 62 	mov.l	@(0xffe4:16,er6),er2
  4028ce:	ff e4 
  4028d0:	01 00 6f e2 	mov.l	er2,@(0xffe8:16,er6)
  4028d4:	ff e8 

004028d6 <.LM24>:
/home/syscall.c:45
  kz_syscall(KZ_SYSCALL_TYPE_WAKEUP, &param);
  4028d6:	0f e2       	mov.l	er6,er2
  4028d8:	7a 32 00 00 	sub.l	#0x18,er2
  4028dc:	00 18 
  4028de:	0f a1       	mov.l	er2,er1
  4028e0:	79 00 00 04 	mov.w	#0x4,r0
  4028e4:	5e 40 27 48 	jsr	@0x402748:24

004028e8 <.LM25>:
/home/syscall.c:46
  return param.un.wakeup.ret;
  4028e8:	6f 62 ff ec 	mov.w	@(0xffec:16,er6),r2

004028ec <.LM26>:
/home/syscall.c:47
}
  4028ec:	0d 20       	mov.w	r2,r0
  4028ee:	7a 17 00 00 	add.l	#0x1c,er7
  4028f2:	00 1c 
  4028f4:	01 00 6d 76 	mov.l	@er7+,er6
  4028f8:	54 70       	rts	

004028fa <_kz_getid>:
kz_getid():
/home/syscall.c:50

kz_thread_id_t kz_getid(void)
{
  4028fa:	01 00 6d f6 	mov.l	er6,@-er7
  4028fe:	0f f6       	mov.l	er7,er6
  402900:	7a 37 00 00 	sub.l	#0x18,er7
  402904:	00 18 

00402906 <.LM28>:
/home/syscall.c:52
  kz_syscall_param_t param;
  kz_syscall(KZ_SYSCALL_TYPE_GETID, &param);
  402906:	0f e2       	mov.l	er6,er2
  402908:	7a 32 00 00 	sub.l	#0x18,er2
  40290c:	00 18 
  40290e:	0f a1       	mov.l	er2,er1
  402910:	79 00 00 05 	mov.w	#0x5,r0
  402914:	5e 40 27 48 	jsr	@0x402748:24

00402918 <.LM29>:
/home/syscall.c:53
  return param.un.getid.ret;
  402918:	01 00 6f 62 	mov.l	@(0xffe8:16,er6),er2
  40291c:	ff e8 

0040291e <.LM30>:
/home/syscall.c:54
}
  40291e:	0f a0       	mov.l	er2,er0
  402920:	7a 17 00 00 	add.l	#0x18,er7
  402924:	00 18 
  402926:	01 00 6d 76 	mov.l	@er7+,er6
  40292a:	54 70       	rts	

0040292c <_kz_chpri>:
kz_chpri():
/home/syscall.c:57

int kz_chpri(int priority)
{
  40292c:	01 00 6d f6 	mov.l	er6,@-er7
  402930:	0f f6       	mov.l	er7,er6
  402932:	7a 37 00 00 	sub.l	#0x1c,er7
  402936:	00 1c 
  402938:	6f e0 ff e6 	mov.w	r0,@(0xffe6:16,er6)

0040293c <.LM32>:
/home/syscall.c:59
  kz_syscall_param_t param;
  param.un.chpri.priority = priority;
  40293c:	6f 62 ff e6 	mov.w	@(0xffe6:16,er6),r2
  402940:	6f e2 ff e8 	mov.w	r2,@(0xffe8:16,er6)

00402944 <.LM33>:
/home/syscall.c:60
  kz_syscall(KZ_SYSCALL_TYPE_CHPRI, &param);
  402944:	0f e2       	mov.l	er6,er2
  402946:	7a 32 00 00 	sub.l	#0x18,er2
  40294a:	00 18 
  40294c:	0f a1       	mov.l	er2,er1
  40294e:	79 00 00 06 	mov.w	#0x6,r0
  402952:	5e 40 27 48 	jsr	@0x402748:24

00402956 <.LM34>:
/home/syscall.c:61
  return param.un.chpri.ret;
  402956:	6f 62 ff ea 	mov.w	@(0xffea:16,er6),r2

0040295a <.LM35>:
/home/syscall.c:62
}
  40295a:	0d 20       	mov.w	r2,r0
  40295c:	7a 17 00 00 	add.l	#0x1c,er7
  402960:	00 1c 
  402962:	01 00 6d 76 	mov.l	@er7+,er6
  402966:	54 70       	rts	

00402968 <_kz_kmalloc>:
kz_kmalloc():
/home/syscall.c:65

void *kz_kmalloc(int size)
{
  402968:	01 00 6d f6 	mov.l	er6,@-er7
  40296c:	0f f6       	mov.l	er7,er6
  40296e:	7a 37 00 00 	sub.l	#0x1c,er7
  402972:	00 1c 
  402974:	6f e0 ff e6 	mov.w	r0,@(0xffe6:16,er6)

00402978 <.LM37>:
/home/syscall.c:67
  kz_syscall_param_t param;
  param.un.kmalloc.size = size;
  402978:	6f 62 ff e6 	mov.w	@(0xffe6:16,er6),r2
  40297c:	6f e2 ff e8 	mov.w	r2,@(0xffe8:16,er6)

00402980 <.LM38>:
/home/syscall.c:68
  kz_syscall(KZ_SYSCALL_TYPE_KMALLOC, &param);
  402980:	0f e2       	mov.l	er6,er2
  402982:	7a 32 00 00 	sub.l	#0x18,er2
  402986:	00 18 
  402988:	0f a1       	mov.l	er2,er1
  40298a:	79 00 00 07 	mov.w	#0x7,r0
  40298e:	5e 40 27 48 	jsr	@0x402748:24

00402992 <.LM39>:
/home/syscall.c:69
  return param.un.kmalloc.ret;
  402992:	01 00 6f 62 	mov.l	@(0xffec:16,er6),er2
  402996:	ff ec 

00402998 <.LM40>:
/home/syscall.c:70
}
  402998:	0f a0       	mov.l	er2,er0
  40299a:	7a 17 00 00 	add.l	#0x1c,er7
  40299e:	00 1c 
  4029a0:	01 00 6d 76 	mov.l	@er7+,er6
  4029a4:	54 70       	rts	

004029a6 <_kz_kmfree>:
kz_kmfree():
/home/syscall.c:73

int kz_kmfree(void *p)
{
  4029a6:	01 00 6d f6 	mov.l	er6,@-er7
  4029aa:	0f f6       	mov.l	er7,er6
  4029ac:	7a 37 00 00 	sub.l	#0x1c,er7
  4029b0:	00 1c 
  4029b2:	01 00 6f e0 	mov.l	er0,@(0xffe4:16,er6)
  4029b6:	ff e4 

004029b8 <.LM42>:
/home/syscall.c:75
  kz_syscall_param_t param;
  param.un.kmfree.p = p;
  4029b8:	01 00 6f 62 	mov.l	@(0xffe4:16,er6),er2
  4029bc:	ff e4 
  4029be:	01 00 6f e2 	mov.l	er2,@(0xffe8:16,er6)
  4029c2:	ff e8 

004029c4 <.LM43>:
/home/syscall.c:76
  kz_syscall(KZ_SYSCALL_TYPE_KMFREE, &param);
  4029c4:	0f e2       	mov.l	er6,er2
  4029c6:	7a 32 00 00 	sub.l	#0x18,er2
  4029ca:	00 18 
  4029cc:	0f a1       	mov.l	er2,er1
  4029ce:	79 00 00 08 	mov.w	#0x8,r0
  4029d2:	5e 40 27 48 	jsr	@0x402748:24

004029d6 <.LM44>:
/home/syscall.c:77
  return param.un.kmfree.ret;
  4029d6:	6f 62 ff ec 	mov.w	@(0xffec:16,er6),r2

004029da <.LM45>:
/home/syscall.c:78
}
  4029da:	0d 20       	mov.w	r2,r0
  4029dc:	7a 17 00 00 	add.l	#0x1c,er7
  4029e0:	00 1c 
  4029e2:	01 00 6d 76 	mov.l	@er7+,er6
  4029e6:	54 70       	rts	

004029e8 <_kz_send>:
kz_send():
/home/syscall.c:81

int kz_send(kz_msgbox_id_t id, int size, char *p)
{
  4029e8:	01 00 6d f6 	mov.l	er6,@-er7
  4029ec:	0f f6       	mov.l	er7,er6
  4029ee:	7a 37 00 00 	sub.l	#0x20,er7
  4029f2:	00 20 
  4029f4:	6f e0 ff e6 	mov.w	r0,@(0xffe6:16,er6)
  4029f8:	6f e1 ff e4 	mov.w	r1,@(0xffe4:16,er6)
  4029fc:	01 00 6f e2 	mov.l	er2,@(0xffe0:16,er6)
  402a00:	ff e0 

00402a02 <.LM47>:
/home/syscall.c:83
  kz_syscall_param_t param;
  param.un.send.id = id;
  402a02:	6f 62 ff e6 	mov.w	@(0xffe6:16,er6),r2
  402a06:	6f e2 ff e8 	mov.w	r2,@(0xffe8:16,er6)

00402a0a <.LM48>:
/home/syscall.c:84
  param.un.send.size = size;
  402a0a:	6f 62 ff e4 	mov.w	@(0xffe4:16,er6),r2
  402a0e:	6f e2 ff ea 	mov.w	r2,@(0xffea:16,er6)

00402a12 <.LM49>:
/home/syscall.c:85
  param.un.send.p = p;
  402a12:	01 00 6f 62 	mov.l	@(0xffe0:16,er6),er2
  402a16:	ff e0 
  402a18:	01 00 6f e2 	mov.l	er2,@(0xffec:16,er6)
  402a1c:	ff ec 

00402a1e <.LM50>:
/home/syscall.c:86
  kz_syscall(KZ_SYSCALL_TYPE_SEND, &param);
  402a1e:	0f e2       	mov.l	er6,er2
  402a20:	7a 32 00 00 	sub.l	#0x18,er2
  402a24:	00 18 
  402a26:	0f a1       	mov.l	er2,er1
  402a28:	79 00 00 09 	mov.w	#0x9,r0
  402a2c:	5e 40 27 48 	jsr	@0x402748:24

00402a30 <.LM51>:
/home/syscall.c:87
  return param.un.send.ret;
  402a30:	6f 62 ff f0 	mov.w	@(0xfff0:16,er6),r2

00402a34 <.LM52>:
/home/syscall.c:88
}
  402a34:	0d 20       	mov.w	r2,r0
  402a36:	7a 17 00 00 	add.l	#0x20,er7
  402a3a:	00 20 
  402a3c:	01 00 6d 76 	mov.l	@er7+,er6
  402a40:	54 70       	rts	

00402a42 <_kz_recv>:
kz_recv():
/home/syscall.c:91

kz_thread_id_t kz_recv(kz_msgbox_id_t id, int *sizep, char **pp)
{
  402a42:	01 00 6d f6 	mov.l	er6,@-er7
  402a46:	0f f6       	mov.l	er7,er6
  402a48:	7a 37 00 00 	sub.l	#0x24,er7
  402a4c:	00 24 
  402a4e:	6f e0 ff e6 	mov.w	r0,@(0xffe6:16,er6)
  402a52:	01 00 6f e1 	mov.l	er1,@(0xffe0:16,er6)
  402a56:	ff e0 
  402a58:	01 00 6f e2 	mov.l	er2,@(0xffdc:16,er6)
  402a5c:	ff dc 

00402a5e <.LM54>:
/home/syscall.c:93
  kz_syscall_param_t param;
  param.un.recv.id = id;
  402a5e:	6f 62 ff e6 	mov.w	@(0xffe6:16,er6),r2
  402a62:	6f e2 ff e8 	mov.w	r2,@(0xffe8:16,er6)

00402a66 <.LM55>:
/home/syscall.c:94
  param.un.recv.sizep = sizep;
  402a66:	01 00 6f 62 	mov.l	@(0xffe0:16,er6),er2
  402a6a:	ff e0 
  402a6c:	01 00 6f e2 	mov.l	er2,@(0xffec:16,er6)
  402a70:	ff ec 

00402a72 <.LM56>:
/home/syscall.c:95
  param.un.recv.pp = pp;
  402a72:	01 00 6f 62 	mov.l	@(0xffdc:16,er6),er2
  402a76:	ff dc 
  402a78:	01 00 6f e2 	mov.l	er2,@(0xfff0:16,er6)
  402a7c:	ff f0 

00402a7e <.LM57>:
/home/syscall.c:96
  kz_syscall(KZ_SYSCALL_TYPE_RECV, &param);
  402a7e:	0f e2       	mov.l	er6,er2
  402a80:	7a 32 00 00 	sub.l	#0x18,er2
  402a84:	00 18 
  402a86:	0f a1       	mov.l	er2,er1
  402a88:	79 00 00 0a 	mov.w	#0xa,r0
  402a8c:	5e 40 27 48 	jsr	@0x402748:24

00402a90 <.LM58>:
/home/syscall.c:97
  return param.un.recv.ret;
  402a90:	01 00 6f 62 	mov.l	@(0xfff4:16,er6),er2
  402a94:	ff f4 

00402a96 <.LM59>:
/home/syscall.c:98
}
  402a96:	0f a0       	mov.l	er2,er0
  402a98:	7a 17 00 00 	add.l	#0x24,er7
  402a9c:	00 24 
  402a9e:	01 00 6d 76 	mov.l	@er7+,er6
  402aa2:	54 70       	rts	

00402aa4 <_kz_setintr>:
kz_setintr():
/home/syscall.c:101

int kz_setintr(softvec_type_t type, kz_handler_t handler)
{
  402aa4:	01 00 6d f6 	mov.l	er6,@-er7
  402aa8:	0f f6       	mov.l	er7,er6
  402aaa:	7a 37 00 00 	sub.l	#0x20,er7
  402aae:	00 20 
  402ab0:	6f e0 ff e6 	mov.w	r0,@(0xffe6:16,er6)
  402ab4:	01 00 6f e1 	mov.l	er1,@(0xffe0:16,er6)
  402ab8:	ff e0 

00402aba <.LM61>:
/home/syscall.c:103
  kz_syscall_param_t param;
  param.un.setintr.type = type;
  402aba:	6f 62 ff e6 	mov.w	@(0xffe6:16,er6),r2
  402abe:	6f e2 ff e8 	mov.w	r2,@(0xffe8:16,er6)

00402ac2 <.LM62>:
/home/syscall.c:104
  param.un.setintr.handler = handler;
  402ac2:	01 00 6f 62 	mov.l	@(0xffe0:16,er6),er2
  402ac6:	ff e0 
  402ac8:	01 00 6f e2 	mov.l	er2,@(0xffec:16,er6)
  402acc:	ff ec 

00402ace <.LM63>:
/home/syscall.c:105
  kz_syscall(KZ_SYSCALL_TYPE_SETINTR, &param);
  402ace:	0f e2       	mov.l	er6,er2
  402ad0:	7a 32 00 00 	sub.l	#0x18,er2
  402ad4:	00 18 
  402ad6:	0f a1       	mov.l	er2,er1
  402ad8:	79 00 00 0b 	mov.w	#0xb,r0
  402adc:	5e 40 27 48 	jsr	@0x402748:24

00402ae0 <.LM64>:
/home/syscall.c:106
  return param.un.setintr.ret;
  402ae0:	6f 62 ff f0 	mov.w	@(0xfff0:16,er6),r2

00402ae4 <.LM65>:
/home/syscall.c:107
}
  402ae4:	0d 20       	mov.w	r2,r0
  402ae6:	7a 17 00 00 	add.l	#0x20,er7
  402aea:	00 20 
  402aec:	01 00 6d 76 	mov.l	@er7+,er6
  402af0:	54 70       	rts	

00402af2 <_kx_wakeup>:
kx_wakeup():
/home/syscall.c:112

/* サービス・コール */

int kx_wakeup(kz_thread_id_t id)
{
  402af2:	01 00 6d f6 	mov.l	er6,@-er7
  402af6:	0f f6       	mov.l	er7,er6
  402af8:	7a 37 00 00 	sub.l	#0x1c,er7
  402afc:	00 1c 
  402afe:	01 00 6f e0 	mov.l	er0,@(0xffe4:16,er6)
  402b02:	ff e4 

00402b04 <.LM67>:
/home/syscall.c:114
  kz_syscall_param_t param;
  param.un.wakeup.id = id;
  402b04:	01 00 6f 62 	mov.l	@(0xffe4:16,er6),er2
  402b08:	ff e4 
  402b0a:	01 00 6f e2 	mov.l	er2,@(0xffe8:16,er6)
  402b0e:	ff e8 

00402b10 <.LM68>:
/home/syscall.c:115
  kz_srvcall(KZ_SYSCALL_TYPE_WAKEUP, &param);
  402b10:	0f e2       	mov.l	er6,er2
  402b12:	7a 32 00 00 	sub.l	#0x18,er2
  402b16:	00 18 
  402b18:	0f a1       	mov.l	er2,er1
  402b1a:	79 00 00 04 	mov.w	#0x4,r0
  402b1e:	5e 40 27 90 	jsr	@0x402790:24

00402b22 <.LM69>:
/home/syscall.c:116
  return param.un.wakeup.ret;
  402b22:	6f 62 ff ec 	mov.w	@(0xffec:16,er6),r2

00402b26 <.LM70>:
/home/syscall.c:117
}
  402b26:	0d 20       	mov.w	r2,r0
  402b28:	7a 17 00 00 	add.l	#0x1c,er7
  402b2c:	00 1c 
  402b2e:	01 00 6d 76 	mov.l	@er7+,er6
  402b32:	54 70       	rts	

00402b34 <_kx_kmalloc>:
kx_kmalloc():
/home/syscall.c:120

void *kx_kmalloc(int size)
{
  402b34:	01 00 6d f6 	mov.l	er6,@-er7
  402b38:	0f f6       	mov.l	er7,er6
  402b3a:	7a 37 00 00 	sub.l	#0x1c,er7
  402b3e:	00 1c 
  402b40:	6f e0 ff e6 	mov.w	r0,@(0xffe6:16,er6)

00402b44 <.LM72>:
/home/syscall.c:122
  kz_syscall_param_t param;
  param.un.kmalloc.size = size;
  402b44:	6f 62 ff e6 	mov.w	@(0xffe6:16,er6),r2
  402b48:	6f e2 ff e8 	mov.w	r2,@(0xffe8:16,er6)

00402b4c <.LM73>:
/home/syscall.c:123
  kz_srvcall(KZ_SYSCALL_TYPE_KMALLOC, &param);
  402b4c:	0f e2       	mov.l	er6,er2
  402b4e:	7a 32 00 00 	sub.l	#0x18,er2
  402b52:	00 18 
  402b54:	0f a1       	mov.l	er2,er1
  402b56:	79 00 00 07 	mov.w	#0x7,r0
  402b5a:	5e 40 27 90 	jsr	@0x402790:24

00402b5e <.LM74>:
/home/syscall.c:124
  return param.un.kmalloc.ret;
  402b5e:	01 00 6f 62 	mov.l	@(0xffec:16,er6),er2
  402b62:	ff ec 

00402b64 <.LM75>:
/home/syscall.c:125
}
  402b64:	0f a0       	mov.l	er2,er0
  402b66:	7a 17 00 00 	add.l	#0x1c,er7
  402b6a:	00 1c 
  402b6c:	01 00 6d 76 	mov.l	@er7+,er6
  402b70:	54 70       	rts	

00402b72 <_kx_kmfree>:
kx_kmfree():
/home/syscall.c:128

int kx_kmfree(void *p)
{
  402b72:	01 00 6d f6 	mov.l	er6,@-er7
  402b76:	0f f6       	mov.l	er7,er6
  402b78:	7a 37 00 00 	sub.l	#0x1c,er7
  402b7c:	00 1c 
  402b7e:	01 00 6f e0 	mov.l	er0,@(0xffe4:16,er6)
  402b82:	ff e4 

00402b84 <.LM77>:
/home/syscall.c:130
  kz_syscall_param_t param;
  param.un.kmfree.p = p;
  402b84:	01 00 6f 62 	mov.l	@(0xffe4:16,er6),er2
  402b88:	ff e4 
  402b8a:	01 00 6f e2 	mov.l	er2,@(0xffe8:16,er6)
  402b8e:	ff e8 

00402b90 <.LM78>:
/home/syscall.c:131
  kz_srvcall(KZ_SYSCALL_TYPE_KMFREE, &param);
  402b90:	0f e2       	mov.l	er6,er2
  402b92:	7a 32 00 00 	sub.l	#0x18,er2
  402b96:	00 18 
  402b98:	0f a1       	mov.l	er2,er1
  402b9a:	79 00 00 08 	mov.w	#0x8,r0
  402b9e:	5e 40 27 90 	jsr	@0x402790:24

00402ba2 <.LM79>:
/home/syscall.c:132
  return param.un.kmfree.ret;
  402ba2:	6f 62 ff ec 	mov.w	@(0xffec:16,er6),r2

00402ba6 <.LM80>:
/home/syscall.c:133
}
  402ba6:	0d 20       	mov.w	r2,r0
  402ba8:	7a 17 00 00 	add.l	#0x1c,er7
  402bac:	00 1c 
  402bae:	01 00 6d 76 	mov.l	@er7+,er6
  402bb2:	54 70       	rts	

00402bb4 <_kx_send>:
kx_send():
/home/syscall.c:136

int kx_send(kz_msgbox_id_t id, int size, char *p)
{
  402bb4:	01 00 6d f6 	mov.l	er6,@-er7
  402bb8:	0f f6       	mov.l	er7,er6
  402bba:	7a 37 00 00 	sub.l	#0x20,er7
  402bbe:	00 20 
  402bc0:	6f e0 ff e6 	mov.w	r0,@(0xffe6:16,er6)
  402bc4:	6f e1 ff e4 	mov.w	r1,@(0xffe4:16,er6)
  402bc8:	01 00 6f e2 	mov.l	er2,@(0xffe0:16,er6)
  402bcc:	ff e0 

00402bce <.LM82>:
/home/syscall.c:138
  kz_syscall_param_t param;
  param.un.send.id = id;
  402bce:	6f 62 ff e6 	mov.w	@(0xffe6:16,er6),r2
  402bd2:	6f e2 ff e8 	mov.w	r2,@(0xffe8:16,er6)

00402bd6 <.LM83>:
/home/syscall.c:139
  param.un.send.size = size;
  402bd6:	6f 62 ff e4 	mov.w	@(0xffe4:16,er6),r2
  402bda:	6f e2 ff ea 	mov.w	r2,@(0xffea:16,er6)

00402bde <.LM84>:
/home/syscall.c:140
  param.un.send.p = p;
  402bde:	01 00 6f 62 	mov.l	@(0xffe0:16,er6),er2
  402be2:	ff e0 
  402be4:	01 00 6f e2 	mov.l	er2,@(0xffec:16,er6)
  402be8:	ff ec 

00402bea <.LM85>:
/home/syscall.c:141
  kz_srvcall(KZ_SYSCALL_TYPE_SEND, &param);
  402bea:	0f e2       	mov.l	er6,er2
  402bec:	7a 32 00 00 	sub.l	#0x18,er2
  402bf0:	00 18 
  402bf2:	0f a1       	mov.l	er2,er1
  402bf4:	79 00 00 09 	mov.w	#0x9,r0
  402bf8:	5e 40 27 90 	jsr	@0x402790:24

00402bfc <.LM86>:
/home/syscall.c:142
  return param.un.send.ret;
  402bfc:	6f 62 ff f0 	mov.w	@(0xfff0:16,er6),r2

00402c00 <.LM87>:
/home/syscall.c:143
}
  402c00:	0d 20       	mov.w	r2,r0
  402c02:	7a 17 00 00 	add.l	#0x20,er7
  402c06:	00 20 
  402c08:	01 00 6d 76 	mov.l	@er7+,er6
  402c0c:	54 70       	rts	

00402c0e <_kzmem_init_pool>:
kzmem_init_pool():
/home/memory.c:31

#define MEMORY_AREA_NUM (sizeof(pool) / sizeof(*pool))

/* メモリ・プールの初期化 */
static int kzmem_init_pool(kzmem_pool *p)
{
  402c0e:	01 00 6d f6 	mov.l	er6,@-er7
  402c12:	0f f6       	mov.l	er7,er6
  402c14:	7a 37 00 00 	sub.l	#0x10,er7
  402c18:	00 10 
  402c1a:	01 00 6f e0 	mov.l	er0,@(0xfff0:16,er6)
  402c1e:	ff f0 

00402c20 <.LM2>:
/home/memory.c:38
  kzmem_block *mp;
  kzmem_block **mpp;
  extern char freearea; /* リンカ・スクリプトで定義される空き領域 */
  static char *area = &freearea;

  mp = (kzmem_block *)area;
  402c20:	01 00 6b 22 	mov.l	@0x4053f8:32,er2
  402c24:	00 40 53 f8 
  402c28:	01 00 6f e2 	mov.l	er2,@(0xfff8:16,er6)
  402c2c:	ff f8 

00402c2e <.LM3>:
/home/memory.c:41

  /* 個々の領域をすべて解放済みリンクリストに繋ぐ */
  mpp = &p->free;
  402c2e:	01 00 6f 62 	mov.l	@(0xfff0:16,er6),er2
  402c32:	ff f0 
  402c34:	0b 92       	adds	#4,er2
  402c36:	01 00 6f e2 	mov.l	er2,@(0xfff4:16,er6)
  402c3a:	ff f4 

00402c3c <.LM4>:
/home/memory.c:42
  for (i = 0; i < p->num; i++) {
  402c3c:	19 22       	sub.w	r2,r2
  402c3e:	6f e2 ff fe 	mov.w	r2,@(0xfffe:16,er6)
  402c42:	58 00 00 7e 	bra	.+126 (0x402cc4)

00402c46 <.L3>:
/home/memory.c:43 (discriminator 3)
    *mpp = mp;
  402c46:	01 00 6f 62 	mov.l	@(0xfff4:16,er6),er2
  402c4a:	ff f4 
  402c4c:	01 00 6f 63 	mov.l	@(0xfff8:16,er6),er3
  402c50:	ff f8 
  402c52:	01 00 69 a3 	mov.l	er3,@er2

00402c56 <.LM6>:
/home/memory.c:44
    memset(mp, 0, sizeof(*mp));
  402c56:	01 00 6f 63 	mov.l	@(0xfff8:16,er6),er3
  402c5a:	ff f8 
  402c5c:	1a a2       	sub.l	er2,er2
  402c5e:	8a 08       	add.b	#0x8,r2l
  402c60:	19 11       	sub.w	r1,r1
  402c62:	0f b0       	mov.l	er3,er0
  402c64:	5e 40 04 76 	jsr	@0x400476:24

00402c68 <.LM7>:
/home/memory.c:45
    mp->size = p->size;
  402c68:	01 00 6f 62 	mov.l	@(0xfff0:16,er6),er2
  402c6c:	ff f0 
  402c6e:	69 23       	mov.w	@er2,r3
  402c70:	01 00 6f 62 	mov.l	@(0xfff8:16,er6),er2
  402c74:	ff f8 
  402c76:	6f a3 00 04 	mov.w	r3,@(0x4:16,er2)

00402c7a <.LM8>:
/home/memory.c:46
    mpp = &(mp->next);
  402c7a:	01 00 6f 62 	mov.l	@(0xfff8:16,er6),er2
  402c7e:	ff f8 
  402c80:	01 00 6f e2 	mov.l	er2,@(0xfff4:16,er6)
  402c84:	ff f4 

00402c86 <.LM9>:
/home/memory.c:47
    mp = (kzmem_block *)((char *)mp + p->size);
  402c86:	01 00 6f 62 	mov.l	@(0xfff0:16,er6),er2
  402c8a:	ff f0 
  402c8c:	69 22       	mov.w	@er2,r2
  402c8e:	17 f2       	exts.l	er2
  402c90:	01 00 6f 63 	mov.l	@(0xfff8:16,er6),er3
  402c94:	ff f8 
  402c96:	0a b2       	add.l	er3,er2
  402c98:	01 00 6f e2 	mov.l	er2,@(0xfff8:16,er6)
  402c9c:	ff f8 

00402c9e <.LM10>:
/home/memory.c:48
    area += p->size;
  402c9e:	01 00 6b 23 	mov.l	@0x4053f8:32,er3
  402ca2:	00 40 53 f8 
  402ca6:	01 00 6f 62 	mov.l	@(0xfff0:16,er6),er2
  402caa:	ff f0 
  402cac:	69 22       	mov.w	@er2,r2
  402cae:	17 f2       	exts.l	er2
  402cb0:	0a b2       	add.l	er3,er2
  402cb2:	01 00 6b a2 	mov.l	er2,@0x4053f8:32
  402cb6:	00 40 53 f8 

00402cba <.LM11>:
/home/memory.c:42
  for (i = 0; i < p->num; i++) {
  402cba:	6f 62 ff fe 	mov.w	@(0xfffe:16,er6),r2
  402cbe:	0b 02       	adds	#1,er2
  402cc0:	6f e2 ff fe 	mov.w	r2,@(0xfffe:16,er6)

00402cc4 <.L2>:
/home/memory.c:42 (discriminator 1)
  402cc4:	01 00 6f 62 	mov.l	@(0xfff0:16,er6),er2
  402cc8:	ff f0 
  402cca:	6f 22 00 02 	mov.w	@(0x2:16,er2),r2
  402cce:	6f 63 ff fe 	mov.w	@(0xfffe:16,er6),r3
  402cd2:	1d 23       	cmp.w	r2,r3
  402cd4:	58 d0 ff 6e 	blt	.-146 (0x402c46)

00402cd8 <.LM13>:
/home/memory.c:51
  }

  return 0;
  402cd8:	19 22       	sub.w	r2,r2

00402cda <.LM14>:
/home/memory.c:52
}
  402cda:	0d 20       	mov.w	r2,r0
  402cdc:	7a 17 00 00 	add.l	#0x10,er7
  402ce0:	00 10 
  402ce2:	01 00 6d 76 	mov.l	@er7+,er6
  402ce6:	54 70       	rts	

00402ce8 <_kzmem_init>:
kzmem_init():
/home/memory.c:56

/* 動的メモリの初期化 */
int kzmem_init(void)
{
  402ce8:	01 00 6d f6 	mov.l	er6,@-er7
  402cec:	0f f6       	mov.l	er7,er6
  402cee:	1b 97       	subs	#4,er7

00402cf0 <.LM16>:
/home/memory.c:58
  int i;
  for (i = 0; i < MEMORY_AREA_NUM; i++) {
  402cf0:	19 22       	sub.w	r2,r2
  402cf2:	6f e2 ff fe 	mov.w	r2,@(0xfffe:16,er6)
  402cf6:	40 22       	bra	.+34 (0x402d1a)

00402cf8 <.L7>:
/home/memory.c:59 (discriminator 3)
    kzmem_init_pool(&pool[i]); /* 各メモリ・プールを初期化する */
  402cf8:	6f 62 ff fe 	mov.w	@(0xfffe:16,er6),r2
  402cfc:	17 f2       	exts.l	er2
  402cfe:	10 32       	shll.l	er2
  402d00:	10 32       	shll.l	er2
  402d02:	10 32       	shll.l	er2
  402d04:	7a 12 00 40 	add.l	#0x4053d8,er2
  402d08:	53 d8 
  402d0a:	0f a0       	mov.l	er2,er0
  402d0c:	5e 40 2c 0e 	jsr	@0x402c0e:24

00402d10 <.LM18>:
/home/memory.c:58
  for (i = 0; i < MEMORY_AREA_NUM; i++) {
  402d10:	6f 62 ff fe 	mov.w	@(0xfffe:16,er6),r2
  402d14:	0b 02       	adds	#1,er2
  402d16:	6f e2 ff fe 	mov.w	r2,@(0xfffe:16,er6)

00402d1a <.L6>:
/home/memory.c:58 (discriminator 1)
  402d1a:	6f 62 ff fe 	mov.w	@(0xfffe:16,er6),r2
  402d1e:	79 22 00 03 	cmp.w	#0x3,r2
  402d22:	43 d4       	bls	.-44 (0x402cf8)

00402d24 <.LM20>:
/home/memory.c:61
  }
  return 0;
  402d24:	19 22       	sub.w	r2,r2

00402d26 <.LM21>:
/home/memory.c:62
}
  402d26:	0d 20       	mov.w	r2,r0
  402d28:	0b 97       	adds	#4,er7
  402d2a:	01 00 6d 76 	mov.l	@er7+,er6
  402d2e:	54 70       	rts	

00402d30 <_kzmem_alloc>:
kzmem_alloc():
/home/memory.c:66

/* 動的メモリの獲得 */
void *kzmem_alloc(int size)
{
  402d30:	01 00 6d f6 	mov.l	er6,@-er7
  402d34:	0f f6       	mov.l	er7,er6
  402d36:	7a 37 00 00 	sub.l	#0x10,er7
  402d3a:	00 10 
  402d3c:	6f e0 ff f2 	mov.w	r0,@(0xfff2:16,er6)

00402d40 <.LM23>:
/home/memory.c:71
  int i;
  kzmem_block *mp;
  kzmem_pool *p;

  for (i = 0; i < MEMORY_AREA_NUM; i++) {
  402d40:	19 22       	sub.w	r2,r2
  402d42:	6f e2 ff fe 	mov.w	r2,@(0xfffe:16,er6)
  402d46:	58 00 00 9a 	bra	.+154 (0x402de4)

00402d4a <.L14>:
/home/memory.c:72
    p = &pool[i];
  402d4a:	6f 62 ff fe 	mov.w	@(0xfffe:16,er6),r2
  402d4e:	17 f2       	exts.l	er2
  402d50:	10 32       	shll.l	er2
  402d52:	10 32       	shll.l	er2
  402d54:	10 32       	shll.l	er2
  402d56:	7a 12 00 40 	add.l	#0x4053d8,er2
  402d5a:	53 d8 
  402d5c:	01 00 6f e2 	mov.l	er2,@(0xfff8:16,er6)
  402d60:	ff f8 

00402d62 <.LM25>:
/home/memory.c:73
    if (size <= p->size - sizeof(kzmem_block)) {
  402d62:	6f 62 ff f2 	mov.w	@(0xfff2:16,er6),r2
  402d66:	0d 23       	mov.w	r2,r3
  402d68:	17 f3       	exts.l	er3
  402d6a:	01 00 6f 62 	mov.l	@(0xfff8:16,er6),er2
  402d6e:	ff f8 
  402d70:	69 22       	mov.w	@er2,r2
  402d72:	17 f2       	exts.l	er2
  402d74:	1b 92       	subs	#4,er2
  402d76:	1b 92       	subs	#4,er2
  402d78:	1f a3       	cmp.l	er2,er3
  402d7a:	42 5e       	bhi	.+94 (0x402dda)

00402d7c <.LM26>:
/home/memory.c:74
      if (p->free == NULL) { /* 解放済み領域が無い(メモリ・ブロック不足) */
  402d7c:	01 00 6f 62 	mov.l	@(0xfff8:16,er6),er2
  402d80:	ff f8 
  402d82:	01 00 6f 22 	mov.l	@(0x4:16,er2),er2
  402d86:	00 04 
  402d88:	0f a2       	mov.l	er2,er2
  402d8a:	46 08       	bne	.+8 (0x402d94)

00402d8c <.LM27>:
/home/memory.c:75
	kz_sysdown();
  402d8c:	5e 40 27 36 	jsr	@0x402736:24

00402d90 <.LM28>:
/home/memory.c:76
	return NULL;
  402d90:	1a a2       	sub.l	er2,er2
  402d92:	40 62       	bra	.+98 (0x402df6)

00402d94 <.L12>:
/home/memory.c:79
      }
      /* 解放済みリンクリストから領域を取得する */
      mp = p->free;
  402d94:	01 00 6f 62 	mov.l	@(0xfff8:16,er6),er2
  402d98:	ff f8 
  402d9a:	01 00 6f 22 	mov.l	@(0x4:16,er2),er2
  402d9e:	00 04 
  402da0:	01 00 6f e2 	mov.l	er2,@(0xfff4:16,er6)
  402da4:	ff f4 

00402da6 <.LM30>:
/home/memory.c:80
      p->free = p->free->next;
  402da6:	01 00 6f 62 	mov.l	@(0xfff8:16,er6),er2
  402daa:	ff f8 
  402dac:	01 00 6f 22 	mov.l	@(0x4:16,er2),er2
  402db0:	00 04 
  402db2:	01 00 69 23 	mov.l	@er2,er3
  402db6:	01 00 6f 62 	mov.l	@(0xfff8:16,er6),er2
  402dba:	ff f8 
  402dbc:	01 00 6f a3 	mov.l	er3,@(0x4:16,er2)
  402dc0:	00 04 

00402dc2 <.LM31>:
/home/memory.c:81
      mp->next = NULL;
  402dc2:	01 00 6f 62 	mov.l	@(0xfff4:16,er6),er2
  402dc6:	ff f4 
  402dc8:	1a b3       	sub.l	er3,er3
  402dca:	01 00 69 a3 	mov.l	er3,@er2

00402dce <.LM32>:
/home/memory.c:87

      /*
       * 実際に利用可能な領域は，メモリ・ブロック構造体の直後の領域に
       * なるので，直後のアドレスを返す．
       */
      return mp + 1;
  402dce:	01 00 6f 62 	mov.l	@(0xfff4:16,er6),er2
  402dd2:	ff f4 
  402dd4:	0b 92       	adds	#4,er2
  402dd6:	0b 92       	adds	#4,er2
  402dd8:	40 1c       	bra	.+28 (0x402df6)

00402dda <.L11>:
/home/memory.c:71 (discriminator 2)
  for (i = 0; i < MEMORY_AREA_NUM; i++) {
  402dda:	6f 62 ff fe 	mov.w	@(0xfffe:16,er6),r2
  402dde:	0b 02       	adds	#1,er2
  402de0:	6f e2 ff fe 	mov.w	r2,@(0xfffe:16,er6)

00402de4 <.L10>:
/home/memory.c:71 (discriminator 1)
  402de4:	6f 62 ff fe 	mov.w	@(0xfffe:16,er6),r2
  402de8:	79 22 00 03 	cmp.w	#0x3,r2
  402dec:	58 30 ff 5a 	bls	.-166 (0x402d4a)

00402df0 <.LM35>:
/home/memory.c:92
    }
  }

  /* 指定されたサイズの領域を格納できるメモリ・プールが無い */
  kz_sysdown();
  402df0:	5e 40 27 36 	jsr	@0x402736:24

00402df4 <.LM36>:
/home/memory.c:93
  return NULL;
  402df4:	1a a2       	sub.l	er2,er2

00402df6 <.L13>:
/home/memory.c:94
}
  402df6:	0f a0       	mov.l	er2,er0
  402df8:	7a 17 00 00 	add.l	#0x10,er7
  402dfc:	00 10 
  402dfe:	01 00 6d 76 	mov.l	@er7+,er6
  402e02:	54 70       	rts	

00402e04 <_kzmem_free>:
kzmem_free():
/home/memory.c:98

/* メモリの解放 */
void kzmem_free(void *mem)
{
  402e04:	01 00 6d f6 	mov.l	er6,@-er7
  402e08:	0f f6       	mov.l	er7,er6
  402e0a:	7a 37 00 00 	sub.l	#0x10,er7
  402e0e:	00 10 
  402e10:	01 00 6f e0 	mov.l	er0,@(0xfff0:16,er6)
  402e14:	ff f0 

00402e16 <.LM39>:
/home/memory.c:104
  int i;
  kzmem_block *mp;
  kzmem_pool *p;

  /* 領域の直前にある(はずの)メモリ・ブロック構造体を取得 */
  mp = ((kzmem_block *)mem - 1);
  402e16:	01 00 6f 62 	mov.l	@(0xfff0:16,er6),er2
  402e1a:	ff f0 
  402e1c:	1b 92       	subs	#4,er2
  402e1e:	1b 92       	subs	#4,er2
  402e20:	01 00 6f e2 	mov.l	er2,@(0xfff8:16,er6)
  402e24:	ff f8 

00402e26 <.LM40>:
/home/memory.c:106

  for (i = 0; i < MEMORY_AREA_NUM; i++) {
  402e26:	19 22       	sub.w	r2,r2
  402e28:	6f e2 ff fe 	mov.w	r2,@(0xfffe:16,er6)
  402e2c:	40 62       	bra	.+98 (0x402e90)

00402e2e <.L19>:
/home/memory.c:107
    p = &pool[i];
  402e2e:	6f 62 ff fe 	mov.w	@(0xfffe:16,er6),r2
  402e32:	17 f2       	exts.l	er2
  402e34:	10 32       	shll.l	er2
  402e36:	10 32       	shll.l	er2
  402e38:	10 32       	shll.l	er2
  402e3a:	7a 12 00 40 	add.l	#0x4053d8,er2
  402e3e:	53 d8 
  402e40:	01 00 6f e2 	mov.l	er2,@(0xfff4:16,er6)
  402e44:	ff f4 

00402e46 <.LM42>:
/home/memory.c:108
    if (mp->size == p->size) {
  402e46:	01 00 6f 62 	mov.l	@(0xfff8:16,er6),er2
  402e4a:	ff f8 
  402e4c:	6f 23 00 04 	mov.w	@(0x4:16,er2),r3
  402e50:	01 00 6f 62 	mov.l	@(0xfff4:16,er6),er2
  402e54:	ff f4 
  402e56:	69 22       	mov.w	@er2,r2
  402e58:	1d 23       	cmp.w	r2,r3
  402e5a:	46 2a       	bne	.+42 (0x402e86)

00402e5c <.LM43>:
/home/memory.c:110
      /* 領域を解放済みリンクリストに戻す */
      mp->next = p->free;
  402e5c:	01 00 6f 62 	mov.l	@(0xfff4:16,er6),er2
  402e60:	ff f4 
  402e62:	01 00 6f 23 	mov.l	@(0x4:16,er2),er3
  402e66:	00 04 
  402e68:	01 00 6f 62 	mov.l	@(0xfff8:16,er6),er2
  402e6c:	ff f8 
  402e6e:	01 00 69 a3 	mov.l	er3,@er2

00402e72 <.LM44>:
/home/memory.c:111
      p->free = mp;
  402e72:	01 00 6f 62 	mov.l	@(0xfff4:16,er6),er2
  402e76:	ff f4 
  402e78:	01 00 6f 63 	mov.l	@(0xfff8:16,er6),er3
  402e7c:	ff f8 
  402e7e:	01 00 6f a3 	mov.l	er3,@(0x4:16,er2)
  402e82:	00 04 

00402e84 <.LM45>:
/home/memory.c:112
      return;
  402e84:	40 18       	bra	.+24 (0x402e9e)

00402e86 <.L17>:
/home/memory.c:106 (discriminator 2)
  for (i = 0; i < MEMORY_AREA_NUM; i++) {
  402e86:	6f 62 ff fe 	mov.w	@(0xfffe:16,er6),r2
  402e8a:	0b 02       	adds	#1,er2
  402e8c:	6f e2 ff fe 	mov.w	r2,@(0xfffe:16,er6)

00402e90 <.L16>:
/home/memory.c:106 (discriminator 1)
  402e90:	6f 62 ff fe 	mov.w	@(0xfffe:16,er6),r2
  402e94:	79 22 00 03 	cmp.w	#0x3,r2
  402e98:	43 94       	bls	.-108 (0x402e2e)

00402e9a <.LM48>:
/home/memory.c:116
    }
  }

  kz_sysdown();
  402e9a:	5e 40 27 36 	jsr	@0x402736:24

00402e9e <.L15>:
/home/memory.c:117
}
  402e9e:	7a 17 00 00 	add.l	#0x10,er7
  402ea2:	00 10 
  402ea4:	01 00 6d 76 	mov.l	@er7+,er6
  402ea8:	54 70       	rts	

00402eaa <_send_use>:
send_use():
/home/command.c:11
#include "icmp.h"
#include "lib.h"

/* コンソール・ドライバの使用開始をコンソール・ドライバに依頼する */
static void send_use(int index)
{
  402eaa:	01 00 6d f6 	mov.l	er6,@-er7
  402eae:	0f f6       	mov.l	er7,er6
  402eb0:	7a 37 00 00 	sub.l	#0x8,er7
  402eb4:	00 08 
  402eb6:	6f e0 ff fa 	mov.w	r0,@(0xfffa:16,er6)

00402eba <.LM2>:
/home/command.c:13
  char *p;
  p = kz_kmalloc(3);
  402eba:	79 00 00 03 	mov.w	#0x3,r0
  402ebe:	5e 40 29 68 	jsr	@0x402968:24
  402ec2:	01 00 6f e0 	mov.l	er0,@(0xfffc:16,er6)
  402ec6:	ff fc 

00402ec8 <.LM3>:
/home/command.c:14
  p[0] = '0';
  402ec8:	01 00 6f 62 	mov.l	@(0xfffc:16,er6),er2
  402ecc:	ff fc 
  402ece:	fb 30       	mov.b	#0x30,r3l
  402ed0:	68 ab       	mov.b	r3l,@er2

00402ed2 <.LM4>:
/home/command.c:15
  p[1] = CONSDRV_CMD_USE;
  402ed2:	01 00 6f 62 	mov.l	@(0xfffc:16,er6),er2
  402ed6:	ff fc 
  402ed8:	0b 02       	adds	#1,er2
  402eda:	fb 75       	mov.b	#0x75,r3l
  402edc:	68 ab       	mov.b	r3l,@er2

00402ede <.LM5>:
/home/command.c:16
  p[2] = '0' + index;
  402ede:	6f 62 ff fa 	mov.w	@(0xfffa:16,er6),r2
  402ee2:	0c ab       	mov.b	r2l,r3l
  402ee4:	01 00 6f 62 	mov.l	@(0xfffc:16,er6),er2
  402ee8:	ff fc 
  402eea:	0b 82       	adds	#2,er2
  402eec:	8b 30       	add.b	#0x30,r3l
  402eee:	68 ab       	mov.b	r3l,@er2

00402ef0 <.LM6>:
/home/command.c:17
  kz_send(MSGBOX_ID_CONSOUTPUT, 3, p);
  402ef0:	01 00 6f 62 	mov.l	@(0xfffc:16,er6),er2
  402ef4:	ff fc 
  402ef6:	79 01 00 03 	mov.w	#0x3,r1
  402efa:	79 00 00 01 	mov.w	#0x1,r0
  402efe:	5e 40 29 e8 	jsr	@0x4029e8:24

00402f02 <.LM7>:
/home/command.c:18
}
  402f02:	00 00       	nop	
  402f04:	0b 97       	adds	#4,er7
  402f06:	0b 97       	adds	#4,er7
  402f08:	01 00 6d 76 	mov.l	@er7+,er6
  402f0c:	54 70       	rts	

00402f0e <_send_write>:
send_write():
/home/command.c:22

/* コンソールへの文字列出力をコンソール・ドライバに依頼する */
static void send_write(char *str)
{
  402f0e:	01 00 6d f6 	mov.l	er6,@-er7
  402f12:	0f f6       	mov.l	er7,er6
  402f14:	7a 37 00 00 	sub.l	#0xc,er7
  402f18:	00 0c 
  402f1a:	01 00 6f e0 	mov.l	er0,@(0xfff4:16,er6)
  402f1e:	ff f4 

00402f20 <.LM9>:
/home/command.c:25
  char *p;
  int len;
  len = strlen(str);
  402f20:	01 00 6f 62 	mov.l	@(0xfff4:16,er6),er2
  402f24:	ff f4 
  402f26:	0f a0       	mov.l	er2,er0
  402f28:	5e 40 07 22 	jsr	@0x400722:24
  402f2c:	6f e0 ff fe 	mov.w	r0,@(0xfffe:16,er6)

00402f30 <.LM10>:
/home/command.c:26
  p = kz_kmalloc(len + 2);
  402f30:	6f 62 ff fe 	mov.w	@(0xfffe:16,er6),r2
  402f34:	0b 82       	adds	#2,er2
  402f36:	0d 20       	mov.w	r2,r0
  402f38:	5e 40 29 68 	jsr	@0x402968:24
  402f3c:	01 00 6f e0 	mov.l	er0,@(0xfff8:16,er6)
  402f40:	ff f8 

00402f42 <.LM11>:
/home/command.c:27
  p[0] = '0';
  402f42:	01 00 6f 62 	mov.l	@(0xfff8:16,er6),er2
  402f46:	ff f8 
  402f48:	fb 30       	mov.b	#0x30,r3l
  402f4a:	68 ab       	mov.b	r3l,@er2

00402f4c <.LM12>:
/home/command.c:28
  p[1] = CONSDRV_CMD_WRITE;
  402f4c:	01 00 6f 62 	mov.l	@(0xfff8:16,er6),er2
  402f50:	ff f8 
  402f52:	0b 02       	adds	#1,er2
  402f54:	fb 77       	mov.b	#0x77,r3l
  402f56:	68 ab       	mov.b	r3l,@er2

00402f58 <.LM13>:
/home/command.c:29
  memcpy(&p[2], str, len);
  402f58:	6f 62 ff fe 	mov.w	@(0xfffe:16,er6),r2
  402f5c:	0d 21       	mov.w	r2,r1
  402f5e:	17 f1       	exts.l	er1
  402f60:	01 00 6f 62 	mov.l	@(0xfff8:16,er6),er2
  402f64:	ff f8 
  402f66:	0f a3       	mov.l	er2,er3
  402f68:	0b 83       	adds	#2,er3
  402f6a:	01 00 6f 60 	mov.l	@(0xfff4:16,er6),er0
  402f6e:	ff f4 
  402f70:	0f 92       	mov.l	er1,er2
  402f72:	0f 81       	mov.l	er0,er1
  402f74:	0f b0       	mov.l	er3,er0
  402f76:	5e 40 04 e2 	jsr	@0x4004e2:24

00402f7a <.LM14>:
/home/command.c:30
  kz_send(MSGBOX_ID_CONSOUTPUT, len + 2, p);
  402f7a:	6f 62 ff fe 	mov.w	@(0xfffe:16,er6),r2
  402f7e:	0d 23       	mov.w	r2,r3
  402f80:	0b 83       	adds	#2,er3
  402f82:	01 00 6f 62 	mov.l	@(0xfff8:16,er6),er2
  402f86:	ff f8 
  402f88:	0d 31       	mov.w	r3,r1
  402f8a:	79 00 00 01 	mov.w	#0x1,r0
  402f8e:	5e 40 29 e8 	jsr	@0x4029e8:24

00402f92 <.LM15>:
/home/command.c:31
}
  402f92:	00 00       	nop	
  402f94:	7a 17 00 00 	add.l	#0xc,er7
  402f98:	00 0c 
  402f9a:	01 00 6d 76 	mov.l	@er7+,er6
  402f9e:	54 70       	rts	

00402fa0 <_send_start>:
send_start():
/home/command.c:35

/* タイマのカウント開始をタイマ・ドライバに依頼する */
static void send_start(int msec)
{
  402fa0:	01 00 6d f6 	mov.l	er6,@-er7
  402fa4:	0f f6       	mov.l	er7,er6
  402fa6:	7a 37 00 00 	sub.l	#0x8,er7
  402faa:	00 08 
  402fac:	6f e0 ff fa 	mov.w	r0,@(0xfffa:16,er6)

00402fb0 <.LM17>:
/home/command.c:37
  struct timerreq *req;
  req = kz_kmalloc(sizeof(*req));
  402fb0:	79 00 00 04 	mov.w	#0x4,r0
  402fb4:	5e 40 29 68 	jsr	@0x402968:24
  402fb8:	01 00 6f e0 	mov.l	er0,@(0xfffc:16,er6)
  402fbc:	ff fc 

00402fbe <.LM18>:
/home/command.c:38
  req->id = MSGBOX_ID_CONSINPUT;
  402fbe:	01 00 6f 62 	mov.l	@(0xfffc:16,er6),er2
  402fc2:	ff fc 
  402fc4:	19 33       	sub.w	r3,r3
  402fc6:	69 a3       	mov.w	r3,@er2

00402fc8 <.LM19>:
/home/command.c:39
  req->msec = msec;
  402fc8:	01 00 6f 62 	mov.l	@(0xfffc:16,er6),er2
  402fcc:	ff fc 
  402fce:	6f 63 ff fa 	mov.w	@(0xfffa:16,er6),r3
  402fd2:	6f a3 00 02 	mov.w	r3,@(0x2:16,er2)

00402fd6 <.LM20>:
/home/command.c:40
  kz_send(MSGBOX_ID_TIMDRIVE, TIMERDRV_CMD_START, (char *)req);
  402fd6:	01 00 6f 62 	mov.l	@(0xfffc:16,er6),er2
  402fda:	ff fc 
  402fdc:	79 01 00 73 	mov.w	#0x73,r1
  402fe0:	79 00 00 02 	mov.w	#0x2,r0
  402fe4:	5e 40 29 e8 	jsr	@0x4029e8:24

00402fe8 <.LM21>:
/home/command.c:41
}
  402fe8:	00 00       	nop	
  402fea:	0b 97       	adds	#4,er7
  402fec:	0b 97       	adds	#4,er7
  402fee:	01 00 6d 76 	mov.l	@er7+,er6
  402ff2:	54 70       	rts	

00402ff4 <_send_icmp>:
send_icmp():
/home/command.c:45

/* pingの開始をicmpタスクに依頼する */
static void send_icmp()
{
  402ff4:	01 00 6d f6 	mov.l	er6,@-er7
  402ff8:	0f f6       	mov.l	er7,er6
  402ffa:	1b 97       	subs	#4,er7

00402ffc <.LM23>:
/home/command.c:47
  struct netbuf *buf;
  buf = kz_kmalloc(sizeof(*buf));
  402ffc:	79 00 00 14 	mov.w	#0x14,r0
  403000:	5e 40 29 68 	jsr	@0x402968:24
  403004:	01 00 6f e0 	mov.l	er0,@(0xfffc:16,er6)
  403008:	ff fc 

0040300a <.LM24>:
/home/command.c:48
  buf->cmd = ICMP_CMD_SEND;
  40300a:	01 00 6f 62 	mov.l	@(0xfffc:16,er6),er2
  40300e:	ff fc 
  403010:	fb 73       	mov.b	#0x73,r3l
  403012:	68 ab       	mov.b	r3l,@er2

00403014 <.LM25>:
/home/command.c:49
  buf->option.icmp.send.number = 3;
  403014:	01 00 6f 62 	mov.l	@(0xfffc:16,er6),er2
  403018:	ff fc 
  40301a:	79 03 00 03 	mov.w	#0x3,r3
  40301e:	6f a3 00 04 	mov.w	r3,@(0x4:16,er2)

00403022 <.LM26>:
/home/command.c:50
  buf->option.icmp.send.ipaddr = 0xc0a80a01; /* 192.168.10.1 */
  403022:	01 00 6f 62 	mov.l	@(0xfffc:16,er6),er2
  403026:	ff fc 
  403028:	7a 03 c0 a8 	mov.l	#0xc0a80a01,er3
  40302c:	0a 01 
  40302e:	01 00 6f a3 	mov.l	er3,@(0x8:16,er2)
  403032:	00 08 

00403034 <.LM27>:
/home/command.c:51
  kz_send(MSGBOX_ID_ICMPPROC, 0, (char *)buf);
  403034:	01 00 6f 62 	mov.l	@(0xfffc:16,er6),er2
  403038:	ff fc 
  40303a:	19 11       	sub.w	r1,r1
  40303c:	79 00 00 0a 	mov.w	#0xa,r0
  403040:	5e 40 29 e8 	jsr	@0x4029e8:24

00403044 <.LM28>:
/home/command.c:52
}
  403044:	00 00       	nop	
  403046:	0b 97       	adds	#4,er7
  403048:	01 00 6d 76 	mov.l	@er7+,er6
  40304c:	54 70       	rts	

0040304e <_command_main>:
command_main():
/home/command.c:55

int command_main(int argc, char *argv[])
{
  40304e:	01 00 6d f6 	mov.l	er6,@-er7
  403052:	0f f6       	mov.l	er7,er6
  403054:	7a 37 00 00 	sub.l	#0x10,er7
  403058:	00 10 
  40305a:	6f e0 ff f6 	mov.w	r0,@(0xfff6:16,er6)
  40305e:	01 00 6f e1 	mov.l	er1,@(0xfff0:16,er6)
  403062:	ff f0 

00403064 <.LM30>:
/home/command.c:59
  char *p;
  int size;

  send_use(SERIAL_DEFAULT_DEVICE);
  403064:	79 00 00 01 	mov.w	#0x1,r0
  403068:	5e 40 2e aa 	jsr	@0x402eaa:24

0040306c <.L12>:
/home/command.c:62

  while (1) {
    send_write("command> "); /* プロンプト表示 */
  40306c:	7a 00 00 40 	mov.l	#0x405344,er0
  403070:	53 44 
  403072:	5e 40 2f 0e 	jsr	@0x402f0e:24

00403076 <.LM32>:
/home/command.c:65

    /* コンソールからの受信文字列を受け取る */
    kz_recv(MSGBOX_ID_CONSINPUT, &size, &p);
  403076:	0f e2       	mov.l	er6,er2
  403078:	1b 92       	subs	#4,er2
  40307a:	0f e3       	mov.l	er6,er3
  40307c:	1b 93       	subs	#4,er3
  40307e:	1b 83       	subs	#2,er3
  403080:	0f b1       	mov.l	er3,er1
  403082:	19 00       	sub.w	r0,r0
  403084:	5e 40 2a 42 	jsr	@0x402a42:24

00403088 <.LM33>:
/home/command.c:66
    if (p == NULL) {
  403088:	01 00 6f 62 	mov.l	@(0xfffc:16,er6),er2
  40308c:	ff fc 
  40308e:	0f a2       	mov.l	er2,er2
  403090:	46 0e       	bne	.+14 (0x4030a0)

00403092 <.LM34>:
/home/command.c:67
      send_write("expired.\n");
  403092:	7a 00 00 40 	mov.l	#0x40534e,er0
  403096:	53 4e 
  403098:	5e 40 2f 0e 	jsr	@0x402f0e:24

0040309c <.LM35>:
/home/command.c:68
      continue;
  40309c:	58 00 00 ba 	bra	.+186 (0x40315a)

004030a0 <.L6>:
/home/command.c:70
    }
    p[size] = '\0';
  4030a0:	01 00 6f 63 	mov.l	@(0xfffc:16,er6),er3
  4030a4:	ff fc 
  4030a6:	6f 62 ff fa 	mov.w	@(0xfffa:16,er6),r2
  4030aa:	17 f2       	exts.l	er2
  4030ac:	0a b2       	add.l	er3,er2
  4030ae:	18 bb       	sub.b	r3l,r3l
  4030b0:	68 ab       	mov.b	r3l,@er2

004030b2 <.LM37>:
/home/command.c:72

    if (!strncmp(p, "echo", 4)) { /* echoコマンド */
  4030b2:	01 00 6f 63 	mov.l	@(0xfffc:16,er6),er3
  4030b6:	ff fc 
  4030b8:	79 02 00 04 	mov.w	#0x4,r2
  4030bc:	7a 01 00 40 	mov.l	#0x405358,er1
  4030c0:	53 58 
  4030c2:	0f b0       	mov.l	er3,er0
  4030c4:	5e 40 08 74 	jsr	@0x400874:24
  4030c8:	0d 02       	mov.w	r0,r2
  4030ca:	0d 22       	mov.w	r2,r2
  4030cc:	46 1a       	bne	.+26 (0x4030e8)

004030ce <.LM38>:
/home/command.c:73
      send_write(p + 4); /* echoに続く文字列を出力する */
  4030ce:	01 00 6f 62 	mov.l	@(0xfffc:16,er6),er2
  4030d2:	ff fc 
  4030d4:	0b 92       	adds	#4,er2
  4030d6:	0f a0       	mov.l	er2,er0
  4030d8:	5e 40 2f 0e 	jsr	@0x402f0e:24

004030dc <.LM39>:
/home/command.c:74
      send_write("\n");
  4030dc:	7a 00 00 40 	mov.l	#0x40535d,er0
  4030e0:	53 5d 
  4030e2:	5e 40 2f 0e 	jsr	@0x402f0e:24
  4030e6:	40 66       	bra	.+102 (0x40314e)

004030e8 <.L8>:
/home/command.c:75
    } else if (!strncmp(p, "timer", 5)) { /* timerコマンド */
  4030e8:	01 00 6f 63 	mov.l	@(0xfffc:16,er6),er3
  4030ec:	ff fc 
  4030ee:	79 02 00 05 	mov.w	#0x5,r2
  4030f2:	7a 01 00 40 	mov.l	#0x40535f,er1
  4030f6:	53 5f 
  4030f8:	0f b0       	mov.l	er3,er0
  4030fa:	5e 40 08 74 	jsr	@0x400874:24
  4030fe:	0d 02       	mov.w	r0,r2
  403100:	0d 22       	mov.w	r2,r2
  403102:	46 14       	bne	.+20 (0x403118)

00403104 <.LM41>:
/home/command.c:76
      send_write("timer start.\n");
  403104:	7a 00 00 40 	mov.l	#0x405365,er0
  403108:	53 65 
  40310a:	5e 40 2f 0e 	jsr	@0x402f0e:24

0040310e <.LM42>:
/home/command.c:77
      send_start(1000);
  40310e:	79 00 03 e8 	mov.w	#0x3e8,r0
  403112:	5e 40 2f a0 	jsr	@0x402fa0:24
  403116:	40 36       	bra	.+54 (0x40314e)

00403118 <.L10>:
/home/command.c:78
    } else if (!strncmp(p, "ping", 4)) { /* pingコマンド */
  403118:	01 00 6f 63 	mov.l	@(0xfffc:16,er6),er3
  40311c:	ff fc 
  40311e:	79 02 00 04 	mov.w	#0x4,r2
  403122:	7a 01 00 40 	mov.l	#0x405373,er1
  403126:	53 73 
  403128:	0f b0       	mov.l	er3,er0
  40312a:	5e 40 08 74 	jsr	@0x400874:24
  40312e:	0d 02       	mov.w	r0,r2
  403130:	0d 22       	mov.w	r2,r2
  403132:	46 10       	bne	.+16 (0x403144)

00403134 <.LM44>:
/home/command.c:79
      send_write("ping start.\n");
  403134:	7a 00 00 40 	mov.l	#0x405378,er0
  403138:	53 78 
  40313a:	5e 40 2f 0e 	jsr	@0x402f0e:24

0040313e <.LM45>:
/home/command.c:80
      send_icmp();
  40313e:	5e 40 2f f4 	jsr	@0x402ff4:24
  403142:	40 0a       	bra	.+10 (0x40314e)

00403144 <.L11>:
/home/command.c:82
    } else {
      send_write("unknown.\n");
  403144:	7a 00 00 40 	mov.l	#0x405385,er0
  403148:	53 85 
  40314a:	5e 40 2f 0e 	jsr	@0x402f0e:24

0040314e <.L9>:
/home/command.c:85
    }

    kz_kmfree(p);
  40314e:	01 00 6f 62 	mov.l	@(0xfffc:16,er6),er2
  403152:	ff fc 
  403154:	0f a0       	mov.l	er2,er0
  403156:	5e 40 29 a6 	jsr	@0x4029a6:24

0040315a <.L7>:
/home/command.c:62
    send_write("command> "); /* プロンプト表示 */
  40315a:	58 00 ff 0e 	bra	.-242 (0x40306c)

0040315e <_send_start>:
send_start():
/home/clock.c:9
#include "timerdrv.h"
#include "lib.h"

/* タイマのカウント開始をタイマ・ドライバに依頼する */
static void send_start(int msec)
{
  40315e:	01 00 6d f6 	mov.l	er6,@-er7
  403162:	0f f6       	mov.l	er7,er6
  403164:	7a 37 00 00 	sub.l	#0x8,er7
  403168:	00 08 
  40316a:	6f e0 ff fa 	mov.w	r0,@(0xfffa:16,er6)

0040316e <.LM2>:
/home/clock.c:11
  struct timerreq *req;
  req = kz_kmalloc(sizeof(*req));
  40316e:	79 00 00 04 	mov.w	#0x4,r0
  403172:	5e 40 29 68 	jsr	@0x402968:24
  403176:	01 00 6f e0 	mov.l	er0,@(0xfffc:16,er6)
  40317a:	ff fc 

0040317c <.LM3>:
/home/clock.c:12
  req->id = MSGBOX_ID_TIMEXPIRE;
  40317c:	01 00 6f 62 	mov.l	@(0xfffc:16,er6),er2
  403180:	ff fc 
  403182:	79 03 00 03 	mov.w	#0x3,r3
  403186:	69 a3       	mov.w	r3,@er2

00403188 <.LM4>:
/home/clock.c:13
  req->msec = msec;
  403188:	01 00 6f 62 	mov.l	@(0xfffc:16,er6),er2
  40318c:	ff fc 
  40318e:	6f 63 ff fa 	mov.w	@(0xfffa:16,er6),r3
  403192:	6f a3 00 02 	mov.w	r3,@(0x2:16,er2)

00403196 <.LM5>:
/home/clock.c:14
  kz_send(MSGBOX_ID_TIMDRIVE, TIMERDRV_CMD_START, (char *)req);
  403196:	01 00 6f 62 	mov.l	@(0xfffc:16,er6),er2
  40319a:	ff fc 
  40319c:	79 01 00 73 	mov.w	#0x73,r1
  4031a0:	79 00 00 02 	mov.w	#0x2,r0
  4031a4:	5e 40 29 e8 	jsr	@0x4029e8:24

004031a8 <.LM6>:
/home/clock.c:15
}
  4031a8:	00 00       	nop	
  4031aa:	0b 97       	adds	#4,er7
  4031ac:	0b 97       	adds	#4,er7
  4031ae:	01 00 6d 76 	mov.l	@er7+,er6
  4031b2:	54 70       	rts	

004031b4 <_send_write>:
send_write():
/home/clock.c:19

/* コンソールへの文字列出力をコンソール・ドライバに依頼する */
static void send_write(char *str)
{
  4031b4:	01 00 6d f6 	mov.l	er6,@-er7
  4031b8:	0f f6       	mov.l	er7,er6
  4031ba:	7a 37 00 00 	sub.l	#0xc,er7
  4031be:	00 0c 
  4031c0:	01 00 6f e0 	mov.l	er0,@(0xfff4:16,er6)
  4031c4:	ff f4 

004031c6 <.LM8>:
/home/clock.c:22
  char *p;
  int len;
  len = strlen(str);
  4031c6:	01 00 6f 62 	mov.l	@(0xfff4:16,er6),er2
  4031ca:	ff f4 
  4031cc:	0f a0       	mov.l	er2,er0
  4031ce:	5e 40 07 22 	jsr	@0x400722:24
  4031d2:	6f e0 ff fe 	mov.w	r0,@(0xfffe:16,er6)

004031d6 <.LM9>:
/home/clock.c:23
  p = kz_kmalloc(len + 2);
  4031d6:	6f 62 ff fe 	mov.w	@(0xfffe:16,er6),r2
  4031da:	0b 82       	adds	#2,er2
  4031dc:	0d 20       	mov.w	r2,r0
  4031de:	5e 40 29 68 	jsr	@0x402968:24
  4031e2:	01 00 6f e0 	mov.l	er0,@(0xfff8:16,er6)
  4031e6:	ff f8 

004031e8 <.LM10>:
/home/clock.c:24
  p[0] = '0';
  4031e8:	01 00 6f 62 	mov.l	@(0xfff8:16,er6),er2
  4031ec:	ff f8 
  4031ee:	fb 30       	mov.b	#0x30,r3l
  4031f0:	68 ab       	mov.b	r3l,@er2

004031f2 <.LM11>:
/home/clock.c:25
  p[1] = CONSDRV_CMD_WRITE;
  4031f2:	01 00 6f 62 	mov.l	@(0xfff8:16,er6),er2
  4031f6:	ff f8 
  4031f8:	0b 02       	adds	#1,er2
  4031fa:	fb 77       	mov.b	#0x77,r3l
  4031fc:	68 ab       	mov.b	r3l,@er2

004031fe <.LM12>:
/home/clock.c:26
  memcpy(&p[2], str, len);
  4031fe:	6f 62 ff fe 	mov.w	@(0xfffe:16,er6),r2
  403202:	0d 21       	mov.w	r2,r1
  403204:	17 f1       	exts.l	er1
  403206:	01 00 6f 62 	mov.l	@(0xfff8:16,er6),er2
  40320a:	ff f8 
  40320c:	0f a3       	mov.l	er2,er3
  40320e:	0b 83       	adds	#2,er3
  403210:	01 00 6f 60 	mov.l	@(0xfff4:16,er6),er0
  403214:	ff f4 
  403216:	0f 92       	mov.l	er1,er2
  403218:	0f 81       	mov.l	er0,er1
  40321a:	0f b0       	mov.l	er3,er0
  40321c:	5e 40 04 e2 	jsr	@0x4004e2:24

00403220 <.LM13>:
/home/clock.c:27
  kz_send(MSGBOX_ID_CONSOUTPUT, len + 2, p);
  403220:	6f 62 ff fe 	mov.w	@(0xfffe:16,er6),r2
  403224:	0d 23       	mov.w	r2,r3
  403226:	0b 83       	adds	#2,er3
  403228:	01 00 6f 62 	mov.l	@(0xfff8:16,er6),er2
  40322c:	ff f8 
  40322e:	0d 31       	mov.w	r3,r1
  403230:	79 00 00 01 	mov.w	#0x1,r0
  403234:	5e 40 29 e8 	jsr	@0x4029e8:24

00403238 <.LM14>:
/home/clock.c:28
}
  403238:	00 00       	nop	
  40323a:	7a 17 00 00 	add.l	#0xc,er7
  40323e:	00 0c 
  403240:	01 00 6d 76 	mov.l	@er7+,er6
  403244:	54 70       	rts	

00403246 <_clock_main>:
clock_main():
/home/clock.c:31

int clock_main(int argc, char *argv[])
{
  403246:	01 00 6d f6 	mov.l	er6,@-er7
  40324a:	0f f6       	mov.l	er7,er6
  40324c:	7a 37 00 00 	sub.l	#0x8,er7
  403250:	00 08 
  403252:	6f e0 ff fe 	mov.w	r0,@(0xfffe:16,er6)
  403256:	01 00 6f e1 	mov.l	er1,@(0xfff8:16,er6)
  40325a:	ff f8 

0040325c <.LM16>:
/home/clock.c:32
  send_start(3000);
  40325c:	79 00 0b b8 	mov.w	#0xbb8,r0
  403260:	5e 40 31 5e 	jsr	@0x40315e:24

00403264 <.L4>:
/home/clock.c:35 (discriminator 1)

  while (1) {
    kz_recv(MSGBOX_ID_TIMEXPIRE, NULL, NULL);
  403264:	1a a2       	sub.l	er2,er2
  403266:	1a 91       	sub.l	er1,er1
  403268:	79 00 00 03 	mov.w	#0x3,r0
  40326c:	5e 40 2a 42 	jsr	@0x402a42:24

00403270 <.LM18>:
/home/clock.c:36
    send_write("ready.\n");
  403270:	7a 00 00 40 	mov.l	#0x40538f,er0
  403274:	53 8f 
  403276:	5e 40 31 b4 	jsr	@0x4031b4:24

0040327a <.LM19>:
/home/clock.c:37
    send_start(3000);
  40327a:	79 00 0b b8 	mov.w	#0xbb8,r0
  40327e:	5e 40 31 5e 	jsr	@0x40315e:24

00403282 <.LM20>:
/home/clock.c:35
    kz_recv(MSGBOX_ID_TIMEXPIRE, NULL, NULL);
  403282:	40 e0       	bra	.-32 (0x403264)

00403284 <_ethernet_recv>:
ethernet_recv():
/home/ethernet.c:21

static unsigned char my_macaddr[MACADDR_SIZE];
static int initialized = 0;

static int ethernet_recv(struct netbuf *pkt)
{
  403284:	01 00 6d f6 	mov.l	er6,@-er7
  403288:	0f f6       	mov.l	er7,er6
  40328a:	7a 37 00 00 	sub.l	#0x8,er7
  40328e:	00 08 
  403290:	01 00 6f e0 	mov.l	er0,@(0xfff8:16,er6)
  403294:	ff f8 

00403296 <.LM2>:
/home/ethernet.c:22
  struct ethernet_header *ethhdr = (struct ethernet_header *)pkt->top;
  403296:	01 00 6f 62 	mov.l	@(0xfff8:16,er6),er2
  40329a:	ff f8 
  40329c:	01 00 6f 22 	mov.l	@(0x10:16,er2),er2
  4032a0:	00 10 
  4032a2:	01 00 6f e2 	mov.l	er2,@(0xfffc:16,er6)
  4032a6:	ff fc 

004032a8 <.LM3>:
/home/ethernet.c:24

  if (!initialized)
  4032a8:	6b 22 00 40 	mov.w	@0x40594e:32,r2
  4032ac:	59 4e 
  4032ae:	0d 22       	mov.w	r2,r2
  4032b0:	46 06       	bne	.+6 (0x4032b8)

004032b2 <.LM4>:
/home/ethernet.c:25
    return 0;
  4032b2:	19 22       	sub.w	r2,r2
  4032b4:	58 00 00 c4 	bra	.+196 (0x40337c)

004032b8 <.L2>:
/home/ethernet.c:27

  if (!(ethhdr->dst_addr[0] & 1) &&
  4032b8:	01 00 6f 62 	mov.l	@(0xfffc:16,er6),er2
  4032bc:	ff fc 
  4032be:	68 2a       	mov.b	@er2,r2l
  4032c0:	17 52       	extu.w	r2
  4032c2:	79 62 00 01 	and.w	#0x1,r2
  4032c6:	0d 22       	mov.w	r2,r2
  4032c8:	46 22       	bne	.+34 (0x4032ec)

004032ca <.LM6>:
/home/ethernet.c:28 (discriminator 1)
      memcmp(ethhdr->dst_addr, my_macaddr, MACADDR_SIZE))
  4032ca:	01 00 6f 63 	mov.l	@(0xfffc:16,er6),er3
  4032ce:	ff fc 
  4032d0:	1a a2       	sub.l	er2,er2
  4032d2:	8a 06       	add.b	#0x6,r2l
  4032d4:	7a 01 00 40 	mov.l	#0x405948,er1
  4032d8:	59 48 
  4032da:	0f b0       	mov.l	er3,er0
  4032dc:	5e 40 06 72 	jsr	@0x400672:24
  4032e0:	0d 02       	mov.w	r0,r2

004032e2 <.LM7>:
/home/ethernet.c:27
  if (!(ethhdr->dst_addr[0] & 1) &&
  4032e2:	0d 22       	mov.w	r2,r2
  4032e4:	47 06       	beq	.+6 (0x4032ec)

004032e6 <.LM8>:
/home/ethernet.c:29
    return 0;
  4032e6:	19 22       	sub.w	r2,r2
  4032e8:	58 00 00 90 	bra	.+144 (0x40337c)

004032ec <.L4>:
/home/ethernet.c:31

  pkt->top  += ETHERNET_HEADER_SIZE;
  4032ec:	01 00 6f 62 	mov.l	@(0xfff8:16,er6),er2
  4032f0:	ff f8 
  4032f2:	01 00 6f 22 	mov.l	@(0x10:16,er2),er2
  4032f6:	00 10 
  4032f8:	0f a3       	mov.l	er2,er3
  4032fa:	7a 13 00 00 	add.l	#0xe,er3
  4032fe:	00 0e 
  403300:	01 00 6f 62 	mov.l	@(0xfff8:16,er6),er2
  403304:	ff f8 
  403306:	01 00 6f a3 	mov.l	er3,@(0x10:16,er2)
  40330a:	00 10 

0040330c <.LM10>:
/home/ethernet.c:32
  pkt->size -= ETHERNET_HEADER_SIZE;
  40330c:	01 00 6f 62 	mov.l	@(0xfff8:16,er6),er2
  403310:	ff f8 
  403312:	6f 22 00 02 	mov.w	@(0x2:16,er2),r2
  403316:	0d 23       	mov.w	r2,r3
  403318:	79 13 ff f2 	add.w	#0xfff2,r3
  40331c:	01 00 6f 62 	mov.l	@(0xfff8:16,er6),er2
  403320:	ff f8 
  403322:	6f a3 00 02 	mov.w	r3,@(0x2:16,er2)

00403326 <.LM11>:
/home/ethernet.c:34

  switch (ethhdr->type) {
  403326:	01 00 6f 62 	mov.l	@(0xfffc:16,er6),er2
  40332a:	ff fc 
  40332c:	6f 22 00 0c 	mov.w	@(0xc:16,er2),r2
  403330:	79 22 08 00 	cmp.w	#0x800,r2
  403334:	47 22       	beq	.+34 (0x403358)
  403336:	79 22 08 06 	cmp.w	#0x806,r2
  40333a:	46 38       	bne	.+56 (0x403374)

0040333c <.LM12>:
/home/ethernet.c:36
  case ETHERNET_TYPE_ARP:
    pkt->cmd = ARP_CMD_RECV;
  40333c:	01 00 6f 62 	mov.l	@(0xfff8:16,er6),er2
  403340:	ff f8 
  403342:	fb 72       	mov.b	#0x72,r3l
  403344:	68 ab       	mov.b	r3l,@er2

00403346 <.LM13>:
/home/ethernet.c:37
    kz_send(MSGBOX_ID_ARPPROC, 0, (char *)pkt);
  403346:	01 00 6f 62 	mov.l	@(0xfff8:16,er6),er2
  40334a:	ff f8 
  40334c:	19 11       	sub.w	r1,r1
  40334e:	79 00 00 06 	mov.w	#0x6,r0
  403352:	5e 40 29 e8 	jsr	@0x4029e8:24

00403356 <.LM14>:
/home/ethernet.c:38
    break;
  403356:	40 20       	bra	.+32 (0x403378)

00403358 <.L6>:
/home/ethernet.c:40
  case ETHERNET_TYPE_IP:
    pkt->cmd = IP_CMD_RECV;
  403358:	01 00 6f 62 	mov.l	@(0xfff8:16,er6),er2
  40335c:	ff f8 
  40335e:	fb 72       	mov.b	#0x72,r3l
  403360:	68 ab       	mov.b	r3l,@er2

00403362 <.LM16>:
/home/ethernet.c:41
    kz_send(MSGBOX_ID_IPPROC, 0, (char *)pkt);
  403362:	01 00 6f 62 	mov.l	@(0xfff8:16,er6),er2
  403366:	ff f8 
  403368:	19 11       	sub.w	r1,r1
  40336a:	79 00 00 09 	mov.w	#0x9,r0
  40336e:	5e 40 29 e8 	jsr	@0x4029e8:24

00403372 <.LM17>:
/home/ethernet.c:42
    break;
  403372:	40 04       	bra	.+4 (0x403378)

00403374 <.L9>:
/home/ethernet.c:44
  default:
    return 0;
  403374:	19 22       	sub.w	r2,r2
  403376:	40 04       	bra	.+4 (0x40337c)

00403378 <.L8>:
/home/ethernet.c:47
  }

  return 1;
  403378:	79 02 00 01 	mov.w	#0x1,r2

0040337c <.L3>:
/home/ethernet.c:48
}
  40337c:	0d 20       	mov.w	r2,r0
  40337e:	0b 97       	adds	#4,er7
  403380:	0b 97       	adds	#4,er7
  403382:	01 00 6d 76 	mov.l	@er7+,er6
  403386:	54 70       	rts	

00403388 <_ethernet_send>:
ethernet_send():
/home/ethernet.c:51

static int ethernet_send(struct netbuf *pkt)
{
  403388:	01 00 6d f6 	mov.l	er6,@-er7
  40338c:	0f f6       	mov.l	er7,er6
  40338e:	7a 37 00 00 	sub.l	#0x8,er7
  403392:	00 08 
  403394:	01 00 6f e0 	mov.l	er0,@(0xfff8:16,er6)
  403398:	ff f8 

0040339a <.LM22>:
/home/ethernet.c:55
  struct ethernet_header *ethhdr;

  /* 送信先MACアドレスが不明なので，ARPタスクに転送して解決してもらう */
  if (!memcmp(pkt->option.ethernet.send.dst_macaddr,
  40339a:	01 00 6f 62 	mov.l	@(0xfff8:16,er6),er2
  40339e:	ff f8 
  4033a0:	0f a3       	mov.l	er2,er3
  4033a2:	0b 93       	adds	#4,er3
  4033a4:	1a a2       	sub.l	er2,er2
  4033a6:	8a 06       	add.b	#0x6,r2l
  4033a8:	7a 01 00 40 	mov.l	#0x405397,er1
  4033ac:	53 97 
  4033ae:	0f b0       	mov.l	er3,er0
  4033b0:	5e 40 06 72 	jsr	@0x400672:24
  4033b4:	0d 02       	mov.w	r0,r2
  4033b6:	0d 22       	mov.w	r2,r2
  4033b8:	46 22       	bne	.+34 (0x4033dc)

004033ba <.LM23>:
/home/ethernet.c:57
	      "\x00\x00\x00\x00\x00\x00", MACADDR_SIZE)) {
    pkt->cmd = ARP_CMD_SEND;
  4033ba:	01 00 6f 62 	mov.l	@(0xfff8:16,er6),er2
  4033be:	ff f8 
  4033c0:	fb 73       	mov.b	#0x73,r3l
  4033c2:	68 ab       	mov.b	r3l,@er2

004033c4 <.LM24>:
/home/ethernet.c:58
    kz_send(MSGBOX_ID_ARPPROC, 0, (char *)pkt);
  4033c4:	01 00 6f 62 	mov.l	@(0xfff8:16,er6),er2
  4033c8:	ff f8 
  4033ca:	19 11       	sub.w	r1,r1
  4033cc:	79 00 00 06 	mov.w	#0x6,r0
  4033d0:	5e 40 29 e8 	jsr	@0x4029e8:24

004033d4 <.LM25>:
/home/ethernet.c:59
    return 1;
  4033d4:	79 02 00 01 	mov.w	#0x1,r2
  4033d8:	58 00 00 b6 	bra	.+182 (0x403492)

004033dc <.L11>:
/home/ethernet.c:62
  }

  pkt->cmd = NETDRV_CMD_SEND;
  4033dc:	01 00 6f 62 	mov.l	@(0xfff8:16,er6),er2
  4033e0:	ff f8 
  4033e2:	fb 73       	mov.b	#0x73,r3l
  4033e4:	68 ab       	mov.b	r3l,@er2

004033e6 <.LM27>:
/home/ethernet.c:64

  pkt->top  -= ETHERNET_HEADER_SIZE;
  4033e6:	01 00 6f 62 	mov.l	@(0xfff8:16,er6),er2
  4033ea:	ff f8 
  4033ec:	01 00 6f 22 	mov.l	@(0x10:16,er2),er2
  4033f0:	00 10 
  4033f2:	0f a3       	mov.l	er2,er3
  4033f4:	7a 33 00 00 	sub.l	#0xe,er3
  4033f8:	00 0e 
  4033fa:	01 00 6f 62 	mov.l	@(0xfff8:16,er6),er2
  4033fe:	ff f8 
  403400:	01 00 6f a3 	mov.l	er3,@(0x10:16,er2)
  403404:	00 10 

00403406 <.LM28>:
/home/ethernet.c:65
  pkt->size += ETHERNET_HEADER_SIZE;
  403406:	01 00 6f 62 	mov.l	@(0xfff8:16,er6),er2
  40340a:	ff f8 
  40340c:	6f 22 00 02 	mov.w	@(0x2:16,er2),r2
  403410:	0d 23       	mov.w	r2,r3
  403412:	79 13 00 0e 	add.w	#0xe,r3
  403416:	01 00 6f 62 	mov.l	@(0xfff8:16,er6),er2
  40341a:	ff f8 
  40341c:	6f a3 00 02 	mov.w	r3,@(0x2:16,er2)

00403420 <.LM29>:
/home/ethernet.c:66
  ethhdr = (struct ethernet_header *)pkt->top;
  403420:	01 00 6f 62 	mov.l	@(0xfff8:16,er6),er2
  403424:	ff f8 
  403426:	01 00 6f 22 	mov.l	@(0x10:16,er2),er2
  40342a:	00 10 
  40342c:	01 00 6f e2 	mov.l	er2,@(0xfffc:16,er6)
  403430:	ff fc 

00403432 <.LM30>:
/home/ethernet.c:68
  
  memcpy(ethhdr->dst_addr, pkt->option.ethernet.send.dst_macaddr, MACADDR_SIZE);
  403432:	01 00 6f 62 	mov.l	@(0xfff8:16,er6),er2
  403436:	ff f8 
  403438:	0f a0       	mov.l	er2,er0
  40343a:	0b 90       	adds	#4,er0
  40343c:	01 00 6f 63 	mov.l	@(0xfffc:16,er6),er3
  403440:	ff fc 
  403442:	1a a2       	sub.l	er2,er2
  403444:	8a 06       	add.b	#0x6,r2l
  403446:	0f 81       	mov.l	er0,er1
  403448:	0f b0       	mov.l	er3,er0
  40344a:	5e 40 04 e2 	jsr	@0x4004e2:24

0040344e <.LM31>:
/home/ethernet.c:69
  memcpy(ethhdr->src_addr, my_macaddr, MACADDR_SIZE);
  40344e:	01 00 6f 62 	mov.l	@(0xfffc:16,er6),er2
  403452:	ff fc 
  403454:	0f a3       	mov.l	er2,er3
  403456:	0b 93       	adds	#4,er3
  403458:	0b 83       	adds	#2,er3
  40345a:	1a a2       	sub.l	er2,er2
  40345c:	8a 06       	add.b	#0x6,r2l
  40345e:	7a 01 00 40 	mov.l	#0x405948,er1
  403462:	59 48 
  403464:	0f b0       	mov.l	er3,er0
  403466:	5e 40 04 e2 	jsr	@0x4004e2:24

0040346a <.LM32>:
/home/ethernet.c:70
  ethhdr->type = pkt->option.ethernet.send.type;
  40346a:	01 00 6f 62 	mov.l	@(0xfff8:16,er6),er2
  40346e:	ff f8 
  403470:	6f 23 00 0a 	mov.w	@(0xa:16,er2),r3
  403474:	01 00 6f 62 	mov.l	@(0xfffc:16,er6),er2
  403478:	ff fc 
  40347a:	6f a3 00 0c 	mov.w	r3,@(0xc:16,er2)

0040347e <.LM33>:
/home/ethernet.c:72

  kz_send(MSGBOX_ID_NETPROC, 0, (char *)pkt);
  40347e:	01 00 6f 62 	mov.l	@(0xfff8:16,er6),er2
  403482:	ff f8 
  403484:	19 11       	sub.w	r1,r1
  403486:	79 00 00 04 	mov.w	#0x4,r0
  40348a:	5e 40 29 e8 	jsr	@0x4029e8:24

0040348e <.LM34>:
/home/ethernet.c:73
  return 1;
  40348e:	79 02 00 01 	mov.w	#0x1,r2

00403492 <.L12>:
/home/ethernet.c:74
}
  403492:	0d 20       	mov.w	r2,r0
  403494:	0b 97       	adds	#4,er7
  403496:	0b 97       	adds	#4,er7
  403498:	01 00 6d 76 	mov.l	@er7+,er6
  40349c:	54 70       	rts	

0040349e <_ethernet_proc>:
ethernet_proc():
/home/ethernet.c:77

static int ethernet_proc(struct netbuf *buf)
{
  40349e:	01 00 6d f6 	mov.l	er6,@-er7
  4034a2:	0f f6       	mov.l	er7,er6
  4034a4:	7a 37 00 00 	sub.l	#0x8,er7
  4034a8:	00 08 
  4034aa:	01 00 6f e0 	mov.l	er0,@(0xfff8:16,er6)
  4034ae:	ff f8 

004034b0 <.LM37>:
/home/ethernet.c:78
  int ret = 0;
  4034b0:	19 22       	sub.w	r2,r2
  4034b2:	6f e2 ff fe 	mov.w	r2,@(0xfffe:16,er6)

004034b6 <.LM38>:
/home/ethernet.c:79
  switch (buf->cmd) {
  4034b6:	01 00 6f 62 	mov.l	@(0xfff8:16,er6),er2
  4034ba:	ff f8 
  4034bc:	68 2a       	mov.b	@er2,r2l
  4034be:	17 52       	extu.w	r2
  4034c0:	79 22 00 72 	cmp.w	#0x72,r2
  4034c4:	47 5a       	beq	.+90 (0x403520)
  4034c6:	79 22 00 73 	cmp.w	#0x73,r2
  4034ca:	47 66       	beq	.+102 (0x403532)
  4034cc:	79 22 00 6d 	cmp.w	#0x6d,r2
  4034d0:	47 02       	beq	.+2 (0x4034d4)

004034d2 <.LM39>:
/home/ethernet.c:94
    break;
  case ETHERNET_CMD_SEND:
    ret = ethernet_send(buf);
    break;
  default:
    break;
  4034d2:	40 70       	bra	.+112 (0x403544)

004034d4 <.L17>:
/home/ethernet.c:81
    memcpy(my_macaddr, buf->option.common.macaddr.addr, MACADDR_SIZE);
  4034d4:	01 00 6f 62 	mov.l	@(0xfff8:16,er6),er2
  4034d8:	ff f8 
  4034da:	0f a3       	mov.l	er2,er3
  4034dc:	0b 93       	adds	#4,er3
  4034de:	1a a2       	sub.l	er2,er2
  4034e0:	8a 06       	add.b	#0x6,r2l
  4034e2:	0f b1       	mov.l	er3,er1
  4034e4:	7a 00 00 40 	mov.l	#0x405948,er0
  4034e8:	59 48 
  4034ea:	5e 40 04 e2 	jsr	@0x4004e2:24

004034ee <.LM41>:
/home/ethernet.c:82
    buf->cmd = ARP_CMD_MACADDR;
  4034ee:	01 00 6f 62 	mov.l	@(0xfff8:16,er6),er2
  4034f2:	ff f8 
  4034f4:	fb 6d       	mov.b	#0x6d,r3l
  4034f6:	68 ab       	mov.b	r3l,@er2

004034f8 <.LM42>:
/home/ethernet.c:83
    kz_send(MSGBOX_ID_ARPPROC, 0, (char *)buf);
  4034f8:	01 00 6f 62 	mov.l	@(0xfff8:16,er6),er2
  4034fc:	ff f8 
  4034fe:	19 11       	sub.w	r1,r1
  403500:	79 00 00 06 	mov.w	#0x6,r0
  403504:	5e 40 29 e8 	jsr	@0x4029e8:24

00403508 <.LM43>:
/home/ethernet.c:84
    initialized++;
  403508:	6b 22 00 40 	mov.w	@0x40594e:32,r2
  40350c:	59 4e 
  40350e:	0b 02       	adds	#1,er2
  403510:	6b a2 00 40 	mov.w	r2,@0x40594e:32
  403514:	59 4e 

00403516 <.LM44>:
/home/ethernet.c:85
    ret = 1;
  403516:	79 02 00 01 	mov.w	#0x1,r2
  40351a:	6f e2 ff fe 	mov.w	r2,@(0xfffe:16,er6)

0040351e <.LM45>:
/home/ethernet.c:86
    break;
  40351e:	40 24       	bra	.+36 (0x403544)

00403520 <.L15>:
/home/ethernet.c:88
    ret = ethernet_recv(buf);
  403520:	01 00 6f 62 	mov.l	@(0xfff8:16,er6),er2
  403524:	ff f8 
  403526:	0f a0       	mov.l	er2,er0
  403528:	5e 40 32 84 	jsr	@0x403284:24
  40352c:	6f e0 ff fe 	mov.w	r0,@(0xfffe:16,er6)

00403530 <.LM47>:
/home/ethernet.c:89
    break;
  403530:	40 12       	bra	.+18 (0x403544)

00403532 <.L16>:
/home/ethernet.c:91
    ret = ethernet_send(buf);
  403532:	01 00 6f 62 	mov.l	@(0xfff8:16,er6),er2
  403536:	ff f8 
  403538:	0f a0       	mov.l	er2,er0
  40353a:	5e 40 33 88 	jsr	@0x403388:24
  40353e:	6f e0 ff fe 	mov.w	r0,@(0xfffe:16,er6)

00403542 <.LM49>:
	...

00403544 <.L18>:
/home/ethernet.c:96
  }
  return ret;
  403544:	6f 62 ff fe 	mov.w	@(0xfffe:16,er6),r2

00403548 <.LM51>:
/home/ethernet.c:97
}
  403548:	0d 20       	mov.w	r2,r0
  40354a:	0b 97       	adds	#4,er7
  40354c:	0b 97       	adds	#4,er7
  40354e:	01 00 6d 76 	mov.l	@er7+,er6
  403552:	54 70       	rts	

00403554 <_ethernet_main>:
ethernet_main():
/home/ethernet.c:100

int ethernet_main(int argc, char *argv[])
{
  403554:	01 00 6d f6 	mov.l	er6,@-er7
  403558:	0f f6       	mov.l	er7,er6
  40355a:	7a 37 00 00 	sub.l	#0x10,er7
  40355e:	00 10 
  403560:	6f e0 ff f6 	mov.w	r0,@(0xfff6:16,er6)
  403564:	01 00 6f e1 	mov.l	er1,@(0xfff0:16,er6)
  403568:	ff f0 

0040356a <.LM53>:
/home/ethernet.c:104
  struct netbuf *buf;
  int ret;

  buf = kz_kmalloc(sizeof(*buf));
  40356a:	79 00 00 14 	mov.w	#0x14,r0
  40356e:	5e 40 29 68 	jsr	@0x402968:24
  403572:	0f 82       	mov.l	er0,er2
  403574:	01 00 6f e2 	mov.l	er2,@(0xfff8:16,er6)
  403578:	ff f8 

0040357a <.LM54>:
/home/ethernet.c:105
  buf->cmd = NETDRV_CMD_USE;
  40357a:	01 00 6f 62 	mov.l	@(0xfff8:16,er6),er2
  40357e:	ff f8 
  403580:	fb 75       	mov.b	#0x75,r3l
  403582:	68 ab       	mov.b	r3l,@er2

00403584 <.LM55>:
/home/ethernet.c:106
  kz_send(MSGBOX_ID_NETPROC, 0, (char *)buf);
  403584:	01 00 6f 62 	mov.l	@(0xfff8:16,er6),er2
  403588:	ff f8 
  40358a:	19 11       	sub.w	r1,r1
  40358c:	79 00 00 04 	mov.w	#0x4,r0
  403590:	5e 40 29 e8 	jsr	@0x4029e8:24

00403594 <.L22>:
/home/ethernet.c:109

  while (1) {
