
kzload.elf:     file format elf32-h8300


Disassembly of section .vectors:

00000000 <_vectors>:
   0:	00 00       	nop	
   2:	01 00       	.word	H'1,H'0
	...
  20:	00 00       	nop	
  22:	01 60       	.word	H'1,H'60
  24:	00 00       	nop	
  26:	01 0c       	.word	H'1,H'c
  28:	00 00       	nop	
  2a:	01 0c       	.word	H'1,H'c
  2c:	00 00       	nop	
  2e:	01 0c       	.word	H'1,H'c
	...
  90:	00 00       	nop	
  92:	02 08       	stc	ccr,r0l
  94:	00 00       	nop	
  96:	02 08       	stc	ccr,r0l
  98:	00 00       	nop	
  9a:	02 08       	stc	ccr,r0l
  9c:	00 00       	nop	
  9e:	02 08       	stc	ccr,r0l
  a0:	00 00       	nop	
  a2:	02 08       	stc	ccr,r0l
  a4:	00 00       	nop	
  a6:	02 08       	stc	ccr,r0l
  a8:	00 00       	nop	
  aa:	02 08       	stc	ccr,r0l
  ac:	00 00       	nop	
  ae:	02 08       	stc	ccr,r0l
	...
  d0:	00 00       	nop	
  d2:	01 b4       	.word	H'1,H'b4
  d4:	00 00       	nop	
  d6:	01 b4       	.word	H'1,H'b4
  d8:	00 00       	nop	
  da:	01 b4       	.word	H'1,H'b4
  dc:	00 00       	nop	
  de:	01 b4       	.word	H'1,H'b4
  e0:	00 00       	nop	
  e2:	01 b4       	.word	H'1,H'b4
  e4:	00 00       	nop	
  e6:	01 b4       	.word	H'1,H'b4
  e8:	00 00       	nop	
  ea:	01 b4       	.word	H'1,H'b4
  ec:	00 00       	nop	
  ee:	01 b4       	.word	H'1,H'b4
  f0:	00 00       	nop	
  f2:	01 b4       	.word	H'1,H'b4
  f4:	00 00       	nop	
  f6:	01 b4       	.word	H'1,H'b4
  f8:	00 00       	nop	
  fa:	01 b4       	.word	H'1,H'b4
  fc:	00 00       	nop	
  fe:	01 b4       	.word	H'1,H'b4

Disassembly of section .text:

00000100 <_start>:
.Letext0():
 100:	7a 07 00 ff 	mov.l	#0xffff00,er7
 104:	ff 00 
 106:	5e 00 08 aa 	jsr	@0x8aa:24

0000010a <.L11>:
.L11():
 10a:	40 fe       	bra	.-2 (0x10a)

0000010c <_intr_softerr>:
_intr_softerr():
 10c:	01 00 6d f6 	mov.l	er6,@-er7
 110:	01 00 6d f5 	mov.l	er5,@-er7
 114:	01 00 6d f4 	mov.l	er4,@-er7
 118:	01 00 6d f3 	mov.l	er3,@-er7
 11c:	01 00 6d f2 	mov.l	er2,@-er7
 120:	01 00 6d f1 	mov.l	er1,@-er7
 124:	01 00 6d f0 	mov.l	er0,@-er7
 128:	0f f1       	mov.l	er7,er1
 12a:	7a 07 00 ff 	mov.l	#0xffff00,er7
 12e:	ff 00 
 130:	01 00 6d f1 	mov.l	er1,@-er7
 134:	79 00 00 00 	mov.w	#0x0,r0
 138:	5e 00 02 ea 	jsr	@0x2ea:24
 13c:	01 00 6d 71 	mov.l	@er7+,er1
 140:	0f 97       	mov.l	er1,er7
 142:	01 00 6d 70 	mov.l	@er7+,er0
 146:	01 00 6d 71 	mov.l	@er7+,er1
 14a:	01 00 6d 72 	mov.l	@er7+,er2
 14e:	01 00 6d 73 	mov.l	@er7+,er3
 152:	01 00 6d 74 	mov.l	@er7+,er4
 156:	01 00 6d 75 	mov.l	@er7+,er5
 15a:	01 00 6d 76 	mov.l	@er7+,er6
 15e:	56 70       	rte	

00000160 <_intr_syscall>:
_intr_syscall():
 160:	01 00 6d f6 	mov.l	er6,@-er7
 164:	01 00 6d f5 	mov.l	er5,@-er7
 168:	01 00 6d f4 	mov.l	er4,@-er7
 16c:	01 00 6d f3 	mov.l	er3,@-er7
 170:	01 00 6d f2 	mov.l	er2,@-er7
 174:	01 00 6d f1 	mov.l	er1,@-er7
 178:	01 00 6d f0 	mov.l	er0,@-er7
 17c:	0f f1       	mov.l	er7,er1
 17e:	7a 07 00 ff 	mov.l	#0xffff00,er7
 182:	ff 00 
 184:	01 00 6d f1 	mov.l	er1,@-er7
 188:	79 00 00 01 	mov.w	#0x1,r0
 18c:	5e 00 02 ea 	jsr	@0x2ea:24
 190:	01 00 6d 71 	mov.l	@er7+,er1
 194:	0f 97       	mov.l	er1,er7
 196:	01 00 6d 70 	mov.l	@er7+,er0
 19a:	01 00 6d 71 	mov.l	@er7+,er1
 19e:	01 00 6d 72 	mov.l	@er7+,er2
 1a2:	01 00 6d 73 	mov.l	@er7+,er3
 1a6:	01 00 6d 74 	mov.l	@er7+,er4
 1aa:	01 00 6d 75 	mov.l	@er7+,er5
 1ae:	01 00 6d 76 	mov.l	@er7+,er6
 1b2:	56 70       	rte	

000001b4 <_intr_serintr>:
_intr_serintr():
 1b4:	01 00 6d f6 	mov.l	er6,@-er7
 1b8:	01 00 6d f5 	mov.l	er5,@-er7
 1bc:	01 00 6d f4 	mov.l	er4,@-er7
 1c0:	01 00 6d f3 	mov.l	er3,@-er7
 1c4:	01 00 6d f2 	mov.l	er2,@-er7
 1c8:	01 00 6d f1 	mov.l	er1,@-er7
 1cc:	01 00 6d f0 	mov.l	er0,@-er7
 1d0:	0f f1       	mov.l	er7,er1
 1d2:	7a 07 00 ff 	mov.l	#0xffff00,er7
 1d6:	ff 00 
 1d8:	01 00 6d f1 	mov.l	er1,@-er7
 1dc:	79 00 00 02 	mov.w	#0x2,r0
 1e0:	5e 00 02 ea 	jsr	@0x2ea:24
 1e4:	01 00 6d 71 	mov.l	@er7+,er1
 1e8:	0f 97       	mov.l	er1,er7
 1ea:	01 00 6d 70 	mov.l	@er7+,er0
 1ee:	01 00 6d 71 	mov.l	@er7+,er1
 1f2:	01 00 6d 72 	mov.l	@er7+,er2
 1f6:	01 00 6d 73 	mov.l	@er7+,er3
 1fa:	01 00 6d 74 	mov.l	@er7+,er4
 1fe:	01 00 6d 75 	mov.l	@er7+,er5
 202:	01 00 6d 76 	mov.l	@er7+,er6
 206:	56 70       	rte	

00000208 <_intr_timintr>:
_intr_timintr():
 208:	01 00 6d f6 	mov.l	er6,@-er7
 20c:	01 00 6d f5 	mov.l	er5,@-er7
 210:	01 00 6d f4 	mov.l	er4,@-er7
 214:	01 00 6d f3 	mov.l	er3,@-er7
 218:	01 00 6d f2 	mov.l	er2,@-er7
 21c:	01 00 6d f1 	mov.l	er1,@-er7
 220:	01 00 6d f0 	mov.l	er0,@-er7
 224:	0f f1       	mov.l	er7,er1
 226:	7a 07 00 ff 	mov.l	#0xffff00,er7
 22a:	ff 00 
 22c:	01 00 6d f1 	mov.l	er1,@-er7
 230:	79 00 00 03 	mov.w	#0x3,r0
 234:	5e 00 02 ea 	jsr	@0x2ea:24
 238:	01 00 6d 71 	mov.l	@er7+,er1
 23c:	0f 97       	mov.l	er1,er7
 23e:	01 00 6d 70 	mov.l	@er7+,er0
 242:	01 00 6d 71 	mov.l	@er7+,er1
 246:	01 00 6d 72 	mov.l	@er7+,er2
 24a:	01 00 6d 73 	mov.l	@er7+,er3
 24e:	01 00 6d 74 	mov.l	@er7+,er4
 252:	01 00 6d 75 	mov.l	@er7+,er5
 256:	01 00 6d 76 	mov.l	@er7+,er6
 25a:	56 70       	rte	

0000025c <_softvec_init>:
softvec_init():
/home/interrupt.c:7
#include "intr.h"
#include "interrupt.h"

/* ソフトウエア・割込みベクタの初期化 */
int softvec_init(void)
{
 25c:	01 00 6d f6 	mov.l	er6,@-er7
 260:	0f f6       	mov.l	er7,er6

00000262 <.LBB4>:
softvec_setintr():
/home/interrupt.c:17
}

/* ソフトウエア・割込みベクタの設定 */
int softvec_setintr(softvec_type_t type, softvec_handler_t handler)
{
  SOFTVECS[type] = handler;
 262:	18 aa       	sub.b	r2l,r2l
 264:	6a aa 00 ff 	mov.b	r2l,@0xffbf20:32
 268:	bf 20 
 26a:	6a aa 00 ff 	mov.b	r2l,@0xffbf21:32
 26e:	bf 21 
 270:	6a aa 00 ff 	mov.b	r2l,@0xffbf22:32
 274:	bf 22 
 276:	6a aa 00 ff 	mov.b	r2l,@0xffbf23:32
 27a:	bf 23 
 27c:	6a aa 00 ff 	mov.b	r2l,@0xffbf24:32
 280:	bf 24 
 282:	6a aa 00 ff 	mov.b	r2l,@0xffbf25:32
 286:	bf 25 
 288:	6a aa 00 ff 	mov.b	r2l,@0xffbf26:32
 28c:	bf 26 
 28e:	6a aa 00 ff 	mov.b	r2l,@0xffbf27:32
 292:	bf 27 
 294:	6a aa 00 ff 	mov.b	r2l,@0xffbf28:32
 298:	bf 28 
 29a:	6a aa 00 ff 	mov.b	r2l,@0xffbf29:32
 29e:	bf 29 
 2a0:	6a aa 00 ff 	mov.b	r2l,@0xffbf2a:32
 2a4:	bf 2a 
 2a6:	6a aa 00 ff 	mov.b	r2l,@0xffbf2b:32
 2aa:	bf 2b 
 2ac:	6a aa 00 ff 	mov.b	r2l,@0xffbf2c:32
 2b0:	bf 2c 
 2b2:	6a aa 00 ff 	mov.b	r2l,@0xffbf2d:32
 2b6:	bf 2d 
 2b8:	6a aa 00 ff 	mov.b	r2l,@0xffbf2e:32
 2bc:	bf 2e 
 2be:	6a aa 00 ff 	mov.b	r2l,@0xffbf2f:32
 2c2:	bf 2f 

000002c4 <.LM3>:
softvec_init():
/home/interrupt.c:12
}
 2c4:	19 00       	sub.w	r0,r0
 2c6:	01 00 6d 76 	mov.l	@er7+,er6
 2ca:	54 70       	rts	

000002cc <_softvec_setintr>:
softvec_setintr():
/home/interrupt.c:16
{
 2cc:	01 00 6d f6 	mov.l	er6,@-er7
 2d0:	0f f6       	mov.l	er7,er6

000002d2 <.LM5>:
/home/interrupt.c:17
  SOFTVECS[type] = handler;
 2d2:	17 f0       	exts.l	er0
 2d4:	10 30       	shll.l	er0
 2d6:	10 30       	shll.l	er0
 2d8:	01 00 78 80 	mov.l	er1,@(0xffbf20:32,er0)
 2dc:	6b a1 00 ff 
 2e0:	bf 20 

000002e2 <.LM6>:
/home/interrupt.c:19
  return 0;
}
 2e2:	19 00       	sub.w	r0,r0
 2e4:	01 00 6d 76 	mov.l	@er7+,er6
 2e8:	54 70       	rts	

000002ea <_interrupt>:
interrupt():
/home/interrupt.c:26
/*
 * 共通割込みハンドラ．
 * ソフトウエア・割込みベクタを見て，各ハンドラに分岐する．
 */
void interrupt(softvec_type_t type, unsigned long sp)
{
 2ea:	01 00 6d f6 	mov.l	er6,@-er7
 2ee:	0f f6       	mov.l	er7,er6

000002f0 <.LM8>:
/home/interrupt.c:27
  softvec_handler_t handler = SOFTVECS[type];
 2f0:	0d 02       	mov.w	r0,r2
 2f2:	17 f2       	exts.l	er2
 2f4:	10 32       	shll.l	er2
 2f6:	10 32       	shll.l	er2
 2f8:	01 00 78 20 	mov.l	@(0xffbf20:32,er2),er2
 2fc:	6b 22 00 ff 
 300:	bf 20 

00000302 <.LM9>:
/home/interrupt.c:28
  if (handler)
 302:	47 02       	beq	.+2 (0x306)

00000304 <.LM10>:
/home/interrupt.c:29
    handler(type, sp);
 304:	5d 20       	jsr	@er2

00000306 <.L3>:
/home/interrupt.c:30
}
 306:	01 00 6d 76 	mov.l	@er7+,er6
 30a:	54 70       	rts	

0000030c <_memset>:
memset():
/home/lib.c:6
#include "defines.h"
#include "serial.h"
#include "lib.h"

void *memset(void *b, int c, long len)
{
 30c:	01 00 6d f6 	mov.l	er6,@-er7
 310:	0f f6       	mov.l	er7,er6
 312:	01 00 6d f4 	mov.l	er4,@-er7

00000316 <.LM2>:
/home/lib.c:8
  char *p;
  for (p = b; len > 0; len--)
 316:	0f 83       	mov.l	er0,er3
 318:	0a 82       	add.l	er0,er2
 31a:	40 04       	bra	.+4 (0x320)

0000031c <.L3>:
/home/lib.c:9 (discriminator 3)
    *(p++) = c;
 31c:	68 b9       	mov.b	r1l,@er3
 31e:	0b 03       	adds	#1,er3

00000320 <.L2>:
 320:	0f a4       	mov.l	er2,er4
 322:	1a b4       	sub.l	er3,er4

00000324 <.LM4>:
/home/lib.c:8 (discriminator 1)
  for (p = b; len > 0; len--)
 324:	0f c4       	mov.l	er4,er4
 326:	4e f4       	bgt	.-12 (0x31c)

00000328 <.LM5>:
/home/lib.c:11
  return b;
}
 328:	01 00 6d 74 	mov.l	@er7+,er4
 32c:	01 00 6d 76 	mov.l	@er7+,er6
 330:	54 70       	rts	

00000332 <_memcpy>:
memcpy():
/home/lib.c:14

void *memcpy(void *dst, const void *src, long len)
{
 332:	01 00 6d f6 	mov.l	er6,@-er7
 336:	0f f6       	mov.l	er7,er6
 338:	01 00 6d f4 	mov.l	er4,@-er7
 33c:	01 00 6d f5 	mov.l	er5,@-er7

00000340 <.LM7>:
/home/lib.c:17
  char *d = dst;
  const char *s = src;
  for (; len > 0; len--)
 340:	1a b3       	sub.l	er3,er3
 342:	40 0e       	bra	.+14 (0x352)

00000344 <.L6>:
/home/lib.c:18 (discriminator 2)
    *(d++) = *(s++);
 344:	0f 94       	mov.l	er1,er4
 346:	0a b4       	add.l	er3,er4
 348:	68 4d       	mov.b	@er4,r5l
 34a:	0f 84       	mov.l	er0,er4
 34c:	0a b4       	add.l	er3,er4
 34e:	68 cd       	mov.b	r5l,@er4
 350:	0b 03       	adds	#1,er3

00000352 <.L5>:
 352:	0f a4       	mov.l	er2,er4
 354:	1a b4       	sub.l	er3,er4

00000356 <.LM9>:
/home/lib.c:17 (discriminator 1)
  for (; len > 0; len--)
 356:	0f c4       	mov.l	er4,er4
 358:	4e ea       	bgt	.-22 (0x344)

0000035a <.LM10>:
/home/lib.c:20
  return dst;
}
 35a:	01 00 6d 75 	mov.l	@er7+,er5
 35e:	01 00 6d 74 	mov.l	@er7+,er4
 362:	01 00 6d 76 	mov.l	@er7+,er6
 366:	54 70       	rts	

00000368 <_memcmp>:
memcmp():
/home/lib.c:23

int memcmp(const void *b1, const void *b2, long len)
{
 368:	01 00 6d f6 	mov.l	er6,@-er7
 36c:	0f f6       	mov.l	er7,er6
 36e:	01 00 6d f4 	mov.l	er4,@-er7
 372:	0a 82       	add.l	er0,er2

00000374 <.LM12>:
/home/lib.c:25
  const char *p1 = b1, *p2 = b2;
  for (; len > 0; len--) {
 374:	40 14       	bra	.+20 (0x38a)

00000376 <.L11>:
/home/lib.c:26
    if (*p1 != *p2)
 376:	68 0c       	mov.b	@er0,r4l
 378:	68 1b       	mov.b	@er1,r3l
 37a:	1c bc       	cmp.b	r3l,r4l
 37c:	47 08       	beq	.+8 (0x386)

0000037e <.LM14>:
/home/lib.c:27
      return (*p1 > *p2) ? 1 : -1;
 37e:	42 16       	bhi	.+22 (0x396)
 380:	79 00 ff ff 	mov.w	#0xffff,r0
 384:	40 14       	bra	.+20 (0x39a)

00000386 <.L9>:
/home/lib.c:28
    p1++;
 386:	0b 00       	adds	#1,er0

00000388 <.LM16>:
/home/lib.c:29
    p2++;
 388:	0b 01       	adds	#1,er1

0000038a <.L8>:
 38a:	0f a3       	mov.l	er2,er3
 38c:	1a 83       	sub.l	er0,er3

0000038e <.LM17>:
/home/lib.c:25 (discriminator 1)
  for (; len > 0; len--) {
 38e:	0f b3       	mov.l	er3,er3
 390:	4e e4       	bgt	.-28 (0x376)

00000392 <.LM18>:
/home/lib.c:31
  }
  return 0;
 392:	19 00       	sub.w	r0,r0
 394:	40 04       	bra	.+4 (0x39a)

00000396 <.L12>:
/home/lib.c:27
      return (*p1 > *p2) ? 1 : -1;
 396:	79 00 00 01 	mov.w	#0x1,r0

0000039a <.L7>:
/home/lib.c:32
}
 39a:	01 00 6d 74 	mov.l	@er7+,er4
 39e:	01 00 6d 76 	mov.l	@er7+,er6
 3a2:	54 70       	rts	

000003a4 <_strlen>:
strlen():
/home/lib.c:35

int strlen(const char *s)
{
 3a4:	01 00 6d f6 	mov.l	er6,@-er7
 3a8:	0f f6       	mov.l	er7,er6

000003aa <.LM22>:
/home/lib.c:37
  int len;
  for (len = 0; *s; s++, len++)
 3aa:	19 22       	sub.w	r2,r2
 3ac:	40 04       	bra	.+4 (0x3b2)

000003ae <.L15>:
/home/lib.c:37 (discriminator 3)
 3ae:	0b 00       	adds	#1,er0
 3b0:	0b 02       	adds	#1,er2

000003b2 <.L14>:
/home/lib.c:37 (discriminator 1)
 3b2:	68 0b       	mov.b	@er0,r3l
 3b4:	46 f8       	bne	.-8 (0x3ae)

000003b6 <.LM25>:
/home/lib.c:40
    ;
  return len;
}
 3b6:	0d 20       	mov.w	r2,r0
 3b8:	01 00 6d 76 	mov.l	@er7+,er6
 3bc:	54 70       	rts	

000003be <_strcpy>:
strcpy():
/home/lib.c:43

char *strcpy(char *dst, const char *src)
{
 3be:	01 00 6d f6 	mov.l	er6,@-er7
 3c2:	0f f6       	mov.l	er7,er6

000003c4 <.LM27>:
 3c4:	0f 82       	mov.l	er0,er2

000003c6 <.L18>:
/home/lib.c:46
  char *d = dst;
  for (;; dst++, src++) {
    *dst = *src;
 3c6:	68 1b       	mov.b	@er1,r3l
 3c8:	68 ab       	mov.b	r3l,@er2

000003ca <.LM29>:
/home/lib.c:47
    if (!*src) break;
 3ca:	68 1b       	mov.b	@er1,r3l
 3cc:	47 06       	beq	.+6 (0x3d4)

000003ce <.LM30>:
/home/lib.c:45
  for (;; dst++, src++) {
 3ce:	0b 02       	adds	#1,er2
 3d0:	0b 01       	adds	#1,er1

000003d2 <.LM31>:
/home/lib.c:46
    *dst = *src;
 3d2:	40 f2       	bra	.-14 (0x3c6)

000003d4 <.L17>:
/home/lib.c:50
  }
  return d;
}
 3d4:	01 00 6d 76 	mov.l	@er7+,er6
 3d8:	54 70       	rts	

000003da <_strcmp>:
strcmp():
/home/lib.c:53

int strcmp(const char *s1, const char *s2)
{
 3da:	01 00 6d f6 	mov.l	er6,@-er7
 3de:	0f f6       	mov.l	er7,er6

000003e0 <.LM34>:
/home/lib.c:54
  while (*s1 || *s2) {
 3e0:	40 10       	bra	.+16 (0x3f2)

000003e2 <.L23>:
/home/lib.c:55
    if (*s1 != *s2)
 3e2:	1c ba       	cmp.b	r3l,r2l
 3e4:	47 08       	beq	.+8 (0x3ee)

000003e6 <.LM36>:
/home/lib.c:56
      return (*s1 > *s2) ? 1 : -1;
 3e6:	44 20       	bcc	.+32 (0x408)
 3e8:	79 00 00 01 	mov.w	#0x1,r0
 3ec:	40 1e       	bra	.+30 (0x40c)

000003ee <.L21>:
/home/lib.c:57
    s1++;
 3ee:	0b 00       	adds	#1,er0

000003f0 <.LM38>:
/home/lib.c:58
    s2++;
 3f0:	0b 01       	adds	#1,er1

000003f2 <.L20>:
/home/lib.c:54
  while (*s1 || *s2) {
 3f2:	68 0b       	mov.b	@er0,r3l
 3f4:	68 1a       	mov.b	@er1,r2l
 3f6:	0c bb       	mov.b	r3l,r3l
 3f8:	46 e8       	bne	.-24 (0x3e2)

000003fa <.LM40>:
/home/lib.c:54 (discriminator 1)
 3fa:	79 00 00 01 	mov.w	#0x1,r0
 3fe:	0c aa       	mov.b	r2l,r2l
 400:	46 02       	bne	.+2 (0x404)
 402:	19 00       	sub.w	r0,r0

00000404 <.L24>:
 404:	17 90       	neg.w	r0
 406:	40 04       	bra	.+4 (0x40c)

00000408 <.L25>:
/home/lib.c:56
      return (*s1 > *s2) ? 1 : -1;
 408:	79 00 ff ff 	mov.w	#0xffff,r0

0000040c <.L19>:
/home/lib.c:61
  }
  return 0;
}
 40c:	01 00 6d 76 	mov.l	@er7+,er6
 410:	54 70       	rts	

00000412 <_strncmp>:
strncmp():
/home/lib.c:64

int strncmp(const char *s1, const char *s2, int len)
{
 412:	01 00 6d f6 	mov.l	er6,@-er7
 416:	0f f6       	mov.l	er7,er6
 418:	01 00 6d f4 	mov.l	er4,@-er7

0000041c <.LM44>:
/home/lib.c:65
  while ((*s1 || *s2) && (len > 0)) {
 41c:	40 14       	bra	.+20 (0x432)

0000041e <.L32>:
/home/lib.c:66
    if (*s1 != *s2)
 41e:	68 1c       	mov.b	@er1,r4l
 420:	1c bc       	cmp.b	r3l,r4l
 422:	47 08       	beq	.+8 (0x42c)

00000424 <.LM46>:
/home/lib.c:67
      return (*s1 > *s2) ? 1 : -1;
 424:	45 1e       	bcs	.+30 (0x444)
 426:	79 00 ff ff 	mov.w	#0xffff,r0
 42a:	40 2a       	bra	.+42 (0x456)

0000042c <.L28>:
/home/lib.c:68
    s1++;
 42c:	0b 00       	adds	#1,er0

0000042e <.LM48>:
/home/lib.c:69
    s2++;
 42e:	0b 01       	adds	#1,er1

00000430 <.LM49>:
/home/lib.c:70
    len--;
 430:	1b 02       	subs	#1,er2

00000432 <.L27>:
/home/lib.c:65
  while ((*s1 || *s2) && (len > 0)) {
 432:	68 0b       	mov.b	@er0,r3l
 434:	46 06       	bne	.+6 (0x43c)

00000436 <.LM51>:
/home/lib.c:65 (discriminator 2)
 436:	68 1b       	mov.b	@er1,r3l
 438:	46 10       	bne	.+16 (0x44a)
 43a:	40 04       	bra	.+4 (0x440)

0000043c <.L30>:
/home/lib.c:65 (discriminator 3)
 43c:	0d 22       	mov.w	r2,r2
 43e:	4e de       	bgt	.-34 (0x41e)

00000440 <.L35>:
/home/lib.c:72
  }
  return 0;
 440:	19 00       	sub.w	r0,r0
 442:	40 12       	bra	.+18 (0x456)

00000444 <.L34>:
/home/lib.c:67
      return (*s1 > *s2) ? 1 : -1;
 444:	79 00 00 01 	mov.w	#0x1,r0
 448:	40 0c       	bra	.+12 (0x456)

0000044a <.L31>:
/home/lib.c:65
  while ((*s1 || *s2) && (len > 0)) {
 44a:	79 00 00 01 	mov.w	#0x1,r0
 44e:	0d 22       	mov.w	r2,r2
 450:	4e 02       	bgt	.+2 (0x454)
 452:	19 00       	sub.w	r0,r0

00000454 <.L33>:
 454:	17 90       	neg.w	r0

00000456 <.L26>:
/home/lib.c:73
}
 456:	01 00 6d 74 	mov.l	@er7+,er4
 45a:	01 00 6d 76 	mov.l	@er7+,er6
 45e:	54 70       	rts	

00000460 <_putc>:
putc():
/home/lib.c:77

/* １文字送信 */
int putc(unsigned char c)
{
 460:	01 00 6d f6 	mov.l	er6,@-er7
 464:	0f f6       	mov.l	er7,er6
 466:	01 00 6d f4 	mov.l	er4,@-er7
 46a:	0c 8c       	mov.b	r0l,r4l

0000046c <.LM58>:
/home/lib.c:78
  if (c == '\n')
 46c:	a8 0a       	cmp.b	#0xa,r0l
 46e:	46 0a       	bne	.+10 (0x47a)

00000470 <.LM59>:
/home/lib.c:79
    serial_send_byte(SERIAL_DEFAULT_DEVICE, '\r');
 470:	f9 0d       	mov.b	#0xd,r1l
 472:	79 00 00 01 	mov.w	#0x1,r0
 476:	5e 00 05 ec 	jsr	@0x5ec:24

0000047a <.L37>:
/home/lib.c:80
  return serial_send_byte(SERIAL_DEFAULT_DEVICE, c);
 47a:	0c c9       	mov.b	r4l,r1l
 47c:	79 00 00 01 	mov.w	#0x1,r0
 480:	5e 00 05 ec 	jsr	@0x5ec:24

00000484 <.LM61>:
/home/lib.c:81
}
 484:	01 00 6d 74 	mov.l	@er7+,er4
 488:	01 00 6d 76 	mov.l	@er7+,er6
 48c:	54 70       	rts	

0000048e <_getc>:
getc():
/home/lib.c:85

/* １文字受信 */
unsigned char getc(void)
{
 48e:	01 00 6d f6 	mov.l	er6,@-er7
 492:	0f f6       	mov.l	er7,er6
 494:	01 00 6d f4 	mov.l	er4,@-er7

00000498 <.LM63>:
/home/lib.c:86
  unsigned char c = serial_recv_byte(SERIAL_DEFAULT_DEVICE);
 498:	79 00 00 01 	mov.w	#0x1,r0
 49c:	5e 00 06 42 	jsr	@0x642:24

000004a0 <.LVL60>:
 4a0:	0c 8c       	mov.b	r0l,r4l

000004a2 <.LM64>:
/home/lib.c:87
  c = (c == '\r') ? '\n' : c;
 4a2:	a8 0d       	cmp.b	#0xd,r0l
 4a4:	46 02       	bne	.+2 (0x4a8)
 4a6:	fc 0a       	mov.b	#0xa,r4l

000004a8 <.L39>:
/home/lib.c:88 (discriminator 4)
  putc(c); /* エコー・バック */
 4a8:	0c c8       	mov.b	r4l,r0l
 4aa:	5e 00 04 60 	jsr	@0x460:24

000004ae <.LM66>:
/home/lib.c:90
  return c;
}
 4ae:	0c c8       	mov.b	r4l,r0l
 4b0:	01 00 6d 74 	mov.l	@er7+,er4
 4b4:	01 00 6d 76 	mov.l	@er7+,er6
 4b8:	54 70       	rts	

000004ba <_puts>:
puts():
/home/lib.c:94

/* 文字列送信 */
int puts(unsigned char *str)
{
 4ba:	01 00 6d f6 	mov.l	er6,@-er7
 4be:	0f f6       	mov.l	er7,er6
 4c0:	01 00 6d f4 	mov.l	er4,@-er7
 4c4:	0f 84       	mov.l	er0,er4

000004c6 <.LM68>:
/home/lib.c:95
  while (*str)
 4c6:	40 06       	bra	.+6 (0x4ce)

000004c8 <.L42>:
/home/lib.c:96
    putc(*(str++));
 4c8:	0b 04       	adds	#1,er4
 4ca:	5e 00 04 60 	jsr	@0x460:24

000004ce <.L41>:
/home/lib.c:95
  while (*str)
 4ce:	68 48       	mov.b	@er4,r0l
 4d0:	46 f6       	bne	.-10 (0x4c8)

000004d2 <.LM71>:
/home/lib.c:98
  return 0;
}
 4d2:	19 00       	sub.w	r0,r0
 4d4:	01 00 6d 74 	mov.l	@er7+,er4
 4d8:	01 00 6d 76 	mov.l	@er7+,er6
 4dc:	54 70       	rts	

000004de <_gets>:
gets():
/home/lib.c:102

/* 文字列受信 */
int gets(unsigned char *buf)
{
 4de:	01 00 6d f6 	mov.l	er6,@-er7
 4e2:	0f f6       	mov.l	er7,er6
 4e4:	01 00 6d f4 	mov.l	er4,@-er7
 4e8:	01 00 6d f5 	mov.l	er5,@-er7
 4ec:	1b 97       	subs	#4,er7
 4ee:	0f 85       	mov.l	er0,er5

000004f0 <.LM73>:
 4f0:	0f 84       	mov.l	er0,er4

000004f2 <.L45>:
 4f2:	0d 42       	mov.w	r4,r2
 4f4:	19 52       	sub.w	r5,r2

000004f6 <.LM74>:
/home/lib.c:106
  int i = 0;
  unsigned char c;
  do {
    c = getc();
 4f6:	01 00 6f e2 	mov.l	er2,@(0xfff4:16,er6)
 4fa:	ff f4 
 4fc:	5e 00 04 8e 	jsr	@0x48e:24

00000500 <.LM75>:
/home/lib.c:107
    if (c == '\n')
 500:	01 00 6f 62 	mov.l	@(0xfff4:16,er6),er2
 504:	ff f4 
 506:	a8 0a       	cmp.b	#0xa,r0l
 508:	46 02       	bne	.+2 (0x50c)

0000050a <.LM76>:
/home/lib.c:108
      c = '\0';
 50a:	18 88       	sub.b	r0l,r0l

0000050c <.L44>:
/home/lib.c:109
    buf[i++] = c;
 50c:	68 c8       	mov.b	r0l,@er4
 50e:	0b 04       	adds	#1,er4

00000510 <.LM78>:
/home/lib.c:110
  } while (c);
 510:	46 e0       	bne	.-32 (0x4f2)

00000512 <.LM79>:
/home/lib.c:112
  return i - 1;
}
 512:	0d 20       	mov.w	r2,r0
 514:	0b 97       	adds	#4,er7
 516:	01 00 6d 75 	mov.l	@er7+,er5
 51a:	01 00 6d 74 	mov.l	@er7+,er4
 51e:	01 00 6d 76 	mov.l	@er7+,er6
 522:	54 70       	rts	

00000524 <_putxval>:
putxval():
/home/lib.c:116

/* 数値の16進表示 */
int putxval(unsigned long value, int column)
{
 524:	01 00 6d f6 	mov.l	er6,@-er7
 528:	0f f6       	mov.l	er7,er6
 52a:	01 00 6d f4 	mov.l	er4,@-er7
 52e:	7a 37 00 00 	sub.l	#0xc,er7
 532:	00 0c 

00000534 <.LM81>:
/home/lib.c:121
  char buf[9];
  char *p;

  p = buf + sizeof(buf) - 1;
  *(p--) = '\0';
 534:	18 aa       	sub.b	r2l,r2l
 536:	6e ea ff fb 	mov.b	r2l,@(0xfffb:16,er6)

0000053a <.LM82>:
/home/lib.c:123

  if (!value && !column)
 53a:	0f 80       	mov.l	er0,er0
 53c:	46 08       	bne	.+8 (0x546)

0000053e <.LM83>:
/home/lib.c:123 (discriminator 1)
 53e:	0d 11       	mov.w	r1,r1
 540:	46 04       	bne	.+4 (0x546)

00000542 <.LM84>:
/home/lib.c:124
    column++;
 542:	79 01 00 01 	mov.w	#0x1,r1

00000546 <.L48>:
 546:	0f e2       	mov.l	er6,er2
 548:	1b 92       	subs	#4,er2
 54a:	1b 82       	subs	#2,er2

0000054c <.LM85>:
/home/lib.c:127

  while (value || column) {
    *(p--) = "0123456789abcdef"[value & 0xf];
 54c:	7a 04 00 00 	mov.l	#0xb43,er4
 550:	0b 43 
 552:	40 1c       	bra	.+28 (0x570)

00000554 <.L51>:
 554:	1a b3       	sub.l	er3,er3
 556:	0c 8b       	mov.b	r0l,r3l
 558:	eb 0f       	and.b	#0xf,r3l
 55a:	0a c3       	add.l	er4,er3
 55c:	68 3b       	mov.b	@er3,r3l
 55e:	68 ab       	mov.b	r3l,@er2

00000560 <.LM86>:
/home/lib.c:128
    value >>= 4;
 560:	11 30       	shlr.l	er0
 562:	11 30       	shlr.l	er0
 564:	11 30       	shlr.l	er0
 566:	11 30       	shlr.l	er0

00000568 <.LM87>:
/home/lib.c:129
    if (column) column--;
 568:	0d 11       	mov.w	r1,r1
 56a:	47 02       	beq	.+2 (0x56e)

0000056c <.LM88>:
/home/lib.c:129 (discriminator 1)
 56c:	1b 01       	subs	#1,er1

0000056e <.L50>:
 56e:	1b 02       	subs	#1,er2

00000570 <.L49>:
/home/lib.c:126
  while (value || column) {
 570:	0f 80       	mov.l	er0,er0
 572:	46 e0       	bne	.-32 (0x554)

00000574 <.LM90>:
/home/lib.c:126 (discriminator 1)
 574:	0d 11       	mov.w	r1,r1
 576:	46 dc       	bne	.-36 (0x554)

00000578 <.LM91>:
/home/lib.c:132
  }

  puts(p + 1);
 578:	0f a0       	mov.l	er2,er0
 57a:	0b 00       	adds	#1,er0
 57c:	5e 00 04 ba 	jsr	@0x4ba:24

00000580 <.LM92>:
/home/lib.c:135

  return 0;
}
 580:	19 00       	sub.w	r0,r0
 582:	7a 17 00 00 	add.l	#0xc,er7
 586:	00 0c 
 588:	01 00 6d 74 	mov.l	@er7+,er4
 58c:	01 00 6d 76 	mov.l	@er7+,er6
 590:	54 70       	rts	

00000592 <_serial_init>:
serial_init():
/home/serial.c:59
  { H8_3069F_SCI2 }, 
};

/* デバイス初期化 */
int serial_init(int index)
{
 592:	01 00 6d f6 	mov.l	er6,@-er7
 596:	0f f6       	mov.l	er7,er6

00000598 <.LM2>:
/home/serial.c:60
  volatile struct h8_3069f_sci *sci = regs[index].sci;
 598:	17 f0       	exts.l	er0
 59a:	10 30       	shll.l	er0
 59c:	10 30       	shll.l	er0
 59e:	01 00 78 00 	mov.l	@(0xa84:32,er0),er2
 5a2:	6b 22 00 00 
 5a6:	0a 84 

000005a8 <.LM3>:
/home/serial.c:62

  sci->scr = 0;
 5a8:	18 bb       	sub.b	r3l,r3l
 5aa:	6e ab 00 02 	mov.b	r3l,@(0x2:16,er2)

000005ae <.LM4>:
/home/serial.c:63
  sci->smr = 0;
 5ae:	68 ab       	mov.b	r3l,@er2

000005b0 <.LM5>:
/home/serial.c:64
  sci->brr = 64; /* 20MHzのクロックから9600bpsを生成(25MHzの場合は80にする) */
 5b0:	f8 40       	mov.b	#0x40,r0l
 5b2:	6e a8 00 01 	mov.b	r0l,@(0x1:16,er2)

000005b6 <.LM6>:
/home/serial.c:65
  sci->scr = H8_3069F_SCI_SCR_RE | H8_3069F_SCI_SCR_TE; /* 送受信可能 */
 5b6:	f8 30       	mov.b	#0x30,r0l
 5b8:	6e a8 00 02 	mov.b	r0l,@(0x2:16,er2)

000005bc <.LM7>:
/home/serial.c:66
  sci->ssr = 0;
 5bc:	6e ab 00 04 	mov.b	r3l,@(0x4:16,er2)

000005c0 <.LM8>:
/home/serial.c:69

  return 0;
}
 5c0:	19 00       	sub.w	r0,r0
 5c2:	01 00 6d 76 	mov.l	@er7+,er6
 5c6:	54 70       	rts	

000005c8 <_serial_is_send_enable>:
serial_is_send_enable():
/home/serial.c:73

/* 送信可能か？ */
int serial_is_send_enable(int index)
{
 5c8:	01 00 6d f6 	mov.l	er6,@-er7
 5cc:	0f f6       	mov.l	er7,er6

000005ce <.LM10>:
/home/serial.c:74
  volatile struct h8_3069f_sci *sci = regs[index].sci;
 5ce:	17 f0       	exts.l	er0
 5d0:	10 30       	shll.l	er0
 5d2:	10 30       	shll.l	er0
 5d4:	01 00 78 00 	mov.l	@(0xa84:32,er0),er2
 5d8:	6b 22 00 00 
 5dc:	0a 84 

000005de <.LM11>:
/home/serial.c:75
  return (sci->ssr & H8_3069F_SCI_SSR_TDRE);
 5de:	6e 28 00 04 	mov.b	@(0x4:16,er2),r0l
 5e2:	e8 80       	and.b	#0x80,r0l

000005e4 <.LM12>:
/home/serial.c:76
}
 5e4:	17 50       	extu.w	r0
 5e6:	01 00 6d 76 	mov.l	@er7+,er6
 5ea:	54 70       	rts	

000005ec <_serial_send_byte>:
serial_send_byte():
/home/serial.c:80

/* １文字送信 */
int serial_send_byte(int index, unsigned char c)
{
 5ec:	01 00 6d f6 	mov.l	er6,@-er7
 5f0:	0f f6       	mov.l	er7,er6

000005f2 <.LM14>:
/home/serial.c:81
  volatile struct h8_3069f_sci *sci = regs[index].sci;
 5f2:	17 f0       	exts.l	er0
 5f4:	10 30       	shll.l	er0
 5f6:	10 30       	shll.l	er0
 5f8:	01 00 78 00 	mov.l	@(0xa84:32,er0),er2
 5fc:	6b 22 00 00 
 600:	0a 84 

00000602 <.L4>:
serial_is_send_enable():
/home/serial.c:75 (discriminator 1)
  return (sci->ssr & H8_3069F_SCI_SSR_TDRE);
 602:	6e 2b 00 04 	mov.b	@(0x4:16,er2),r3l

00000606 <.LM16>:
serial_send_byte():
/home/serial.c:84

  /* 送信可能になるまで待つ */
  while (!serial_is_send_enable(index))
 606:	4c fa       	bge	.-6 (0x602)

00000608 <.LM17>:
/home/serial.c:86
    ;
  sci->tdr = c;
 608:	6e a9 00 03 	mov.b	r1l,@(0x3:16,er2)

0000060c <.LM18>:
/home/serial.c:87
  sci->ssr &= ~H8_3069F_SCI_SSR_TDRE; /* 送信開始 */
 60c:	6e 2b 00 04 	mov.b	@(0x4:16,er2),r3l
 610:	72 7b       	bclr	#0x7,r3l
 612:	6e ab 00 04 	mov.b	r3l,@(0x4:16,er2)

00000616 <.LM19>:
/home/serial.c:90

  return 0;
}
 616:	19 00       	sub.w	r0,r0
 618:	01 00 6d 76 	mov.l	@er7+,er6
 61c:	54 70       	rts	

0000061e <_serial_is_recv_enable>:
serial_is_recv_enable():
/home/serial.c:94

/* 受信可能か？ */
int serial_is_recv_enable(int index)
{
 61e:	01 00 6d f6 	mov.l	er6,@-er7
 622:	0f f6       	mov.l	er7,er6

00000624 <.LM21>:
/home/serial.c:95
  volatile struct h8_3069f_sci *sci = regs[index].sci;
 624:	17 f0       	exts.l	er0
 626:	10 30       	shll.l	er0
 628:	10 30       	shll.l	er0
 62a:	01 00 78 00 	mov.l	@(0xa84:32,er0),er2
 62e:	6b 22 00 00 
 632:	0a 84 

00000634 <.LM22>:
/home/serial.c:96
  return (sci->ssr & H8_3069F_SCI_SSR_RDRF);
 634:	6e 28 00 04 	mov.b	@(0x4:16,er2),r0l
 638:	e8 40       	and.b	#0x40,r0l

0000063a <.LM23>:
/home/serial.c:97
}
 63a:	17 50       	extu.w	r0
 63c:	01 00 6d 76 	mov.l	@er7+,er6
 640:	54 70       	rts	

00000642 <_serial_recv_byte>:
serial_recv_byte():
/home/serial.c:101

/* １文字受信 */
unsigned char serial_recv_byte(int index)
{
 642:	01 00 6d f6 	mov.l	er6,@-er7
 646:	0f f6       	mov.l	er7,er6

00000648 <.LM25>:
/home/serial.c:102
  volatile struct h8_3069f_sci *sci = regs[index].sci;
 648:	17 f0       	exts.l	er0
 64a:	10 30       	shll.l	er0
 64c:	10 30       	shll.l	er0
 64e:	01 00 78 00 	mov.l	@(0xa84:32,er0),er2
 652:	6b 22 00 00 
 656:	0a 84 

00000658 <.L8>:
serial_is_recv_enable():
/home/serial.c:96 (discriminator 1)
  return (sci->ssr & H8_3069F_SCI_SSR_RDRF);
 658:	6e 2b 00 04 	mov.b	@(0x4:16,er2),r3l

0000065c <.LM27>:
serial_recv_byte():
/home/serial.c:106
  unsigned char c;

  /* 受信文字が来るまで待つ */
  while (!serial_is_recv_enable(index))
 65c:	73 6b       	btst	#0x6,r3l
 65e:	47 f8       	beq	.-8 (0x658)

00000660 <.LM28>:
/home/serial.c:108
    ;
  c = sci->rdr;
 660:	6e 28 00 05 	mov.b	@(0x5:16,er2),r0l

00000664 <.LM29>:
/home/serial.c:109
  sci->ssr &= ~H8_3069F_SCI_SSR_RDRF; /* 受信完了 */
 664:	6e 2b 00 04 	mov.b	@(0x4:16,er2),r3l
 668:	72 6b       	bclr	#0x6,r3l
 66a:	6e ab 00 04 	mov.b	r3l,@(0x4:16,er2)

0000066e <.LM30>:
/home/serial.c:112

  return c;
}
 66e:	01 00 6d 76 	mov.l	@er7+,er6
 672:	54 70       	rts	

00000674 <_xmodem_recv>:
xmodem_recv():
/home/xmodem.c:60

  return i;
}

long xmodem_recv(char *buf)
{
 674:	01 00 6d f6 	mov.l	er6,@-er7
 678:	0f f6       	mov.l	er7,er6
 67a:	01 00 6d f4 	mov.l	er4,@-er7
 67e:	01 00 6d f5 	mov.l	er5,@-er7
 682:	7a 37 00 00 	sub.l	#0x10,er7
 686:	00 10 
 688:	0f 85       	mov.l	er0,er5

0000068a <.LM2>:
/home/xmodem.c:63
  int r, receiving = 0;
  long size = 0;
  unsigned char c, block_number = 1;
 68a:	fa 01       	mov.b	#0x1,r2l
 68c:	6e ea ff f7 	mov.b	r2l,@(0xfff7:16,er6)

00000690 <.LM3>:
/home/xmodem.c:62
  long size = 0;
 690:	1a c4       	sub.l	er4,er4

00000692 <.LM4>:
/home/xmodem.c:61
  int r, receiving = 0;
 692:	19 22       	sub.w	r2,r2
 694:	6f e2 ff f4 	mov.w	r2,@(0xfff4:16,er6)

00000698 <.L2>:
/home/xmodem.c:66

  while (1) {
    if (!receiving)
 698:	6f 62 ff f4 	mov.w	@(0xfff4:16,er6),r2
 69c:	47 1c       	beq	.+28 (0x6ba)

0000069e <.L8>:
/home/xmodem.c:69
      xmodem_wait(); /* 受信開始されるまで送信要求を出す */

    c = serial_recv_byte(SERIAL_DEFAULT_DEVICE);
 69e:	79 00 00 01 	mov.w	#0x1,r0
 6a2:	5e 00 06 42 	jsr	@0x642:24

000006a6 <.LM7>:
/home/xmodem.c:71

    if (c == XMODEM_EOT) { /* 受信終了 */
 6a6:	a8 04       	cmp.b	#0x4,r0l
 6a8:	46 3e       	bne	.+62 (0x6e8)
 6aa:	40 2e       	bra	.+46 (0x6da)

000006ac <.L7>:
xmodem_wait():
/home/xmodem.c:22
    if (++cnt >= 2000000) {
 6ac:	1b 72       	dec.l	#1,er2
 6ae:	46 10       	bne	.+16 (0x6c0)

000006b0 <.LM9>:
/home/xmodem.c:24
      serial_send_byte(SERIAL_DEFAULT_DEVICE, XMODEM_NAK);
 6b0:	f9 15       	mov.b	#0x15,r1l
 6b2:	79 00 00 01 	mov.w	#0x1,r0
 6b6:	5e 00 05 ec 	jsr	@0x5ec:24

000006ba <.L3>:
xmodem_recv():
/home/xmodem.c:61
  int r, receiving = 0;
 6ba:	7a 02 00 1e 	mov.l	#0x1e8480,er2
 6be:	84 80 

000006c0 <.L6>:
xmodem_wait():
/home/xmodem.c:21
  while (!serial_is_recv_enable(SERIAL_DEFAULT_DEVICE)) {
 6c0:	79 00 00 01 	mov.w	#0x1,r0
 6c4:	01 00 6f e2 	mov.l	er2,@(0xfff0:16,er6)
 6c8:	ff f0 
 6ca:	5e 00 06 1e 	jsr	@0x61e:24

000006ce <.LVL9>:
 6ce:	01 00 6f 62 	mov.l	@(0xfff0:16,er6),er2
 6d2:	ff f0 
 6d4:	0d 00       	mov.w	r0,r0
 6d6:	47 d4       	beq	.-44 (0x6ac)
 6d8:	40 c4       	bra	.-60 (0x69e)

000006da <.L4>:
xmodem_recv():
/home/xmodem.c:72
      serial_send_byte(SERIAL_DEFAULT_DEVICE, XMODEM_ACK);
 6da:	f9 06       	mov.b	#0x6,r1l
 6dc:	79 00 00 01 	mov.w	#0x1,r0
 6e0:	5e 00 05 ec 	jsr	@0x5ec:24

000006e4 <.LM13>:
/home/xmodem.c:93
      if (receiving)
	return -1;
    }
  }

  return size;
 6e4:	58 00 00 c4 	bra	.+196 (0x7ac)

000006e8 <.L22>:
/home/xmodem.c:74
    } else if (c == XMODEM_CAN) { /* 受信中断 */
 6e8:	a8 18       	cmp.b	#0x18,r0l
 6ea:	58 70 00 ba 	beq	.+186 (0x7a8)

000006ee <.LM15>:
/home/xmodem.c:77
      receiving++;
 6ee:	6f 62 ff f4 	mov.w	@(0xfff4:16,er6),r2

000006f2 <.LM16>:
/home/xmodem.c:76
    } else if (c == XMODEM_SOH) { /* 受信開始 */
 6f2:	a8 01       	cmp.b	#0x1,r0l
 6f4:	58 60 00 aa 	bne	.+170 (0x7a2)

000006f8 <.LM17>:
/home/xmodem.c:77
      receiving++;
 6f8:	0b 02       	adds	#1,er2
 6fa:	6f e2 ff f4 	mov.w	r2,@(0xfff4:16,er6)

000006fe <.LBB10>:
xmodem_read_block():
/home/xmodem.c:37
  block_num = serial_recv_byte(SERIAL_DEFAULT_DEVICE);
 6fe:	79 00 00 01 	mov.w	#0x1,r0
 702:	5e 00 06 42 	jsr	@0x642:24

00000706 <.LM19>:
/home/xmodem.c:38
  if (block_num != block_number)
 706:	6e 6a ff f7 	mov.b	@(0xfff7:16,er6),r2l
 70a:	1c 8a       	cmp.b	r0l,r2l
 70c:	58 60 00 84 	bne	.+132 (0x794)

00000710 <.LM20>:
/home/xmodem.c:41
  block_num ^= serial_recv_byte(SERIAL_DEFAULT_DEVICE);
 710:	79 00 00 01 	mov.w	#0x1,r0
 714:	5e 00 06 42 	jsr	@0x642:24

00000718 <.LVL18>:
 718:	6e 6a ff f7 	mov.b	@(0xfff7:16,er6),r2l
 71c:	15 a8       	xor.b	r2l,r0l

0000071e <.LM21>:
/home/xmodem.c:42
  if (block_num != 0xff)
 71e:	a8 ff       	cmp.b	#0xff,r0l
 720:	46 72       	bne	.+114 (0x794)
 722:	0f d2       	mov.l	er5,er2
 724:	1a 91       	sub.l	er1,er1
 726:	89 80       	add.b	#0x80,r1l
 728:	0a d1       	add.l	er5,er1

0000072a <.LM22>:
/home/xmodem.c:45
  check_sum = 0;
 72a:	18 bb       	sub.b	r3l,r3l

0000072c <.L12>:
/home/xmodem.c:47
    c = serial_recv_byte(SERIAL_DEFAULT_DEVICE);
 72c:	79 00 00 01 	mov.w	#0x1,r0
 730:	01 00 6f e1 	mov.l	er1,@(0xffe8:16,er6)
 734:	ff e8 
 736:	01 00 6f e2 	mov.l	er2,@(0xfff0:16,er6)
 73a:	ff f0 
 73c:	01 00 6f e3 	mov.l	er3,@(0xffec:16,er6)
 740:	ff ec 
 742:	5e 00 06 42 	jsr	@0x642:24

00000746 <.LM24>:
/home/xmodem.c:48
    *(buf++) = c;
 746:	01 00 6f 62 	mov.l	@(0xfff0:16,er6),er2
 74a:	ff f0 
 74c:	68 a8       	mov.b	r0l,@er2

0000074e <.LM25>:
/home/xmodem.c:49
    check_sum += c;
 74e:	01 00 6f 63 	mov.l	@(0xffec:16,er6),er3
 752:	ff ec 
 754:	08 8b       	add.b	r0l,r3l
 756:	0b 02       	adds	#1,er2

00000758 <.LM26>:
/home/xmodem.c:46
  for (i = 0; i < XMODEM_BLOCK_SIZE; i++) {
 758:	01 00 6f 61 	mov.l	@(0xffe8:16,er6),er1
 75c:	ff e8 
 75e:	1f a1       	cmp.l	er2,er1
 760:	46 ca       	bne	.-54 (0x72c)

00000762 <.LM27>:
/home/xmodem.c:52
  check_sum ^= serial_recv_byte(SERIAL_DEFAULT_DEVICE);
 762:	79 00 00 01 	mov.w	#0x1,r0
 766:	01 00 6f e3 	mov.l	er3,@(0xffec:16,er6)
 76a:	ff ec 
 76c:	5e 00 06 42 	jsr	@0x642:24

00000770 <.LM28>:
/home/xmodem.c:53
  if (check_sum)
 770:	01 00 6f 63 	mov.l	@(0xffec:16,er6),er3
 774:	ff ec 
 776:	1c 8b       	cmp.b	r0l,r3l
 778:	46 1a       	bne	.+26 (0x794)

0000077a <.LM29>:
xmodem_recv():
/home/xmodem.c:82
	block_number++;
 77a:	6e 6a ff f7 	mov.b	@(0xfff7:16,er6),r2l
 77e:	8a 01       	add.b	#0x1,r2l
 780:	6e ea ff f7 	mov.b	r2l,@(0xfff7:16,er6)

00000784 <.LM30>:
/home/xmodem.c:83
	size += r;
 784:	7a 14 00 00 	add.l	#0x80,er4
 788:	00 80 

0000078a <.LM31>:
/home/xmodem.c:84
	buf  += r;
 78a:	7a 15 00 00 	add.l	#0x80,er5
 78e:	00 80 

00000790 <.LM32>:
/home/xmodem.c:85
	serial_send_byte(SERIAL_DEFAULT_DEVICE, XMODEM_ACK);
 790:	f9 06       	mov.b	#0x6,r1l
 792:	40 02       	bra	.+2 (0x796)

00000794 <.L11>:
/home/xmodem.c:80
	serial_send_byte(SERIAL_DEFAULT_DEVICE, XMODEM_NAK);
 794:	f9 15       	mov.b	#0x15,r1l

00000796 <.L23>:
 796:	79 00 00 01 	mov.w	#0x1,r0
 79a:	5e 00 05 ec 	jsr	@0x5ec:24

0000079e <.LVL34>:
 79e:	58 00 fe f6 	bra	.-266 (0x698)

000007a2 <.L10>:
/home/xmodem.c:88
      if (receiving)
 7a2:	0d 22       	mov.w	r2,r2
 7a4:	58 70 ff 12 	beq	.-238 (0x6ba)

000007a8 <.L14>:
/home/xmodem.c:75
      return -1;
 7a8:	1a c4       	sub.l	er4,er4
 7aa:	1b 04       	subs	#1,er4

000007ac <.L1>:
/home/xmodem.c:94
}
 7ac:	0f c0       	mov.l	er4,er0
 7ae:	7a 17 00 00 	add.l	#0x10,er7
 7b2:	00 10 
 7b4:	01 00 6d 75 	mov.l	@er7+,er5
 7b8:	01 00 6d 74 	mov.l	@er7+,er4
 7bc:	01 00 6d 76 	mov.l	@er7+,er6
 7c0:	54 70       	rts	

000007c2 <_elf_load>:
elf_load():
/home/elf.c:84

  return 0;
}

char *elf_load(char *buf)
{
 7c2:	01 00 6d f6 	mov.l	er6,@-er7
 7c6:	0f f6       	mov.l	er7,er6
 7c8:	01 00 6d f4 	mov.l	er4,@-er7
 7cc:	01 00 6d f5 	mov.l	er5,@-er7
 7d0:	1b 97       	subs	#4,er7
 7d2:	0f 85       	mov.l	er0,er5

000007d4 <.LBB6>:
elf_check():
/home/elf.c:44
  if (memcmp(header->id.magic, "\x7f" "ELF", 4))
 7d4:	1a a2       	sub.l	er2,er2
 7d6:	8a 04       	add.b	#0x4,r2l
 7d8:	7a 01 00 00 	mov.l	#0xb54,er1
 7dc:	0b 54 
 7de:	5e 00 03 68 	jsr	@0x368:24

000007e2 <.LVL2>:
 7e2:	0d 03       	mov.w	r0,r3
 7e4:	58 60 00 b0 	bne	.+176 (0x898)

000007e8 <.LM3>:
/home/elf.c:47
  if (header->id.class   != 1) return -1; /* ELF32 */
 7e8:	6e 5a 00 04 	mov.b	@(0x4:16,er5),r2l
 7ec:	aa 01       	cmp.b	#0x1,r2l
 7ee:	58 60 00 a6 	bne	.+166 (0x898)

000007f2 <.LM4>:
/home/elf.c:48
  if (header->id.format  != 2) return -1; /* Big endian */
 7f2:	6e 5a 00 05 	mov.b	@(0x5:16,er5),r2l
 7f6:	aa 02       	cmp.b	#0x2,r2l
 7f8:	58 60 00 9c 	bne	.+156 (0x898)

000007fc <.LM5>:
/home/elf.c:49
  if (header->id.version != 1) return -1; /* version 1 */
 7fc:	6e 5a 00 06 	mov.b	@(0x6:16,er5),r2l
 800:	aa 01       	cmp.b	#0x1,r2l
 802:	58 60 00 92 	bne	.+146 (0x898)

00000806 <.LM6>:
/home/elf.c:50
  if (header->type       != 2) return -1; /* Executable file */
 806:	6f 52 00 10 	mov.w	@(0x10:16,er5),r2
 80a:	1b d2       	dec.w	#2,r2
 80c:	58 60 00 88 	bne	.+136 (0x898)

00000810 <.LM7>:
/home/elf.c:51
  if (header->version    != 1) return -1; /* version 1 */
 810:	01 00 6f 52 	mov.l	@(0x14:16,er5),er2
 814:	00 14 
 816:	1b 72       	dec.l	#1,er2
 818:	58 60 00 7c 	bne	.+124 (0x898)

0000081c <.LM8>:
/home/elf.c:54
  if ((header->arch != 46) && (header->arch != 47)) return -1;
 81c:	6f 52 00 12 	mov.w	@(0x12:16,er5),r2
 820:	79 12 ff d2 	add.w	#0xffd2,r2
 824:	11 92       	shar.w	r2
 826:	47 60       	beq	.+96 (0x888)
 828:	40 6e       	bra	.+110 (0x898)

0000082a <.L5>:
elf_load_program():
/home/elf.c:69
       header->program_header_size * i);
 82a:	6f 54 00 2a 	mov.w	@(0x2a:16,er5),r4
 82e:	01 c0 52 34 	mulxs.w	r3,er4
 832:	17 f4       	exts.l	er4

00000834 <.LM10>:
/home/elf.c:68
      ((char *)header + header->program_header_offset +
 834:	01 00 6f 52 	mov.l	@(0x1c:16,er5),er2
 838:	00 1c 
 83a:	0a a4       	add.l	er2,er4

0000083c <.LM11>:
/home/elf.c:67
    phdr = (struct elf_program_header *)
 83c:	0a d4       	add.l	er5,er4

0000083e <.LM12>:
/home/elf.c:71
    if (phdr->type != 1) /* ロード可能なセグメントか？ */
 83e:	01 00 69 42 	mov.l	@er4,er2
 842:	1b 72       	dec.l	#1,er2
 844:	46 40       	bne	.+64 (0x886)

00000846 <.LM13>:
/home/elf.c:74
    memcpy((char *)phdr->physical_addr, (char *)header + phdr->offset,
 846:	01 00 6f 41 	mov.l	@(0x4:16,er4),er1
 84a:	00 04 
 84c:	01 00 6f 42 	mov.l	@(0x10:16,er4),er2
 850:	00 10 
 852:	0a d1       	add.l	er5,er1
 854:	01 00 6f 40 	mov.l	@(0xc:16,er4),er0
 858:	00 0c 
 85a:	01 00 6f e3 	mov.l	er3,@(0xfff4:16,er6)
 85e:	ff f4 
 860:	5e 00 03 32 	jsr	@0x332:24

00000864 <.LM14>:
/home/elf.c:77
	   phdr->memory_size - phdr->file_size);
 864:	01 00 6f 40 	mov.l	@(0x10:16,er4),er0
 868:	00 10 

0000086a <.LM15>:
/home/elf.c:76
    memset((char *)phdr->physical_addr + phdr->file_size, 0,
 86a:	01 00 6f 42 	mov.l	@(0x14:16,er4),er2
 86e:	00 14 
 870:	01 00 6f 44 	mov.l	@(0xc:16,er4),er4
 874:	00 0c 
 876:	1a 82       	sub.l	er0,er2
 878:	19 11       	sub.w	r1,r1
 87a:	0a c0       	add.l	er4,er0
 87c:	5e 00 03 0c 	jsr	@0x30c:24

00000880 <.LVL7>:
 880:	01 00 6f 63 	mov.l	@(0xfff4:16,er6),er3
 884:	ff f4 

00000886 <.L4>:
/home/elf.c:65
  for (i = 0; i < header->program_header_num; i++) {
 886:	0b 03       	adds	#1,er3

00000888 <.L3>:
 888:	6f 52 00 2c 	mov.w	@(0x2c:16,er5),r2
 88c:	1d 23       	cmp.w	r2,r3
 88e:	4d 9a       	blt	.-102 (0x82a)

00000890 <.LM17>:
elf_load():
/home/elf.c:93
    return NULL;

  if (elf_load_program(header) < 0) /* セグメント単位でのロード */
    return NULL;

  return (char *)header->entry_point;
 890:	01 00 6f 50 	mov.l	@(0x18:16,er5),er0
 894:	00 18 
 896:	40 02       	bra	.+2 (0x89a)

00000898 <.L12>:
/home/elf.c:88
    return NULL;
 898:	1a 80       	sub.l	er0,er0

0000089a <.L1>:
/home/elf.c:94
}
 89a:	0b 97       	adds	#4,er7
 89c:	01 00 6d 75 	mov.l	@er7+,er5
 8a0:	01 00 6d 74 	mov.l	@er7+,er4
 8a4:	01 00 6d 76 	mov.l	@er7+,er6
 8a8:	54 70       	rts	

Disassembly of section .text.startup:

000008aa <_main>:
main():
/home/main.c:60
  for (i = 0; i < 300000; i++)
    ;
}

int main(void)
{
 8aa:	01 00 6d f6 	mov.l	er6,@-er7
 8ae:	0f f6       	mov.l	er7,er6
 8b0:	7a 37 00 00 	sub.l	#0x8,er7
 8b4:	00 08 

000008b6 <.LM2>:
/home/main.c:68
  static unsigned char *loadbuf = NULL;
  char *entry_point;
  void (*f)(void);
  extern int buffer_start; /* リンカ・スクリプトで定義されているバッファ */

  INTR_DISABLE; /* 割込み無効にする */
 8b6:	04 c0       	orc	#0xc0,ccr

000008b8 <.LBB8>:
init():
/home/main.c:17
  memcpy(&data_start, &erodata, (long)&edata - (long)&data_start);
 8b8:	7a 02 00 ff 	mov.l	#0xfffc24,er2
 8bc:	fc 24 
 8be:	7a 32 00 ff 	sub.l	#0xfffc20,er2
 8c2:	fc 20 
 8c4:	7a 01 00 00 	mov.l	#0xb59,er1
 8c8:	0b 59 
 8ca:	7a 00 00 ff 	mov.l	#0xfffc20,er0
 8ce:	fc 20 
 8d0:	5e 00 03 32 	jsr	@0x332:24

000008d4 <.LM4>:
/home/main.c:18
  memset(&bss_start, 0, (long)&ebss - (long)&bss_start);
 8d4:	7a 02 00 ff 	mov.l	#0xfffc38,er2
 8d8:	fc 38 
 8da:	7a 32 00 ff 	sub.l	#0xfffc24,er2
 8de:	fc 24 
 8e0:	19 11       	sub.w	r1,r1
 8e2:	7a 00 00 ff 	mov.l	#0xfffc24,er0
 8e6:	fc 24 
 8e8:	5e 00 03 0c 	jsr	@0x30c:24

000008ec <.LM5>:
/home/main.c:21
  softvec_init();
 8ec:	5e 00 02 5c 	jsr	@0x25c:24

000008f0 <.LM6>:
/home/main.c:24
  serial_init(SERIAL_DEFAULT_DEVICE);
 8f0:	79 00 00 01 	mov.w	#0x1,r0
 8f4:	5e 00 05 92 	jsr	@0x592:24

000008f8 <.LM7>:
main():
/home/main.c:72

  init();

  puts("kzload (kozos boot loader) started.\n");
 8f8:	7a 00 00 00 	mov.l	#0xa90,er0
 8fc:	0a 90 

000008fe <.L17>:
 8fe:	5e 00 04 ba 	jsr	@0x4ba:24

00000902 <.L2>:
/home/main.c:75

  while (1) {
    puts("kzload> "); /* プロンプト表示 */
 902:	7a 00 00 00 	mov.l	#0xab5,er0
 906:	0a b5 
 908:	5e 00 04 ba 	jsr	@0x4ba:24

0000090c <.LM9>:
/home/main.c:76
    gets(buf); /* シリアルからのコマンド受信 */
 90c:	7a 00 00 ff 	mov.l	#0xfffc28,er0
 910:	fc 28 
 912:	5e 00 04 de 	jsr	@0x4de:24

00000916 <.LM10>:
/home/main.c:78

    if (!strcmp(buf, "load")) { /* XMODEMでのファイルのダウンロード */
 916:	7a 01 00 00 	mov.l	#0xabe,er1
 91a:	0a be 
 91c:	7a 00 00 ff 	mov.l	#0xfffc28,er0
 920:	fc 28 
 922:	5e 00 03 da 	jsr	@0x3da:24

00000926 <.LVL7>:
 926:	0d 00       	mov.w	r0,r0
 928:	46 4a       	bne	.+74 (0x974)

0000092a <.LM11>:
/home/main.c:79
      loadbuf = (char *)(&buffer_start);
 92a:	7a 02 00 ff 	mov.l	#0xffdf20,er2
 92e:	df 20 
 930:	01 00 6b a2 	mov.l	er2,@0xfffc24:32
 934:	00 ff fc 24 

00000938 <.LM12>:
/home/main.c:80
      size = xmodem_recv(loadbuf);
 938:	0f a0       	mov.l	er2,er0
 93a:	5e 00 06 74 	jsr	@0x674:24

0000093e <.LVL8>:
 93e:	01 00 6b a0 	mov.l	er0,@0xfffc20:32
 942:	00 ff fc 20 

00000946 <.LBB10>:
wait():
/home/main.c:55
  for (i = 0; i < 300000; i++)
 946:	1a a2       	sub.l	er2,er2
 948:	40 06       	bra	.+6 (0x950)

0000094a <.L5>:
 94a:	01 00 69 62 	mov.l	@er6,er2
 94e:	0b 02       	adds	#1,er2

00000950 <.L18>:
 950:	01 00 69 e2 	mov.l	er2,@er6
 954:	01 00 69 62 	mov.l	@er6,er2
 958:	7a 22 00 04 	cmp.l	#0x493df,er2
 95c:	93 df 
 95e:	4f ea       	ble	.-22 (0x94a)

00000960 <.LM14>:
main():
/home/main.c:82
      wait(); /* 転送アプリが終了し端末アプリに制御が戻るまで待ち合わせる */
      if (size < 0) {
 960:	0f 80       	mov.l	er0,er0
 962:	4c 08       	bge	.+8 (0x96c)

00000964 <.LM15>:
/home/main.c:83
	puts("\nXMODEM receive error!\n");
 964:	7a 00 00 00 	mov.l	#0xac3,er0
 968:	0a c3 
 96a:	40 92       	bra	.-110 (0x8fe)

0000096c <.L6>:
/home/main.c:85
      } else {
	puts("\nXMODEM receive succeeded.\n");
 96c:	7a 00 00 00 	mov.l	#0xadb,er0
 970:	0a db 
 972:	40 8a       	bra	.-118 (0x8fe)

00000974 <.L3>:
/home/main.c:87
      }
    } else if (!strcmp(buf, "dump")) { /* メモリの16進ダンプ出力 */
 974:	7a 01 00 00 	mov.l	#0xaf7,er1
 978:	0a f7 
 97a:	7a 00 00 ff 	mov.l	#0xfffc28,er0
 97e:	fc 28 
 980:	5e 00 03 da 	jsr	@0x3da:24

00000984 <.LVL9>:
 984:	0d 00       	mov.w	r0,r0
 986:	58 60 00 9e 	bne	.+158 (0xa28)

0000098a <.LM18>:
/home/main.c:88
      puts("size: ");
 98a:	7a 00 00 00 	mov.l	#0xafc,er0
 98e:	0a fc 
 990:	5e 00 04 ba 	jsr	@0x4ba:24

00000994 <.LM19>:
/home/main.c:89
      putxval(size, 0);
 994:	19 11       	sub.w	r1,r1
 996:	01 00 6b 20 	mov.l	@0xfffc20:32,er0
 99a:	00 ff fc 20 
 99e:	5e 00 05 24 	jsr	@0x524:24

000009a2 <.LM20>:
/home/main.c:90
      puts("\n");
 9a2:	7a 00 00 00 	mov.l	#0xad9,er0
 9a6:	0a d9 
 9a8:	5e 00 04 ba 	jsr	@0x4ba:24

000009ac <.LM21>:
/home/main.c:91
      dump(loadbuf, size);
 9ac:	01 00 6b 25 	mov.l	@0xfffc20:32,er5
 9b0:	00 ff fc 20 
 9b4:	01 00 6b 22 	mov.l	@0xfffc24:32,er2
 9b8:	00 ff fc 24 
 9bc:	01 00 6f e2 	mov.l	er2,@(0xfffc:16,er6)
 9c0:	ff fc 

000009c2 <.LBB12>:
dump():
/home/main.c:34
  if (size < 0) {
 9c2:	0f d5       	mov.l	er5,er5
 9c4:	4c 52       	bge	.+82 (0xa18)

000009c6 <.LM23>:
/home/main.c:35
    puts("no data.\n");
 9c6:	7a 00 00 00 	mov.l	#0xb03,er0
 9ca:	0b 03 
 9cc:	58 00 ff 2e 	bra	.-210 (0x8fe)

000009d0 <.L13>:
/home/main.c:39
    putxval(buf[i], 2);
 9d0:	79 01 00 02 	mov.w	#0x2,r1
 9d4:	01 00 6f 62 	mov.l	@(0xfffc:16,er6),er2
 9d8:	ff fc 
 9da:	0a c2       	add.l	er4,er2
 9dc:	1a 80       	sub.l	er0,er0
 9de:	68 28       	mov.b	@er2,r0l
 9e0:	5e 00 05 24 	jsr	@0x524:24

000009e4 <.LM25>:
/home/main.c:40
    if ((i & 0xf) == 15) {
 9e4:	1a a2       	sub.l	er2,er2
 9e6:	0c ca       	mov.b	r4l,r2l
 9e8:	ea 0f       	and.b	#0xf,r2l
 9ea:	7a 22 00 00 	cmp.l	#0xf,er2
 9ee:	00 0f 
 9f0:	46 08       	bne	.+8 (0x9fa)

000009f2 <.LM26>:
/home/main.c:41
      puts("\n");
 9f2:	7a 00 00 00 	mov.l	#0xad9,er0
 9f6:	0a d9 
 9f8:	40 16       	bra	.+22 (0xa10)

000009fa <.L10>:
/home/main.c:43
      if ((i & 0xf) == 7) puts(" ");
 9fa:	da 07       	xor.b	#0x7,r2l
 9fc:	0f a2       	mov.l	er2,er2
 9fe:	46 0a       	bne	.+10 (0xa0a)
 a00:	7a 00 00 00 	mov.l	#0xb01,er0
 a04:	0b 01 
 a06:	5e 00 04 ba 	jsr	@0x4ba:24

00000a0a <.L12>:
/home/main.c:44
      puts(" ");
 a0a:	7a 00 00 00 	mov.l	#0xb01,er0
 a0e:	0b 01 

00000a10 <.L19>:
 a10:	5e 00 04 ba 	jsr	@0x4ba:24

00000a14 <.LM29>:
/home/main.c:38
  for (i = 0; i < size; i++) {
 a14:	0b 04       	adds	#1,er4
 a16:	40 02       	bra	.+2 (0xa1a)

00000a18 <.L16>:
 a18:	1a c4       	sub.l	er4,er4

00000a1a <.L9>:
 a1a:	1f c5       	cmp.l	er4,er5
 a1c:	46 b2       	bne	.-78 (0x9d0)

00000a1e <.LM30>:
/home/main.c:47
  puts("\n");
 a1e:	7a 00 00 00 	mov.l	#0xad9,er0
 a22:	0a d9 
 a24:	58 00 fe d6 	bra	.-298 (0x8fe)

00000a28 <.L8>:
main():
/home/main.c:92
    } else if (!strcmp(buf, "run")) { /* ELF形式ファイルの実行 */
 a28:	7a 01 00 00 	mov.l	#0xb0d,er1
 a2c:	0b 0d 
 a2e:	7a 00 00 ff 	mov.l	#0xfffc28,er0
 a32:	fc 28 
 a34:	5e 00 03 da 	jsr	@0x3da:24

00000a38 <.LVL22>:
 a38:	0d 00       	mov.w	r0,r0
 a3a:	46 3c       	bne	.+60 (0xa78)

00000a3c <.LM32>:
/home/main.c:93
      entry_point = elf_load(loadbuf); /* メモリ上に展開(ロード) */
 a3c:	01 00 6b 20 	mov.l	@0xfffc24:32,er0
 a40:	00 ff fc 24 
 a44:	5e 00 07 c2 	jsr	@0x7c2:24

00000a48 <.LVL23>:
 a48:	0f 84       	mov.l	er0,er4

00000a4a <.LM33>:
/home/main.c:94
      if (!entry_point) {
 a4a:	46 0a       	bne	.+10 (0xa56)

00000a4c <.LM34>:
/home/main.c:95
	puts("run error!\n");
 a4c:	7a 00 00 00 	mov.l	#0xb11,er0
 a50:	0b 11 

00000a52 <.LVL25>:
 a52:	58 00 fe a8 	bra	.-344 (0x8fe)

00000a56 <.L15>:
/home/main.c:97
      } else {
	puts("starting from entry point: ");
 a56:	7a 00 00 00 	mov.l	#0xb1d,er0
 a5a:	0b 1d 

00000a5c <.LVL27>:
 a5c:	5e 00 04 ba 	jsr	@0x4ba:24

00000a60 <.LM36>:
/home/main.c:98
	putxval((unsigned long)entry_point, 0);
 a60:	19 11       	sub.w	r1,r1
 a62:	0f c0       	mov.l	er4,er0
 a64:	5e 00 05 24 	jsr	@0x524:24

00000a68 <.LM37>:
/home/main.c:99
	puts("\n");
 a68:	7a 00 00 00 	mov.l	#0xad9,er0
 a6c:	0a d9 
 a6e:	5e 00 04 ba 	jsr	@0x4ba:24

00000a72 <.LM38>:
/home/main.c:101
	f = (void (*)(void))entry_point;
	f(); /* ここで，ロードしたプログラムに処理を渡す */
 a72:	5d 40       	jsr	@er4

00000a74 <.LVL31>:
 a74:	58 00 fe 8a 	bra	.-374 (0x902)

00000a78 <.L14>:
/home/main.c:105
	/* ここには返ってこない */
      }
    } else {
      puts("unknown.\n");
 a78:	7a 00 00 00 	mov.l	#0xb39,er0
 a7c:	0b 39 
 a7e:	58 00 fe 7c 	bra	.-388 (0x8fe)

Disassembly of section .rodata:

00000a84 <_rodata_start>:
_rodata_start():
 a84:	00 ff       	.word	H'0,H'ff
 a86:	ff b0       	mov.b	#0xb0,r7l
 a88:	00 ff       	.word	H'0,H'ff
 a8a:	ff b8       	mov.b	#0xb8,r7l
 a8c:	00 ff       	.word	H'0,H'ff
 a8e:	ff c0       	mov.b	#0xc0,r7l
 a90:	6b 7a       	.word	H'6b,H'7a
 a92:	6c 6f       	mov.b	@er6+,r7l
 a94:	61 64       	bnot	r6h,r4h
 a96:	20 28       	mov.b	@0x28:8,r0h
 a98:	6b 6f       	.word	H'6b,H'6f
 a9a:	7a 6f 73 20 	and.l	#0x7320,er7
 a9e:	62 6f       	bclr	r6h,r7l
 aa0:	6f 74 20 6c 	mov.w	@(0x206c:16,er7),r4
 aa4:	6f 61 64 65 	mov.w	@(0x6465:16,er6),r1
 aa8:	72 29       	bclr	#0x2,r1l
 aaa:	20 73       	mov.b	@0x73:8,r0h
 aac:	74 61       	bor	#0x6,r1h
 aae:	72 74       	bclr	#0x7,r4h
 ab0:	65 64       	xor.w	r6,r4
 ab2:	2e 0a       	mov.b	@0xa:8,r6l
 ab4:	00 6b       	.word	H'0,H'6b
 ab6:	7a 6c 6f 61 	and.l	#0x6f61,er4
 aba:	64 3e       	or.w	r3,e6
 abc:	20 00       	mov.b	@0x0:8,r0h
 abe:	6c 6f       	mov.b	@er6+,r7l
 ac0:	61 64       	bnot	r6h,r4h
 ac2:	00 0a       	.word	H'0,H'a
 ac4:	58 4d       	.word	H'58,H'4d
 ac6:	4f 44       	ble	.+68 (0xb0c)
 ac8:	45 4d       	.word	H'45,H'4d
 aca:	20 72       	mov.b	@0x72:8,r0h
 acc:	65 63       	xor.w	r6,r3
 ace:	65 69       	xor.w	r6,e1
 ad0:	76 65       	band	#0x6,r5h
 ad2:	20 65       	mov.b	@0x65:8,r0h
 ad4:	72 72       	bclr	#0x7,r2h
 ad6:	6f 72 21 0a 	mov.w	@(0x210a:16,er7),r2
 ada:	00 0a       	.word	H'0,H'a
 adc:	58 4d       	.word	H'58,H'4d
 ade:	4f 44       	ble	.+68 (0xb24)
 ae0:	45 4d       	.word	H'45,H'4d
 ae2:	20 72       	mov.b	@0x72:8,r0h
 ae4:	65 63       	xor.w	r6,r3
 ae6:	65 69       	xor.w	r6,e1
 ae8:	76 65       	band	#0x6,r5h
 aea:	20 73       	mov.b	@0x73:8,r0h
 aec:	75 63       	bxor	#0x6,r3h
 aee:	63 65       	btst	r6h,r5h
 af0:	65 64       	xor.w	r6,r4
 af2:	65 64       	xor.w	r6,r4
 af4:	2e 0a       	mov.b	@0xa:8,r6l
 af6:	00 64       	.word	H'0,H'64
 af8:	75 6d       	bxor	#0x6,r5l
 afa:	70 00       	bset	#0x0,r0h
 afc:	73 69       	btst	#0x6,r1l
 afe:	7a 65 3a 20 	and.l	#0x3a20006e,er5
 b02:	00 6e 
 b04:	6f 20 64 61 	mov.w	@(0x6461:16,er2),r0
 b08:	74 61       	bor	#0x6,r1h
 b0a:	2e 0a       	mov.b	@0xa:8,r6l
 b0c:	00 72       	.word	H'0,H'72
 b0e:	75 6e       	bxor	#0x6,r6l
 b10:	00 72       	.word	H'0,H'72
 b12:	75 6e       	bxor	#0x6,r6l
 b14:	20 65       	mov.b	@0x65:8,r0h
 b16:	72 72       	bclr	#0x7,r2h
 b18:	6f 72 21 0a 	mov.w	@(0x210a:16,er7),r2
 b1c:	00 73       	.word	H'0,H'73
 b1e:	74 61       	bor	#0x6,r1h
 b20:	72 74       	bclr	#0x7,r4h
 b22:	69 6e       	mov.w	@er6,e6
 b24:	67 20       	bst	#0x2,r0h
 b26:	66 72       	and.w	r7,r2
 b28:	6f 6d 20 65 	mov.w	@(0x2065:16,er6),e5
 b2c:	6e 74 72 79 	mov.b	@(0x7279:16,er7),r4h
 b30:	20 70       	mov.b	@0x70:8,r0h
 b32:	6f 69 6e 74 	mov.w	@(0x6e74:16,er6),e1
 b36:	3a 20       	mov.b	r2l,@0x20:8
 b38:	00 75       	.word	H'0,H'75
 b3a:	6e 6b 6e 6f 	mov.b	@(0x6e6f:16,er6),r3l
 b3e:	77 6e       	bld	#0x6,r6l
 b40:	2e 0a       	mov.b	@0xa:8,r6l
 b42:	00 30       	.word	H'0,H'30
 b44:	31 32       	mov.b	r1h,@0x32:8
 b46:	33 34       	mov.b	r3h,@0x34:8
 b48:	35 36       	mov.b	r5h,@0x36:8
 b4a:	37 38       	mov.b	r7h,@0x38:8
 b4c:	39 61       	mov.b	r1l,@0x61:8
 b4e:	62 63       	bclr	r6h,r3h
 b50:	64 65       	or.w	r6,r5
 b52:	66 00       	and.w	r0,r0
 b54:	7f 45       	.word	H'7f,H'45
 b56:	4c 46       	bge	.+70 (0xb9e)
	...

Disassembly of section .data:

00fffc20 <_data_start>:
_data_start():
  fffc20:	ff ff       	mov.b	#0xff,r7l
  fffc22:	ff ff       	mov.b	#0xff,r7l

Disassembly of section .bss:

00fffc24 <_bss_start>:
_bss_start():
  fffc24:	00 00       	nop	
	...

00fffc28 <_buf___962>:
	...

Disassembly of section .debug_info:

00000000 <.Ldebug_info0>:
.Ldebug_info0():
       0:	00 00       	nop	
       2:	00 5b       	.word	H'0,H'5b
       4:	00 04       	.word	H'0,H'4
       6:	00 00       	nop	
       8:	00 00       	nop	
       a:	04 01       	orc	#0x1,ccr
       c:	00 00       	nop	
       e:	19 a5       	sub.w	e2,r5
      10:	0c 00       	mov.b	r0h,r0h
      12:	00 03       	.word	H'0,H'3
      14:	a1 00       	cmp.b	#0x0,r1h
      16:	00 00       	nop	
      18:	31 00       	mov.b	r1h,@0x0:8
      1a:	00 00       	nop	
      1c:	00 00       	nop	
      1e:	00 00       	nop	
      20:	00 02       	.word	H'0,H'2
      22:	01 08 00 00 	mov.l	@er0,@er0
      26:	03 fb       	.word	H'3,H'fb
      28:	02 02       	stc	ccr,r2h
      2a:	07 00       	ldc	#0x0,ccr
      2c:	00 18       	.word	H'0,H'18
      2e:	a8 02       	cmp.b	#0x2,r0l
      30:	04 07       	orc	#0x7,ccr
      32:	00 00       	nop	
      34:	02 77       	stc	sbr,er7
      36:	03 00       	ldc	r0h,ccr
      38:	00 00       	nop	
      3a:	46 00       	bne	.0 (0x3c)
      3c:	00 00       	nop	
      3e:	46 04       	bne	.+4 (0x44)
      40:	00 00       	nop	
      42:	00 2f       	.word	H'0,H'2f
      44:	3f 00       	mov.b	r7l,@0x0:8
      46:	05 04       	xorc	#0x4,ccr
      48:	00 00       	nop	
      4a:	00 4c       	.word	H'0,H'4c
      4c:	06 07       	andc	#0x7,ccr
      4e:	00 00       	nop	
      50:	06 9f       	andc	#0x9f,ccr
      52:	01 0d 00 00 	mov.l	#0x0,@er0
      56:	00 36       	.word	H'0,H'36
      58:	05 03       	xorc	#0x3,ccr
      5a:	00 00       	nop	
      5c:	00 00       	nop	
	...

0000005f <.Ldebug_info0>:
      5f:	00 00       	nop	
      61:	04 30       	orc	#0x30,ccr
      63:	00 04       	.word	H'0,H'4
      65:	00 00       	nop	
      67:	00 51       	.word	H'0,H'51
      69:	04 01       	orc	#0x1,ccr
      6b:	00 00       	nop	
      6d:	19 a5       	sub.w	e2,r5
      6f:	0c 00       	mov.b	r0h,r0h
      71:	00 1b       	.word	H'0,H'1b
      73:	32 00       	mov.b	r2h,@0x0:8
      75:	00 00       	nop	
      77:	31 00       	mov.b	r1h,@0x0:8
	...
      81:	00 00       	nop	
      83:	41 00       	brn	.0 (0x85)
      85:	00 06       	.word	H'0,H'6
      87:	10 02       	shll.b	r2h
      89:	01 08 00 00 	mov.l	@er0,@er0
      8d:	03 fb       	.word	H'3,H'fb
      8f:	02 02       	stc	ccr,r2h
      91:	07 00       	ldc	#0x0,ccr
      93:	00 18       	.word	H'0,H'18
      95:	a8 02       	cmp.b	#0x2,r0l
      97:	04 07       	orc	#0x7,ccr
      99:	00 00       	nop	
      9b:	02 77       	stc	sbr,er7
      9d:	03 00       	ldc	r0h,ccr
      9f:	00 1b       	.word	H'0,H'1b
      a1:	45 02       	bcs	.+2 (0xa5)
      a3:	05 00       	xorc	#0x0,ccr
      a5:	00 00       	nop	
      a7:	49 02       	bvs	.+2 (0xab)
      a9:	01 08 00 00 	mov.l	@er0,@er0
      ad:	05 5e       	xorc	#0x5e,ccr
      af:	02 02       	stc	ccr,r2h
      b1:	05 00       	xorc	#0x0,ccr
      b3:	00 06       	.word	H'0,H'6
      b5:	7c 04       	.word	H'7c,H'4
      b7:	00 00       	nop	
      b9:	1b d3       	dec.w	#2,r3
      bb:	01 3b       	.word	H'1,H'3b
      bd:	00 00       	nop	
      bf:	03 01       	ldc	r1h,ccr
      c1:	00 00       	nop	
      c3:	08 aa       	add.b	r2l,r2l
      c5:	00 00       	nop	
      c7:	01 d8       	.word	H'1,H'd8
      c9:	01 9c       	.word	H'1,H'9c
      cb:	00 00       	nop	
      cd:	03 01       	ldc	r1h,ccr
      cf:	05 62       	xorc	#0x62,ccr
      d1:	75 66       	bxor	#0x6,r6h
      d3:	00 01       	.word	H'0,H'1
      d5:	3d 00       	mov.b	r5l,@0x0:8
      d7:	00 03       	.word	H'0,H'3
      d9:	08 05       	add.b	r0h,r5h
      db:	03 00       	ldc	r0h,ccr
      dd:	ff fc       	mov.b	#0xfc,r7l
      df:	28 06       	mov.b	@0x6:8,r0l
      e1:	00 00       	nop	
      e3:	23 1f       	mov.b	@0x1f:8,r3h
      e5:	01 3e       	.word	H'1,H'3e
      e7:	00 00       	nop	
      e9:	03 18       	ldc	r0l,exr
      eb:	05 03       	xorc	#0x3,ccr
      ed:	00 ff       	.word	H'0,H'ff
      ef:	fc 20       	mov.b	#0x20,r4l
      f1:	06 00       	andc	#0x0,ccr
      f3:	00 1a       	.word	H'0,H'1a
      f5:	52 01       	mulxu.w	r0,er1
      f7:	3f 00       	mov.b	r7l,@0x0:8
      f9:	00 03       	.word	H'0,H'3
      fb:	24 05       	mov.b	@0x5:8,r4h
      fd:	03 00       	ldc	r0h,ccr
      ff:	ff fc       	mov.b	#0xfc,r7l
     101:	24 07       	mov.b	@0x7:8,r4h
     103:	00 00       	nop	
     105:	1b 39       	.word	H'1b,H'39
     107:	01 40       	.word	H'1,H'40
     109:	00 00       	nop	
     10b:	03 2a       	ldmac	er2,mach
     10d:	00 00       	nop	
     10f:	00 00       	nop	
     111:	08 66       	add.b	r6h,r6h
     113:	00 01       	.word	H'0,H'1
     115:	41 00       	brn	.0 (0x117)
     117:	00 03       	.word	H'0,H'3
     119:	31 00       	mov.b	r1h,@0x0:8
     11b:	00 00       	nop	
     11d:	34 03       	mov.b	r4h,@0x3:8
     11f:	00 00       	nop	
     121:	1b c1       	.word	H'1b,H'c1
     123:	01 42       	.word	H'1,H'42
     125:	00 00       	nop	
     127:	03 01       	ldc	r1h,ccr
     129:	09 00       	add.w	r0,r0
     12b:	00 03       	.word	H'0,H'3
     12d:	7d 00       	.word	H'7d,H'0
     12f:	00 08       	.word	H'0,H'8
     131:	b8 00       	subx	#0x0,r0l
     133:	00 00       	nop	
     135:	40 01       	bra/s	.0 (0x137)
     137:	46 00       	bne	.0 (0x139)
     139:	00 01       	.word	H'0,H'1
     13b:	35 0a       	mov.b	r5h,@0xa:8
     13d:	00 00       	nop	
     13f:	08 b8       	add.b	r3l,r0l
     141:	00 00       	nop	
     143:	00 40       	.word	H'0,H'40
     145:	0b 00       	adds	#1,er0
     147:	00 03       	.word	H'0,H'3
     149:	8d 0b       	add.b	#0xb,r5l
     14b:	00 00       	nop	
     14d:	03 98       	.word	H'3,H'98
     14f:	0b 00       	adds	#1,er0
     151:	00 03       	.word	H'0,H'3
     153:	a3 0b       	cmp.b	#0xb,r3h
     155:	00 00       	nop	
     157:	03 ae       	ldmac	er6,mach
     159:	0b 00       	adds	#1,er0
     15b:	00 03       	.word	H'0,H'3
     15d:	b9 0c       	subx	#0xc,r1l
     15f:	00 00       	nop	
     161:	08 d4       	add.b	r5l,r4h
     163:	00 00       	nop	
     165:	03 c5       	.word	H'3,H'c5
     167:	0d 00       	mov.w	r0,r0
     169:	00 08       	.word	H'0,H'8
     16b:	ec 00       	and.b	#0x0,r4l
     16d:	00 03       	.word	H'0,H'3
     16f:	d0 00       	xor.b	#0x0,r0h
     171:	00 01       	.word	H'0,H'1
     173:	1b 0e       	subs	#1,er6
     175:	01 51       	.word	H'1,H'51
     177:	01 30       	.word	H'1,H'30
     179:	00 0c       	.word	H'0,H'c
     17b:	00 00       	nop	
     17d:	08 f0       	add.b	r7l,r0h
     17f:	00 00       	nop	
     181:	03 db       	.word	H'3,H'db
     183:	0f 00       	daa	r0h
     185:	00 08       	.word	H'0,H'8
     187:	f8 00       	mov.b	#0x0,r0l
     189:	00 03       	.word	H'0,H'3
     18b:	e6 0e       	and.b	#0xe,r6h
     18d:	01 50       	.word	H'1,H'50
     18f:	01 31       	.word	H'1,H'31
     191:	00 00       	nop	
     193:	00 09       	.word	H'0,H'9
     195:	00 00       	nop	
     197:	03 37       	ldmac	er7,macl
     199:	00 00       	nop	
     19b:	09 46       	add.w	r4,r6
     19d:	00 00       	nop	
     19f:	00 1a       	.word	H'0,H'1a
     1a1:	01 51       	.word	H'1,H'51
     1a3:	00 00       	nop	
     1a5:	01 5b       	.word	H'1,H'5b
     1a7:	0a 00       	inc	r0h
     1a9:	00 09       	.word	H'0,H'9
     1ab:	46 00       	bne	.0 (0x1ad)
     1ad:	00 00       	nop	
     1af:	1a 10       	sub.w	#0x1,r0
     1b1:	00 00       	nop	
     1b3:	03 43       	.word	H'3,H'43
     1b5:	02 91       	.word	H'2,H'91
     1b7:	78 00       	.word	H'78,H'0
     1b9:	00 09       	.word	H'0,H'9
     1bb:	00 00       	nop	
     1bd:	03 4d       	.word	H'3,H'4d
     1bf:	00 00       	nop	
     1c1:	09 c2       	add.w	e4,r2
     1c3:	00 00       	nop	
     1c5:	00 66       	.word	H'0,H'66
     1c7:	01 5b       	.word	H'1,H'5b
     1c9:	00 00       	nop	
     1cb:	01 c7       	.word	H'1,H'c7
     1cd:	11 00       	shlr.b	r0h
     1cf:	00 03       	.word	H'0,H'3
     1d1:	68 00       	mov.b	@er0,r0h
     1d3:	00 00       	nop	
     1d5:	47 11       	.word	H'47,H'11
     1d7:	00 00       	nop	
     1d9:	03 5d       	.word	H'3,H'5d
     1db:	00 00       	nop	
     1dd:	00 5a       	.word	H'0,H'5a
     1df:	0a 00       	inc	r0h
     1e1:	00 09       	.word	H'0,H'9
     1e3:	c2 00       	or.b	#0x0,r2h
     1e5:	00 00       	nop	
     1e7:	66 12       	and.w	r1,r2
     1e9:	00 00       	nop	
     1eb:	03 73       	ldc	er3,sbr
     1ed:	00 00       	nop	
     1ef:	00 90       	.word	H'0,H'90
     1f1:	0d 00       	mov.w	r0,r0
     1f3:	00 09       	.word	H'0,H'9
     1f5:	e4 00       	and.b	#0x0,r4h
     1f7:	00 03       	.word	H'0,H'3
     1f9:	f1 00       	mov.b	#0x0,r1h
     1fb:	00 01       	.word	H'0,H'1
     1fd:	a5 0e       	cmp.b	#0xe,r5h
     1ff:	01 51       	.word	H'1,H'51
     201:	01 32       	.word	H'1,H'32
     203:	00 0d       	.word	H'0,H'd
     205:	00 00       	nop	
     207:	0a 0a       	inc	r2l
     209:	00 00       	nop	
     20b:	03 fc       	.word	H'3,H'fc
     20d:	00 00       	nop	
     20f:	01 bc       	.word	H'1,H'bc
     211:	0e 01       	addx	r0h,r1h
     213:	50 05       	mulxu.b	r0h,r5
     215:	03 00       	ldc	r0h,ccr
     217:	00 0b       	.word	H'0,H'b
     219:	01 00       	.word	H'1,H'0
     21b:	0c 00       	mov.b	r0h,r0h
     21d:	00 0a       	.word	H'0,H'a
     21f:	14 00       	or.b	r0h,r0h
     221:	00 03       	.word	H'0,H'3
     223:	fc 00       	mov.b	#0x0,r4l
     225:	00 0c       	.word	H'0,H'c
     227:	00 00       	nop	
     229:	09 02       	add.w	r0,r2
     22b:	00 00       	nop	
     22d:	03 fc       	.word	H'3,H'fc
     22f:	0d 00       	mov.w	r0,r0
     231:	00 09       	.word	H'0,H'9
     233:	0c 00       	mov.b	r0h,r0h
     235:	00 03       	.word	H'0,H'3
     237:	fc 00       	mov.b	#0x0,r4l
     239:	00 01       	.word	H'0,H'1
     23b:	e7 0e       	and.b	#0xe,r7h
     23d:	01 50       	.word	H'1,H'50
     23f:	05 03       	xorc	#0x3,ccr
     241:	00 00       	nop	
     243:	0a b5       	add.l	er3,er5
     245:	00 0d       	.word	H'0,H'd
     247:	00 00       	nop	
     249:	09 16       	add.w	r1,r6
     24b:	00 00       	nop	
     24d:	04 07       	orc	#0x7,ccr
     24f:	00 00       	nop	
     251:	01 fe       	.word	H'1,H'fe
     253:	0e 01       	addx	r0h,r1h
     255:	50 05       	mulxu.b	r0h,r5
     257:	03 00       	ldc	r0h,ccr
     259:	ff fc       	mov.b	#0xfc,r7l
     25b:	28 00       	mov.b	@0x0:8,r0l
softvec_init():
/home/interrupt.c:7
{
     25d:	0d 00       	mov.w	r0,r0
     25f:	00 09       	.word	H'0,H'9
     261:	26 00       	mov.b	@0x0:8,r6h
softvec_setintr():
/home/interrupt.c:17
  SOFTVECS[type] = handler;
     263:	00 04       	.word	H'0,H'4
     265:	12 00       	rotxl.b	r0h
     267:	00 02       	.word	H'0,H'2
     269:	1e 0e       	subx	r0h,r6l
     26b:	01 50       	.word	H'1,H'50
     26d:	05 03       	xorc	#0x3,ccr
     26f:	00 ff       	.word	H'0,H'ff
     271:	fc 28       	mov.b	#0x28,r4l
     273:	0e 01       	addx	r0h,r1h
     275:	51 05       	divxu.b	r0h,r5
     277:	03 00       	ldc	r0h,ccr
     279:	00 0a       	.word	H'0,H'a
     27b:	be 00       	subx	#0x0,r6l
     27d:	0c 00       	mov.b	r0h,r0h
     27f:	00 09       	.word	H'0,H'9
     281:	3e 00       	mov.b	r6l,@0x0:8
     283:	00 04       	.word	H'0,H'4
     285:	1d 0d       	cmp.w	r0,e5
     287:	00 00       	nop	
     289:	09 84       	add.w	e0,r4
     28b:	00 00       	nop	
     28d:	04 12       	orc	#0x12,ccr
     28f:	00 00       	nop	
     291:	02 47       	.word	H'2,H'47
     293:	0e 01       	addx	r0h,r1h
     295:	50 05       	mulxu.b	r0h,r5
     297:	03 00       	ldc	r0h,ccr
     299:	ff fc       	mov.b	#0xfc,r7l
     29b:	28 0e       	mov.b	@0xe:8,r0l
     29d:	01 51       	.word	H'1,H'51
     29f:	05 03       	xorc	#0x3,ccr
     2a1:	00 00       	nop	
     2a3:	0a f7       	add.l	er7,er7
     2a5:	00 0d       	.word	H'0,H'd
     2a7:	00 00       	nop	
     2a9:	09 94       	add.w	e1,r4
     2ab:	00 00       	nop	
     2ad:	03 fc       	.word	H'3,H'fc
     2af:	00 00       	nop	
     2b1:	02 5e       	.word	H'2,H'5e
     2b3:	0e 01       	addx	r0h,r1h
     2b5:	50 05       	mulxu.b	r0h,r5
     2b7:	03 00       	ldc	r0h,ccr
     2b9:	00 0a       	.word	H'0,H'a
     2bb:	fc 00       	mov.b	#0x0,r4l
     2bd:	0d 00       	mov.w	r0,r0
     2bf:	00 09       	.word	H'0,H'9
     2c1:	a2 00       	cmp.b	#0x0,r2h
     2c3:	00 03       	.word	H'0,H'3
softvec_init():
/home/interrupt.c:12
}
     2c5:	f1 00       	mov.b	#0x0,r1h
     2c7:	00 02       	.word	H'0,H'2
     2c9:	71 0e       	bnot	#0x0,r6l
     2cb:	01 51       	.word	H'1,H'51
softvec_setintr():
/home/interrupt.c:16
{
     2cd:	01 30       	.word	H'1,H'30
     2cf:	00 0d       	.word	H'0,H'd
     2d1:	00 00       	nop	
/home/interrupt.c:17
  SOFTVECS[type] = handler;
     2d3:	09 ac       	add.w	e2,e4
     2d5:	00 00       	nop	
     2d7:	03 fc       	.word	H'3,H'fc
     2d9:	00 00       	nop	
     2db:	02 88       	.word	H'2,H'88
     2dd:	0e 01       	addx	r0h,r1h
     2df:	50 05       	mulxu.b	r0h,r5
     2e1:	03 00       	ldc	r0h,ccr
/home/interrupt.c:19
}
     2e3:	00 0a       	.word	H'0,H'a
     2e5:	d9 00       	xor.b	#0x0,r1l
     2e7:	0d 00       	mov.w	r0,r0
     2e9:	00 0a       	.word	H'0,H'a
interrupt():
/home/interrupt.c:26
{
     2eb:	38 00       	mov.b	r0l,@0x0:8
     2ed:	00 04       	.word	H'0,H'4
     2ef:	12 00       	rotxl.b	r0h
/home/interrupt.c:27
  softvec_handler_t handler = SOFTVECS[type];
     2f1:	00 02       	.word	H'0,H'2
     2f3:	a8 0e       	cmp.b	#0xe,r0l
     2f5:	01 50       	.word	H'1,H'50
     2f7:	05 03       	xorc	#0x3,ccr
     2f9:	00 ff       	.word	H'0,H'ff
     2fb:	fc 28       	mov.b	#0x28,r4l
     2fd:	0e 01       	addx	r0h,r1h
     2ff:	51 05       	divxu.b	r0h,r5
     301:	03 00       	ldc	r0h,ccr
/home/interrupt.c:28
  if (handler)
     303:	00 0b       	.word	H'0,H'b
/home/interrupt.c:29
    handler(type, sp);
     305:	0d 00       	mov.w	r0,r0
/home/interrupt.c:30
}
     307:	0c 00       	mov.b	r0h,r0h
     309:	00 0a       	.word	H'0,H'a
     30b:	48 00       	bvc	.0 (0x30d)
memset():
/home/lib.c:6
{
     30d:	00 04       	.word	H'0,H'4
     30f:	28 0d       	mov.b	@0xd:8,r0l
     311:	00 00       	nop	
     313:	0a 60       	add.w	#0x6,r0
     315:	00 00       	nop	
/home/lib.c:8
  for (p = b; len > 0; len--)
     317:	03 fc       	.word	H'3,H'fc
     319:	00 00       	nop	
     31b:	02 c8       	.word	H'2,H'c8
/home/lib.c:9 (discriminator 3)
    *(p++) = c;
     31d:	0e 01       	addx	r0h,r1h
     31f:	50 05       	mulxu.b	r0h,r5
     321:	03 00       	ldc	r0h,ccr
     323:	00 0b       	.word	H'0,H'b
/home/lib.c:8 (discriminator 1)
  for (p = b; len > 0; len--)
     325:	1d 00       	cmp.w	r0,r0
     327:	0d 00       	mov.w	r0,r0
/home/lib.c:11
}
     329:	00 0a       	.word	H'0,H'a
     32b:	68 00       	mov.b	@er0,r0h
     32d:	00 03       	.word	H'0,H'3
     32f:	f1 00       	mov.b	#0x0,r1h
     331:	00 02       	.word	H'0,H'2
memcpy():
/home/lib.c:14
{
     333:	e1 0e       	and.b	#0xe,r1h
     335:	01 50       	.word	H'1,H'50
     337:	02 74       	stc	sbr,er4
     339:	00 0e       	.word	H'0,H'e
     33b:	01 51       	.word	H'1,H'51
     33d:	01 30       	.word	H'1,H'30
     33f:	00 0d       	.word	H'0,H'd
/home/lib.c:17
  for (; len > 0; len--)
     341:	00 00       	nop	
     343:	0a 72       	add.w	#0x7,r2
/home/lib.c:18 (discriminator 2)
    *(d++) = *(s++);
     345:	00 00       	nop	
     347:	03 fc       	.word	H'3,H'fc
     349:	00 00       	nop	
     34b:	02 f8       	.word	H'2,H'f8
     34d:	0e 01       	addx	r0h,r1h
     34f:	50 05       	mulxu.b	r0h,r5
     351:	03 00       	ldc	r0h,ccr
     353:	00 0a       	.word	H'0,H'a
     355:	d9 00       	xor.b	#0x0,r1l
/home/lib.c:17 (discriminator 1)
  for (; len > 0; len--)
     357:	13 00       	rotxr.b	r0h
     359:	00 0a       	.word	H'0,H'a
/home/lib.c:20
}
     35b:	74 02       	bor	#0x0,r2h
     35d:	74 00       	bor	#0x0,r0h
     35f:	00 14       	.word	H'0,H'14
     361:	02 05       	stc	ccr,r5h
     363:	69 6e       	mov.w	@er6,e6
     365:	74 00       	bor	#0x0,r0h
     367:	15 00       	xor.b	r0h,r0h
memcmp():
/home/lib.c:23
{
     369:	00 00       	nop	
     36b:	49 00       	bvs	.0 (0x36d)
     36d:	00 03       	.word	H'0,H'3
     36f:	18 16       	sub.b	r1h,r6h
     371:	00 00       	nop	
     373:	00 37       	.word	H'0,H'37
/home/lib.c:25
  for (; len > 0; len--) {
     375:	0f 00       	daa	r0h
/home/lib.c:26
    if (*p1 != *p2)
     377:	02 04       	stc	ccr,r4h
     379:	05 00       	xorc	#0x0,ccr
     37b:	00 05       	.word	H'0,H'5
     37d:	e4 17       	and.b	#0x17,r4h
/home/lib.c:27
      return (*p1 > *p2) ? 1 : -1;
     37f:	00 00       	nop	
     381:	03 18       	ldc	r0l,exr
     383:	18 04       	sub.b	r0h,r4h
     385:	00 00       	nop	
/home/lib.c:28
    p1++;
     387:	00 29       	.word	H'0,H'29
/home/lib.c:29
    p2++;
     389:	18 04       	sub.b	r0h,r4h
     38b:	00 00       	nop	
     38d:	00 49       	.word	H'0,H'49
/home/lib.c:25 (discriminator 1)
  for (; len > 0; len--) {
     38f:	19 18       	sub.w	r1,e0
     391:	04 00       	orc	#0x0,ccr
/home/lib.c:31
  return 0;
     393:	00 03       	.word	H'0,H'3
     395:	30 1a       	mov.b	r0h,@0x1a:8
/home/lib.c:27
      return (*p1 > *p2) ? 1 : -1;
     397:	00 00       	nop	
     399:	21 32       	mov.b	@0x32:8,r1h
/home/lib.c:32
}
     39b:	01 34       	.word	H'1,H'34
     39d:	01 00       	.word	H'1,H'0
     39f:	00 03       	.word	H'0,H'3
     3a1:	4d 1b       	.word	H'4d,H'1b
     3a3:	69 00       	mov.w	@er0,r0
strlen():
/home/lib.c:35
{
     3a5:	01 36       	.word	H'1,H'36
     3a7:	00 00       	nop	
     3a9:	03 1f       	ldc	r7l,exr
/home/lib.c:37
  for (len = 0; *s; s++, len++)
     3ab:	00 1c       	.word	H'0,H'1c
     3ad:	00 00       	nop	
/home/lib.c:37 (discriminator 3)
     3af:	1b a8       	.word	H'1b,H'a8
     3b1:	01 1e       	.word	H'1,H'1e
/home/lib.c:37 (discriminator 1)
     3b3:	00 00       	nop	
     3b5:	03 01       	ldc	r1h,ccr
/home/lib.c:40
}
     3b7:	01 00       	.word	H'1,H'0
     3b9:	00 03       	.word	H'0,H'3
     3bb:	7d 1d       	.word	H'7d,H'1d
     3bd:	62 75       	bclr	r7h,r5h
strcpy():
/home/lib.c:43
{
     3bf:	66 00       	and.w	r0,r0
     3c1:	01 1e       	.word	H'1,H'1e
     3c3:	00 00       	nop	
     3c5:	03 2a       	ldmac	er2,mach
/home/lib.c:46
    *dst = *src;
     3c7:	1e 00       	subx	r0h,r0h
     3c9:	00 23       	.word	H'0,H'23
/home/lib.c:47
    if (!*src) break;
     3cb:	1f 01       	das	r1h
     3cd:	1e 00       	subx	r0h,r0h
/home/lib.c:45
  for (;; dst++, src++) {
     3cf:	00 03       	.word	H'0,H'3
     3d1:	18 1b       	sub.b	r1h,r3l
/home/lib.c:46
    *dst = *src;
     3d3:	69 00       	mov.w	@er0,r0
/home/lib.c:50
}
     3d5:	01 20       	.word	H'1,H'20
     3d7:	00 00       	nop	
     3d9:	03 18       	ldc	r0l,exr
strcmp():
/home/lib.c:53
{
     3db:	00 1c       	.word	H'0,H'1c
     3dd:	00 00       	nop	
     3df:	1a ca       	sub.l	#0x4,er2
/home/lib.c:54
  while (*s1 || *s2) {
     3e1:	01 08 00 00 	mov.l	@er0,@er0
/home/lib.c:55
    if (*s1 != *s2)
     3e5:	03 01       	ldc	r1h,ccr
/home/lib.c:56
      return (*s1 > *s2) ? 1 : -1;
     3e7:	01 00       	.word	H'1,H'0
     3e9:	00 03       	.word	H'0,H'3
     3eb:	c5 03       	or.b	#0x3,r5h
     3ed:	00 00       	nop	
/home/lib.c:57
    s1++;
     3ef:	1a 2b       	sub.w	#0x2,e3
/home/lib.c:58
    s2++;
     3f1:	01 0b       	.word	H'1,H'b
/home/lib.c:54
  while (*s1 || *s2) {
     3f3:	00 00       	nop	
     3f5:	03 01       	ldc	r1h,ccr
     3f7:	03 00       	ldc	r0h,ccr
     3f9:	00 1a       	.word	H'0,H'1a
/home/lib.c:54 (discriminator 1)
     3fb:	a6 01       	cmp.b	#0x1,r6h
     3fd:	0b 00       	adds	#1,er0
     3ff:	00 03       	.word	H'0,H'3
     401:	01 03       	.word	H'1,H'3
     403:	00 00       	nop	
     405:	1b ad       	.word	H'1b,H'ad
     407:	01 0b       	.word	H'1,H'b
/home/lib.c:56
      return (*s1 > *s2) ? 1 : -1;
     409:	00 00       	nop	
     40b:	03 01       	ldc	r1h,ccr
/home/lib.c:61
}
     40d:	03 00       	ldc	r0h,ccr
     40f:	00 1a       	.word	H'0,H'1a
     411:	48 01       	.word	H'48,H'1
strncmp():
/home/lib.c:64
{
     413:	0b 00       	adds	#1,er0
     415:	00 03       	.word	H'0,H'3
     417:	01 03       	.word	H'1,H'3
     419:	00 00       	nop	
     41b:	1b d8       	dec.w	#2,e0
/home/lib.c:65
  while ((*s1 || *s2) && (len > 0)) {
     41d:	01 0b       	.word	H'1,H'b
/home/lib.c:66
    if (*s1 != *s2)
     41f:	00 00       	nop	
     421:	03 01       	ldc	r1h,ccr
     423:	00 1f       	.word	H'0,H'1f
/home/lib.c:67
      return (*s1 > *s2) ? 1 : -1;
     425:	00 00       	nop	
     427:	1a 71       	sub.w	#0x7,r1
     429:	00 00       	nop	
     42b:	1a 71       	sub.w	#0x7,r1
/home/lib.c:68
    s1++;
     42d:	03 05       	ldc	r5h,ccr
/home/lib.c:69
    s2++;
     42f:	1f 00       	das	r0h
/home/lib.c:70
    len--;
     431:	00 1b       	.word	H'0,H'1b
/home/lib.c:65
  while ((*s1 || *s2) && (len > 0)) {
     433:	b3 00       	subx	#0x0,r3h
     435:	00 1b       	.word	H'0,H'1b
/home/lib.c:65 (discriminator 2)
     437:	b3 03       	subx	#0x3,r3h
     439:	04 1f       	orc	#0x1f,ccr
     43b:	00 00       	nop	
/home/lib.c:65 (discriminator 3)
     43d:	1a c2       	sub.l	er4,er2
     43f:	00 00       	nop	
/home/lib.c:72
  return 0;
     441:	1a c2       	sub.l	er4,er2
     443:	02 12       	stc	exr,r2h
/home/lib.c:67
      return (*s1 > *s2) ? 1 : -1;
     445:	1f 00       	das	r0h
     447:	00 1a       	.word	H'0,H'1a
     449:	1f 00       	das	r0h
/home/lib.c:65
  while ((*s1 || *s2) && (len > 0)) {
     44b:	00 1a       	.word	H'0,H'1a
     44d:	1f 04       	das	r4h
     44f:	04 1f       	orc	#0x1f,ccr
     451:	00 00       	nop	
     453:	1a ba       	sub.l	#0x3,er2
     455:	00 00       	nop	
/home/lib.c:73
}
     457:	1a ba       	sub.l	#0x3,er2
     459:	03 10       	ldc	r0h,exr
     45b:	1f 00       	das	r0h
     45d:	00 1b       	.word	H'0,H'1b
     45f:	ce 00       	or.b	#0x0,r6l
putc():
/home/lib.c:77
{
     461:	00 1b       	.word	H'0,H'1b
     463:	ce 03       	or.b	#0x3,r6l
     465:	0e 1f       	addx	r1h,r7l
     467:	00 00       	nop	
     469:	1a 6c       	sub.w	#0x6,e4
     46b:	00 00       	nop	
/home/lib.c:78
  if (c == '\n')
     46d:	1a 6c       	sub.w	#0x6,e4
     46f:	03 0f       	ldc	r7l,ccr
/home/lib.c:79
    serial_send_byte(SERIAL_DEFAULT_DEVICE, '\r');
     471:	1f 00       	das	r0h
     473:	00 1b       	.word	H'0,H'1b
     475:	ba 00       	subx	#0x0,r2l
     477:	00 1b       	.word	H'0,H'1b
     479:	ba 03       	subx	#0x3,r2l
/home/lib.c:80
  return serial_send_byte(SERIAL_DEFAULT_DEVICE, c);
     47b:	09 1f       	add.w	r1,e7
     47d:	00 00       	nop	
     47f:	1a cf       	sub.l	#0x4,er7
     481:	00 00       	nop	
     483:	1a cf       	sub.l	#0x4,er7
/home/lib.c:81
}
     485:	05 04       	xorc	#0x4,ccr
     487:	1f 00       	das	r0h
     489:	00 1a       	.word	H'0,H'1a
     48b:	b1 00       	subx	#0x0,r1h
     48d:	00 1a       	.word	H'0,H'1a
getc():
/home/lib.c:85
{
     48f:	b1 06       	subx	#0x6,r1h
     491:	04 00       	orc	#0x0,ccr

00000493 <.Ldebug_info0>:
.Ldebug_info0():
     493:	00 00       	nop	
getc():
/home/lib.c:85
     495:	01 6f       	.word	H'1,H'6f
     497:	00 04       	.word	H'0,H'4
/home/lib.c:86
  unsigned char c = serial_recv_byte(SERIAL_DEFAULT_DEVICE);
     499:	00 00       	nop	
     49b:	01 e3       	.word	H'1,H'e3
     49d:	04 01       	orc	#0x1,ccr
     49f:	00 00       	nop	
     4a1:	19 a5       	sub.w	e2,r5
/home/lib.c:87
  c = (c == '\r') ? '\n' : c;
     4a3:	0c 00       	mov.b	r0h,r0h
     4a5:	00 1c       	.word	H'0,H'1c
     4a7:	10 00       	shll.b	r0h
/home/lib.c:88 (discriminator 4)
  putc(c); /* エコー・バック */
     4a9:	00 00       	nop	
     4ab:	31 00       	mov.b	r1h,@0x0:8
     4ad:	00 02       	.word	H'0,H'2
/home/lib.c:90
}
     4af:	5c 00 00 00 	bsr	.0 (0x4b3)
     4b3:	b0 00       	subx	#0x0,r0h
     4b5:	00 01       	.word	H'0,H'1
     4b7:	f7 00       	mov.b	#0x0,r7h
     4b9:	00 06       	.word	H'0,H'6
puts():
/home/lib.c:94
{
     4bb:	7d 02       	.word	H'7d,H'2
     4bd:	01 08 00 00 	mov.l	@er0,@er0
     4c1:	03 fb       	.word	H'3,H'fb
     4c3:	02 02       	stc	ccr,r2h
     4c5:	07 00       	ldc	#0x0,ccr
/home/lib.c:95
  while (*str)
     4c7:	00 18       	.word	H'0,H'18
/home/lib.c:96
    putc(*(str++));
     4c9:	a8 02       	cmp.b	#0x2,r0l
     4cb:	04 07       	orc	#0x7,ccr
     4cd:	00 00       	nop	
/home/lib.c:95
  while (*str)
     4cf:	02 77       	stc	sbr,er7
     4d1:	03 00       	ldc	r0h,ccr
/home/lib.c:98
}
     4d3:	00 1b       	.word	H'0,H'1b
     4d5:	45 02       	bcs	.+2 (0x4d9)
     4d7:	05 00       	xorc	#0x0,ccr
     4d9:	00 00       	nop	
     4db:	49 02       	bvs	.+2 (0x4df)
     4dd:	01 08 00 00 	mov.l	@er0,@er0
gets():
/home/lib.c:102
{
     4e1:	05 5e       	xorc	#0x5e,ccr
     4e3:	04 00       	orc	#0x0,ccr
     4e5:	00 1c       	.word	H'0,H'1c
     4e7:	51 02       	divxu.b	r0h,r2
     4e9:	08 00       	add.b	r0h,r0h
     4eb:	00 00       	nop	
     4ed:	5b 02       	jmp	@@2 (0x2)
     4ef:	02 05       	stc	ccr,r5h
     4f1:	00 00       	nop	
     4f3:	06 7c       	andc	#0x7c,ccr
     4f5:	04 00       	orc	#0x0,ccr
/home/lib.c:106
    c = getc();
     4f7:	00 1c       	.word	H'0,H'1c
     4f9:	a1 02       	cmp.b	#0x2,r1h
     4fb:	0a 00       	inc	r0h
     4fd:	00 00       	nop	
     4ff:	6d 05       	mov.w	@er0+,r5
/home/lib.c:107
    if (c == '\n')
     501:	04 00       	orc	#0x0,ccr
     503:	00 00       	nop	
     505:	73 06       	btst	#0x0,r6h
     507:	00 00       	nop	
     509:	00 83       	.word	H'0,H'83
/home/lib.c:108
      c = '\0';
     50b:	07 00       	ldc	#0x0,ccr
/home/lib.c:109
    buf[i++] = c;
     50d:	00 00       	nop	
     50f:	50 07       	mulxu.b	r0h,r7
/home/lib.c:110
  } while (c);
     511:	00 00       	nop	
/home/lib.c:112
}
     513:	00 37       	.word	H'0,H'37
     515:	00 08       	.word	H'0,H'8
     517:	00 00       	nop	
     519:	1c 1c       	cmp.b	r1h,r4l
     51b:	01 19       	.word	H'1,H'19
     51d:	00 00       	nop	
     51f:	02 ea       	.word	H'2,H'ea
     521:	00 00       	nop	
     523:	00 22       	.word	H'0,H'22
putxval():
/home/lib.c:116
{
     525:	01 9c       	.word	H'1,H'9c
     527:	00 00       	nop	
     529:	00 d9       	.word	H'0,H'd9
     52b:	09 00       	add.w	r0,r0
     52d:	00 1c       	.word	H'0,H'1c
     52f:	0b 01       	adds	#1,er1
     531:	19 00       	sub.w	r0,r0
     533:	00 00       	nop	
/home/lib.c:121
  *(p--) = '\0';
     535:	50 00       	mulxu.b	r0h,r0
     537:	00 00       	nop	
     539:	ae 0a       	cmp.b	#0xa,r6l
/home/lib.c:123
  if (!value && !column)
     53b:	73 70       	btst	#0x7,r0h
     53d:	00 01       	.word	H'0,H'1
/home/lib.c:123 (discriminator 1)
     53f:	19 00       	sub.w	r0,r0
     541:	00 00       	nop	
/home/lib.c:124
    column++;
     543:	37 00       	mov.b	r7h,@0x0:8
     545:	00 00       	nop	
     547:	cf 0b       	or.b	#0xb,r7l
     549:	00 00       	nop	
     54b:	1c 49       	cmp.b	r4h,r1l
/home/lib.c:127
    *(p--) = "0123456789abcdef"[value & 0xf];
     54d:	01 1b       	.word	H'1,H'1b
     54f:	00 00       	nop	
     551:	00 62       	.word	H'0,H'62
     553:	00 00       	nop	
     555:	00 f0       	.word	H'0,H'f0
     557:	0c 00       	mov.b	r0h,r0h
     559:	00 03       	.word	H'0,H'3
     55b:	06 0d       	andc	#0xd,ccr
     55d:	01 50       	.word	H'1,H'50
     55f:	03 f3       	.word	H'3,H'f3
/home/lib.c:128
    value >>= 4;
     561:	01 50       	.word	H'1,H'50
     563:	0d 01       	mov.w	r0,r1
     565:	51 03       	divxu.b	r0h,r3
     567:	f3 01       	mov.b	#0x1,r3h
/home/lib.c:129
    if (column) column--;
     569:	51 00       	divxu.b	r0h,r0
     56b:	00 0e       	.word	H'0,H'e
/home/lib.c:129 (discriminator 1)
     56d:	00 00       	nop	
     56f:	1c 26       	cmp.b	r2h,r6h
/home/lib.c:126
  while (value || column) {
     571:	01 0f       	.word	H'1,H'f
     573:	00 00       	nop	
/home/lib.c:126 (discriminator 1)
     575:	01 00       	.word	H'1,H'0
     577:	01 00       	.word	H'1,H'0
/home/lib.c:132
  puts(p + 1);
     579:	00 01       	.word	H'0,H'1
     57b:	00 0f       	.word	H'0,H'f
     57d:	00 00       	nop	
     57f:	1c 0b       	cmp.b	r0h,r3l
/home/lib.c:135
}
     581:	01 0f       	.word	H'1,H'f
     583:	00 00       	nop	
     585:	00 50       	.word	H'0,H'50
     587:	0f 00       	daa	r0h
     589:	00 1c       	.word	H'0,H'1c
     58b:	49 01       	.word	H'49,H'1
     58d:	0f 00       	daa	r0h
     58f:	00 00       	nop	
     591:	62 00       	bclr	r0h,r0h
serial_init():
/home/serial.c:59
{
     593:	10 02       	shll.b	r2h
     595:	05 69       	xorc	#0x69,ccr
     597:	6e 74 00 11 	mov.b	@(0x11:16,er7),r4h
/home/serial.c:60
  volatile struct h8_3069f_sci *sci = regs[index].sci;
     59b:	00 00       	nop	
     59d:	1a c2       	sub.l	er4,er2
     59f:	01 06       	.word	H'1,H'6
     5a1:	00 00       	nop	
     5a3:	01 00       	.word	H'1,H'0
     5a5:	00 00       	nop	
     5a7:	02 5c       	.word	H'2,H'5c
/home/serial.c:62
  sci->scr = 0;
     5a9:	00 00       	nop	
     5ab:	00 70       	.word	H'0,H'70
     5ad:	01 9c       	.word	H'1,H'9c
/home/serial.c:63
  sci->smr = 0;
     5af:	00 00       	nop	
/home/serial.c:64
  sci->brr = 64; /* 20MHzのクロックから9600bpsを生成(25MHzの場合は80にする) */
     5b1:	01 52       	.word	H'1,H'52
     5b3:	0b 00       	adds	#1,er0
     5b5:	00 1c       	.word	H'0,H'1c
/home/serial.c:65
  sci->scr = H8_3069F_SCI_SCR_RE | H8_3069F_SCI_SCR_TE; /* 送受信可能 */
     5b7:	0b 01       	adds	#1,er1
     5b9:	08 00       	add.b	r0h,r0h
     5bb:	00 01       	.word	H'0,H'1
/home/serial.c:66
  sci->ssr = 0;
     5bd:	00 00       	nop	
     5bf:	00 01       	.word	H'0,H'1
/home/serial.c:69
}
     5c1:	03 12       	ldc	r2h,exr
     5c3:	00 00       	nop	
     5c5:	00 d9       	.word	H'0,H'd9
     5c7:	00 00       	nop	
serial_is_send_enable():
/home/serial.c:73
{
     5c9:	02 62       	stc	vbr,er2
     5cb:	00 00       	nop	
     5cd:	00 62       	.word	H'0,H'62
/home/serial.c:74
  volatile struct h8_3069f_sci *sci = regs[index].sci;
     5cf:	01 0a       	.word	H'1,H'a
     5d1:	13 00       	rotxr.b	r0h
     5d3:	00 00       	nop	
     5d5:	f4 00       	mov.b	#0x0,r4h
     5d7:	00 01       	.word	H'0,H'1
     5d9:	47 13       	.word	H'47,H'13
     5db:	00 00       	nop	
     5dd:	00 e9       	.word	H'0,H'e9
/home/serial.c:75
  return (sci->ssr & H8_3069F_SCI_SSR_TDRE);
     5df:	00 00       	nop	
     5e1:	01 5b       	.word	H'1,H'5b
     5e3:	00 00       	nop	
/home/serial.c:76
}
     5e5:	14 00       	or.b	r0h,r0h
     5e7:	00 00       	nop	
     5e9:	d9 00       	xor.b	#0x0,r1l
     5eb:	00 02       	.word	H'0,H'2
serial_send_byte():
/home/serial.c:80
{
     5ed:	cc 00       	or.b	#0x0,r4l
     5ef:	00 00       	nop	
     5f1:	1e 01       	subx	r0h,r1h
/home/serial.c:81
  volatile struct h8_3069f_sci *sci = regs[index].sci;
     5f3:	9c 13       	addx	#0x13,r4l
     5f5:	00 00       	nop	
     5f7:	00 e9       	.word	H'0,H'e9
     5f9:	00 00       	nop	
     5fb:	01 93       	.word	H'1,H'93
     5fd:	15 00       	xor.b	r0h,r0h
     5ff:	00 00       	nop	
     601:	f4 01       	mov.b	#0x1,r4h
serial_is_send_enable():
/home/serial.c:75 (discriminator 1)
  return (sci->ssr & H8_3069F_SCI_SSR_TDRE);
     603:	51 00       	divxu.b	r0h,r0
	...

00000606 <.Ldebug_info0>:
.Ldebug_info0():
     606:	00 00       	nop	
serial_send_byte():
/home/serial.c:86
  sci->tdr = c;
     608:	04 0a       	orc	#0xa,ccr
     60a:	00 04       	.word	H'0,H'4
/home/serial.c:87
  sci->ssr &= ~H8_3069F_SCI_SSR_TDRE; /* 送信開始 */
     60c:	00 00       	nop	
     60e:	03 12       	ldc	r2h,exr
     610:	04 01       	orc	#0x1,ccr
     612:	00 00       	nop	
     614:	19 a5       	sub.w	e2,r5
/home/serial.c:90
}
     616:	0c 00       	mov.b	r0h,r0h
     618:	00 1c       	.word	H'0,H'1c
     61a:	b3 00       	subx	#0x0,r3h
     61c:	00 00       	nop	
serial_is_recv_enable():
/home/serial.c:94
{
     61e:	31 00       	mov.b	r1h,@0x0:8
     620:	00 03       	.word	H'0,H'3
     622:	0c 00       	mov.b	r0h,r0h
/home/serial.c:95
  volatile struct h8_3069f_sci *sci = regs[index].sci;
     624:	00 02       	.word	H'0,H'2
     626:	86 00       	add.b	#0x0,r6h
     628:	00 02       	.word	H'0,H'2
     62a:	ac 00       	cmp.b	#0x0,r4l
     62c:	00 06       	.word	H'0,H'6
     62e:	d1 02       	xor.b	#0x2,r1h
     630:	01 08 00 00 	mov.l	@er0,@er0
/home/serial.c:96
  return (sci->ssr & H8_3069F_SCI_SSR_RDRF);
     634:	03 fb       	.word	H'3,H'fb
     636:	02 02       	stc	ccr,r2h
     638:	07 00       	ldc	#0x0,ccr
/home/serial.c:97
}
     63a:	00 18       	.word	H'0,H'18
     63c:	a8 02       	cmp.b	#0x2,r0l
     63e:	04 07       	orc	#0x7,ccr
     640:	00 00       	nop	
serial_recv_byte():
/home/serial.c:101
{
     642:	02 77       	stc	sbr,er7
     644:	03 00       	ldc	r0h,ccr
     646:	00 1a       	.word	H'0,H'1a
/home/serial.c:102
  volatile struct h8_3069f_sci *sci = regs[index].sci;
     648:	ba 01       	subx	#0x1,r2l
     64a:	73 00       	btst	#0x0,r0h
     64c:	00 00       	nop	
     64e:	9a 00       	addx	#0x0,r2l
     650:	00 05       	.word	H'0,H'5
     652:	24 00       	mov.b	@0x0:8,r4h
     654:	00 00       	nop	
     656:	6e 01 9c 00 	mov.b	@(0x9c00:16,er0),r1h
serial_is_recv_enable():
/home/serial.c:96 (discriminator 1)
  return (sci->ssr & H8_3069F_SCI_SSR_RDRF);
     65a:	00 00       	nop	
serial_recv_byte():
/home/serial.c:106
  while (!serial_is_recv_enable(index))
     65c:	9a 04       	addx	#0x4,r2l
     65e:	00 00       	nop	
/home/serial.c:108
  c = sci->rdr;
     660:	1c b9       	cmp.b	r3l,r1l
     662:	01 73       	.word	H'1,H'73
/home/serial.c:109
  sci->ssr &= ~H8_3069F_SCI_SSR_RDRF; /* 受信完了 */
     664:	00 00       	nop	
     666:	00 37       	.word	H'0,H'37
     668:	00 00       	nop	
     66a:	01 b4       	.word	H'1,H'b4
     66c:	04 00       	orc	#0x0,ccr
/home/serial.c:112
}
     66e:	00 1d       	.word	H'0,H'1d
     670:	08 01       	add.b	r0h,r1h
     672:	73 00       	btst	#0x0,r0h
xmodem_recv():
/home/xmodem.c:60
{
     674:	00 00       	nop	
     676:	9a 00       	addx	#0x0,r2l
     678:	00 01       	.word	H'0,H'1
     67a:	de 05       	xor.b	#0x5,r6l
     67c:	62 75       	bclr	r7h,r5h
     67e:	66 00       	and.w	r0,r0
     680:	01 75       	.word	H'1,H'75
     682:	00 00       	nop	
     684:	00 a1       	.word	H'0,H'a1
     686:	02 91       	.word	H'2,H'91
     688:	6b 06 70 00 	mov.w	@0x7000:16,r6
/home/xmodem.c:63
  unsigned char c, block_number = 1;
     68c:	01 76       	.word	H'1,H'76
     68e:	00 00       	nop	
/home/xmodem.c:62
  long size = 0;
     690:	00 bd       	.word	H'0,H'bd
/home/xmodem.c:61
  int r, receiving = 0;
     692:	00 00       	nop	
     694:	02 0a       	stc	ccr,r2l
     696:	07 00       	ldc	#0x0,ccr
/home/xmodem.c:66
    if (!receiving)
     698:	00 05       	.word	H'0,H'5
     69a:	80 00       	add.b	#0x0,r0h
     69c:	00 01       	.word	H'0,H'1
/home/xmodem.c:69
    c = serial_recv_byte(SERIAL_DEFAULT_DEVICE);
     69e:	15 00       	xor.b	r0h,r0h
     6a0:	08 02       	add.b	r0h,r2h
     6a2:	05 69       	xorc	#0x69,ccr
     6a4:	6e 74 00 09 	mov.b	@(0x9:16,er7),r4h
/home/xmodem.c:71
    if (c == XMODEM_EOT) { /* 受信終了 */
     6a8:	00 00       	nop	
     6aa:	00 b1       	.word	H'0,H'b1
xmodem_wait():
/home/xmodem.c:22
    if (++cnt >= 2000000) {
     6ac:	00 00       	nop	
     6ae:	00 b1       	.word	H'0,H'b1
/home/xmodem.c:24
      serial_send_byte(SERIAL_DEFAULT_DEVICE, XMODEM_NAK);
     6b0:	0a 00       	inc	r0h
     6b2:	00 00       	nop	
     6b4:	37 08       	mov.b	r7h,@0x8:8
     6b6:	00 02       	.word	H'0,H'2
     6b8:	01 08 00 00 	mov.l	@er0,@er0
xmodem_recv():
/home/xmodem.c:61
  int r, receiving = 0;
     6bc:	05 5e       	xorc	#0x5e,ccr
     6be:	0b 00       	adds	#1,er0
xmodem_wait():
/home/xmodem.c:21
  while (!serial_is_recv_enable(SERIAL_DEFAULT_DEVICE)) {
     6c0:	00 00       	nop	
     6c2:	b1 0c       	subx	#0xc,r1h
     6c4:	04 00       	orc	#0x0,ccr
     6c6:	00 00       	nop	
     6c8:	b1 03       	subx	#0x3,r1h
     6ca:	00 00       	nop	
     6cc:	1a 6c       	sub.w	#0x6,e4
     6ce:	01 65       	.word	H'1,H'65
     6d0:	00 00       	nop	
     6d2:	00 9a       	.word	H'0,H'9a
     6d4:	00 00       	nop	
     6d6:	04 de       	orc	#0xde,ccr
     6d8:	00 00       	nop	
xmodem_recv():
/home/xmodem.c:72
      serial_send_byte(SERIAL_DEFAULT_DEVICE, XMODEM_ACK);
     6da:	00 46       	.word	H'0,H'46
     6dc:	01 9c       	.word	H'1,H'9c
     6de:	00 00       	nop	
     6e0:	01 0f       	.word	H'1,H'f
     6e2:	0d 62       	mov.w	r6,r2
/home/xmodem.c:93
  return size;
     6e4:	75 66       	bxor	#0x6,r6h
     6e6:	00 01       	.word	H'0,H'1
/home/xmodem.c:74
    } else if (c == XMODEM_CAN) { /* 受信中断 */
     6e8:	65 00       	xor.w	r0,r0
     6ea:	00 01       	.word	H'0,H'1
     6ec:	0f 00       	daa	r0h
/home/xmodem.c:77
      receiving++;
     6ee:	00 02       	.word	H'0,H'2
     6f0:	37 06       	mov.b	r7h,@0x6:8
/home/xmodem.c:76
    } else if (c == XMODEM_SOH) { /* 受信開始 */
     6f2:	69 00       	mov.w	@er0,r0
     6f4:	01 67       	.word	H'1,H'67
     6f6:	00 00       	nop	
/home/xmodem.c:77
      receiving++;
     6f8:	00 9a       	.word	H'0,H'9a
     6fa:	00 00       	nop	
     6fc:	02 63       	stc	vbr,er3
xmodem_read_block():
/home/xmodem.c:37
  block_num = serial_recv_byte(SERIAL_DEFAULT_DEVICE);
     6fe:	06 63       	andc	#0x63,ccr
     700:	00 01       	.word	H'0,H'1
     702:	68 00       	mov.b	@er0,r0h
     704:	00 00       	nop	
/home/xmodem.c:38
  if (block_num != block_number)
     706:	29 00       	mov.b	@0x0:8,r1l
     708:	00 02       	.word	H'0,H'2
     70a:	db 07       	xor.b	#0x7,r3l
     70c:	00 00       	nop	
     70e:	05 00       	xorc	#0x0,ccr
/home/xmodem.c:41
  block_num ^= serial_recv_byte(SERIAL_DEFAULT_DEVICE);
     710:	00 00       	nop	
     712:	01 47       	.word	H'1,H'47
     714:	00 0c       	.word	H'0,H'c
     716:	04 00       	orc	#0x0,ccr
     718:	00 00       	nop	
     71a:	29 03       	mov.b	@0x3:8,r1l
     71c:	00 00       	nop	
/home/xmodem.c:42
  if (block_num != 0xff)
     71e:	1b ce       	.word	H'1b,H'ce
     720:	01 5d 00 00 	mov.w	#0x0,@er0
     724:	00 9a       	.word	H'0,H'9a
     726:	00 00       	nop	
     728:	04 ba       	orc	#0xba,ccr
/home/xmodem.c:45
  check_sum = 0;
     72a:	00 00       	nop	
/home/xmodem.c:47
    c = serial_recv_byte(SERIAL_DEFAULT_DEVICE);
     72c:	00 24       	.word	H'0,H'24
     72e:	01 9c       	.word	H'1,H'9c
     730:	00 00       	nop	
     732:	01 47       	.word	H'1,H'47
     734:	0d 73       	mov.w	r7,r3
     736:	74 72       	bor	#0x7,r2h
     738:	00 01       	.word	H'0,H'1
     73a:	5d 00       	jsr	@er0
     73c:	00 01       	.word	H'0,H'1
     73e:	0f 00       	daa	r0h
     740:	00 02       	.word	H'0,H'2
     742:	fa 07       	mov.b	#0x7,r2l
     744:	00 00       	nop	
/home/xmodem.c:48
    *(buf++) = c;
     746:	04 ce       	orc	#0xce,ccr
     748:	00 00       	nop	
     74a:	01 91       	.word	H'1,H'91
     74c:	00 03       	.word	H'0,H'3
/home/xmodem.c:49
    check_sum += c;
     74e:	00 00       	nop	
     750:	1c bf       	cmp.b	r3l,r7l
     752:	01 54       	.word	H'1,H'54
     754:	00 00       	nop	
     756:	00 29       	.word	H'0,H'29
/home/xmodem.c:46
  for (i = 0; i < XMODEM_BLOCK_SIZE; i++) {
     758:	00 00       	nop	
     75a:	04 8e       	orc	#0x8e,ccr
     75c:	00 00       	nop	
     75e:	00 2c       	.word	H'0,H'2c
     760:	01 9c       	.word	H'1,H'9c
/home/xmodem.c:52
  check_sum ^= serial_recv_byte(SERIAL_DEFAULT_DEVICE);
     762:	00 00       	nop	
     764:	01 91       	.word	H'1,H'91
     766:	06 63       	andc	#0x63,ccr
     768:	00 01       	.word	H'0,H'1
     76a:	56 00       	rte/l	er0
     76c:	00 00       	nop	
     76e:	29 00       	mov.b	@0x0:8,r1l
/home/xmodem.c:53
  if (check_sum)
     770:	00 03       	.word	H'0,H'3
     772:	18 0e       	sub.b	r0h,r6l
     774:	00 00       	nop	
     776:	04 a0       	orc	#0xa0,ccr
     778:	00 00       	nop	
xmodem_recv():
/home/xmodem.c:82
	block_number++;
     77a:	03 f7       	.word	H'3,H'f7
     77c:	00 00       	nop	
     77e:	01 80       	sleep	
     780:	0f 01       	daa	r1h
     782:	50 01       	mulxu.b	r0h,r1
/home/xmodem.c:83
	size += r;
     784:	31 00       	mov.b	r1h,@0x0:8
     786:	10 00       	shll.b	r0h
     788:	00 04       	.word	H'0,H'4
/home/xmodem.c:84
	buf  += r;
     78a:	ae 00       	cmp.b	#0x0,r6l
     78c:	00 01       	.word	H'0,H'1
     78e:	91 0f       	addx	#0xf,r1h
/home/xmodem.c:85
	serial_send_byte(SERIAL_DEFAULT_DEVICE, XMODEM_ACK);
     790:	01 50       	.word	H'1,H'50
     792:	02 74       	stc	sbr,er4
/home/xmodem.c:80
	serial_send_byte(SERIAL_DEFAULT_DEVICE, XMODEM_NAK);
     794:	00 00       	nop	
     796:	00 03       	.word	H'0,H'3
     798:	00 00       	nop	
     79a:	1c d2       	cmp.b	r5l,r2h
     79c:	01 4c       	.word	H'1,H'4c
     79e:	00 00       	nop	
     7a0:	00 9a       	.word	H'0,H'9a
/home/xmodem.c:88
      if (receiving)
     7a2:	00 00       	nop	
     7a4:	04 60       	orc	#0x60,ccr
     7a6:	00 00       	nop	
/home/xmodem.c:75
      return -1;
     7a8:	00 2e       	.word	H'0,H'2e
     7aa:	01 9c       	.word	H'1,H'9c
/home/xmodem.c:94
}
     7ac:	00 00       	nop	
     7ae:	01 e5       	.word	H'1,H'e5
     7b0:	0d 63       	mov.w	r6,r3
     7b2:	00 01       	.word	H'0,H'1
     7b4:	4c 00       	bge	.0 (0x7b6)
     7b6:	00 00       	nop	
     7b8:	29 00       	mov.b	@0x0:8,r1l
     7ba:	00 03       	.word	H'0,H'3
     7bc:	41 0e       	brn	.+14 (0x7cc)
     7be:	00 00       	nop	
     7c0:	04 7a       	orc	#0x7a,ccr
elf_load():
/home/elf.c:84
{
     7c2:	00 00       	nop	
     7c4:	04 02       	orc	#0x2,ccr
     7c6:	00 00       	nop	
     7c8:	01 cf       	.word	H'1,H'cf
     7ca:	0f 01       	daa	r1h
     7cc:	50 01       	mulxu.b	r0h,r1
     7ce:	31 0f       	mov.b	r1h,@0xf:8
     7d0:	01 51       	.word	H'1,H'51
     7d2:	01 3d       	.word	H'1,H'3d
elf_check():
/home/elf.c:44
  if (memcmp(header->id.magic, "\x7f" "ELF", 4))
     7d4:	00 10       	.word	H'0,H'10
     7d6:	00 00       	nop	
     7d8:	04 84       	orc	#0x84,ccr
     7da:	00 00       	nop	
     7dc:	04 02       	orc	#0x2,ccr
     7de:	0f 01       	daa	r1h
     7e0:	50 01       	mulxu.b	r0h,r1
     7e2:	31 0f       	mov.b	r1h,@0xf:8
     7e4:	01 51       	.word	H'1,H'51
     7e6:	02 74       	stc	sbr,er4
/home/elf.c:47
  if (header->id.class   != 1) return -1; /* ELF32 */
     7e8:	00 00       	nop	
     7ea:	00 03       	.word	H'0,H'3
     7ec:	00 00       	nop	
     7ee:	1c e8       	cmp.b	r6l,r0l
     7f0:	01 3f       	.word	H'1,H'3f
/home/elf.c:48
  if (header->id.format  != 2) return -1; /* Big endian */
     7f2:	00 00       	nop	
     7f4:	00 9a       	.word	H'0,H'9a
     7f6:	00 00       	nop	
     7f8:	04 12       	orc	#0x12,ccr
     7fa:	00 00       	nop	
/home/elf.c:49
  if (header->id.version != 1) return -1; /* version 1 */
     7fc:	00 4e       	.word	H'0,H'4e
     7fe:	01 9c       	.word	H'1,H'9c
     800:	00 00       	nop	
     802:	02 2a       	stmac	mach,er2
     804:	0d 73       	mov.w	r7,r3
/home/elf.c:50
  if (header->type       != 2) return -1; /* Executable file */
     806:	31 00       	mov.b	r1h,@0x0:8
     808:	01 3f       	.word	H'1,H'3f
     80a:	00 00       	nop	
     80c:	02 2a       	stmac	mach,er2
     80e:	00 00       	nop	
/home/elf.c:51
  if (header->version    != 1) return -1; /* version 1 */
     810:	03 6d       	ldc	er5,vbr
     812:	0d 73       	mov.w	r7,r3
     814:	32 00       	mov.b	r2h,@0x0:8
     816:	01 3f       	.word	H'1,H'3f
     818:	00 00       	nop	
     81a:	02 2a       	stmac	mach,er2
/home/elf.c:54
  if ((header->arch != 46) && (header->arch != 47)) return -1;
     81c:	00 00       	nop	
     81e:	03 a1       	ldmac	er1,mach
     820:	0d 6c       	mov.w	r6,e4
     822:	65 6e       	xor.w	r6,e6
     824:	00 01       	.word	H'0,H'1
     826:	3f 00       	mov.b	r7l,@0x0:8
     828:	00 00       	nop	
elf_load_program():
/home/elf.c:69
       header->program_header_size * i);
     82a:	9a 00       	addx	#0x0,r2l
     82c:	00 03       	.word	H'0,H'3
     82e:	bf 00       	subx	#0x0,r7l
     830:	0c 04       	mov.b	r0h,r4h
     832:	00 00       	nop	
/home/elf.c:68
      ((char *)header + header->program_header_offset +
     834:	00 b8       	.word	H'0,H'b8
     836:	03 00       	ldc	r0h,ccr
     838:	00 1b       	.word	H'0,H'1b
     83a:	ba 01       	subx	#0x1,r2l
/home/elf.c:67
    phdr = (struct elf_program_header *)
     83c:	34 00       	mov.b	r4h,@0x0:8
/home/elf.c:71
    if (phdr->type != 1) /* ロード可能なセグメントか？ */
     83e:	00 00       	nop	
     840:	9a 00       	addx	#0x0,r2l
     842:	00 03       	.word	H'0,H'3
     844:	da 00       	xor.b	#0x0,r2l
/home/elf.c:74
    memcpy((char *)phdr->physical_addr, (char *)header + phdr->offset,
     846:	00 00       	nop	
     848:	38 01       	mov.b	r0l,@0x1:8
     84a:	9c 00       	addx	#0x0,r4l
     84c:	00 02       	.word	H'0,H'2
     84e:	66 0d       	and.w	r0,e5
     850:	73 31       	btst	#0x3,r1h
     852:	00 01       	.word	H'0,H'1
     854:	34 00       	mov.b	r4h,@0x0:8
     856:	00 02       	.word	H'0,H'2
     858:	2a 00       	mov.b	@0x0:8,r2l
     85a:	00 03       	.word	H'0,H'3
     85c:	dd 0d       	xor.b	#0xd,r5l
     85e:	73 32       	btst	#0x3,r2h
     860:	00 01       	.word	H'0,H'1
     862:	34 00       	mov.b	r4h,@0x0:8
/home/elf.c:77
	   phdr->memory_size - phdr->file_size);
     864:	00 02       	.word	H'0,H'2
     866:	2a 00       	mov.b	@0x0:8,r2l
     868:	00 04       	.word	H'0,H'4
/home/elf.c:76
    memset((char *)phdr->physical_addr + phdr->file_size, 0,
     86a:	06 00       	andc	#0x0,ccr
     86c:	03 00       	ldc	r0h,ccr
     86e:	00 1c       	.word	H'0,H'1c
     870:	cb 01       	or.b	#0x1,r3l
     872:	2a 00       	mov.b	@0x0:8,r2l
     874:	00 00       	nop	
     876:	bd 00       	subx	#0x0,r5l
     878:	00 03       	.word	H'0,H'3
     87a:	be 00       	subx	#0x0,r6l
     87c:	00 00       	nop	
     87e:	1c 01       	cmp.b	r0h,r1h
     880:	9c 00       	addx	#0x0,r4l
     882:	00 02       	.word	H'0,H'2
     884:	a9 0d       	cmp.b	#0xd,r1l
/home/elf.c:65
  for (i = 0; i < header->program_header_num; i++) {
     886:	64 73       	or.w	r7,r3
     888:	74 00       	bor	#0x0,r0h
     88a:	01 2a       	.word	H'1,H'2a
     88c:	00 00       	nop	
     88e:	00 bd       	.word	H'0,H'bd
elf_load():
/home/elf.c:93
  return (char *)header->entry_point;
     890:	00 00       	nop	
     892:	04 24       	orc	#0x24,ccr
     894:	0d 73       	mov.w	r7,r3
     896:	72 63       	bclr	#0x6,r3h
/home/elf.c:88
    return NULL;
     898:	00 01       	.word	H'0,H'1
/home/elf.c:94
}
     89a:	2a 00       	mov.b	@0x0:8,r2l
     89c:	00 02       	.word	H'0,H'2
     89e:	2a 00       	mov.b	@0x0:8,r2l
     8a0:	00 04       	.word	H'0,H'4
     8a2:	42 05       	.word	H'42,H'5
     8a4:	64 00       	or.w	r0,r0
     8a6:	01 2c       	.word	H'1,H'2c
     8a8:	00 00       	nop	
main():
/home/main.c:60
{
     8aa:	00 bd       	.word	H'0,H'bd
     8ac:	01 50       	.word	H'1,H'50
     8ae:	00 03       	.word	H'0,H'3
     8b0:	00 00       	nop	
     8b2:	1c c4       	cmp.b	r4l,r4h
     8b4:	01 22       	.word	H'1,H'22
/home/main.c:68
  INTR_DISABLE; /* 割込み無効にする */
     8b6:	00 00       	nop	
init():
/home/main.c:17
  memcpy(&data_start, &erodata, (long)&edata - (long)&data_start);
     8b8:	00 9a       	.word	H'0,H'9a
     8ba:	00 00       	nop	
     8bc:	03 a4       	ldmac	er4,mach
     8be:	00 00       	nop	
     8c0:	00 1a       	.word	H'0,H'1a
     8c2:	01 9c       	.word	H'1,H'9c
     8c4:	00 00       	nop	
     8c6:	02 df       	.word	H'2,H'df
     8c8:	0d 73       	mov.w	r7,r3
     8ca:	00 01       	.word	H'0,H'1
     8cc:	22 00       	mov.b	@0x0:8,r2h
     8ce:	00 02       	.word	H'0,H'2
     8d0:	2a 00       	mov.b	@0x0:8,r2l
     8d2:	00 04       	.word	H'0,H'4
/home/main.c:18
  memset(&bss_start, 0, (long)&ebss - (long)&bss_start);
     8d4:	60 06       	bset	r0h,r6h
     8d6:	6c 65       	mov.b	@er6+,r5h
     8d8:	6e 00 01 24 	mov.b	@(0x124:16,er0),r0h
     8dc:	00 00       	nop	
     8de:	00 9a       	.word	H'0,H'9a
     8e0:	00 00       	nop	
     8e2:	04 7e       	orc	#0x7e,ccr
     8e4:	00 03       	.word	H'0,H'3
     8e6:	00 00       	nop	
     8e8:	1d 01       	cmp.w	r0,r1
     8ea:	01 16       	.word	H'1,H'16
/home/main.c:21
  softvec_init();
     8ec:	00 00       	nop	
     8ee:	00 9a       	.word	H'0,H'9a
/home/main.c:24
  serial_init(SERIAL_DEFAULT_DEVICE);
     8f0:	00 00       	nop	
     8f2:	03 68       	ldc	er0,vbr
     8f4:	00 00       	nop	
     8f6:	00 3c       	.word	H'0,H'3c
main():
/home/main.c:72
  puts("kzload (kozos boot loader) started.\n");
     8f8:	01 9c       	.word	H'1,H'9c
     8fa:	00 00       	nop	
     8fc:	03 3e       	ldmac	er6,macl
     8fe:	0d 62       	mov.w	r6,r2
     900:	31 00       	mov.b	r1h,@0x0:8
/home/main.c:75
    puts("kzload> "); /* プロンプト表示 */
     902:	01 16       	.word	H'1,H'16
     904:	00 00       	nop	
     906:	03 3e       	ldmac	er6,macl
     908:	00 00       	nop	
     90a:	04 9d       	orc	#0x9d,ccr
/home/main.c:76
    gets(buf); /* シリアルからのコマンド受信 */
     90c:	0d 62       	mov.w	r6,r2
     90e:	32 00       	mov.b	r2h,@0x0:8
     910:	01 16       	.word	H'1,H'16
     912:	00 00       	nop	
     914:	03 3e       	ldmac	er6,macl
/home/main.c:78
    if (!strcmp(buf, "load")) { /* XMODEMでのファイルのダウンロード */
     916:	00 00       	nop	
     918:	04 be       	orc	#0xbe,ccr
     91a:	0d 6c       	mov.w	r6,e4
     91c:	65 6e       	xor.w	r6,e6
     91e:	00 01       	.word	H'0,H'1
     920:	16 00       	and.b	r0h,r0h
     922:	00 03       	.word	H'0,H'3
     924:	45 00       	bcs	.0 (0x926)
     926:	00 04       	.word	H'0,H'4
     928:	df 06       	xor.b	#0x6,r7l
/home/main.c:79
      loadbuf = (char *)(&buffer_start);
     92a:	70 31       	bset	#0x3,r1h
     92c:	00 01       	.word	H'0,H'1
     92e:	18 00       	sub.b	r0h,r0h
     930:	00 02       	.word	H'0,H'2
     932:	2a 00       	mov.b	@0x0:8,r2l
     934:	00 05       	.word	H'0,H'5
     936:	6b 05 70 32 	mov.w	@0x7032:16,r5
/home/main.c:80
      size = xmodem_recv(loadbuf);
     93a:	00 01       	.word	H'0,H'1
     93c:	18 00       	sub.b	r0h,r0h
     93e:	00 02       	.word	H'0,H'2
     940:	2a 01       	mov.b	@0x1:8,r2l
     942:	51 00       	divxu.b	r0h,r0
     944:	0c 04       	mov.b	r0h,r4h
wait():
/home/main.c:55
  for (i = 0; i < 300000; i++)
     946:	00 00       	nop	
     948:	03 44       	.word	H'3,H'44
     94a:	11 02       	shlr.b	r2h
     94c:	04 05       	orc	#0x5,ccr
     94e:	00 00       	nop	
     950:	05 e4       	xorc	#0xe4,ccr
     952:	03 00       	ldc	r0h,ccr
     954:	00 1a       	.word	H'0,H'1a
     956:	71 01       	bnot	#0x0,r1h
     958:	0d 00       	mov.w	r0,r0
     95a:	00 03       	.word	H'0,H'3
     95c:	a9 00       	cmp.b	#0x0,r1l
     95e:	00 03       	.word	H'0,H'3
main():
/home/main.c:82
      if (size < 0) {
     960:	32 00       	mov.b	r2h,@0x0:8
     962:	00 00       	nop	
/home/main.c:83
	puts("\nXMODEM receive error!\n");
     964:	36 01       	mov.b	r6h,@0x1:8
     966:	9c 00       	addx	#0x0,r4l
     968:	00 03       	.word	H'0,H'3
     96a:	a9 12       	cmp.b	#0x12,r1l
/home/main.c:85
	puts("\nXMODEM receive succeeded.\n");
     96c:	64 73       	or.w	r7,r3
     96e:	74 00       	bor	#0x0,r0h
     970:	01 0d 00 00 	mov.l	#0x0,@er0
/home/main.c:87
    } else if (!strcmp(buf, "dump")) { /* メモリの16進ダンプ出力 */
     974:	03 a9       	ldmac	er1,mach
     976:	01 50       	.word	H'1,H'50
     978:	12 73       	rotxl.l	#2,er3
     97a:	72 63       	bclr	#0x6,r3h
     97c:	00 01       	.word	H'0,H'1
     97e:	0d 00       	mov.w	r0,r0
     980:	00 03       	.word	H'0,H'3
     982:	3e 01       	mov.b	r6l,@0x1:8
     984:	51 0d       	divxu.b	r0h,e5
     986:	6c 65       	mov.b	@er6+,r5h
     988:	6e 00 01 0d 	mov.b	@(0x10d:16,er0),r0h
/home/main.c:88
      puts("size: ");
     98c:	00 00       	nop	
     98e:	03 45       	.word	H'3,H'45
     990:	00 00       	nop	
     992:	05 94       	xorc	#0x94,ccr
/home/main.c:89
      putxval(size, 0);
     994:	06 64       	andc	#0x64,ccr
     996:	00 01       	.word	H'0,H'1
     998:	0f 00       	daa	r0h
     99a:	00 00       	nop	
     99c:	bd 00       	subx	#0x0,r5l
     99e:	00 05       	.word	H'0,H'5
     9a0:	fe 06       	mov.b	#0x6,r6l
/home/main.c:90
      puts("\n");
     9a2:	73 00       	btst	#0x0,r0h
     9a4:	01 10       	.word	H'1,H'10
     9a6:	00 00       	nop	
     9a8:	02 2a       	stmac	mach,er2
     9aa:	00 00       	nop	
/home/main.c:91
      dump(loadbuf, size);
     9ac:	06 33       	andc	#0x33,ccr
     9ae:	00 13       	.word	H'0,H'13
     9b0:	04 03       	orc	#0x3,ccr
     9b2:	00 00       	nop	
     9b4:	1b b3       	.word	H'1b,H'b3
     9b6:	01 05       	.word	H'1,H'5
     9b8:	00 00       	nop	
     9ba:	03 a9       	ldmac	er1,mach
     9bc:	00 00       	nop	
     9be:	03 0c       	ldc	r4l,ccr
     9c0:	00 00       	nop	
dump():
/home/main.c:34
  if (size < 0) {
     9c2:	00 26       	.word	H'0,H'26
     9c4:	01 9c       	.word	H'1,H'9c
/home/main.c:35
    puts("no data.\n");
     9c6:	00 00       	nop	
     9c8:	03 f7       	.word	H'3,H'f7
     9ca:	12 62       	.word	H'12,H'62
     9cc:	00 01       	.word	H'0,H'1
     9ce:	05 00       	xorc	#0x0,ccr
/home/main.c:39
    putxval(buf[i], 2);
     9d0:	00 03       	.word	H'0,H'3
     9d2:	a9 01       	cmp.b	#0x1,r1l
     9d4:	50 12       	mulxu.b	r1h,r2
     9d6:	63 00       	btst	r0h,r0h
     9d8:	01 05       	.word	H'1,H'5
     9da:	00 00       	nop	
     9dc:	00 9a       	.word	H'0,H'9a
     9de:	01 51       	.word	H'1,H'51
     9e0:	0d 6c       	mov.w	r6,e4
     9e2:	65 6e       	xor.w	r6,e6
/home/main.c:40
    if ((i & 0xf) == 15) {
     9e4:	00 01       	.word	H'0,H'1
     9e6:	05 00       	xorc	#0x0,ccr
     9e8:	00 03       	.word	H'0,H'3
     9ea:	45 00       	bcs	.0 (0x9ec)
     9ec:	00 06       	.word	H'0,H'6
     9ee:	68 06       	mov.b	@er0,r6h
     9f0:	70 00       	bset	#0x0,r0h
/home/main.c:41
      puts("\n");
     9f2:	01 07       	.word	H'1,H'7
     9f4:	00 00       	nop	
     9f6:	00 bd       	.word	H'0,H'bd
     9f8:	00 00       	nop	
/home/main.c:43
      if ((i & 0xf) == 7) puts(" ");
     9fa:	06 c6       	andc	#0xc6,ccr
     9fc:	00 14       	.word	H'0,H'14
     9fe:	00 00       	nop	
     a00:	1c d7       	cmp.b	r5l,r7h
     a02:	00 00       	nop	
     a04:	1c d7       	cmp.b	r5l,r7h
     a06:	02 08       	stc	ccr,r0l
     a08:	14 00       	or.b	r0h,r0h
/home/main.c:44
      puts(" ");
     a0a:	00 1c       	.word	H'0,H'1c
     a0c:	f0 00       	mov.b	#0x0,r0h
     a0e:	00 1c       	.word	H'0,H'1c
     a10:	f0 02       	mov.b	#0x2,r0h
     a12:	06 00       	andc	#0x0,ccr

00000a14 <.Ldebug_info0>:
.Ldebug_info0():
     a14:	00 00       	nop	
dump():
/home/main.c:38
  for (i = 0; i < size; i++) {
     a16:	02 8e       	.word	H'2,H'8e
     a18:	00 04       	.word	H'0,H'4
     a1a:	00 00       	nop	
     a1c:	04 14       	orc	#0x14,ccr
/home/main.c:47
  puts("\n");
     a1e:	04 01       	orc	#0x1,ccr
     a20:	00 00       	nop	
     a22:	19 a5       	sub.w	e2,r5
     a24:	0c 00       	mov.b	r0h,r0h
     a26:	00 20       	.word	H'0,H'20
main():
/home/main.c:92
    } else if (!strcmp(buf, "run")) { /* ELF形式ファイルの実行 */
     a28:	ae 00       	cmp.b	#0x0,r6l
     a2a:	00 00       	nop	
     a2c:	31 00       	mov.b	r1h,@0x0:8
     a2e:	00 05       	.word	H'0,H'5
     a30:	92 00       	addx	#0x0,r2h
     a32:	00 00       	nop	
     a34:	e2 00       	and.b	#0x0,r2h
     a36:	00 06       	.word	H'0,H'6
     a38:	4b 00       	bmi	.0 (0xa3a)
     a3a:	00 06       	.word	H'0,H'6
/home/main.c:93
      entry_point = elf_load(loadbuf); /* メモリ上に展開(ロード) */
     a3c:	ff 02       	mov.b	#0x2,r7l
     a3e:	00 00       	nop	
     a40:	1d dc       	cmp.w	e5,e4
     a42:	02 07       	stc	ccr,r7h
     a44:	00 00       	nop	
     a46:	00 39       	.word	H'0,H'39
     a48:	03 00       	ldc	r0h,ccr
/home/main.c:94
      if (!entry_point) {
     a4a:	00 00       	nop	
/home/main.c:95
	puts("run error!\n");
     a4c:	29 04       	mov.b	@0x4:8,r1l
     a4e:	01 08 00 00 	mov.l	@er0,@er0
     a52:	03 fb       	.word	H'3,H'fb
     a54:	04 02       	orc	#0x2,ccr
/home/main.c:97
	puts("starting from entry point: ");
     a56:	07 00       	ldc	#0x0,ccr
     a58:	00 18       	.word	H'0,H'18
     a5a:	a8 04       	cmp.b	#0x4,r0l
     a5c:	04 07       	orc	#0x7,ccr
     a5e:	00 00       	nop	
/home/main.c:98
	putxval((unsigned long)entry_point, 0);
     a60:	02 77       	stc	sbr,er7
     a62:	05 00       	xorc	#0x0,ccr
     a64:	00 20       	.word	H'0,H'20
     a66:	b7 07       	subx	#0x7,r7h
/home/main.c:99
	puts("\n");
     a68:	01 0a       	.word	H'1,H'a
     a6a:	00 00       	nop	
     a6c:	00 af       	.word	H'0,H'af
     a6e:	06 73       	andc	#0x73,ccr
     a70:	6d 72       	mov.w	@er7+,r2
/home/main.c:101
	f(); /* ここで，ロードしたプログラムに処理を渡す */
     a72:	00 01       	.word	H'0,H'1
     a74:	0b 00       	adds	#1,er0
     a76:	00 00       	nop	
/home/main.c:105
      puts("unknown.\n");
     a78:	34 00       	mov.b	r4h,@0x0:8
     a7a:	06 62       	andc	#0x62,ccr
     a7c:	72 72       	bclr	#0x7,r2h
     a7e:	00 01       	.word	H'0,H'1
     a80:	0c 00       	mov.b	r0h,r0h
.Ldebug_info0():
     a82:	00 00       	nop	
     a84:	34 01       	mov.b	r4h,@0x1:8
     a86:	06 73       	andc	#0x73,ccr
     a88:	63 72       	btst	r7h,r2h
     a8a:	00 01       	.word	H'0,H'1
     a8c:	0d 00       	mov.w	r0,r0
     a8e:	00 00       	nop	
     a90:	34 02       	mov.b	r4h,@0x2:8
     a92:	06 74       	andc	#0x74,ccr
     a94:	64 72       	or.w	r7,r2
     a96:	00 01       	.word	H'0,H'1
     a98:	0e 00       	addx	r0h,r0h
     a9a:	00 00       	nop	
     a9c:	34 03       	mov.b	r4h,@0x3:8
     a9e:	06 73       	andc	#0x73,ccr
     aa0:	73 72       	btst	#0x7,r2h
     aa2:	00 01       	.word	H'0,H'1
     aa4:	0f 00       	daa	r0h
     aa6:	00 00       	nop	
     aa8:	34 04       	mov.b	r4h,@0x4:8
     aaa:	06 72       	andc	#0x72,ccr
     aac:	64 72       	or.w	r7,r2
     aae:	00 01       	.word	H'0,H'1
     ab0:	10 00       	shll.b	r0h
     ab2:	00 00       	nop	
     ab4:	34 05       	mov.b	r4h,@0x5:8
     ab6:	07 00       	ldc	#0x0,ccr
     ab8:	00 20       	.word	H'0,H'20
     aba:	8e 01       	add.b	#0x1,r6l
     abc:	11 00       	shlr.b	r0h
     abe:	00 00       	nop	
     ac0:	34 06       	mov.b	r4h,@0x6:8
     ac2:	00 03       	.word	H'0,H'3
     ac4:	00 00       	nop	
     ac6:	00 4e       	.word	H'0,H'4e
     ac8:	08 04       	add.b	r0h,r4h
     aca:	01 31       	.word	H'1,H'31
     acc:	00 00       	nop	
     ace:	00 c9       	.word	H'0,H'c9
     ad0:	06 73       	andc	#0x73,ccr
     ad2:	63 69       	btst	r6h,r1l
     ad4:	00 01       	.word	H'0,H'1
     ad6:	32 00       	mov.b	r2h,@0x0:8
     ad8:	00 00       	nop	
     ada:	c9 00       	or.b	#0x0,r1l
     adc:	00 09       	.word	H'0,H'9
     ade:	04 00       	orc	#0x0,ccr
     ae0:	00 00       	nop	
     ae2:	af 0a       	cmp.b	#0xa,r7l
     ae4:	00 00       	nop	
     ae6:	00 b4       	.word	H'0,H'b4
     ae8:	00 00       	nop	
     aea:	00 df       	.word	H'0,H'df
     aec:	0b 00       	adds	#1,er0
     aee:	00 00       	nop	
     af0:	47 02       	beq	.+2 (0xaf4)
     af2:	00 0c       	.word	H'0,H'c
     af4:	00 00       	nop	
     af6:	20 6e       	mov.b	@0x6e:8,r0h
     af8:	01 33       	.word	H'1,H'33
     afa:	00 00       	nop	
     afc:	00 cf       	.word	H'0,H'cf
     afe:	05 03       	xorc	#0x3,ccr
     b00:	00 00       	nop	
     b02:	0a 84       	add.l	er0,er4
     b04:	0d 00       	mov.w	r0,r0
     b06:	00 1c       	.word	H'0,H'1c
     b08:	d7 01       	xor.b	#0x1,r7h
     b0a:	64 00       	or.w	r0,r0
     b0c:	00 00       	nop	
     b0e:	39 00       	mov.b	r1l,@0x0:8
     b10:	00 06       	.word	H'0,H'6
     b12:	42 00       	bhi	.0 (0xb14)
     b14:	00 00       	nop	
     b16:	32 01       	mov.b	r2h,@0x1:8
     b18:	9c 00       	addx	#0x0,r4l
     b1a:	00 01       	.word	H'0,H'1
     b1c:	59 0e       	.word	H'59,H'e
     b1e:	00 00       	nop	
     b20:	22 2b       	mov.b	@0x2b:8,r2h
     b22:	01 64       	.word	H'1,H'64
     b24:	00 00       	nop	
     b26:	01 59       	.word	H'1,H'59
     b28:	00 00       	nop	
     b2a:	06 f1       	andc	#0xf1,ccr
     b2c:	0f 73       	mov.w	#0x7,r3
     b2e:	63 69       	btst	r6h,r1l
     b30:	00 01       	.word	H'0,H'1
     b32:	66 00       	and.w	r0,r0
     b34:	00 00       	nop	
     b36:	c9 01       	or.b	#0x1,r1l
     b38:	52 0f       	.word	H'52,H'f
     b3a:	63 00       	btst	r0h,r0h
     b3c:	01 67       	.word	H'1,H'67
     b3e:	00 00       	nop	
     b40:	00 39       	.word	H'0,H'39
     b42:	01 50       	.word	H'1,H'50
     b44:	10 00       	shll.b	r0h
     b46:	00 01       	.word	H'0,H'1
     b48:	60 00       	bset	r0h,r0h
     b4a:	00 06       	.word	H'0,H'6
     b4c:	58 00 00 00 	bra	.0 (0xb50)
     b50:	04 01       	orc	#0x1,ccr
     b52:	6a 11       	.word	H'6a,H'11
     b54:	00 00       	nop	
     b56:	01 70       	.word	H'1,H'70
     b58:	00 00       	nop	
     b5a:	07 12       	ldc	#0x12,ccr
     b5c:	12 00       	rotxl.b	r0h
     b5e:	00 06       	.word	H'0,H'6
     b60:	58 00 00 00 	bra	.0 (0xb64)
     b64:	04 13       	orc	#0x13,ccr
     b66:	00 00       	nop	
     b68:	02 89       	.word	H'2,H'89
     b6a:	00 00       	nop	
     b6c:	00 14       	.word	H'0,H'14
     b6e:	02 05       	stc	ccr,r5h
     b70:	69 6e       	mov.w	@er6,e6
     b72:	74 00       	bor	#0x0,r0h
     b74:	15 00       	xor.b	r0h,r0h
     b76:	00 1e       	.word	H'0,H'1e
     b78:	1b 01       	subs	#1,er1
     b7a:	5d 00       	jsr	@er0
     b7c:	00 01       	.word	H'0,H'1
     b7e:	59 01       	.word	H'59,H'1
     b80:	00 00       	nop	
     b82:	01 87       	.word	H'1,H'87
     b84:	16 00       	and.b	r0h,r0h
     b86:	00 22       	.word	H'0,H'22
     b88:	2b 01       	mov.b	@0x1:8,r3l
     b8a:	5d 00       	jsr	@er0
     b8c:	00 01       	.word	H'0,H'1
     b8e:	59 17       	bra	er1
     b90:	73 63       	btst	#0x6,r3h
     b92:	69 00       	mov.w	@er0,r0
     b94:	01 5f       	.word	H'1,H'5f
     b96:	00 00       	nop	
     b98:	00 c9       	.word	H'0,H'c9
     b9a:	00 0d       	.word	H'0,H'd
     b9c:	00 00       	nop	
     b9e:	1c f0       	cmp.b	r7l,r0h
     ba0:	01 4f       	.word	H'1,H'4f
     ba2:	00 00       	nop	
     ba4:	01 59       	.word	H'1,H'59
     ba6:	00 00       	nop	
     ba8:	05 ec       	xorc	#0xec,ccr
     baa:	00 00       	nop	
     bac:	00 32       	.word	H'0,H'32
     bae:	01 9c       	.word	H'1,H'9c
     bb0:	00 00       	nop	
     bb2:	01 f0       	.word	H'1,H'f0
     bb4:	0e 00       	addx	r0h,r0h
     bb6:	00 22       	.word	H'0,H'22
     bb8:	2b 01       	mov.b	@0x1:8,r3l
     bba:	4f 00       	ble	.0 (0xbbc)
     bbc:	00 01       	.word	H'0,H'1
     bbe:	59 00       	jmp	@er0
     bc0:	00 07       	.word	H'0,H'7
     bc2:	28 18       	mov.b	@0x18:8,r0l
     bc4:	63 00       	btst	r0h,r0h
     bc6:	01 4f       	.word	H'1,H'4f
     bc8:	00 00       	nop	
     bca:	00 39       	.word	H'0,H'39
     bcc:	01 51       	.word	H'1,H'51
     bce:	0f 73       	mov.w	#0x7,r3
     bd0:	63 69       	btst	r6h,r1l
     bd2:	00 01       	.word	H'0,H'1
     bd4:	51 00       	divxu.b	r0h,r0
     bd6:	00 00       	nop	
     bd8:	c9 01       	or.b	#0x1,r1l
     bda:	52 10       	mulxu.w	r1,er0
     bdc:	00 00       	nop	
     bde:	01 f0       	.word	H'1,H'f0
     be0:	00 00       	nop	
     be2:	06 02       	andc	#0x2,ccr
     be4:	00 00       	nop	
     be6:	00 04       	.word	H'0,H'4
     be8:	01 54       	.word	H'1,H'54
     bea:	11 00       	shlr.b	r0h
     bec:	00 02       	.word	H'0,H'2
     bee:	00 00       	nop	
     bf0:	00 07       	.word	H'0,H'7
     bf2:	49 12       	bvs	.+18 (0xc06)
     bf4:	00 00       	nop	
     bf6:	06 02       	andc	#0x2,ccr
     bf8:	00 00       	nop	
     bfa:	00 04       	.word	H'0,H'4
     bfc:	13 00       	rotxr.b	r0h
     bfe:	00 02       	.word	H'0,H'2
     c00:	69 00       	mov.w	@er0,r0
     c02:	00 00       	nop	
     c04:	15 00       	xor.b	r0h,r0h
     c06:	00 1e       	.word	H'0,H'1e
     c08:	a4 01       	cmp.b	#0x1,r4h
     c0a:	48 00       	bvc	.0 (0xc0c)
     c0c:	00 01       	.word	H'0,H'1
     c0e:	59 01       	.word	H'59,H'1
     c10:	00 00       	nop	
     c12:	02 17       	stc	exr,r7h
     c14:	16 00       	and.b	r0h,r0h
     c16:	00 22       	.word	H'0,H'22
     c18:	2b 01       	mov.b	@0x1:8,r3l
     c1a:	48 00       	bvc	.0 (0xc1c)
     c1c:	00 01       	.word	H'0,H'1
     c1e:	59 17       	bra	er1
     c20:	73 63       	btst	#0x6,r3h
     c22:	69 00       	mov.w	@er0,r0
     c24:	01 4a       	.word	H'1,H'4a
     c26:	00 00       	nop	
     c28:	00 c9       	.word	H'0,H'c9
     c2a:	00 0d       	.word	H'0,H'd
     c2c:	00 00       	nop	
     c2e:	1a 1f       	sub.w	#0x1,e7
     c30:	01 3a       	.word	H'1,H'3a
     c32:	00 00       	nop	
     c34:	01 59       	.word	H'1,H'59
     c36:	00 00       	nop	
     c38:	05 92       	xorc	#0x92,ccr
     c3a:	00 00       	nop	
     c3c:	00 36       	.word	H'0,H'36
     c3e:	01 9c       	.word	H'1,H'9c
     c40:	00 00       	nop	
     c42:	02 4d       	.word	H'2,H'4d
     c44:	0e 00       	addx	r0h,r0h
     c46:	00 22       	.word	H'0,H'22
     c48:	2b 01       	mov.b	@0x1:8,r3l
     c4a:	3a 00       	mov.b	r2l,@0x0:8
     c4c:	00 01       	.word	H'0,H'1
     c4e:	59 00       	jmp	@er0
     c50:	00 07       	.word	H'0,H'7
     c52:	5f 0f       	jsr	@@15 (0xf)
     c54:	73 63       	btst	#0x6,r3h
     c56:	69 00       	mov.w	@er0,r0
     c58:	01 3c       	.word	H'1,H'3c
     c5a:	00 00       	nop	
     c5c:	00 c9       	.word	H'0,H'c9
     c5e:	01 52       	.word	H'1,H'52
     c60:	00 19       	.word	H'0,H'19
     c62:	00 00       	nop	
     c64:	01 f0       	.word	H'1,H'f0
     c66:	00 00       	nop	
     c68:	05 c8       	xorc	#0xc8,ccr
     c6a:	00 00       	nop	
     c6c:	00 24       	.word	H'0,H'24
     c6e:	01 9c       	.word	H'1,H'9c
     c70:	00 00       	nop	
     c72:	02 71       	stc	sbr,er1
     c74:	11 00       	shlr.b	r0h
     c76:	00 02       	.word	H'0,H'2
     c78:	00 00       	nop	
     c7a:	00 07       	.word	H'0,H'7
     c7c:	80 1a       	add.b	#0x1a,r0h
     c7e:	00 00       	nop	
     c80:	02 0b       	stc	ccr,r3l
     c82:	01 52       	.word	H'1,H'52
     c84:	00 1b       	.word	H'0,H'1b
     c86:	00 00       	nop	
     c88:	01 60       	.word	H'1,H'60
     c8a:	00 00       	nop	
     c8c:	06 1e       	andc	#0x1e,ccr
     c8e:	00 00       	nop	
     c90:	00 24       	.word	H'0,H'24
     c92:	01 9c       	.word	H'1,H'9c
     c94:	11 00       	shlr.b	r0h
     c96:	00 01       	.word	H'0,H'1
     c98:	70 00       	bset	#0x0,r0h
     c9a:	00 07       	.word	H'0,H'7
     c9c:	a1 1a       	cmp.b	#0x1a,r1h
     c9e:	00 00       	nop	
     ca0:	01 7b       	.word	H'1,H'7b
     ca2:	01 52       	.word	H'1,H'52
	...

00000ca6 <.Ldebug_info0>:
     ca6:	00 00       	nop	
     ca8:	02 6e       	stc	vbr,er6
     caa:	00 04       	.word	H'0,H'4
     cac:	00 00       	nop	
     cae:	05 84       	xorc	#0x84,ccr
     cb0:	04 01       	orc	#0x1,ccr
     cb2:	00 00       	nop	
     cb4:	19 a5       	sub.w	e2,r5
     cb6:	0c 00       	mov.b	r0h,r0h
     cb8:	00 21       	.word	H'0,H'21
     cba:	22 00       	mov.b	@0x0:8,r2h
     cbc:	00 00       	nop	
     cbe:	31 00       	mov.b	r1h,@0x0:8
     cc0:	00 06       	.word	H'0,H'6
     cc2:	74 00       	bor	#0x0,r0h
     cc4:	00 01       	.word	H'0,H'1
     cc6:	4e 00       	bgt	.0 (0xcc8)
     cc8:	00 07       	.word	H'0,H'7
     cca:	98 00       	addx	#0x0,r0l
     ccc:	00 07       	.word	H'0,H'7
     cce:	d7 02       	xor.b	#0x2,r7h
     cd0:	01 08 00 00 	mov.l	@er0,@er0
     cd4:	03 fb       	.word	H'3,H'fb
     cd6:	02 02       	stc	ccr,r2h
     cd8:	07 00       	ldc	#0x0,ccr
     cda:	00 18       	.word	H'0,H'18
     cdc:	a8 02       	cmp.b	#0x2,r0l
     cde:	04 07       	orc	#0x7,ccr
     ce0:	00 00       	nop	
     ce2:	02 77       	stc	sbr,er7
     ce4:	03 00       	ldc	r0h,ccr
     ce6:	00 1a       	.word	H'0,H'1a
     ce8:	cf 01       	or.b	#0x1,r7l
     cea:	3b 00       	mov.b	r3l,@0x0:8
     cec:	00 01       	.word	H'0,H'1
     cee:	ca 00       	or.b	#0x0,r2l
     cf0:	00 06       	.word	H'0,H'6
     cf2:	74 00       	bor	#0x0,r0h
     cf4:	00 01       	.word	H'0,H'1
     cf6:	4e 01       	.word	H'4e,H'1
     cf8:	9c 00       	addx	#0x0,r4l
     cfa:	00 01       	.word	H'0,H'1
     cfc:	ca 04       	or.b	#0x4,r2l
     cfe:	62 75       	bclr	r7h,r5h
     d00:	66 00       	and.w	r0,r0
     d02:	01 3b       	.word	H'1,H'3b
     d04:	00 00       	nop	
     d06:	01 d1       	.word	H'1,H'd1
     d08:	00 00       	nop	
     d0a:	07 c2       	ldc	#0xc2,ccr
     d0c:	05 72       	xorc	#0x72,ccr
     d0e:	00 01       	.word	H'0,H'1
     d10:	3d 00       	mov.b	r5l,@0x0:8
     d12:	00 01       	.word	H'0,H'1
     d14:	de 06       	xor.b	#0x6,r6l
     d16:	00 00       	nop	
     d18:	21 37       	mov.b	@0x37:8,r1h
     d1a:	01 3d       	.word	H'1,H'3d
     d1c:	00 00       	nop	
     d1e:	01 de       	.word	H'1,H'de
     d20:	00 00       	nop	
     d22:	07 e0       	ldc	#0xe0,ccr
     d24:	06 00       	andc	#0x0,ccr
     d26:	00 23       	.word	H'0,H'23
     d28:	1f 01       	das	r1h
     d2a:	3e 00       	mov.b	r6l,@0x0:8
     d2c:	00 01       	.word	H'0,H'1
     d2e:	ca 00       	or.b	#0x0,r2l
     d30:	00 08       	.word	H'0,H'8
     d32:	23 07       	mov.b	@0x7:8,r3h
     d34:	63 00       	btst	r0h,r0h
     d36:	01 3f       	.word	H'1,H'3f
     d38:	00 00       	nop	
     d3a:	00 29       	.word	H'0,H'29
     d3c:	00 00       	nop	
     d3e:	08 42       	add.b	r4h,r2h
     d40:	06 00       	andc	#0x0,ccr
     d42:	00 21       	.word	H'0,H'21
     d44:	71 01       	bnot	#0x0,r1h
     d46:	3f 00       	mov.b	r7l,@0x0:8
     d48:	00 00       	nop	
     d4a:	29 00       	mov.b	@0x0:8,r1l
     d4c:	00 08       	.word	H'0,H'8
     d4e:	76 08       	band	#0x0,r0l
     d50:	00 00       	nop	
     d52:	02 34       	stmac	macl,er4
     d54:	00 00       	nop	
     d56:	06 ac       	andc	#0xac,ccr
     d58:	00 00       	nop	
     d5a:	00 10       	.word	H'0,H'10
     d5c:	01 43       	.word	H'1,H'43
     d5e:	00 00       	nop	
     d60:	00 f3       	.word	H'0,H'f3
     d62:	09 00       	add.w	r0,r0
     d64:	00 00       	nop	
     d66:	10 0a       	shll.b	r2l
     d68:	00 00       	nop	
     d6a:	02 44       	.word	H'2,H'44
     d6c:	00 00       	nop	
     d6e:	08 b9       	add.b	r3l,r1l
     d70:	0b 00       	adds	#1,er0
     d72:	00 06       	.word	H'0,H'6
     d74:	ba 00       	subx	#0x0,r2l
     d76:	00 02       	.word	H'0,H'2
     d78:	50 00       	mulxu.b	r0h,r0
     d7a:	00 00       	nop	
     d7c:	e2 0c       	and.b	#0xc,r2h
     d7e:	01 50       	.word	H'1,H'50
     d80:	01 31       	.word	H'1,H'31
     d82:	0c 01       	mov.b	r0h,r1h
     d84:	51 01       	divxu.b	r0h,r1
     d86:	45 00       	bcs	.0 (0xd88)
     d88:	0d 00       	mov.w	r0,r0
     d8a:	00 06       	.word	H'0,H'6
     d8c:	ce 00       	or.b	#0x0,r6l
     d8e:	00 02       	.word	H'0,H'2
     d90:	5b 0c       	jmp	@@12 (0xc)
     d92:	01 50       	.word	H'1,H'50
     d94:	01 31       	.word	H'1,H'31
     d96:	00 00       	nop	
     d98:	00 0e       	.word	H'0,H'e
     d9a:	00 00       	nop	
     d9c:	01 e5       	.word	H'1,H'e5
     d9e:	00 00       	nop	
     da0:	06 fe       	andc	#0xfe,ccr
     da2:	00 00       	nop	
     da4:	00 7c       	.word	H'0,H'7c
     da6:	01 4e       	.word	H'1,H'4e
     da8:	00 00       	nop	
     daa:	01 8f       	.word	H'1,H'8f
     dac:	0f 00       	daa	r0h
     dae:	00 02       	.word	H'0,H'2
     db0:	00 00       	nop	
     db2:	00 09       	.word	H'0,H'9
     db4:	07 0f       	ldc	#0xf,ccr
     db6:	00 00       	nop	
     db8:	01 f5       	.word	H'1,H'f5
     dba:	00 00       	nop	
     dbc:	09 4d       	add.w	r4,e5
     dbe:	10 00       	shll.b	r0h
     dc0:	00 06       	.word	H'0,H'6
     dc2:	fe 00       	mov.b	#0x0,r6l
     dc4:	00 00       	nop	
     dc6:	7c 0a       	.word	H'7c,H'a
     dc8:	00 00       	nop	
     dca:	02 0b       	stc	ccr,r3l
     dcc:	00 00       	nop	
     dce:	09 6d       	add.w	r6,e5
     dd0:	0a 00       	inc	r0h
     dd2:	00 02       	.word	H'0,H'2
     dd4:	14 00       	or.b	r0h,r0h
     dd6:	00 09       	.word	H'0,H'9
     dd8:	8c 0a       	add.b	#0xa,r4l
     dda:	00 00       	nop	
     ddc:	02 1f       	stc	exr,r7l
     dde:	00 00       	nop	
     de0:	09 bc       	add.w	e3,e4
     de2:	0a 00       	inc	r0h
     de4:	00 02       	.word	H'0,H'2
     de6:	2a 00       	mov.b	@0x0:8,r2l
     de8:	00 09       	.word	H'0,H'9
     dea:	ec 0b       	and.b	#0xb,r4l
     dec:	00 00       	nop	
     dee:	07 06       	ldc	#0x6,ccr
     df0:	00 00       	nop	
     df2:	02 66       	stc	vbr,er6
     df4:	00 00       	nop	
     df6:	01 58 0c 01 	mov.w	@er4,@er1
     dfa:	50 01       	mulxu.b	r0h,r1
     dfc:	31 00       	mov.b	r1h,@0x0:8
     dfe:	0b 00       	adds	#1,er0
     e00:	00 07       	.word	H'0,H'7
     e02:	18 00       	sub.b	r0h,r0h
     e04:	00 02       	.word	H'0,H'2
     e06:	66 00       	and.w	r0,r0
     e08:	00 01       	.word	H'0,H'1
     e0a:	6b 0c 01 50 	mov.w	@0x150:16,e4
     e0e:	01 31       	.word	H'1,H'31
     e10:	00 0b       	.word	H'0,H'b
     e12:	00 00       	nop	
     e14:	07 46       	ldc	#0x46,ccr
     e16:	00 00       	nop	
     e18:	02 66       	stc	vbr,er6
     e1a:	00 00       	nop	
     e1c:	01 7e       	.word	H'1,H'7e
     e1e:	0c 01       	mov.b	r0h,r1h
     e20:	50 01       	mulxu.b	r0h,r1
     e22:	31 00       	mov.b	r1h,@0x0:8
     e24:	0d 00       	mov.w	r0,r0
     e26:	00 07       	.word	H'0,H'7
     e28:	70 00       	bset	#0x0,r0h
     e2a:	00 02       	.word	H'0,H'2
     e2c:	66 0c       	and.w	r0,e4
     e2e:	01 50       	.word	H'1,H'50
     e30:	01 31       	.word	H'1,H'31
     e32:	00 00       	nop	
     e34:	00 0b       	.word	H'0,H'b
     e36:	00 00       	nop	
     e38:	06 a6       	andc	#0xa6,ccr
     e3a:	00 00       	nop	
     e3c:	02 66       	stc	vbr,er6
     e3e:	00 00       	nop	
     e40:	01 a2       	.word	H'1,H'a2
     e42:	0c 01       	mov.b	r0h,r1h
     e44:	50 01       	mulxu.b	r0h,r1
     e46:	31 00       	mov.b	r1h,@0x0:8
     e48:	0b 00       	adds	#1,er0
     e4a:	00 06       	.word	H'0,H'6
     e4c:	e4 00       	and.b	#0x0,r4h
     e4e:	00 02       	.word	H'0,H'2
     e50:	50 00       	mulxu.b	r0h,r0
     e52:	00 01       	.word	H'0,H'1
     e54:	ba 0c       	subx	#0xc,r2l
     e56:	01 50       	.word	H'1,H'50
     e58:	01 31       	.word	H'1,H'31
     e5a:	0c 01       	mov.b	r0h,r1h
     e5c:	51 01       	divxu.b	r0h,r1
     e5e:	36 00       	mov.b	r6h,@0x0:8
     e60:	0d 00       	mov.w	r0,r0
     e62:	00 07       	.word	H'0,H'7
     e64:	9e 00       	addx	#0x0,r6l
     e66:	00 02       	.word	H'0,H'2
     e68:	50 0c       	mulxu.b	r0h,e4
     e6a:	01 50       	.word	H'1,H'50
     e6c:	01 31       	.word	H'1,H'31
     e6e:	00 00       	nop	
     e70:	02 04       	stc	ccr,r4h
     e72:	05 00       	xorc	#0x0,ccr
     e74:	00 05       	.word	H'0,H'5
     e76:	e4 11       	and.b	#0x11,r4h
     e78:	04 00       	orc	#0x0,ccr
     e7a:	00 01       	.word	H'0,H'1
     e7c:	d7 02       	xor.b	#0x2,r7h
     e7e:	01 08 00 00 	mov.l	@er0,@er0
     e82:	05 5e       	xorc	#0x5e,ccr
     e84:	12 02       	rotxl.b	r2h
     e86:	05 69       	xorc	#0x69,ccr
     e88:	6e 74 00 13 	mov.b	@(0x13:16,er7),r4h
     e8c:	00 00       	nop	
     e8e:	21 7e       	mov.b	@0x7e:8,r1h
     e90:	01 20       	.word	H'1,H'20
     e92:	00 00       	nop	
     e94:	01 de       	.word	H'1,H'de
     e96:	01 00       	.word	H'1,H'0
     e98:	00 02       	.word	H'0,H'2
     e9a:	34 14       	mov.b	r4h,@0x14:8
     e9c:	00 00       	nop	
     e9e:	21 71       	mov.b	@0x71:8,r1h
     ea0:	01 20       	.word	H'1,H'20
     ea2:	00 00       	nop	
     ea4:	00 29       	.word	H'0,H'29
     ea6:	15 62       	xor.b	r6h,r2h
     ea8:	75 66       	bxor	#0x6,r6h
     eaa:	00 01       	.word	H'0,H'1
     eac:	20 00       	mov.b	@0x0:8,r0h
     eae:	00 01       	.word	H'0,H'1
     eb0:	d1 05       	xor.b	#0x5,r1h
     eb2:	63 00       	btst	r0h,r0h
     eb4:	01 22       	.word	H'1,H'22
     eb6:	00 00       	nop	
     eb8:	00 29       	.word	H'0,H'29
     eba:	16 00       	and.b	r0h,r0h
     ebc:	00 21       	.word	H'0,H'21
     ebe:	d6 01       	xor.b	#0x1,r6h
     ec0:	22 00       	mov.b	@0x0:8,r2h
     ec2:	00 00       	nop	
     ec4:	29 16       	mov.b	@0x16:8,r1l
     ec6:	00 00       	nop	
     ec8:	21 e0       	mov.b	@0xe0:8,r1h
     eca:	01 22       	.word	H'1,H'22
     ecc:	00 00       	nop	
     ece:	00 29       	.word	H'0,H'29
     ed0:	05 69       	xorc	#0x69,ccr
     ed2:	00 01       	.word	H'0,H'1
     ed4:	23 00       	mov.b	@0x0:8,r3h
     ed6:	00 01       	.word	H'0,H'1
     ed8:	de 00       	xor.b	#0x0,r6l
     eda:	13 00       	rotxr.b	r0h
     edc:	00 21       	.word	H'0,H'21
     ede:	2b 01       	mov.b	@0x1:8,r3l
     ee0:	11 00       	shlr.b	r0h
     ee2:	00 01       	.word	H'0,H'1
     ee4:	de 01       	xor.b	#0x1,r6l
     ee6:	00 00       	nop	
     ee8:	02 50       	.word	H'2,H'50
     eea:	05 63       	xorc	#0x63,ccr
     eec:	6e 74 00 01 	mov.b	@(0x1:16,er7),r4h
     ef0:	13 00       	rotxr.b	r0h
     ef2:	00 01       	.word	H'0,H'1
     ef4:	ca 00       	or.b	#0x0,r2l
     ef6:	17 00       	not.b	r0h
     ef8:	00 1c       	.word	H'0,H'1c
     efa:	f0 00       	mov.b	#0x0,r0h
     efc:	00 1c       	.word	H'0,H'1c
     efe:	f0 02       	mov.b	#0x2,r0h
     f00:	06 17       	andc	#0x17,ccr
     f02:	00 00       	nop	
     f04:	1e 1b       	subx	r1h,r3l
     f06:	00 00       	nop	
     f08:	1e 1b       	subx	r1h,r3l
     f0a:	02 07       	stc	ccr,r7h
     f0c:	17 00       	not.b	r0h
     f0e:	00 1c       	.word	H'0,H'1c
     f10:	d7 00       	xor.b	#0x0,r7h
     f12:	00 1c       	.word	H'0,H'1c
     f14:	d7 02       	xor.b	#0x2,r7h
     f16:	08 00       	add.b	r0h,r0h

00000f18 <.Ldebug_info0>:
     f18:	00 00       	nop	
     f1a:	03 30       	ldmac	er0,macl
     f1c:	00 04       	.word	H'0,H'4
     f1e:	00 00       	nop	
     f20:	06 c3       	andc	#0xc3,ccr
     f22:	04 01       	orc	#0x1,ccr
     f24:	00 00       	nop	
     f26:	19 a5       	sub.w	e2,r5
     f28:	0c 00       	mov.b	r0h,r0h
     f2a:	00 22       	.word	H'0,H'22
     f2c:	bf 00       	subx	#0x0,r7l
     f2e:	00 00       	nop	
     f30:	31 00       	mov.b	r1h,@0x0:8
     f32:	00 07       	.word	H'0,H'7
     f34:	c2 00       	or.b	#0x0,r2h
     f36:	00 00       	nop	
     f38:	e8 00       	and.b	#0x0,r0l
     f3a:	00 09       	.word	H'0,H'9
     f3c:	24 00       	mov.b	@0x0:8,r4h
     f3e:	00 08       	.word	H'0,H'8
     f40:	3f 02       	mov.b	r7l,@0x2:8
     f42:	01 08 00 00 	mov.l	@er0,@er0
     f46:	03 fb       	.word	H'3,H'fb
     f48:	02 02       	stc	ccr,r2h
     f4a:	07 00       	ldc	#0x0,ccr
     f4c:	00 18       	.word	H'0,H'18
     f4e:	a8 02       	cmp.b	#0x2,r0l
     f50:	04 07       	orc	#0x7,ccr
     f52:	00 00       	nop	
     f54:	02 77       	stc	sbr,er7
     f56:	03 10       	ldc	r0h,exr
     f58:	01 06       	.word	H'1,H'6
     f5a:	00 00       	nop	
     f5c:	00 9b       	.word	H'0,H'9b
     f5e:	04 00       	orc	#0x0,ccr
     f60:	00 22       	.word	H'0,H'22
     f62:	b4 01       	subx	#0x1,r4h
     f64:	07 00       	ldc	#0x0,ccr
     f66:	00 00       	nop	
     f68:	9b 00       	addx	#0x0,r3l
     f6a:	04 00       	orc	#0x0,ccr
     f6c:	00 22       	.word	H'0,H'22
     f6e:	69 01       	mov.w	@er0,r1
     f70:	08 00       	add.b	r0h,r0h
     f72:	00 00       	nop	
     f74:	29 04       	mov.b	@0x4:8,r1l
     f76:	04 00       	orc	#0x0,ccr
     f78:	00 22       	.word	H'0,H'22
     f7a:	ad 01       	cmp.b	#0x1,r5l
     f7c:	09 00       	add.w	r0,r0
     f7e:	00 00       	nop	
     f80:	29 05       	mov.b	@0x5:8,r1l
     f82:	04 00       	orc	#0x0,ccr
     f84:	00 22       	.word	H'0,H'22
     f86:	91 01       	addx	#0x1,r1h
     f88:	0a 00       	inc	r0h
     f8a:	00 00       	nop	
     f8c:	29 06       	mov.b	@0x6:8,r1l
     f8e:	05 61       	xorc	#0x61,ccr
     f90:	62 69       	bclr	r6h,r1l
     f92:	00 01       	.word	H'0,H'1
     f94:	0b 00       	adds	#1,er0
     f96:	00 00       	nop	
     f98:	29 07       	mov.b	@0x7:8,r1l
     f9a:	04 00       	orc	#0x0,ccr
     f9c:	00 22       	.word	H'0,H'22
     f9e:	8d 01       	add.b	#0x1,r5l
     fa0:	0c 00       	mov.b	r0h,r0h
     fa2:	00 00       	nop	
     fa4:	29 08       	mov.b	@0x8:8,r1l
     fa6:	04 00       	orc	#0x0,ccr
     fa8:	00 22       	.word	H'0,H'22
     faa:	ee 01       	and.b	#0x1,r6l
     fac:	0d 00       	mov.w	r0,r0
     fae:	00 00       	nop	
     fb0:	ab 09       	cmp.b	#0x9,r3l
     fb2:	00 06       	.word	H'0,H'6
     fb4:	00 00       	nop	
     fb6:	00 29       	.word	H'0,H'29
     fb8:	00 00       	nop	
     fba:	00 ab       	.word	H'0,H'ab
     fbc:	07 00       	ldc	#0x0,ccr
     fbe:	00 00       	nop	
     fc0:	37 03       	mov.b	r7h,@0x3:8
     fc2:	00 06       	.word	H'0,H'6
     fc4:	00 00       	nop	
     fc6:	00 29       	.word	H'0,H'29
     fc8:	00 00       	nop	
     fca:	00 bb       	.word	H'0,H'bb
     fcc:	07 00       	ldc	#0x0,ccr
     fce:	00 00       	nop	
     fd0:	37 06       	mov.b	r7h,@0x6:8
     fd2:	00 08       	.word	H'0,H'8
     fd4:	00 00       	nop	
     fd6:	22 82       	mov.b	@0x82:8,r2h
     fd8:	34 01       	mov.b	r4h,@0x1:8
     fda:	05 00       	xorc	#0x0,ccr
     fdc:	00 01       	.word	H'0,H'1
     fde:	6f 05 69 64 	mov.w	@(0x6964:16,er0),r5
     fe2:	00 01       	.word	H'0,H'1
     fe4:	0e 00       	addx	r0h,r0h
     fe6:	00 00       	nop	
     fe8:	3e 00       	mov.b	r6l,@0x0:8
     fea:	04 00       	orc	#0x0,ccr
     fec:	00 1c       	.word	H'0,H'1c
     fee:	0b 01       	adds	#1,er1
     ff0:	0f 00       	daa	r0h
     ff2:	00 01       	.word	H'0,H'1
     ff4:	6f 10 04 00 	mov.w	@(0x400:16,er1),r0
     ff8:	00 22       	.word	H'0,H'22
     ffa:	3d 01       	mov.b	r5l,@0x1:8
     ffc:	10 00       	shll.b	r0h
     ffe:	00 01       	.word	H'0,H'1
    1000:	6f 12 04 00 	mov.w	@(0x400:16,er1),r2
    1004:	00 22       	.word	H'0,H'22
    1006:	91 01       	addx	#0x1,r1h
    1008:	11 00       	shlr.b	r0h
    100a:	00 01       	.word	H'0,H'1
    100c:	76 14       	band	#0x1,r4h
    100e:	04 00       	orc	#0x0,ccr
    1010:	00 1b       	.word	H'0,H'1b
    1012:	39 01       	mov.b	r1l,@0x1:8
    1014:	12 00       	rotxl.b	r0h
    1016:	00 01       	.word	H'0,H'1
    1018:	76 18       	band	#0x1,r0l
    101a:	04 00       	orc	#0x0,ccr
    101c:	00 22       	.word	H'0,H'22
    101e:	c5 01       	or.b	#0x1,r5h
    1020:	13 00       	rotxr.b	r0h
    1022:	00 01       	.word	H'0,H'1
    1024:	76 1c       	band	#0x1,r4l
    1026:	04 00       	orc	#0x0,ccr
    1028:	00 21       	.word	H'0,H'21
    102a:	f8 01       	mov.b	#0x1,r0l
    102c:	14 00       	or.b	r0h,r0h
    102e:	00 01       	.word	H'0,H'1
    1030:	76 20       	band	#0x2,r0h
    1032:	04 00       	orc	#0x0,ccr
    1034:	00 23       	.word	H'0,H'23
    1036:	03 01       	ldc	r1h,ccr
    1038:	15 00       	xor.b	r0h,r0h
    103a:	00 01       	.word	H'0,H'1
    103c:	76 24       	band	#0x2,r4h
    103e:	04 00       	orc	#0x0,ccr
    1040:	00 22       	.word	H'0,H'22
    1042:	5d 01       	jsr	@@516 (0x204)
    1044:	16 00       	and.b	r0h,r0h
    1046:	00 01       	.word	H'0,H'1
    1048:	6f 28 04 00 	mov.w	@(0x400:16,er2),e0
    104c:	00 22       	.word	H'0,H'22
    104e:	55 01       	bsr	.+1 (0x1051)
    1050:	17 00       	not.b	r0h
    1052:	00 01       	.word	H'0,H'1
    1054:	6f 2a 04 00 	mov.w	@(0x400:16,er2),e2
    1058:	00 22       	.word	H'0,H'22
    105a:	db 01       	xor.b	#0x1,r3l
    105c:	18 00       	sub.b	r0h,r0h
    105e:	00 01       	.word	H'0,H'1
    1060:	6f 2c 04 00 	mov.w	@(0x400:16,er2),e4
    1064:	00 22       	.word	H'0,H'22
    1066:	99 01       	addx	#0x1,r1l
    1068:	19 00       	sub.w	r0,r0
    106a:	00 01       	.word	H'0,H'1
    106c:	6f 2e 04 00 	mov.w	@(0x400:16,er2),e6
    1070:	00 22       	.word	H'0,H'22
    1072:	6f 01 1a 00 	mov.w	@(0x1a00:16,er0),r1
    1076:	00 01       	.word	H'0,H'1
    1078:	6f 30 04 00 	mov.w	@(0x400:16,er3),r0
    107c:	00 22       	.word	H'0,H'22
    107e:	1e 01       	subx	r0h,r1h
    1080:	1b 00       	subs	#1,er0
    1082:	00 01       	.word	H'0,H'1
    1084:	6f 32 00 02 	mov.w	@(0x2:16,er3),r2
    1088:	02 05       	stc	ccr,r5h
    108a:	00 00       	nop	
    108c:	06 7c       	andc	#0x7c,ccr
    108e:	02 04       	stc	ccr,r4h
    1090:	05 00       	xorc	#0x0,ccr
    1092:	00 05       	.word	H'0,H'5
    1094:	e4 08       	and.b	#0x8,r4h
    1096:	00 00       	nop	
    1098:	22 42       	mov.b	@0x42:8,r2h
    109a:	20 01       	mov.b	@0x1:8,r0h
    109c:	1e 00       	subx	r0h,r0h
    109e:	00 01       	.word	H'0,H'1
    10a0:	ea 04       	and.b	#0x4,r2l
    10a2:	00 00       	nop	
    10a4:	1c 0b       	cmp.b	r0h,r3l
    10a6:	01 1f       	.word	H'1,H'1f
    10a8:	00 00       	nop	
    10aa:	01 76       	.word	H'1,H'76
    10ac:	00 04       	.word	H'0,H'4
    10ae:	00 00       	nop	
    10b0:	22 d4       	mov.b	@0xd4:8,r2h
    10b2:	01 20       	.word	H'1,H'20
    10b4:	00 00       	nop	
    10b6:	01 76       	.word	H'1,H'76
    10b8:	04 04       	orc	#0x4,ccr
    10ba:	00 00       	nop	
    10bc:	22 f6       	mov.b	@0xf6:8,r2h
    10be:	01 21       	.word	H'1,H'21
    10c0:	00 00       	nop	
    10c2:	01 76       	.word	H'1,H'76
    10c4:	08 04       	add.b	r0h,r4h
    10c6:	00 00       	nop	
    10c8:	21 ea       	mov.b	@0xea:8,r1h
    10ca:	01 22       	.word	H'1,H'22
    10cc:	00 00       	nop	
    10ce:	01 76       	.word	H'1,H'76
    10d0:	0c 04       	mov.b	r0h,r4h
    10d2:	00 00       	nop	
    10d4:	23 1a       	mov.b	@0x1a:8,r3h
    10d6:	01 23       	.word	H'1,H'23
    10d8:	00 00       	nop	
    10da:	01 76       	.word	H'1,H'76
    10dc:	10 04       	shll.b	r4h
    10de:	00 00       	nop	
    10e0:	22 31       	mov.b	@0x31:8,r2h
    10e2:	01 24       	.word	H'1,H'24
    10e4:	00 00       	nop	
    10e6:	01 76       	.word	H'1,H'76
    10e8:	14 04       	or.b	r0h,r4h
    10ea:	00 00       	nop	
    10ec:	23 03       	mov.b	@0x3:8,r3h
    10ee:	01 25       	.word	H'1,H'25
    10f0:	00 00       	nop	
    10f2:	01 76       	.word	H'1,H'76
    10f4:	18 04       	sub.b	r0h,r4h
    10f6:	00 00       	nop	
    10f8:	22 18       	mov.b	@0x18:8,r2h
    10fa:	01 26       	.word	H'1,H'26
    10fc:	00 00       	nop	
    10fe:	01 76       	.word	H'1,H'76
    1100:	1c 00       	cmp.b	r0h,r0h
    1102:	09 00       	add.w	r0,r0
    1104:	00 1a       	.word	H'0,H'1a
    1106:	b1 01       	subx	#0x1,r1h
    1108:	53 00       	divxu.w	r0,er0
    110a:	00 02       	.word	H'0,H'2
    110c:	a6 00       	cmp.b	#0x0,r6h
    110e:	00 07       	.word	H'0,H'7
    1110:	c2 00       	or.b	#0x0,r2h
    1112:	00 00       	nop	
    1114:	e8 01       	and.b	#0x1,r0l
    1116:	9c 00       	addx	#0x0,r4l
    1118:	00 02       	.word	H'0,H'2
    111a:	a6 0a       	cmp.b	#0xa,r6h
    111c:	62 75       	bclr	r7h,r5h
    111e:	66 00       	and.w	r0,r0
    1120:	01 53       	.word	H'1,H'53
    1122:	00 00       	nop	
    1124:	02 a6       	stmac	mach,er6
    1126:	00 00       	nop	
    1128:	0a 26       	add.w	#0x2,r6
    112a:	0b 00       	adds	#1,er0
    112c:	00 22       	.word	H'0,H'22
    112e:	86 01       	add.b	#0x1,r6h
    1130:	55 00       	bsr	.0 (0x1132)
    1132:	00 02       	.word	H'0,H'2
    1134:	b3 00       	subx	#0x0,r3h
    1136:	00 0a       	.word	H'0,H'a
    1138:	52 0c       	.word	H'52,H'c
    113a:	00 00       	nop	
    113c:	02 f6       	.word	H'2,H'f6
    113e:	00 00       	nop	
    1140:	07 d4       	ldc	#0xd4,ccr
    1142:	00 00       	nop	
    1144:	00 56       	.word	H'0,H'56
    1146:	01 57       	.word	H'1,H'57
    1148:	00 00       	nop	
    114a:	02 5c       	.word	H'2,H'5c
    114c:	0d 00       	mov.w	r0,r0
    114e:	00 03       	.word	H'0,H'3
    1150:	06 00       	andc	#0x0,ccr
    1152:	00 0a       	.word	H'0,H'a
    1154:	7e 0e       	.word	H'7e,H'e
    1156:	00 00       	nop	
    1158:	07 e2       	ldc	#0xe2,ccr
    115a:	00 00       	nop	
    115c:	03 12       	ldc	r2h,exr
    115e:	0f 01       	daa	r1h
    1160:	50 02       	mulxu.b	r0h,r2
    1162:	75 00       	bxor	#0x0,r0h
    1164:	0f 01       	daa	r1h
    1166:	51 05       	divxu.b	r0h,r5
    1168:	03 00       	ldc	r0h,ccr
    116a:	00 0b       	.word	H'0,H'b
    116c:	54 0f       	.word	H'54,H'f
    116e:	01 52       	.word	H'1,H'52
    1170:	01 34       	.word	H'1,H'34
    1172:	00 00       	nop	
    1174:	10 00       	shll.b	r0h
    1176:	00 02       	.word	H'0,H'2
    1178:	b9 00       	subx	#0x0,r1l
    117a:	00 08       	.word	H'0,H'8
    117c:	2a 00       	mov.b	@0x0:8,r2l
    117e:	00 00       	nop	
    1180:	66 01       	and.w	r0,r1
    1182:	5a 11 00 00 	jmp	@0x110000:24
    1186:	02 c9       	.word	H'2,H'c9
    1188:	12 00       	rotxl.b	r0h
    118a:	00 08       	.word	H'0,H'8
    118c:	2a 00       	mov.b	@0x0:8,r2l
    118e:	00 00       	nop	
    1190:	66 13       	and.w	r1,r3
    1192:	00 00       	nop	
    1194:	02 d4       	.word	H'2,H'd4
    1196:	00 00       	nop	
    1198:	0a aa       	add.l	#0x2,er2
    119a:	13 00       	rotxr.b	r0h
    119c:	00 02       	.word	H'0,H'2
    119e:	dd 00       	xor.b	#0x0,r5l
    11a0:	00 0a       	.word	H'0,H'a
    11a2:	c8 14       	or.b	#0x14,r0l
    11a4:	00 00       	nop	
    11a6:	08 64       	add.b	r6h,r4h
    11a8:	00 00       	nop	
    11aa:	03 1d       	ldc	r5l,exr
    11ac:	0e 00       	addx	r0h,r0h
    11ae:	00 08       	.word	H'0,H'8
    11b0:	80 00       	add.b	#0x0,r0h
    11b2:	00 03       	.word	H'0,H'3
    11b4:	28 0f       	mov.b	@0xf:8,r0l
    11b6:	01 51       	.word	H'1,H'51
    11b8:	01 30       	.word	H'1,H'30
    11ba:	00 00       	nop	
    11bc:	00 00       	nop	
    11be:	15 04       	xor.b	r0h,r4h
    11c0:	00 00       	nop	
    11c2:	02 ac       	stmac	mach,er4
    11c4:	02 01       	stc	ccr,r1h
    11c6:	08 00       	add.b	r0h,r0h
    11c8:	00 05       	.word	H'0,H'5
    11ca:	5e 15 04 00 	jsr	@0x150400:24
    11ce:	00 00       	nop	
    11d0:	bb 16       	subx	#0x16,r3l
    11d2:	00 00       	nop	
    11d4:	23 09       	mov.b	@0x9:8,r3h
    11d6:	01 3c       	.word	H'1,H'3c
    11d8:	00 00       	nop	
    11da:	02 e9       	.word	H'2,H'e9
    11dc:	01 00       	.word	H'1,H'0
    11de:	00 02       	.word	H'0,H'2
    11e0:	e9 17       	and.b	#0x17,r1l
    11e2:	00 00       	nop	
    11e4:	22 86       	mov.b	@0x86:8,r2h
    11e6:	01 3c       	.word	H'1,H'3c
    11e8:	00 00       	nop	
    11ea:	02 b3       	stmac	macl,er3
    11ec:	18 69       	sub.b	r6h,r1l
    11ee:	00 01       	.word	H'0,H'1
    11f0:	3e 00       	mov.b	r6l,@0x0:8
    11f2:	00 02       	.word	H'0,H'2
    11f4:	e9 19       	and.b	#0x19,r1l
    11f6:	00 00       	nop	
    11f8:	22 ba       	mov.b	@0xba:8,r2h
    11fa:	01 3f       	.word	H'1,H'3f
    11fc:	00 00       	nop	
    11fe:	02 f0       	.word	H'2,H'f0
    1200:	00 1a       	.word	H'0,H'1a
    1202:	02 05       	stc	ccr,r5h
    1204:	69 6e       	mov.w	@er6,e6
    1206:	74 00       	bor	#0x0,r0h
    1208:	15 04       	xor.b	r0h,r4h
    120a:	00 00       	nop	
    120c:	01 7d 16 00 	mov.b	#0x0,@(0x1:2,er6)
    1210:	00 22       	.word	H'0,H'22
    1212:	0e 01       	addx	r0h,r1h
    1214:	2a 00       	mov.b	@0x0:8,r2l
    1216:	00 02       	.word	H'0,H'2
    1218:	e9 01       	and.b	#0x1,r1l
    121a:	00 00       	nop	
    121c:	03 12       	ldc	r2h,exr
    121e:	17 00       	not.b	r0h
    1220:	00 22       	.word	H'0,H'22
    1222:	86 01       	add.b	#0x1,r6h
    1224:	2a 00       	mov.b	@0x0:8,r2l
    1226:	00 02       	.word	H'0,H'2
    1228:	b3 00       	subx	#0x0,r3h
    122a:	1b 00       	subs	#1,er0
    122c:	00 1d       	.word	H'0,H'1d
    122e:	01 00       	.word	H'1,H'0
    1230:	00 1d       	.word	H'0,H'1d
    1232:	01 02       	.word	H'1,H'2
    1234:	06 1b       	andc	#0x1b,ccr
    1236:	00 00       	nop	
    1238:	1a 71       	sub.w	#0x7,r1
    123a:	00 00       	nop	
    123c:	1a 71       	sub.w	#0x7,r1
    123e:	02 05       	stc	ccr,r5h
    1240:	1b 00       	subs	#1,er0
    1242:	00 1b       	.word	H'0,H'1b
    1244:	b3 00       	subx	#0x0,r3h
    1246:	00 1b       	.word	H'0,H'1b
    1248:	b3 02       	subx	#0x2,r3h
    124a:	04 00       	orc	#0x0,ccr

Disassembly of section .debug_abbrev:

00000000 <.Ldebug_abbrev0>:
.Ldebug_abbrev0():
   0:	01 11       	.word	H'1,H'11
   2:	01 25       	.word	H'1,H'25
   4:	0e 13       	addx	r1h,r3h
   6:	0b 03       	adds	#1,er3
   8:	0e 1b       	addx	r1h,r3l
   a:	0e 10       	addx	r1h,r0h
   c:	17 99       	neg.w	e1
   e:	42 17       	.word	H'42,H'17
  10:	00 00       	nop	
  12:	02 24       	stmac	mach,er4
  14:	00 0b       	.word	H'0,H'b
  16:	0b 3e       	.word	H'b,H'3e
  18:	0b 03       	adds	#1,er3
  1a:	0e 00       	addx	r0h,r0h
  1c:	00 03       	.word	H'0,H'3
  1e:	01 01       	.word	H'1,H'1
  20:	49 13       	.word	H'49,H'13
  22:	01 13       	.word	H'1,H'13
  24:	00 00       	nop	
  26:	04 21       	orc	#0x21,ccr
  28:	00 49       	.word	H'0,H'49
  2a:	13 2f       	.word	H'13,H'2f
  2c:	0b 00       	adds	#1,er0
  2e:	00 05       	.word	H'0,H'5
  30:	0f 00       	daa	r0h
  32:	0b 0b       	adds	#1,er3
  34:	49 13       	.word	H'49,H'13
  36:	00 00       	nop	
  38:	06 15       	andc	#0x15,ccr
  3a:	00 27       	.word	H'0,H'27
  3c:	19 00       	sub.w	r0,r0
  3e:	00 07       	.word	H'0,H'7
  40:	34 00       	mov.b	r4h,@0x0:8
  42:	03 0e       	ldc	r6l,ccr
  44:	3a 0b       	mov.b	r2l,@0xb:8
  46:	3b 0b       	mov.b	r3l,@0xb:8
  48:	49 13       	.word	H'49,H'13
  4a:	3f 19       	mov.b	r7l,@0x19:8
  4c:	02 18       	stc	exr,r0l
  4e:	00 00       	nop	
	...

00000051 <.Ldebug_abbrev0>:
  51:	01 11       	.word	H'1,H'11
  53:	01 25       	.word	H'1,H'25
  55:	0e 13       	addx	r1h,r3h
  57:	0b 03       	adds	#1,er3
  59:	0e 1b       	addx	r1h,r3l
  5b:	0e 55       	addx	r5h,r5h
  5d:	17 11       	not.w	r1
  5f:	01 10       	.word	H'1,H'10
  61:	17 99       	neg.w	e1
  63:	42 17       	.word	H'42,H'17
  65:	00 00       	nop	
  67:	02 24       	stmac	mach,er4
  69:	00 0b       	.word	H'0,H'b
  6b:	0b 3e       	.word	H'b,H'3e
  6d:	0b 03       	adds	#1,er3
  6f:	0e 00       	addx	r0h,r0h
  71:	00 03       	.word	H'0,H'3
  73:	34 00       	mov.b	r4h,@0x0:8
  75:	03 0e       	ldc	r6l,ccr
  77:	3a 0b       	mov.b	r2l,@0xb:8
  79:	3b 0b       	mov.b	r3l,@0xb:8
  7b:	49 13       	.word	H'49,H'13
  7d:	3f 19       	mov.b	r7l,@0x19:8
  7f:	3c 19       	mov.b	r4l,@0x19:8
  81:	00 00       	nop	
  83:	04 2e       	orc	#0x2e,ccr
  85:	01 3f       	.word	H'1,H'3f
  87:	19 03       	sub.w	r0,r3
  89:	0e 3a       	addx	r3h,r2l
  8b:	0b 3b       	.word	H'b,H'3b
  8d:	0b 27       	.word	H'b,H'27
  8f:	19 49       	sub.w	r4,e1
  91:	13 11       	rotxr.w	r1
  93:	01 12       	.word	H'1,H'12
  95:	06 40       	andc	#0x40,ccr
  97:	18 97       	sub.b	r1l,r7h
  99:	42 19       	.word	H'42,H'19
  9b:	01 13       	.word	H'1,H'13
  9d:	00 00       	nop	
  9f:	05 34       	xorc	#0x34,ccr
  a1:	00 03       	.word	H'0,H'3
  a3:	08 3a       	add.b	r3h,r2l
  a5:	0b 3b       	.word	H'b,H'3b
  a7:	0b 49       	.word	H'b,H'49
  a9:	13 02       	rotxr.b	r2h
  ab:	18 00       	sub.b	r0h,r0h
  ad:	00 06       	.word	H'0,H'6
  af:	34 00       	mov.b	r4h,@0x0:8
  b1:	03 0e       	ldc	r6l,ccr
  b3:	3a 0b       	mov.b	r2l,@0xb:8
  b5:	3b 0b       	mov.b	r3l,@0xb:8
  b7:	49 13       	.word	H'49,H'13
  b9:	02 18       	stc	exr,r0l
  bb:	00 00       	nop	
  bd:	07 34       	ldc	#0x34,ccr
  bf:	00 03       	.word	H'0,H'3
  c1:	0e 3a       	addx	r3h,r2l
  c3:	0b 3b       	.word	H'b,H'3b
  c5:	0b 49       	.word	H'b,H'49
  c7:	13 02       	rotxr.b	r2h
  c9:	17 00       	not.b	r0h
  cb:	00 08       	.word	H'0,H'8
  cd:	34 00       	mov.b	r4h,@0x0:8
  cf:	03 08       	ldc	r0l,ccr
  d1:	3a 0b       	mov.b	r2l,@0xb:8
  d3:	3b 0b       	mov.b	r3l,@0xb:8
  d5:	49 13       	.word	H'49,H'13
  d7:	02 17       	stc	exr,r7h
  d9:	00 00       	nop	
  db:	09 1d       	add.w	r1,e5
  dd:	01 31       	.word	H'1,H'31
  df:	13 11       	rotxr.w	r1
  e1:	01 12       	.word	H'1,H'12
  e3:	06 58       	andc	#0x58,ccr
  e5:	0b 59       	inc.w	#1,e1
  e7:	0b 01       	adds	#1,er1
  e9:	13 00       	rotxr.b	r0h
  eb:	00 0a       	.word	H'0,H'a
  ed:	0b 01       	adds	#1,er1
  ef:	11 01       	shlr.b	r1h
  f1:	12 06       	rotxl.b	r6h
  f3:	00 00       	nop	
  f5:	0b 34       	.word	H'b,H'34
  f7:	00 31       	.word	H'0,H'31
  f9:	13 3c       	.word	H'13,H'3c
  fb:	19 00       	sub.w	r0,r0
  fd:	00 0c       	.word	H'0,H'c
  ff:	89 82       	add.b	#0x82,r1l
 101:	01 00       	.word	H'1,H'0
 103:	11 01       	shlr.b	r1h
 105:	31 13       	mov.b	r1h,@0x13:8
 107:	00 00       	nop	
 109:	0d 89       	mov.w	e0,e1
 10b:	82 01       	add.b	#0x1,r2h
 10d:	01 11       	.word	H'1,H'11
 10f:	01 31       	.word	H'1,H'31
 111:	13 01       	rotxr.b	r1h
 113:	13 00       	rotxr.b	r0h
 115:	00 0e       	.word	H'0,H'e
 117:	8a 82       	add.b	#0x82,r2l
 119:	01 00       	.word	H'1,H'0
 11b:	02 18       	stc	exr,r0l
 11d:	91 42       	addx	#0x42,r1h
 11f:	18 00       	sub.b	r0h,r0h
 121:	00 0f       	.word	H'0,H'f
 123:	89 82       	add.b	#0x82,r1l
 125:	01 01       	.word	H'1,H'1
 127:	11 01       	shlr.b	r1h
 129:	31 13       	mov.b	r1h,@0x13:8
 12b:	00 00       	nop	
 12d:	10 34       	shll.l	er4
 12f:	00 31       	.word	H'0,H'31
 131:	13 02       	rotxr.b	r2h
 133:	18 00       	sub.b	r0h,r0h
 135:	00 11       	.word	H'0,H'11
 137:	05 00       	xorc	#0x0,ccr
 139:	31 13       	mov.b	r1h,@0x13:8
 13b:	02 17       	stc	exr,r7h
 13d:	00 00       	nop	
 13f:	12 34       	rotxl.l	er4
 141:	00 31       	.word	H'0,H'31
 143:	13 02       	rotxr.b	r2h
 145:	17 00       	not.b	r0h
 147:	00 13       	.word	H'0,H'13
 149:	89 82       	add.b	#0x82,r1l
 14b:	01 00       	.word	H'1,H'0
 14d:	11 01       	shlr.b	r1h
 14f:	93 42       	addx	#0x42,r3h
 151:	18 00       	sub.b	r0h,r0h
 153:	00 14       	.word	H'0,H'14
 155:	24 00       	mov.b	@0x0:8,r4h
 157:	0b 0b       	adds	#1,er3
 159:	3e 0b       	mov.b	r6l,@0xb:8
 15b:	03 08       	ldc	r0l,ccr
 15d:	00 00       	nop	
 15f:	15 01       	xor.b	r0h,r1h
 161:	01 49       	.word	H'1,H'49
 163:	13 01       	rotxr.b	r1h
 165:	13 00       	rotxr.b	r0h
 167:	00 16       	.word	H'0,H'16
 169:	21 00       	mov.b	@0x0:8,r1h
 16b:	49 13       	.word	H'49,H'13
 16d:	2f 0b       	mov.b	@0xb:8,r7l
 16f:	00 00       	nop	
 171:	17 35       	not.l	er5
 173:	00 49       	.word	H'0,H'49
 175:	13 00       	rotxr.b	r0h
 177:	00 18       	.word	H'0,H'18
 179:	0f 00       	daa	r0h
 17b:	0b 0b       	adds	#1,er3
 17d:	49 13       	.word	H'49,H'13
 17f:	00 00       	nop	
 181:	19 15       	sub.w	r1,r5
 183:	00 27       	.word	H'0,H'27
 185:	19 00       	sub.w	r0,r0
 187:	00 1a       	.word	H'0,H'1a
 189:	2e 01       	mov.b	@0x1:8,r6l
 18b:	03 0e       	ldc	r6l,ccr
 18d:	3a 0b       	mov.b	r2l,@0xb:8
 18f:	3b 0b       	mov.b	r3l,@0xb:8
 191:	20 0b       	mov.b	@0xb:8,r0h
 193:	01 13       	.word	H'1,H'13
 195:	00 00       	nop	
 197:	1b 34       	.word	H'1b,H'34
 199:	00 03       	.word	H'0,H'3
 19b:	08 3a       	add.b	r3h,r2l
 19d:	0b 3b       	.word	H'b,H'3b
 19f:	0b 49       	.word	H'b,H'49
 1a1:	13 00       	rotxr.b	r0h
 1a3:	00 1c       	.word	H'0,H'1c
 1a5:	2e 01       	mov.b	@0x1:8,r6l
 1a7:	03 0e       	ldc	r6l,ccr
 1a9:	3a 0b       	mov.b	r2l,@0xb:8
 1ab:	3b 0b       	mov.b	r3l,@0xb:8
 1ad:	27 19       	mov.b	@0x19:8,r7h
 1af:	49 13       	.word	H'49,H'13
 1b1:	20 0b       	mov.b	@0xb:8,r0h
 1b3:	01 13       	.word	H'1,H'13
 1b5:	00 00       	nop	
 1b7:	1d 05       	cmp.w	r0,r5
 1b9:	00 03       	.word	H'0,H'3
 1bb:	08 3a       	add.b	r3h,r2l
 1bd:	0b 3b       	.word	H'b,H'3b
 1bf:	0b 49       	.word	H'b,H'49
 1c1:	13 00       	rotxr.b	r0h
 1c3:	00 1e       	.word	H'0,H'1e
 1c5:	05 00       	xorc	#0x0,ccr
 1c7:	03 0e       	ldc	r6l,ccr
 1c9:	3a 0b       	mov.b	r2l,@0xb:8
 1cb:	3b 0b       	mov.b	r3l,@0xb:8
 1cd:	49 13       	.word	H'49,H'13
 1cf:	00 00       	nop	
 1d1:	1f 2e       	cmp.w	#0x2,e6
 1d3:	00 3f       	.word	H'0,H'3f
 1d5:	19 3c       	sub.w	r3,e4
 1d7:	19 6e       	sub.w	r6,e6
 1d9:	0e 03       	addx	r0h,r3h
 1db:	0e 3a       	addx	r3h,r2l
 1dd:	0b 3b       	.word	H'b,H'3b
 1df:	0b 00       	adds	#1,er0
	...

000001e3 <.Ldebug_abbrev0>:
 1e3:	01 11       	.word	H'1,H'11
 1e5:	01 25       	.word	H'1,H'25
 1e7:	0e 13       	addx	r1h,r3h
 1e9:	0b 03       	adds	#1,er3
 1eb:	0e 1b       	addx	r1h,r3l
 1ed:	0e 11       	addx	r1h,r1h
 1ef:	01 12       	.word	H'1,H'12
 1f1:	06 10       	andc	#0x10,ccr
 1f3:	17 99       	neg.w	e1
 1f5:	42 17       	.word	H'42,H'17
 1f7:	00 00       	nop	
 1f9:	02 24       	stmac	mach,er4
 1fb:	00 0b       	.word	H'0,H'b
 1fd:	0b 3e       	.word	H'b,H'3e
 1ff:	0b 03       	adds	#1,er3
 201:	0e 00       	addx	r0h,r0h
 203:	00 03       	.word	H'0,H'3
 205:	34 00       	mov.b	r4h,@0x0:8
 207:	03 0e       	ldc	r6l,ccr
 209:	3a 0b       	mov.b	r2l,@0xb:8
 20b:	3b 0b       	mov.b	r3l,@0xb:8
 20d:	49 13       	.word	H'49,H'13
 20f:	3f 19       	mov.b	r7l,@0x19:8
 211:	3c 19       	mov.b	r4l,@0x19:8
 213:	00 00       	nop	
 215:	04 16       	orc	#0x16,ccr
 217:	00 03       	.word	H'0,H'3
 219:	0e 3a       	addx	r3h,r2l
 21b:	0b 3b       	.word	H'b,H'3b
 21d:	0b 49       	.word	H'b,H'49
 21f:	13 00       	rotxr.b	r0h
 221:	00 05       	.word	H'0,H'5
 223:	0f 00       	daa	r0h
 225:	0b 0b       	adds	#1,er3
 227:	49 13       	.word	H'49,H'13
 229:	00 00       	nop	
 22b:	06 15       	andc	#0x15,ccr
 22d:	01 27       	.word	H'1,H'27
 22f:	19 01       	sub.w	r0,r1
 231:	13 00       	rotxr.b	r0h
 233:	00 07       	.word	H'0,H'7
 235:	05 00       	xorc	#0x0,ccr
 237:	49 13       	.word	H'49,H'13
 239:	00 00       	nop	
 23b:	08 2e       	add.b	r2h,r6l
 23d:	01 3f       	.word	H'1,H'3f
 23f:	19 03       	sub.w	r0,r3
 241:	0e 3a       	addx	r3h,r2l
 243:	0b 3b       	.word	H'b,H'3b
 245:	0b 27       	.word	H'b,H'27
 247:	19 11       	sub.w	r1,r1
 249:	01 12       	.word	H'1,H'12
 24b:	06 40       	andc	#0x40,ccr
 24d:	18 97       	sub.b	r1l,r7h
 24f:	42 19       	.word	H'42,H'19
 251:	01 13       	.word	H'1,H'13
 253:	00 00       	nop	
 255:	09 05       	add.w	r0,r5
 257:	00 03       	.word	H'0,H'3
 259:	0e 3a       	addx	r3h,r2l
 25b:	0b 3b       	.word	H'b,H'3b
softvec_init():
/home/interrupt.c:7
{
 25d:	0b 49       	.word	H'b,H'49
 25f:	13 02       	rotxr.b	r2h
 261:	17 00       	not.b	r0h
softvec_setintr():
/home/interrupt.c:17
  SOFTVECS[type] = handler;
 263:	00 0a       	.word	H'0,H'a
 265:	05 00       	xorc	#0x0,ccr
 267:	03 08       	ldc	r0l,ccr
 269:	3a 0b       	mov.b	r2l,@0xb:8
 26b:	3b 0b       	mov.b	r3l,@0xb:8
 26d:	49 13       	.word	H'49,H'13
 26f:	02 17       	stc	exr,r7h
 271:	00 00       	nop	
 273:	0b 34       	.word	H'b,H'34
 275:	00 03       	.word	H'0,H'3
 277:	0e 3a       	addx	r3h,r2l
 279:	0b 3b       	.word	H'b,H'3b
 27b:	0b 49       	.word	H'b,H'49
 27d:	13 02       	rotxr.b	r2h
 27f:	17 00       	not.b	r0h
 281:	00 0c       	.word	H'0,H'c
 283:	89 82       	add.b	#0x82,r1l
 285:	01 01       	.word	H'1,H'1
 287:	11 01       	shlr.b	r1h
 289:	00 00       	nop	
 28b:	0d 8a       	mov.w	e0,e2
 28d:	82 01       	add.b	#0x1,r2h
 28f:	00 02       	.word	H'0,H'2
 291:	18 91       	sub.b	r1l,r1h
 293:	42 18       	bhi	.+24 (0x2ad)
 295:	00 00       	nop	
 297:	0e 2e       	addx	r2h,r6l
 299:	01 3f       	.word	H'1,H'3f
 29b:	19 03       	sub.w	r0,r3
 29d:	0e 3a       	addx	r3h,r2l
 29f:	0b 3b       	.word	H'b,H'3b
 2a1:	0b 27       	.word	H'b,H'27
 2a3:	19 49       	sub.w	r4,e1
 2a5:	13 20       	.word	H'13,H'20
 2a7:	0b 01       	adds	#1,er1
 2a9:	13 00       	rotxr.b	r0h
 2ab:	00 0f       	.word	H'0,H'f
 2ad:	05 00       	xorc	#0x0,ccr
 2af:	03 0e       	ldc	r6l,ccr
 2b1:	3a 0b       	mov.b	r2l,@0xb:8
 2b3:	3b 0b       	mov.b	r3l,@0xb:8
 2b5:	49 13       	.word	H'49,H'13
 2b7:	00 00       	nop	
 2b9:	10 24       	shll.w	#4,r4
 2bb:	00 0b       	.word	H'0,H'b
 2bd:	0b 3e       	.word	H'b,H'3e
 2bf:	0b 03       	adds	#1,er3
 2c1:	08 00       	add.b	r0h,r0h
 2c3:	00 11       	.word	H'0,H'11
softvec_init():
/home/interrupt.c:12
}
 2c5:	2e 01       	mov.b	@0x1:8,r6l
 2c7:	3f 19       	mov.b	r7l,@0x19:8
 2c9:	03 0e       	ldc	r6l,ccr
 2cb:	3a 0b       	mov.b	r2l,@0xb:8
softvec_setintr():
/home/interrupt.c:16
{
 2cd:	3b 0b       	mov.b	r3l,@0xb:8
 2cf:	27 19       	mov.b	@0x19:8,r7h
 2d1:	49 13       	.word	H'49,H'13
/home/interrupt.c:17
  SOFTVECS[type] = handler;
 2d3:	11 01       	shlr.b	r1h
 2d5:	12 06       	rotxl.b	r6h
 2d7:	40 18       	bra	.+24 (0x2f1)
 2d9:	97 42       	addx	#0x42,r7h
 2db:	19 01       	sub.w	r0,r1
 2dd:	13 00       	rotxr.b	r0h
 2df:	00 12       	.word	H'0,H'12
 2e1:	1d 01       	cmp.w	r0,r1
/home/interrupt.c:19
}
 2e3:	31 13       	mov.b	r1h,@0x13:8
 2e5:	11 01       	shlr.b	r1h
 2e7:	12 06       	rotxl.b	r6h
 2e9:	58 0b       	.word	H'58,H'b
interrupt():
/home/interrupt.c:26
{
 2eb:	59 0b       	.word	H'59,H'b
 2ed:	00 00       	nop	
 2ef:	13 05       	rotxr.b	r5h
/home/interrupt.c:27
  softvec_handler_t handler = SOFTVECS[type];
 2f1:	00 31       	.word	H'0,H'31
 2f3:	13 02       	rotxr.b	r2h
 2f5:	17 00       	not.b	r0h
 2f7:	00 14       	.word	H'0,H'14
 2f9:	2e 01       	mov.b	@0x1:8,r6l
 2fb:	31 13       	mov.b	r1h,@0x13:8
 2fd:	11 01       	shlr.b	r1h
 2ff:	12 06       	rotxl.b	r6h
 301:	40 18       	bra	.+24 (0x31b)
/home/interrupt.c:28
  if (handler)
 303:	97 42       	addx	#0x42,r7h
/home/interrupt.c:29
    handler(type, sp);
 305:	19 00       	sub.w	r0,r0
/home/interrupt.c:30
}
 307:	00 15       	.word	H'0,H'15
 309:	05 00       	xorc	#0x0,ccr
 30b:	31 13       	mov.b	r1h,@0x13:8
memset():
/home/lib.c:6
{
 30d:	02 18       	stc	exr,r0l
 30f:	00 00       	nop	
	...

00000312 <.Ldebug_abbrev0>:
.Ldebug_abbrev0():
 312:	01 11       	.word	H'1,H'11
memset():
/home/lib.c:6
 314:	01 25       	.word	H'1,H'25
/home/lib.c:8
  for (p = b; len > 0; len--)
 316:	0e 13       	addx	r1h,r3h
 318:	0b 03       	adds	#1,er3
 31a:	0e 1b       	addx	r1h,r3l
/home/lib.c:9 (discriminator 3)
    *(p++) = c;
 31c:	0e 11       	addx	r1h,r1h
 31e:	01 12       	.word	H'1,H'12
 320:	06 10       	andc	#0x10,ccr
 322:	17 99       	neg.w	e1
/home/lib.c:8 (discriminator 1)
  for (p = b; len > 0; len--)
 324:	42 17       	.word	H'42,H'17
 326:	00 00       	nop	
/home/lib.c:11
}
 328:	02 24       	stmac	mach,er4
 32a:	00 0b       	.word	H'0,H'b
 32c:	0b 3e       	.word	H'b,H'3e
 32e:	0b 03       	adds	#1,er3
 330:	0e 00       	addx	r0h,r0h
memcpy():
/home/lib.c:14
{
 332:	00 03       	.word	H'0,H'3
 334:	2e 01       	mov.b	@0x1:8,r6l
 336:	3f 19       	mov.b	r7l,@0x19:8
 338:	03 0e       	ldc	r6l,ccr
 33a:	3a 0b       	mov.b	r2l,@0xb:8
 33c:	3b 0b       	mov.b	r3l,@0xb:8
 33e:	27 19       	mov.b	@0x19:8,r7h
/home/lib.c:17
  for (; len > 0; len--)
 340:	49 13       	.word	H'49,H'13
 342:	11 01       	shlr.b	r1h
/home/lib.c:18 (discriminator 2)
    *(d++) = *(s++);
 344:	12 06       	rotxl.b	r6h
 346:	40 18       	bra	.+24 (0x360)
 348:	97 42       	addx	#0x42,r7h
 34a:	19 01       	sub.w	r0,r1
 34c:	13 00       	rotxr.b	r0h
 34e:	00 04       	.word	H'0,H'4
 350:	05 00       	xorc	#0x0,ccr
 352:	03 0e       	ldc	r6l,ccr
 354:	3a 0b       	mov.b	r2l,@0xb:8
/home/lib.c:17 (discriminator 1)
  for (; len > 0; len--)
 356:	3b 0b       	mov.b	r3l,@0xb:8
 358:	49 13       	.word	H'49,H'13
/home/lib.c:20
}
 35a:	02 17       	stc	exr,r7h
 35c:	00 00       	nop	
 35e:	05 34       	xorc	#0x34,ccr
 360:	00 03       	.word	H'0,H'3
 362:	08 3a       	add.b	r3h,r2l
 364:	0b 3b       	.word	H'b,H'3b
 366:	0b 49       	.word	H'b,H'49
memcmp():
/home/lib.c:23
{
 368:	13 02       	rotxr.b	r2h
 36a:	18 00       	sub.b	r0h,r0h
 36c:	00 06       	.word	H'0,H'6
 36e:	34 00       	mov.b	r4h,@0x0:8
 370:	03 08       	ldc	r0l,ccr
 372:	3a 0b       	mov.b	r2l,@0xb:8
/home/lib.c:25
  for (; len > 0; len--) {
 374:	3b 0b       	mov.b	r3l,@0xb:8
/home/lib.c:26
    if (*p1 != *p2)
 376:	49 13       	.word	H'49,H'13
 378:	02 17       	stc	exr,r7h
 37a:	00 00       	nop	
 37c:	07 89       	ldc	#0x89,ccr
/home/lib.c:27
      return (*p1 > *p2) ? 1 : -1;
 37e:	82 01       	add.b	#0x1,r2h
 380:	00 11       	.word	H'0,H'11
 382:	01 31       	.word	H'1,H'31
 384:	13 00       	rotxr.b	r0h
/home/lib.c:28
    p1++;
 386:	00 08       	.word	H'0,H'8
/home/lib.c:29
    p2++;
 388:	24 00       	mov.b	@0x0:8,r4h
 38a:	0b 0b       	adds	#1,er3
 38c:	3e 0b       	mov.b	r6l,@0xb:8
/home/lib.c:25 (discriminator 1)
  for (; len > 0; len--) {
 38e:	03 08       	ldc	r0l,ccr
 390:	00 00       	nop	
/home/lib.c:31
  return 0;
 392:	09 01       	add.w	r0,r1
 394:	01 49       	.word	H'1,H'49
/home/lib.c:27
      return (*p1 > *p2) ? 1 : -1;
 396:	13 01       	rotxr.b	r1h
 398:	13 00       	rotxr.b	r0h
/home/lib.c:32
}
 39a:	00 0a       	.word	H'0,H'a
 39c:	21 00       	mov.b	@0x0:8,r1h
 39e:	49 13       	.word	H'49,H'13
 3a0:	2f 0b       	mov.b	@0xb:8,r7l
 3a2:	00 00       	nop	
strlen():
/home/lib.c:35
{
 3a4:	0b 26       	.word	H'b,H'26
 3a6:	00 49       	.word	H'0,H'49
 3a8:	13 00       	rotxr.b	r0h
/home/lib.c:37
  for (len = 0; *s; s++, len++)
 3aa:	00 0c       	.word	H'0,H'c
 3ac:	0f 00       	daa	r0h
/home/lib.c:37 (discriminator 3)
 3ae:	0b 0b       	adds	#1,er3
 3b0:	49 13       	.word	H'49,H'13
/home/lib.c:37 (discriminator 1)
 3b2:	00 00       	nop	
 3b4:	0d 05       	mov.w	r0,r5
/home/lib.c:40
}
 3b6:	00 03       	.word	H'0,H'3
 3b8:	08 3a       	add.b	r3h,r2l
 3ba:	0b 3b       	.word	H'b,H'3b
 3bc:	0b 49       	.word	H'b,H'49
strcpy():
/home/lib.c:43
{
 3be:	13 02       	rotxr.b	r2h
 3c0:	17 00       	not.b	r0h
 3c2:	00 0e       	.word	H'0,H'e
 3c4:	89 82       	add.b	#0x82,r1l
/home/lib.c:46
    *dst = *src;
 3c6:	01 01       	.word	H'1,H'1
 3c8:	11 01       	shlr.b	r1h
/home/lib.c:47
    if (!*src) break;
 3ca:	31 13       	mov.b	r1h,@0x13:8
 3cc:	01 13       	.word	H'1,H'13
/home/lib.c:45
  for (;; dst++, src++) {
 3ce:	00 00       	nop	
 3d0:	0f 8a       	.word	H'f,H'8a
/home/lib.c:46
    *dst = *src;
 3d2:	82 01       	add.b	#0x1,r2h
/home/lib.c:50
}
 3d4:	00 02       	.word	H'0,H'2
 3d6:	18 91       	sub.b	r1l,r1h
 3d8:	42 18       	bhi	.+24 (0x3f2)
strcmp():
/home/lib.c:53
{
 3da:	00 00       	nop	
 3dc:	10 89       	shal.b	r1l
 3de:	82 01       	add.b	#0x1,r2h
/home/lib.c:54
  while (*s1 || *s2) {
 3e0:	01 11       	.word	H'1,H'11
/home/lib.c:55
    if (*s1 != *s2)
 3e2:	01 31       	.word	H'1,H'31
 3e4:	13 00       	rotxr.b	r0h
/home/lib.c:56
      return (*s1 > *s2) ? 1 : -1;
 3e6:	00 11       	.word	H'0,H'11
 3e8:	26 00       	mov.b	@0x0:8,r6h
 3ea:	00 00       	nop	
 3ec:	12 05       	rotxl.b	r5h
/home/lib.c:57
    s1++;
 3ee:	00 03       	.word	H'0,H'3
/home/lib.c:58
    s2++;
 3f0:	08 3a       	add.b	r3h,r2l
/home/lib.c:54
  while (*s1 || *s2) {
 3f2:	0b 3b       	.word	H'b,H'3b
 3f4:	0b 49       	.word	H'b,H'49
 3f6:	13 02       	rotxr.b	r2h
 3f8:	18 00       	sub.b	r0h,r0h
/home/lib.c:54 (discriminator 1)
 3fa:	00 13       	.word	H'0,H'13
 3fc:	0f 00       	daa	r0h
 3fe:	0b 0b       	adds	#1,er3
 400:	00 00       	nop	
 402:	14 2e       	or.b	r2h,r6l
 404:	00 3f       	.word	H'0,H'3f
 406:	19 3c       	sub.w	r3,e4
/home/lib.c:56
      return (*s1 > *s2) ? 1 : -1;
 408:	19 6e       	sub.w	r6,e6
 40a:	0e 03       	addx	r0h,r3h
/home/lib.c:61
}
 40c:	0e 3a       	addx	r3h,r2l
 40e:	0b 3b       	.word	H'b,H'3b
 410:	0b 00       	adds	#1,er0
	...

00000414 <.Ldebug_abbrev0>:
.Ldebug_abbrev0():
 414:	01 11       	.word	H'1,H'11
strncmp():
/home/lib.c:64
{
 416:	01 25       	.word	H'1,H'25
 418:	0e 13       	addx	r1h,r3h
 41a:	0b 03       	adds	#1,er3
/home/lib.c:65
  while ((*s1 || *s2) && (len > 0)) {
 41c:	0e 1b       	addx	r1h,r3l
/home/lib.c:66
    if (*s1 != *s2)
 41e:	0e 11       	addx	r1h,r1h
 420:	01 12       	.word	H'1,H'12
 422:	06 10       	andc	#0x10,ccr
/home/lib.c:67
      return (*s1 > *s2) ? 1 : -1;
 424:	17 99       	neg.w	e1
 426:	42 17       	.word	H'42,H'17
 428:	00 00       	nop	
 42a:	02 16       	stc	exr,r6h
/home/lib.c:68
    s1++;
 42c:	00 03       	.word	H'0,H'3
/home/lib.c:69
    s2++;
 42e:	0e 3a       	addx	r3h,r2l
/home/lib.c:70
    len--;
 430:	0b 3b       	.word	H'b,H'3b
/home/lib.c:65
  while ((*s1 || *s2) && (len > 0)) {
 432:	0b 49       	.word	H'b,H'49
 434:	13 00       	rotxr.b	r0h
/home/lib.c:65 (discriminator 2)
 436:	00 03       	.word	H'0,H'3
 438:	35 00       	mov.b	r5h,@0x0:8
 43a:	49 13       	.word	H'49,H'13
/home/lib.c:65 (discriminator 3)
 43c:	00 00       	nop	
 43e:	04 24       	orc	#0x24,ccr
/home/lib.c:72
  return 0;
 440:	00 0b       	.word	H'0,H'b
 442:	0b 3e       	.word	H'b,H'3e
/home/lib.c:67
      return (*s1 > *s2) ? 1 : -1;
 444:	0b 03       	adds	#1,er3
 446:	0e 00       	addx	r0h,r0h
 448:	00 05       	.word	H'0,H'5
/home/lib.c:65
  while ((*s1 || *s2) && (len > 0)) {
 44a:	13 01       	rotxr.b	r1h
 44c:	03 0e       	ldc	r6l,ccr
 44e:	0b 0b       	adds	#1,er3
 450:	3a 0b       	mov.b	r2l,@0xb:8
 452:	3b 0b       	mov.b	r3l,@0xb:8
 454:	01 13       	.word	H'1,H'13
/home/lib.c:73
}
 456:	00 00       	nop	
 458:	06 0d       	andc	#0xd,ccr
 45a:	00 03       	.word	H'0,H'3
 45c:	08 3a       	add.b	r3h,r2l
 45e:	0b 3b       	.word	H'b,H'3b
putc():
/home/lib.c:77
{
 460:	0b 49       	.word	H'b,H'49
 462:	13 38       	.word	H'13,H'38
 464:	0b 00       	adds	#1,er0
 466:	00 07       	.word	H'0,H'7
 468:	0d 00       	mov.w	r0,r0
 46a:	03 0e       	ldc	r6l,ccr
/home/lib.c:78
  if (c == '\n')
 46c:	3a 0b       	mov.b	r2l,@0xb:8
 46e:	3b 0b       	mov.b	r3l,@0xb:8
/home/lib.c:79
    serial_send_byte(SERIAL_DEFAULT_DEVICE, '\r');
 470:	49 13       	.word	H'49,H'13
 472:	38 0b       	mov.b	r0l,@0xb:8
 474:	00 00       	nop	
 476:	08 13       	add.b	r1h,r3h
 478:	01 0b       	.word	H'1,H'b
/home/lib.c:80
  return serial_send_byte(SERIAL_DEFAULT_DEVICE, c);
 47a:	0b 3a       	.word	H'b,H'3a
 47c:	0b 3b       	.word	H'b,H'3b
 47e:	0b 01       	adds	#1,er1
 480:	13 00       	rotxr.b	r0h
 482:	00 09       	.word	H'0,H'9
/home/lib.c:81
}
 484:	0f 00       	daa	r0h
 486:	0b 0b       	adds	#1,er3
 488:	49 13       	.word	H'49,H'13
 48a:	00 00       	nop	
 48c:	0a 01       	inc	r1h
getc():
/home/lib.c:85
{
 48e:	01 49       	.word	H'1,H'49
 490:	13 01       	rotxr.b	r1h
 492:	13 00       	rotxr.b	r0h
 494:	00 0b       	.word	H'0,H'b
 496:	21 00       	mov.b	@0x0:8,r1h
/home/lib.c:86
  unsigned char c = serial_recv_byte(SERIAL_DEFAULT_DEVICE);
 498:	49 13       	.word	H'49,H'13
 49a:	2f 0b       	mov.b	@0xb:8,r7l
 49c:	00 00       	nop	
 49e:	0c 34       	mov.b	r3h,r4h
 4a0:	00 03       	.word	H'0,H'3
/home/lib.c:87
  c = (c == '\r') ? '\n' : c;
 4a2:	0e 3a       	addx	r3h,r2l
 4a4:	0b 3b       	.word	H'b,H'3b
 4a6:	0b 49       	.word	H'b,H'49
/home/lib.c:88 (discriminator 4)
  putc(c); /* エコー・バック */
 4a8:	13 02       	rotxr.b	r2h
 4aa:	18 00       	sub.b	r0h,r0h
 4ac:	00 0d       	.word	H'0,H'd
/home/lib.c:90
}
 4ae:	2e 01       	mov.b	@0x1:8,r6l
 4b0:	3f 19       	mov.b	r7l,@0x19:8
 4b2:	03 0e       	ldc	r6l,ccr
 4b4:	3a 0b       	mov.b	r2l,@0xb:8
 4b6:	3b 0b       	mov.b	r3l,@0xb:8
 4b8:	27 19       	mov.b	@0x19:8,r7h
puts():
/home/lib.c:94
{
 4ba:	49 13       	.word	H'49,H'13
 4bc:	11 01       	shlr.b	r1h
 4be:	12 06       	rotxl.b	r6h
 4c0:	40 18       	bra	.+24 (0x4da)
 4c2:	97 42       	addx	#0x42,r7h
 4c4:	19 01       	sub.w	r0,r1
/home/lib.c:95
  while (*str)
 4c6:	13 00       	rotxr.b	r0h
/home/lib.c:96
    putc(*(str++));
 4c8:	00 0e       	.word	H'0,H'e
 4ca:	05 00       	xorc	#0x0,ccr
 4cc:	03 0e       	ldc	r6l,ccr
/home/lib.c:95
  while (*str)
 4ce:	3a 0b       	mov.b	r2l,@0xb:8
 4d0:	3b 0b       	mov.b	r3l,@0xb:8
/home/lib.c:98
}
 4d2:	49 13       	.word	H'49,H'13
 4d4:	02 17       	stc	exr,r7h
 4d6:	00 00       	nop	
 4d8:	0f 34       	mov.w	#0x3,r4
 4da:	00 03       	.word	H'0,H'3
 4dc:	08 3a       	add.b	r3h,r2l
gets():
/home/lib.c:102
{
 4de:	0b 3b       	.word	H'b,H'3b
 4e0:	0b 49       	.word	H'b,H'49
 4e2:	13 02       	rotxr.b	r2h
 4e4:	18 00       	sub.b	r0h,r0h
 4e6:	00 10       	.word	H'0,H'10
 4e8:	1d 01       	cmp.w	r0,r1
 4ea:	31 13       	mov.b	r1h,@0x13:8
 4ec:	11 01       	shlr.b	r1h
 4ee:	12 06       	rotxl.b	r6h
 4f0:	58 0b       	.word	H'58,H'b
 4f2:	59 0b       	.word	H'59,H'b
 4f4:	00 00       	nop	
/home/lib.c:106
    c = getc();
 4f6:	11 05       	shlr.b	r5h
 4f8:	00 31       	.word	H'0,H'31
 4fa:	13 02       	rotxr.b	r2h
 4fc:	17 00       	not.b	r0h
 4fe:	00 12       	.word	H'0,H'12
/home/lib.c:107
    if (c == '\n')
 500:	0b 01       	adds	#1,er1
 502:	11 01       	shlr.b	r1h
 504:	12 06       	rotxl.b	r6h
 506:	00 00       	nop	
 508:	13 34       	rotxr.l	er4
/home/lib.c:108
      c = '\0';
 50a:	00 31       	.word	H'0,H'31
/home/lib.c:109
    buf[i++] = c;
 50c:	13 00       	rotxr.b	r0h
 50e:	00 14       	.word	H'0,H'14
/home/lib.c:110
  } while (c);
 510:	24 00       	mov.b	@0x0:8,r4h
/home/lib.c:112
}
 512:	0b 0b       	adds	#1,er3
 514:	3e 0b       	mov.b	r6l,@0xb:8
 516:	03 08       	ldc	r0l,ccr
 518:	00 00       	nop	
 51a:	15 2e       	xor.b	r2h,r6l
 51c:	01 3f       	.word	H'1,H'3f
 51e:	19 03       	sub.w	r0,r3
 520:	0e 3a       	addx	r3h,r2l
 522:	0b 3b       	.word	H'b,H'3b
putxval():
/home/lib.c:116
{
 524:	0b 27       	.word	H'b,H'27
 526:	19 49       	sub.w	r4,e1
 528:	13 20       	.word	H'13,H'20
 52a:	0b 01       	adds	#1,er1
 52c:	13 00       	rotxr.b	r0h
 52e:	00 16       	.word	H'0,H'16
 530:	05 00       	xorc	#0x0,ccr
 532:	03 0e       	ldc	r6l,ccr
/home/lib.c:121
  *(p--) = '\0';
 534:	3a 0b       	mov.b	r2l,@0xb:8
 536:	3b 0b       	mov.b	r3l,@0xb:8
 538:	49 13       	.word	H'49,H'13
/home/lib.c:123
  if (!value && !column)
 53a:	00 00       	nop	
 53c:	17 34       	not.l	er4
/home/lib.c:123 (discriminator 1)
 53e:	00 03       	.word	H'0,H'3
 540:	08 3a       	add.b	r3h,r2l
/home/lib.c:124
    column++;
 542:	0b 3b       	.word	H'b,H'3b
 544:	0b 49       	.word	H'b,H'49
 546:	13 00       	rotxr.b	r0h
 548:	00 18       	.word	H'0,H'18
 54a:	05 00       	xorc	#0x0,ccr
/home/lib.c:127
    *(p--) = "0123456789abcdef"[value & 0xf];
 54c:	03 08       	ldc	r0l,ccr
 54e:	3a 0b       	mov.b	r2l,@0xb:8
 550:	3b 0b       	mov.b	r3l,@0xb:8
 552:	49 13       	.word	H'49,H'13
 554:	02 18       	stc	exr,r0l
 556:	00 00       	nop	
 558:	19 2e       	sub.w	r2,e6
 55a:	01 31       	.word	H'1,H'31
 55c:	13 11       	rotxr.w	r1
 55e:	01 12       	.word	H'1,H'12
/home/lib.c:128
    value >>= 4;
 560:	06 40       	andc	#0x40,ccr
 562:	18 97       	sub.b	r1l,r7h
 564:	42 19       	.word	H'42,H'19
 566:	01 13       	.word	H'1,H'13
/home/lib.c:129
    if (column) column--;
 568:	00 00       	nop	
 56a:	1a 34       	sub.w	#0x3,r4
/home/lib.c:129 (discriminator 1)
 56c:	00 31       	.word	H'0,H'31
 56e:	13 02       	rotxr.b	r2h
/home/lib.c:126
  while (value || column) {
 570:	18 00       	sub.b	r0h,r0h
 572:	00 1b       	.word	H'0,H'1b
/home/lib.c:126 (discriminator 1)
 574:	2e 01       	mov.b	@0x1:8,r6l
 576:	31 13       	mov.b	r1h,@0x13:8
/home/lib.c:132
  puts(p + 1);
 578:	11 01       	shlr.b	r1h
 57a:	12 06       	rotxl.b	r6h
 57c:	40 18       	bra	.+24 (0x596)
 57e:	97 42       	addx	#0x42,r7h
/home/lib.c:135
}
 580:	19 00       	sub.w	r0,r0
	...

00000584 <.Ldebug_abbrev0>:
.Ldebug_abbrev0():
 584:	01 11       	.word	H'1,H'11
putxval():
/home/lib.c:135
 586:	01 25       	.word	H'1,H'25
 588:	0e 13       	addx	r1h,r3h
 58a:	0b 03       	adds	#1,er3
 58c:	0e 1b       	addx	r1h,r3l
 58e:	0e 11       	addx	r1h,r1h
 590:	01 12       	.word	H'1,H'12
serial_init():
/home/serial.c:59
{
 592:	06 10       	andc	#0x10,ccr
 594:	17 99       	neg.w	e1
 596:	42 17       	.word	H'42,H'17
/home/serial.c:60
  volatile struct h8_3069f_sci *sci = regs[index].sci;
 598:	00 00       	nop	
 59a:	02 24       	stmac	mach,er4
 59c:	00 0b       	.word	H'0,H'b
 59e:	0b 3e       	.word	H'b,H'3e
 5a0:	0b 03       	adds	#1,er3
 5a2:	0e 00       	addx	r0h,r0h
 5a4:	00 03       	.word	H'0,H'3
 5a6:	2e 01       	mov.b	@0x1:8,r6l
/home/serial.c:62
  sci->scr = 0;
 5a8:	3f 19       	mov.b	r7l,@0x19:8
 5aa:	03 0e       	ldc	r6l,ccr
 5ac:	3a 0b       	mov.b	r2l,@0xb:8
/home/serial.c:63
  sci->smr = 0;
 5ae:	3b 0b       	mov.b	r3l,@0xb:8
/home/serial.c:64
  sci->brr = 64; /* 20MHzのクロックから9600bpsを生成(25MHzの場合は80にする) */
 5b0:	27 19       	mov.b	@0x19:8,r7h
 5b2:	49 13       	.word	H'49,H'13
 5b4:	11 01       	shlr.b	r1h
/home/serial.c:65
  sci->scr = H8_3069F_SCI_SCR_RE | H8_3069F_SCI_SCR_TE; /* 送受信可能 */
 5b6:	12 06       	rotxl.b	r6h
 5b8:	40 18       	bra	.+24 (0x5d2)
 5ba:	97 42       	addx	#0x42,r7h
/home/serial.c:66
  sci->ssr = 0;
 5bc:	19 01       	sub.w	r0,r1
 5be:	13 00       	rotxr.b	r0h
/home/serial.c:69
}
 5c0:	00 04       	.word	H'0,H'4
 5c2:	05 00       	xorc	#0x0,ccr
 5c4:	03 08       	ldc	r0l,ccr
 5c6:	3a 0b       	mov.b	r2l,@0xb:8
serial_is_send_enable():
/home/serial.c:73
{
 5c8:	3b 0b       	mov.b	r3l,@0xb:8
 5ca:	49 13       	.word	H'49,H'13
 5cc:	02 17       	stc	exr,r7h
/home/serial.c:74
  volatile struct h8_3069f_sci *sci = regs[index].sci;
 5ce:	00 00       	nop	
 5d0:	05 34       	xorc	#0x34,ccr
 5d2:	00 03       	.word	H'0,H'3
 5d4:	08 3a       	add.b	r3h,r2l
 5d6:	0b 3b       	.word	H'b,H'3b
 5d8:	0b 49       	.word	H'b,H'49
 5da:	13 00       	rotxr.b	r0h
 5dc:	00 06       	.word	H'0,H'6
/home/serial.c:75
  return (sci->ssr & H8_3069F_SCI_SSR_TDRE);
 5de:	34 00       	mov.b	r4h,@0x0:8
 5e0:	03 0e       	ldc	r6l,ccr
 5e2:	3a 0b       	mov.b	r2l,@0xb:8
/home/serial.c:76
}
 5e4:	3b 0b       	mov.b	r3l,@0xb:8
 5e6:	49 13       	.word	H'49,H'13
 5e8:	02 17       	stc	exr,r7h
 5ea:	00 00       	nop	
serial_send_byte():
/home/serial.c:80
{
 5ec:	07 34       	ldc	#0x34,ccr
 5ee:	00 03       	.word	H'0,H'3
 5f0:	08 3a       	add.b	r3h,r2l
/home/serial.c:81
  volatile struct h8_3069f_sci *sci = regs[index].sci;
 5f2:	0b 3b       	.word	H'b,H'3b
 5f4:	0b 49       	.word	H'b,H'49
 5f6:	13 02       	rotxr.b	r2h
 5f8:	17 00       	not.b	r0h
 5fa:	00 08       	.word	H'0,H'8
 5fc:	1d 01       	cmp.w	r0,r1
 5fe:	31 13       	mov.b	r1h,@0x13:8
 600:	52 01       	mulxu.w	r0,er1
serial_is_send_enable():
/home/serial.c:75 (discriminator 1)
  return (sci->ssr & H8_3069F_SCI_SSR_TDRE);
 602:	55 17       	bsr	.+23 (0x61b)
 604:	58 0b       	.word	H'58,H'b
serial_send_byte():
/home/serial.c:84
  while (!serial_is_send_enable(index))
 606:	59 0b       	.word	H'59,H'b
/home/serial.c:86
  sci->tdr = c;
 608:	01 13       	.word	H'1,H'13
 60a:	00 00       	nop	
/home/serial.c:87
  sci->ssr &= ~H8_3069F_SCI_SSR_TDRE; /* 送信開始 */
 60c:	09 0b       	add.w	r0,e3
 60e:	01 55       	.word	H'1,H'55
 610:	17 00       	not.b	r0h
 612:	00 0a       	.word	H'0,H'a
 614:	34 00       	mov.b	r4h,@0x0:8
/home/serial.c:90
}
 616:	31 13       	mov.b	r1h,@0x13:8
 618:	02 17       	stc	exr,r7h
 61a:	00 00       	nop	
 61c:	0b 89       	adds	#2,er1
serial_is_recv_enable():
/home/serial.c:94
{
 61e:	82 01       	add.b	#0x1,r2h
 620:	01 11       	.word	H'1,H'11
 622:	01 31       	.word	H'1,H'31
/home/serial.c:95
  volatile struct h8_3069f_sci *sci = regs[index].sci;
 624:	13 01       	rotxr.b	r1h
 626:	13 00       	rotxr.b	r0h
 628:	00 0c       	.word	H'0,H'c
 62a:	8a 82       	add.b	#0x82,r2l
 62c:	01 00       	.word	H'1,H'0
 62e:	02 18       	stc	exr,r0l
 630:	91 42       	addx	#0x42,r1h
 632:	18 00       	sub.b	r0h,r0h
/home/serial.c:96
  return (sci->ssr & H8_3069F_SCI_SSR_RDRF);
 634:	00 0d       	.word	H'0,H'd
 636:	89 82       	add.b	#0x82,r1l
 638:	01 01       	.word	H'1,H'1
/home/serial.c:97
}
 63a:	11 01       	shlr.b	r1h
 63c:	31 13       	mov.b	r1h,@0x13:8
 63e:	00 00       	nop	
 640:	0e 1d       	addx	r1h,r5l
serial_recv_byte():
/home/serial.c:101
{
 642:	01 31       	.word	H'1,H'31
 644:	13 11       	rotxr.w	r1
 646:	01 12       	.word	H'1,H'12
/home/serial.c:102
  volatile struct h8_3069f_sci *sci = regs[index].sci;
 648:	06 58       	andc	#0x58,ccr
 64a:	0b 59       	inc.w	#1,e1
 64c:	0b 01       	adds	#1,er1
 64e:	13 00       	rotxr.b	r0h
 650:	00 0f       	.word	H'0,H'f
 652:	05 00       	xorc	#0x0,ccr
 654:	31 13       	mov.b	r1h,@0x13:8
 656:	02 17       	stc	exr,r7h
serial_is_recv_enable():
/home/serial.c:96 (discriminator 1)
  return (sci->ssr & H8_3069F_SCI_SSR_RDRF);
 658:	00 00       	nop	
 65a:	10 0b       	shll.b	r3l
serial_recv_byte():
/home/serial.c:106
  while (!serial_is_recv_enable(index))
 65c:	01 11       	.word	H'1,H'11
 65e:	01 12       	.word	H'1,H'12
/home/serial.c:108
  c = sci->rdr;
 660:	06 00       	andc	#0x0,ccr
 662:	00 11       	.word	H'0,H'11
/home/serial.c:109
  sci->ssr &= ~H8_3069F_SCI_SSR_RDRF; /* 受信完了 */
 664:	0f 00       	daa	r0h
 666:	0b 0b       	adds	#1,er3
 668:	49 13       	.word	H'49,H'13
 66a:	00 00       	nop	
 66c:	12 24       	.word	H'12,H'24
/home/serial.c:112
}
 66e:	00 0b       	.word	H'0,H'b
 670:	0b 3e       	.word	H'b,H'3e
 672:	0b 03       	adds	#1,er3
xmodem_recv():
/home/xmodem.c:60
{
 674:	08 00       	add.b	r0h,r0h
 676:	00 13       	.word	H'0,H'13
 678:	2e 01       	mov.b	@0x1:8,r6l
 67a:	03 0e       	ldc	r6l,ccr
 67c:	3a 0b       	mov.b	r2l,@0xb:8
 67e:	3b 0b       	mov.b	r3l,@0xb:8
 680:	27 19       	mov.b	@0x19:8,r7h
 682:	49 13       	.word	H'49,H'13
 684:	20 0b       	mov.b	@0xb:8,r0h
 686:	01 13       	.word	H'1,H'13
 688:	00 00       	nop	
/home/xmodem.c:63
  unsigned char c, block_number = 1;
 68a:	14 05       	or.b	r0h,r5h
 68c:	00 03       	.word	H'0,H'3
 68e:	0e 3a       	addx	r3h,r2l
/home/xmodem.c:62
  long size = 0;
 690:	0b 3b       	.word	H'b,H'3b
/home/xmodem.c:61
  int r, receiving = 0;
 692:	0b 49       	.word	H'b,H'49
 694:	13 00       	rotxr.b	r0h
 696:	00 15       	.word	H'0,H'15
/home/xmodem.c:66
    if (!receiving)
 698:	05 00       	xorc	#0x0,ccr
 69a:	03 08       	ldc	r0l,ccr
 69c:	3a 0b       	mov.b	r2l,@0xb:8
/home/xmodem.c:69
    c = serial_recv_byte(SERIAL_DEFAULT_DEVICE);
 69e:	3b 0b       	mov.b	r3l,@0xb:8
 6a0:	49 13       	.word	H'49,H'13
 6a2:	00 00       	nop	
 6a4:	16 34       	and.b	r3h,r4h
/home/xmodem.c:71
    if (c == XMODEM_EOT) { /* 受信終了 */
 6a6:	00 03       	.word	H'0,H'3
 6a8:	0e 3a       	addx	r3h,r2l
 6aa:	0b 3b       	.word	H'b,H'3b
xmodem_wait():
/home/xmodem.c:22
    if (++cnt >= 2000000) {
 6ac:	0b 49       	.word	H'b,H'49
 6ae:	13 00       	rotxr.b	r0h
/home/xmodem.c:24
      serial_send_byte(SERIAL_DEFAULT_DEVICE, XMODEM_NAK);
 6b0:	00 17       	.word	H'0,H'17
 6b2:	2e 00       	mov.b	@0x0:8,r6l
 6b4:	3f 19       	mov.b	r7l,@0x19:8
 6b6:	3c 19       	mov.b	r4l,@0x19:8
 6b8:	6e 0e 03 0e 	mov.b	@(0x30e:16,er0),r6l
xmodem_recv():
/home/xmodem.c:61
  int r, receiving = 0;
 6bc:	3a 0b       	mov.b	r2l,@0xb:8
 6be:	3b 0b       	mov.b	r3l,@0xb:8
xmodem_wait():
/home/xmodem.c:21
  while (!serial_is_recv_enable(SERIAL_DEFAULT_DEVICE)) {
 6c0:	00 00       	nop	
	...

000006c3 <.Ldebug_abbrev0>:
.Ldebug_abbrev0():
 6c3:	01 11       	.word	H'1,H'11
xmodem_wait():
/home/xmodem.c:21
 6c5:	01 25       	.word	H'1,H'25
 6c7:	0e 13       	addx	r1h,r3h
 6c9:	0b 03       	adds	#1,er3
 6cb:	0e 1b       	addx	r1h,r3l
 6cd:	0e 11       	addx	r1h,r1h
 6cf:	01 12       	.word	H'1,H'12
 6d1:	06 10       	andc	#0x10,ccr
 6d3:	17 99       	neg.w	e1
 6d5:	42 17       	.word	H'42,H'17
 6d7:	00 00       	nop	
 6d9:	02 24       	stmac	mach,er4
xmodem_recv():
/home/xmodem.c:72
      serial_send_byte(SERIAL_DEFAULT_DEVICE, XMODEM_ACK);
 6db:	00 0b       	.word	H'0,H'b
 6dd:	0b 3e       	.word	H'b,H'3e
 6df:	0b 03       	adds	#1,er3
 6e1:	0e 00       	addx	r0h,r0h
 6e3:	00 03       	.word	H'0,H'3
/home/xmodem.c:93
  return size;
 6e5:	13 01       	rotxr.b	r1h
 6e7:	0b 0b       	adds	#1,er3
/home/xmodem.c:74
    } else if (c == XMODEM_CAN) { /* 受信中断 */
 6e9:	3a 0b       	mov.b	r2l,@0xb:8
 6eb:	3b 0b       	mov.b	r3l,@0xb:8
 6ed:	01 13       	.word	H'1,H'13
/home/xmodem.c:77
      receiving++;
 6ef:	00 00       	nop	
 6f1:	04 0d       	orc	#0xd,ccr
/home/xmodem.c:76
    } else if (c == XMODEM_SOH) { /* 受信開始 */
 6f3:	00 03       	.word	H'0,H'3
 6f5:	0e 3a       	addx	r3h,r2l
 6f7:	0b 3b       	.word	H'b,H'3b
/home/xmodem.c:77
      receiving++;
 6f9:	0b 49       	.word	H'b,H'49
 6fb:	13 38       	.word	H'13,H'38
 6fd:	0b 00       	adds	#1,er0
xmodem_read_block():
/home/xmodem.c:37
  block_num = serial_recv_byte(SERIAL_DEFAULT_DEVICE);
 6ff:	00 05       	.word	H'0,H'5
 701:	0d 00       	mov.w	r0,r0
 703:	03 08       	ldc	r0l,ccr
 705:	3a 0b       	mov.b	r2l,@0xb:8
/home/xmodem.c:38
  if (block_num != block_number)
 707:	3b 0b       	mov.b	r3l,@0xb:8
 709:	49 13       	.word	H'49,H'13
 70b:	38 0b       	mov.b	r0l,@0xb:8
 70d:	00 00       	nop	
 70f:	06 01       	andc	#0x1,ccr
/home/xmodem.c:41
  block_num ^= serial_recv_byte(SERIAL_DEFAULT_DEVICE);
 711:	01 49       	.word	H'1,H'49
 713:	13 01       	rotxr.b	r1h
 715:	13 00       	rotxr.b	r0h
 717:	00 07       	.word	H'0,H'7
 719:	21 00       	mov.b	@0x0:8,r1h
 71b:	49 13       	.word	H'49,H'13
 71d:	2f 0b       	mov.b	@0xb:8,r7l
/home/xmodem.c:42
  if (block_num != 0xff)
 71f:	00 00       	nop	
 721:	08 13       	add.b	r1h,r3h
 723:	01 03       	.word	H'1,H'3
 725:	0e 0b       	addx	r0h,r3l
 727:	0b 3a       	.word	H'b,H'3a
 729:	0b 3b       	.word	H'b,H'3b
/home/xmodem.c:45
  check_sum = 0;
 72b:	0b 01       	adds	#1,er1
/home/xmodem.c:47
    c = serial_recv_byte(SERIAL_DEFAULT_DEVICE);
 72d:	13 00       	rotxr.b	r0h
 72f:	00 09       	.word	H'0,H'9
 731:	2e 01       	mov.b	@0x1:8,r6l
 733:	3f 19       	mov.b	r7l,@0x19:8
 735:	03 0e       	ldc	r6l,ccr
 737:	3a 0b       	mov.b	r2l,@0xb:8
 739:	3b 0b       	mov.b	r3l,@0xb:8
 73b:	27 19       	mov.b	@0x19:8,r7h
 73d:	49 13       	.word	H'49,H'13
 73f:	11 01       	shlr.b	r1h
 741:	12 06       	rotxl.b	r6h
 743:	40 18       	bra	.+24 (0x75d)
 745:	97 42       	addx	#0x42,r7h
/home/xmodem.c:48
    *(buf++) = c;
 747:	19 01       	sub.w	r0,r1
 749:	13 00       	rotxr.b	r0h
 74b:	00 0a       	.word	H'0,H'a
 74d:	05 00       	xorc	#0x0,ccr
/home/xmodem.c:49
    check_sum += c;
 74f:	03 08       	ldc	r0l,ccr
 751:	3a 0b       	mov.b	r2l,@0xb:8
 753:	3b 0b       	mov.b	r3l,@0xb:8
 755:	49 13       	.word	H'49,H'13
 757:	02 17       	stc	exr,r7h
/home/xmodem.c:46
  for (i = 0; i < XMODEM_BLOCK_SIZE; i++) {
 759:	00 00       	nop	
 75b:	0b 34       	.word	H'b,H'34
 75d:	00 03       	.word	H'0,H'3
 75f:	0e 3a       	addx	r3h,r2l
 761:	0b 3b       	.word	H'b,H'3b
/home/xmodem.c:52
  check_sum ^= serial_recv_byte(SERIAL_DEFAULT_DEVICE);
 763:	0b 49       	.word	H'b,H'49
 765:	13 02       	rotxr.b	r2h
 767:	17 00       	not.b	r0h
 769:	00 0c       	.word	H'0,H'c
 76b:	1d 01       	cmp.w	r0,r1
 76d:	31 13       	mov.b	r1h,@0x13:8
 76f:	11 01       	shlr.b	r1h
/home/xmodem.c:53
  if (check_sum)
 771:	12 06       	rotxl.b	r6h
 773:	58 0b       	.word	H'58,H'b
 775:	59 0b       	.word	H'59,H'b
 777:	01 13       	.word	H'1,H'13
 779:	00 00       	nop	
xmodem_recv():
/home/xmodem.c:82
	block_number++;
 77b:	0d 05       	mov.w	r0,r5
 77d:	00 31       	.word	H'0,H'31
 77f:	13 02       	rotxr.b	r2h
 781:	17 00       	not.b	r0h
 783:	00 0e       	.word	H'0,H'e
/home/xmodem.c:83
	size += r;
 785:	89 82       	add.b	#0x82,r1l
 787:	01 01       	.word	H'1,H'1
 789:	11 01       	shlr.b	r1h
/home/xmodem.c:84
	buf  += r;
 78b:	31 13       	mov.b	r1h,@0x13:8
 78d:	00 00       	nop	
 78f:	0f 8a       	.word	H'f,H'8a
/home/xmodem.c:85
	serial_send_byte(SERIAL_DEFAULT_DEVICE, XMODEM_ACK);
 791:	82 01       	add.b	#0x1,r2h
 793:	00 02       	.word	H'0,H'2
/home/xmodem.c:80
	serial_send_byte(SERIAL_DEFAULT_DEVICE, XMODEM_NAK);
 795:	18 91       	sub.b	r1l,r1h
 797:	42 18       	bhi	.+24 (0x7b1)
 799:	00 00       	nop	
 79b:	10 1d       	shll.w	e5
 79d:	01 31       	.word	H'1,H'31
 79f:	13 11       	rotxr.w	r1
 7a1:	01 12       	.word	H'1,H'12
/home/xmodem.c:88
      if (receiving)
 7a3:	06 58       	andc	#0x58,ccr
 7a5:	0b 59       	inc.w	#1,e1
 7a7:	0b 00       	adds	#1,er0
/home/xmodem.c:75
      return -1;
 7a9:	00 11       	.word	H'0,H'11
 7ab:	05 00       	xorc	#0x0,ccr
/home/xmodem.c:94
}
 7ad:	31 13       	mov.b	r1h,@0x13:8
 7af:	00 00       	nop	
 7b1:	12 0b       	rotxl.b	r3l
 7b3:	01 11       	.word	H'1,H'11
 7b5:	01 12       	.word	H'1,H'12
 7b7:	06 00       	andc	#0x0,ccr
 7b9:	00 13       	.word	H'0,H'13
 7bb:	34 00       	mov.b	r4h,@0x0:8
 7bd:	31 13       	mov.b	r1h,@0x13:8
 7bf:	02 17       	stc	exr,r7h
 7c1:	00 00       	nop	
elf_load():
/home/elf.c:84
{
 7c3:	14 89       	or.b	r0l,r1l
 7c5:	82 01       	add.b	#0x1,r2h
 7c7:	00 11       	.word	H'0,H'11
 7c9:	01 31       	.word	H'1,H'31
 7cb:	13 00       	rotxr.b	r0h
 7cd:	00 15       	.word	H'0,H'15
 7cf:	0f 00       	daa	r0h
 7d1:	0b 0b       	adds	#1,er3
 7d3:	49 13       	.word	H'49,H'13
elf_check():
/home/elf.c:44
  if (memcmp(header->id.magic, "\x7f" "ELF", 4))
 7d5:	00 00       	nop	
 7d7:	16 2e       	and.b	r2h,r6l
 7d9:	01 03       	.word	H'1,H'3
 7db:	0e 3a       	addx	r3h,r2l
 7dd:	0b 3b       	.word	H'b,H'3b
 7df:	0b 27       	.word	H'b,H'27
 7e1:	19 49       	sub.w	r4,e1
 7e3:	13 20       	.word	H'13,H'20
 7e5:	0b 01       	adds	#1,er1
 7e7:	13 00       	rotxr.b	r0h
/home/elf.c:47
  if (header->id.class   != 1) return -1; /* ELF32 */
 7e9:	00 17       	.word	H'0,H'17
 7eb:	05 00       	xorc	#0x0,ccr
 7ed:	03 0e       	ldc	r6l,ccr
 7ef:	3a 0b       	mov.b	r2l,@0xb:8
 7f1:	3b 0b       	mov.b	r3l,@0xb:8
/home/elf.c:48
  if (header->id.format  != 2) return -1; /* Big endian */
 7f3:	49 13       	.word	H'49,H'13
 7f5:	00 00       	nop	
 7f7:	18 34       	sub.b	r3h,r4h
 7f9:	00 03       	.word	H'0,H'3
 7fb:	08 3a       	add.b	r3h,r2l
/home/elf.c:49
  if (header->id.version != 1) return -1; /* version 1 */
 7fd:	0b 3b       	.word	H'b,H'3b
 7ff:	0b 49       	.word	H'b,H'49
 801:	13 00       	rotxr.b	r0h
 803:	00 19       	.word	H'0,H'19
 805:	34 00       	mov.b	r4h,@0x0:8
/home/elf.c:50
  if (header->type       != 2) return -1; /* Executable file */
 807:	03 0e       	ldc	r6l,ccr
 809:	3a 0b       	mov.b	r2l,@0xb:8
 80b:	3b 0b       	mov.b	r3l,@0xb:8
 80d:	49 13       	.word	H'49,H'13
 80f:	00 00       	nop	
/home/elf.c:51
  if (header->version    != 1) return -1; /* version 1 */
 811:	1a 24       	sub.w	#0x2,r4
 813:	00 0b       	.word	H'0,H'b
 815:	0b 3e       	.word	H'b,H'3e
 817:	0b 03       	adds	#1,er3
 819:	08 00       	add.b	r0h,r0h
 81b:	00 1b       	.word	H'0,H'1b
/home/elf.c:54
  if ((header->arch != 46) && (header->arch != 47)) return -1;
 81d:	2e 00       	mov.b	@0x0:8,r6l
 81f:	3f 19       	mov.b	r7l,@0x19:8
 821:	3c 19       	mov.b	r4l,@0x19:8
 823:	6e 0e 03 0e 	mov.b	@(0x30e:16,er0),r6l
 827:	3a 0b       	mov.b	r2l,@0xb:8
 829:	3b 0b       	mov.b	r3l,@0xb:8
elf_load_program():
/home/elf.c:69
       header->program_header_size * i);
 82b:	00 00       	nop	
	...

Disassembly of section .debug_aranges:

00000000 <.debug_aranges>:
   0:	00 00       	nop	
   2:	00 14       	.word	H'0,H'14
   4:	00 02       	.word	H'0,H'2
   6:	00 00       	nop	
   8:	00 00       	nop	
   a:	04 00       	orc	#0x0,ccr
	...
  18:	00 00       	nop	
  1a:	00 1c       	.word	H'0,H'1c
  1c:	00 02       	.word	H'0,H'2
  1e:	00 00       	nop	
  20:	00 5f       	.word	H'0,H'5f
  22:	04 00       	orc	#0x0,ccr
  24:	00 00       	nop	
  26:	00 00       	nop	
  28:	00 00       	nop	
  2a:	08 aa       	add.b	r2l,r2l
  2c:	00 00       	nop	
  2e:	01 d8       	.word	H'1,H'd8
	...
  38:	00 00       	nop	
  3a:	00 1c       	.word	H'0,H'1c
  3c:	00 02       	.word	H'0,H'2
  3e:	00 00       	nop	
  40:	04 93       	orc	#0x93,ccr
  42:	04 00       	orc	#0x0,ccr
  44:	00 00       	nop	
  46:	00 00       	nop	
  48:	00 00       	nop	
  4a:	02 5c       	.word	H'2,H'5c
  4c:	00 00       	nop	
  4e:	00 b0       	.word	H'0,H'b0
	...
  58:	00 00       	nop	
  5a:	00 1c       	.word	H'0,H'1c
  5c:	00 02       	.word	H'0,H'2
  5e:	00 00       	nop	
  60:	06 06       	andc	#0x6,ccr
  62:	04 00       	orc	#0x0,ccr
  64:	00 00       	nop	
  66:	00 00       	nop	
  68:	00 00       	nop	
  6a:	03 0c       	ldc	r4l,ccr
  6c:	00 00       	nop	
  6e:	02 86       	.word	H'2,H'86
	...
  78:	00 00       	nop	
  7a:	00 1c       	.word	H'0,H'1c
  7c:	00 02       	.word	H'0,H'2
  7e:	00 00       	nop	
  80:	0a 14       	add.w	#0x1,r4
  82:	04 00       	orc	#0x0,ccr
  84:	00 00       	nop	
  86:	00 00       	nop	
  88:	00 00       	nop	
  8a:	05 92       	xorc	#0x92,ccr
  8c:	00 00       	nop	
  8e:	00 e2       	.word	H'0,H'e2
	...
  98:	00 00       	nop	
  9a:	00 1c       	.word	H'0,H'1c
  9c:	00 02       	.word	H'0,H'2
  9e:	00 00       	nop	
  a0:	0c a6       	mov.b	r2l,r6h
  a2:	04 00       	orc	#0x0,ccr
  a4:	00 00       	nop	
  a6:	00 00       	nop	
  a8:	00 00       	nop	
  aa:	06 74       	andc	#0x74,ccr
  ac:	00 00       	nop	
  ae:	01 4e       	.word	H'1,H'4e
	...
  b8:	00 00       	nop	
  ba:	00 1c       	.word	H'0,H'1c
  bc:	00 02       	.word	H'0,H'2
  be:	00 00       	nop	
  c0:	0f 18       	mov.w	#0x1,e0
  c2:	04 00       	orc	#0x0,ccr
  c4:	00 00       	nop	
  c6:	00 00       	nop	
  c8:	00 00       	nop	
  ca:	07 c2       	ldc	#0xc2,ccr
  cc:	00 00       	nop	
  ce:	00 e8       	.word	H'0,H'e8
	...

Disassembly of section .debug_macro:

00000000 <.Ldebug_macro0>:
.Ldebug_macro0():
   0:	00 04       	.word	H'0,H'4
   2:	02 00       	stc	ccr,r0h
   4:	00 00       	nop	
   6:	00 07       	.word	H'0,H'7
   8:	00 00       	nop	
   a:	00 1a       	.word	H'0,H'1a
   c:	03 00       	ldc	r0h,ccr
   e:	01 03       	.word	H'1,H'3
  10:	01 02       	.word	H'1,H'2
  12:	07 00       	ldc	#0x0,ccr
  14:	00 05       	.word	H'0,H'5
  16:	fa 04       	mov.b	#0x4,r2l
  18:	04 00       	orc	#0x0,ccr

0000001a <.Ldebug_macro1>:
.Ldebug_macro1():
  1a:	00 04       	.word	H'0,H'4
  1c:	00 05       	.word	H'0,H'5
  1e:	00 00       	nop	
  20:	00 11       	.word	H'0,H'11
  22:	b9 05       	subx	#0x5,r1l
  24:	00 00       	nop	
  26:	00 00       	nop	
  28:	ca 05       	or.b	#0x5,r2l
  2a:	00 00       	nop	
  2c:	00 14       	.word	H'0,H'14
  2e:	6a 05 00 00 	mov.b	@0x0:16,r5h
  32:	00 15       	.word	H'0,H'15
  34:	dc 05       	xor.b	#0x5,r4l
  36:	00 00       	nop	
  38:	00 02       	.word	H'0,H'2
  3a:	e6 05       	and.b	#0x5,r6h
  3c:	00 00       	nop	
  3e:	00 0b       	.word	H'0,H'b
  40:	b6 05       	subx	#0x5,r6h
  42:	00 00       	nop	
  44:	00 08       	.word	H'0,H'8
  46:	de 05       	xor.b	#0x5,r6l
  48:	00 00       	nop	
  4a:	00 0b       	.word	H'0,H'b
  4c:	c1 05       	or.b	#0x5,r1h
  4e:	00 00       	nop	
  50:	00 06       	.word	H'0,H'6
  52:	a7 05       	cmp.b	#0x5,r7h
  54:	00 00       	nop	
  56:	00 12       	.word	H'0,H'12
  58:	39 05       	mov.b	r1l,@0x5:8
  5a:	00 00       	nop	
  5c:	00 0c       	.word	H'0,H'c
  5e:	25 05       	mov.b	@0x5:8,r5h
  60:	00 00       	nop	
  62:	00 0e       	.word	H'0,H'e
  64:	5d 05       	bsr	r0l.b
  66:	00 00       	nop	
  68:	00 08       	.word	H'0,H'8
  6a:	47 05       	.word	H'47,H'5
  6c:	00 00       	nop	
  6e:	00 0c       	.word	H'0,H'c
  70:	d9 05       	xor.b	#0x5,r1l
  72:	00 00       	nop	
  74:	00 15       	.word	H'0,H'15
  76:	6a 05 00 00 	mov.b	@0x0:16,r5h
  7a:	00 10       	.word	H'0,H'10
  7c:	f1 05       	mov.b	#0x5,r1h
  7e:	00 00       	nop	
  80:	00 16       	.word	H'0,H'16
  82:	11 05       	shlr.b	r5h
  84:	00 00       	nop	
  86:	00 17       	.word	H'0,H'17
  88:	c5 05       	or.b	#0x5,r5h
  8a:	00 00       	nop	
  8c:	00 0c       	.word	H'0,H'c
  8e:	38 05       	mov.b	r0l,@0x5:8
  90:	00 00       	nop	
  92:	00 14       	.word	H'0,H'14
  94:	58 05       	.word	H'58,H'5
  96:	00 00       	nop	
  98:	00 08       	.word	H'0,H'8
  9a:	0d 05       	mov.w	r0,r5
  9c:	00 00       	nop	
  9e:	00 0a       	.word	H'0,H'a
  a0:	94 05       	addx	#0x5,r4h
  a2:	00 00       	nop	
  a4:	00 11       	.word	H'0,H'11
  a6:	92 05       	addx	#0x5,r2h
  a8:	00 00       	nop	
  aa:	00 06       	.word	H'0,H'6
  ac:	59 05       	bra	r0l.b
  ae:	00 00       	nop	
  b0:	00 04       	.word	H'0,H'4
  b2:	1e 05       	subx	r0h,r5h
  b4:	00 00       	nop	
  b6:	00 00       	nop	
  b8:	37 05       	mov.b	r7h,@0x5:8
  ba:	00 00       	nop	
  bc:	00 16       	.word	H'0,H'16
  be:	9a 05       	addx	#0x5,r2l
  c0:	00 00       	nop	
  c2:	00 0c       	.word	H'0,H'c
  c4:	c1 05       	or.b	#0x5,r1h
  c6:	00 00       	nop	
  c8:	00 11       	.word	H'0,H'11
  ca:	de 05       	xor.b	#0x5,r6l
  cc:	00 00       	nop	
  ce:	00 0a       	.word	H'0,H'a
  d0:	22 05       	mov.b	@0x5:8,r2h
  d2:	00 00       	nop	
  d4:	00 11       	.word	H'0,H'11
  d6:	c4 05       	or.b	#0x5,r4h
  d8:	00 00       	nop	
  da:	00 0d       	.word	H'0,H'd
  dc:	92 05       	addx	#0x5,r2h
  de:	00 00       	nop	
  e0:	00 12       	.word	H'0,H'12
  e2:	89 05       	add.b	#0x5,r1l
  e4:	00 00       	nop	
  e6:	00 00       	nop	
  e8:	b5 05       	subx	#0x5,r5h
  ea:	00 00       	nop	
  ec:	00 09       	.word	H'0,H'9
  ee:	76 05       	band	#0x0,r5h
  f0:	00 00       	nop	
  f2:	00 07       	.word	H'0,H'7
  f4:	c9 05       	or.b	#0x5,r1l
  f6:	00 00       	nop	
  f8:	00 00       	nop	
  fa:	7e 05       	.word	H'7e,H'5
  fc:	00 00       	nop	
  fe:	00 11       	.word	H'0,H'11
 100:	fb 05       	mov.b	#0x5,r3l
 102:	00 00       	nop	
 104:	00 0a       	.word	H'0,H'a
 106:	76 05       	band	#0x0,r5h
 108:	00 00       	nop	
 10a:	00 07       	.word	H'0,H'7
 10c:	a1 05       	cmp.b	#0x5,r1h
 10e:	00 00       	nop	
 110:	00 18       	.word	H'0,H'18
 112:	98 05       	addx	#0x5,r0l
 114:	00 00       	nop	
 116:	00 02       	.word	H'0,H'2
 118:	67 05       	bst	#0x0,r5h
 11a:	00 00       	nop	
 11c:	00 04       	.word	H'0,H'4
 11e:	52 05       	mulxu.w	r0,er5
 120:	00 00       	nop	
 122:	00 05       	.word	H'0,H'5
 124:	49 05       	.word	H'49,H'5
 126:	00 00       	nop	
 128:	00 06       	.word	H'0,H'6
 12a:	6d 05       	mov.w	@er0+,r5
 12c:	00 00       	nop	
 12e:	00 05       	.word	H'0,H'5
 130:	d5 05       	xor.b	#0x5,r5h
 132:	00 00       	nop	
 134:	00 00       	nop	
 136:	4b 05       	.word	H'4b,H'5
 138:	00 00       	nop	
 13a:	00 03       	.word	H'0,H'3
 13c:	ec 05       	and.b	#0x5,r4l
 13e:	00 00       	nop	
 140:	00 15       	.word	H'0,H'15
 142:	ee 05       	and.b	#0x5,r6l
 144:	00 00       	nop	
 146:	00 0f       	.word	H'0,H'f
 148:	fa 05       	mov.b	#0x5,r2l
 14a:	00 00       	nop	
 14c:	00 01       	.word	H'0,H'1
 14e:	b2 05       	subx	#0x5,r2h
 150:	00 00       	nop	
 152:	00 11       	.word	H'0,H'11
 154:	5e 05 00 00 	jsr	@0x50000:24
 158:	00 05       	.word	H'0,H'5
 15a:	ed 05       	and.b	#0x5,r5l
 15c:	00 00       	nop	
 15e:	00 10       	.word	H'0,H'10
 160:	32 05       	mov.b	r2h,@0x5:8
 162:	00 00       	nop	
 164:	00 12       	.word	H'0,H'12
 166:	16 05       	and.b	r0h,r5h
 168:	00 00       	nop	
 16a:	00 18       	.word	H'0,H'18
 16c:	f6 05       	mov.b	#0x5,r6h
 16e:	00 00       	nop	
 170:	00 0d       	.word	H'0,H'd
 172:	cd 05       	or.b	#0x5,r5l
 174:	00 00       	nop	
 176:	00 11       	.word	H'0,H'11
 178:	1b 05       	subs	#1,er5
 17a:	00 00       	nop	
 17c:	00 03       	.word	H'0,H'3
 17e:	5c 05       	.word	H'5c,H'5
 180:	00 00       	nop	
 182:	00 0d       	.word	H'0,H'd
 184:	28 05       	mov.b	@0x5:8,r0l
 186:	00 00       	nop	
 188:	00 06       	.word	H'0,H'6
 18a:	0c 05       	mov.b	r0h,r5h
 18c:	00 00       	nop	
 18e:	00 0c       	.word	H'0,H'c
 190:	49 05       	.word	H'49,H'5
 192:	00 00       	nop	
 194:	00 0a       	.word	H'0,H'a
 196:	ec 05       	and.b	#0x5,r4l
 198:	00 00       	nop	
 19a:	00 14       	.word	H'0,H'14
 19c:	94 05       	addx	#0x5,r4h
 19e:	00 00       	nop	
 1a0:	00 17       	.word	H'0,H'17
 1a2:	36 05       	mov.b	r6h,@0x5:8
 1a4:	00 00       	nop	
 1a6:	00 0e       	.word	H'0,H'e
 1a8:	70 05       	bset	#0x0,r5h
 1aa:	00 00       	nop	
 1ac:	00 18       	.word	H'0,H'18
 1ae:	bb 05       	subx	#0x5,r3l
 1b0:	00 00       	nop	
 1b2:	00 0a       	.word	H'0,H'a
 1b4:	3c 05       	mov.b	r4l,@0x5:8
 1b6:	00 00       	nop	
 1b8:	00 0d       	.word	H'0,H'd
 1ba:	f6 05       	mov.b	#0x5,r6h
 1bc:	00 00       	nop	
 1be:	00 14       	.word	H'0,H'14
 1c0:	f3 05       	mov.b	#0x5,r3h
 1c2:	00 00       	nop	
 1c4:	00 01       	.word	H'0,H'1
 1c6:	80 05       	add.b	#0x5,r0h
 1c8:	00 00       	nop	
 1ca:	00 02       	.word	H'0,H'2
 1cc:	b8 05       	subx	#0x5,r0l
 1ce:	00 00       	nop	
 1d0:	00 15       	.word	H'0,H'15
 1d2:	39 05       	mov.b	r1l,@0x5:8
 1d4:	00 00       	nop	
 1d6:	00 0b       	.word	H'0,H'b
 1d8:	a3 05       	cmp.b	#0x5,r3h
 1da:	00 00       	nop	
 1dc:	00 11       	.word	H'0,H'11
 1de:	7e 05       	.word	H'7e,H'5
 1e0:	00 00       	nop	
 1e2:	00 01       	.word	H'0,H'1
 1e4:	55 05       	bsr	.+5 (0x1eb)
 1e6:	00 00       	nop	
 1e8:	00 17       	.word	H'0,H'17
 1ea:	dc 05       	xor.b	#0x5,r4l
 1ec:	00 00       	nop	
 1ee:	00 09       	.word	H'0,H'9
 1f0:	4f 05       	.word	H'4f,H'5
 1f2:	00 00       	nop	
 1f4:	00 0e       	.word	H'0,H'e
 1f6:	19 05       	sub.w	r0,r5
 1f8:	00 00       	nop	
 1fa:	00 13       	.word	H'0,H'13
 1fc:	cd 05       	or.b	#0x5,r5l
 1fe:	00 00       	nop	
 200:	00 0e       	.word	H'0,H'e
 202:	f2 05       	mov.b	#0x5,r2h
 204:	00 00       	nop	
 206:	00 08       	.word	H'0,H'8
 208:	9b 05       	addx	#0x5,r3l
 20a:	00 00       	nop	
 20c:	00 01       	.word	H'0,H'1
 20e:	d9 05       	xor.b	#0x5,r1l
 210:	00 00       	nop	
 212:	00 0f       	.word	H'0,H'f
 214:	e0 05       	and.b	#0x5,r0h
 216:	00 00       	nop	
 218:	00 03       	.word	H'0,H'3
 21a:	4a 05       	.word	H'4a,H'5
 21c:	00 00       	nop	
 21e:	00 04       	.word	H'0,H'4
 220:	80 05       	add.b	#0x5,r0h
 222:	00 00       	nop	
 224:	00 06       	.word	H'0,H'6
 226:	48 05       	.word	H'48,H'5
 228:	00 00       	nop	
 22a:	00 05       	.word	H'0,H'5
 22c:	63 05       	btst	r0h,r5h
 22e:	00 00       	nop	
 230:	00 14       	.word	H'0,H'14
 232:	07 05       	ldc	#0x5,ccr
 234:	00 00       	nop	
 236:	00 13       	.word	H'0,H'13
 238:	de 05       	xor.b	#0x5,r6l
 23a:	00 00       	nop	
 23c:	00 08       	.word	H'0,H'8
 23e:	89 05       	add.b	#0x5,r1l
 240:	00 00       	nop	
 242:	00 18       	.word	H'0,H'18
 244:	16 05       	and.b	r0h,r5h
 246:	00 00       	nop	
 248:	00 07       	.word	H'0,H'7
 24a:	49 05       	.word	H'49,H'5
 24c:	00 00       	nop	
 24e:	00 06       	.word	H'0,H'6
 250:	24 05       	mov.b	@0x5:8,r4h
 252:	00 00       	nop	
 254:	00 11       	.word	H'0,H'11
 256:	05 05       	xorc	#0x5,ccr
 258:	00 00       	nop	
 25a:	00 0e       	.word	H'0,H'e
softvec_init():
/home/interrupt.c:7
{
 25c:	af 05       	cmp.b	#0x5,r7l
 25e:	00 00       	nop	
 260:	00 02       	.word	H'0,H'2
softvec_setintr():
/home/interrupt.c:17
  SOFTVECS[type] = handler;
 262:	36 05       	mov.b	r6h,@0x5:8
 264:	00 00       	nop	
 266:	00 0d       	.word	H'0,H'd
 268:	00 05       	.word	H'0,H'5
 26a:	00 00       	nop	
 26c:	00 10       	.word	H'0,H'10
 26e:	9b 05       	addx	#0x5,r3l
 270:	00 00       	nop	
 272:	00 16       	.word	H'0,H'16
 274:	a9 05       	cmp.b	#0x5,r1l
 276:	00 00       	nop	
 278:	00 01       	.word	H'0,H'1
 27a:	68 05       	mov.b	@er0,r5h
 27c:	00 00       	nop	
 27e:	00 17       	.word	H'0,H'17
 280:	76 05       	band	#0x0,r5h
 282:	00 00       	nop	
 284:	00 0c       	.word	H'0,H'c
 286:	7e 05       	.word	H'7e,H'5
 288:	00 00       	nop	
 28a:	00 19       	.word	H'0,H'19
 28c:	32 05       	mov.b	r2h,@0x5:8
 28e:	00 00       	nop	
 290:	00 09       	.word	H'0,H'9
 292:	e8 05       	and.b	#0x5,r0l
 294:	00 00       	nop	
 296:	00 06       	.word	H'0,H'6
 298:	bb 05       	subx	#0x5,r3l
 29a:	00 00       	nop	
 29c:	00 02       	.word	H'0,H'2
 29e:	1f 05       	das	r5h
 2a0:	00 00       	nop	
 2a2:	00 0d       	.word	H'0,H'd
 2a4:	76 05       	band	#0x0,r5h
 2a6:	00 00       	nop	
 2a8:	00 08       	.word	H'0,H'8
 2aa:	b9 05       	subx	#0x5,r1l
 2ac:	00 00       	nop	
 2ae:	00 19       	.word	H'0,H'19
 2b0:	62 05       	bclr	r0h,r5h
 2b2:	00 00       	nop	
 2b4:	00 08       	.word	H'0,H'8
 2b6:	ab 05       	cmp.b	#0x5,r3l
 2b8:	00 00       	nop	
 2ba:	00 0d       	.word	H'0,H'd
 2bc:	b6 05       	subx	#0x5,r6h
 2be:	00 00       	nop	
 2c0:	00 10       	.word	H'0,H'10
 2c2:	50 05       	mulxu.b	r0h,r5
softvec_init():
/home/interrupt.c:12
}
 2c4:	00 00       	nop	
 2c6:	00 0a       	.word	H'0,H'a
 2c8:	c7 05       	or.b	#0x5,r7h
 2ca:	00 00       	nop	
softvec_setintr():
/home/interrupt.c:16
{
 2cc:	00 04       	.word	H'0,H'4
 2ce:	92 05       	addx	#0x5,r2h
 2d0:	00 00       	nop	
/home/interrupt.c:17
  SOFTVECS[type] = handler;
 2d2:	00 12       	.word	H'0,H'12
 2d4:	b3 05       	subx	#0x5,r3h
 2d6:	00 00       	nop	
 2d8:	00 07       	.word	H'0,H'7
 2da:	02 05       	stc	ccr,r5h
 2dc:	00 00       	nop	
 2de:	00 02       	.word	H'0,H'2
 2e0:	4e 05       	.word	H'4e,H'5
/home/interrupt.c:19
}
 2e2:	00 00       	nop	
 2e4:	00 03       	.word	H'0,H'3
 2e6:	aa 05       	cmp.b	#0x5,r2l
 2e8:	00 00       	nop	
interrupt():
/home/interrupt.c:26
{
 2ea:	00 00       	nop	
 2ec:	a0 05       	cmp.b	#0x5,r0h
 2ee:	00 00       	nop	
/home/interrupt.c:27
  softvec_handler_t handler = SOFTVECS[type];
 2f0:	00 19       	.word	H'0,H'19
 2f2:	19 05       	sub.w	r0,r5
 2f4:	00 00       	nop	
 2f6:	00 00       	nop	
 2f8:	00 05       	.word	H'0,H'5
 2fa:	00 00       	nop	
 2fc:	00 18       	.word	H'0,H'18
 2fe:	e7 05       	and.b	#0x5,r7h
 300:	00 00       	nop	
/home/interrupt.c:28
  if (handler)
 302:	00 09       	.word	H'0,H'9
/home/interrupt.c:29
    handler(type, sp);
 304:	32 05       	mov.b	r2h,@0x5:8
/home/interrupt.c:30
}
 306:	00 00       	nop	
 308:	00 13       	.word	H'0,H'13
 30a:	5f 05       	jsr	@@5 (0x5)
memset():
/home/lib.c:6
{
 30c:	00 00       	nop	
 30e:	00 14       	.word	H'0,H'14
 310:	d1 05       	xor.b	#0x5,r1h
 312:	00 00       	nop	
 314:	00 10       	.word	H'0,H'10
/home/lib.c:8
  for (p = b; len > 0; len--)
 316:	1c 05       	cmp.b	r0h,r5h
 318:	00 00       	nop	
 31a:	00 19       	.word	H'0,H'19
/home/lib.c:9 (discriminator 3)
    *(p++) = c;
 31c:	7a 05 00 00 	mov.l	#0x13,er5
 320:	00 13 
 322:	9f 05       	addx	#0x5,r7l
/home/lib.c:8 (discriminator 1)
  for (p = b; len > 0; len--)
 324:	00 00       	nop	
 326:	00 08       	.word	H'0,H'8
/home/lib.c:11
}
 328:	70 05       	bset	#0x0,r5h
 32a:	00 00       	nop	
 32c:	00 02       	.word	H'0,H'2
 32e:	cf 05       	or.b	#0x5,r7l
 330:	00 00       	nop	
memcpy():
/home/lib.c:14
{
 332:	00 15       	.word	H'0,H'15
 334:	7d 05       	.word	H'7d,H'5
 336:	00 00       	nop	
 338:	00 02       	.word	H'0,H'2
 33a:	a0 05       	cmp.b	#0x5,r0h
 33c:	00 00       	nop	
 33e:	00 07       	.word	H'0,H'7
/home/lib.c:17
  for (; len > 0; len--)
 340:	16 05       	and.b	r0h,r5h
 342:	00 00       	nop	
/home/lib.c:18 (discriminator 2)
    *(d++) = *(s++);
 344:	00 00       	nop	
 346:	19 05       	sub.w	r0,r5
 348:	00 00       	nop	
 34a:	00 05       	.word	H'0,H'5
 34c:	91 05       	addx	#0x5,r1h
 34e:	00 00       	nop	
 350:	00 16       	.word	H'0,H'16
 352:	d6 05       	xor.b	#0x5,r6h
 354:	00 00       	nop	
/home/lib.c:17 (discriminator 1)
  for (; len > 0; len--)
 356:	00 11       	.word	H'0,H'11
 358:	43 05       	.word	H'43,H'5
/home/lib.c:20
}
 35a:	00 00       	nop	
 35c:	00 14       	.word	H'0,H'14
 35e:	b5 05       	subx	#0x5,r5h
 360:	00 00       	nop	
 362:	00 17       	.word	H'0,H'17
 364:	f5 05       	mov.b	#0x5,r5h
 366:	00 00       	nop	
memcmp():
/home/lib.c:23
{
 368:	00 07       	.word	H'0,H'7
 36a:	e3 05       	and.b	#0x5,r3h
 36c:	00 00       	nop	
 36e:	00 04       	.word	H'0,H'4
 370:	37 05       	mov.b	r7h,@0x5:8
 372:	00 00       	nop	
/home/lib.c:25
  for (; len > 0; len--) {
 374:	00 07       	.word	H'0,H'7
/home/lib.c:26
    if (*p1 != *p2)
 376:	35 05       	mov.b	r5h,@0x5:8
 378:	00 00       	nop	
 37a:	00 16       	.word	H'0,H'16
 37c:	50 05       	mulxu.b	r0h,r5
/home/lib.c:27
      return (*p1 > *p2) ? 1 : -1;
 37e:	00 00       	nop	
 380:	00 12       	.word	H'0,H'12
 382:	e8 05       	and.b	#0x5,r0l
 384:	00 00       	nop	
/home/lib.c:28
    p1++;
 386:	00 09       	.word	H'0,H'9
/home/lib.c:29
    p2++;
 388:	a3 05       	cmp.b	#0x5,r3h
 38a:	00 00       	nop	
 38c:	00 0e       	.word	H'0,H'e
/home/lib.c:25 (discriminator 1)
  for (; len > 0; len--) {
 38e:	47 05       	.word	H'47,H'5
 390:	00 00       	nop	
/home/lib.c:31
  return 0;
 392:	00 02       	.word	H'0,H'2
 394:	f8 05       	mov.b	#0x5,r0l
/home/lib.c:27
      return (*p1 > *p2) ? 1 : -1;
 396:	00 00       	nop	
 398:	00 09       	.word	H'0,H'9
/home/lib.c:32
}
 39a:	1c 05       	cmp.b	r0h,r5h
 39c:	00 00       	nop	
 39e:	00 0f       	.word	H'0,H'f
 3a0:	d0 05       	xor.b	#0x5,r0h
 3a2:	00 00       	nop	
strlen():
/home/lib.c:35
{
 3a4:	00 0c       	.word	H'0,H'c
 3a6:	ec 05       	and.b	#0x5,r4l
 3a8:	00 00       	nop	
/home/lib.c:37
  for (len = 0; *s; s++, len++)
 3aa:	00 08       	.word	H'0,H'8
 3ac:	24 05       	mov.b	@0x5:8,r4h
/home/lib.c:37 (discriminator 3)
 3ae:	00 00       	nop	
 3b0:	00 0a       	.word	H'0,H'a
/home/lib.c:37 (discriminator 1)
 3b2:	0b 05       	adds	#1,er5
 3b4:	00 00       	nop	
/home/lib.c:40
}
 3b6:	00 17       	.word	H'0,H'17
 3b8:	88 05       	add.b	#0x5,r0l
 3ba:	00 00       	nop	
 3bc:	00 0b       	.word	H'0,H'b
strcpy():
/home/lib.c:43
{
 3be:	0e 05       	addx	r0h,r5h
 3c0:	00 00       	nop	
 3c2:	00 08       	.word	H'0,H'8
 3c4:	5a 05 00 00 	jmp	@0x50000:24
/home/lib.c:46
    *dst = *src;
 3c8:	00 0c       	.word	H'0,H'c
/home/lib.c:47
    if (!*src) break;
 3ca:	0f 05       	daa	r5h
 3cc:	00 00       	nop	
/home/lib.c:45
  for (;; dst++, src++) {
 3ce:	00 0b       	.word	H'0,H'b
 3d0:	87 05       	add.b	#0x5,r7h
/home/lib.c:46
    *dst = *src;
 3d2:	00 00       	nop	
/home/lib.c:50
}
 3d4:	00 05       	.word	H'0,H'5
 3d6:	b9 05       	subx	#0x5,r1l
 3d8:	00 00       	nop	
strcmp():
/home/lib.c:53
{
 3da:	00 06       	.word	H'0,H'6
 3dc:	ce 05       	or.b	#0x5,r6l
 3de:	00 00       	nop	
/home/lib.c:54
  while (*s1 || *s2) {
 3e0:	00 14       	.word	H'0,H'14
/home/lib.c:55
    if (*s1 != *s2)
 3e2:	35 05       	mov.b	r5h,@0x5:8
 3e4:	00 00       	nop	
/home/lib.c:56
      return (*s1 > *s2) ? 1 : -1;
 3e6:	00 04       	.word	H'0,H'4
 3e8:	fc 05       	mov.b	#0x5,r4l
 3ea:	00 00       	nop	
 3ec:	00 13       	.word	H'0,H'13
/home/lib.c:57
    s1++;
 3ee:	b6 05       	subx	#0x5,r6h
/home/lib.c:58
    s2++;
 3f0:	00 00       	nop	
/home/lib.c:54
  while (*s1 || *s2) {
 3f2:	00 09       	.word	H'0,H'9
 3f4:	d0 05       	xor.b	#0x5,r0h
 3f6:	00 00       	nop	
 3f8:	00 13       	.word	H'0,H'13
/home/lib.c:54 (discriminator 1)
 3fa:	74 05       	bor	#0x0,r5h
 3fc:	00 00       	nop	
 3fe:	00 0f       	.word	H'0,H'f
 400:	22 05       	mov.b	@0x5:8,r2h
 402:	00 00       	nop	
 404:	00 12       	.word	H'0,H'12
 406:	4c 05       	.word	H'4c,H'5
/home/lib.c:56
      return (*s1 > *s2) ? 1 : -1;
 408:	00 00       	nop	
 40a:	00 19       	.word	H'0,H'19
/home/lib.c:61
}
 40c:	cc 05       	or.b	#0x5,r4l
 40e:	00 00       	nop	
 410:	00 11       	.word	H'0,H'11
strncmp():
/home/lib.c:64
{
 412:	a5 05       	cmp.b	#0x5,r5h
 414:	00 00       	nop	
 416:	00 16       	.word	H'0,H'16
 418:	6d 05       	mov.w	@er0+,r5
 41a:	00 00       	nop	
/home/lib.c:65
  while ((*s1 || *s2) && (len > 0)) {
 41c:	00 00       	nop	
/home/lib.c:66
    if (*s1 != *s2)
 41e:	68 05       	mov.b	@er0,r5h
 420:	00 00       	nop	
 422:	00 12       	.word	H'0,H'12
/home/lib.c:67
      return (*s1 > *s2) ? 1 : -1;
 424:	63 05       	btst	r0h,r5h
 426:	00 00       	nop	
 428:	00 0f       	.word	H'0,H'f
 42a:	66 05       	and.w	r0,r5
/home/lib.c:68
    s1++;
 42c:	00 00       	nop	
/home/lib.c:69
    s2++;
 42e:	00 12       	.word	H'0,H'12
/home/lib.c:70
    len--;
 430:	f8 05       	mov.b	#0x5,r0l
/home/lib.c:65
  while ((*s1 || *s2) && (len > 0)) {
 432:	00 00       	nop	
 434:	00 08       	.word	H'0,H'8
/home/lib.c:65 (discriminator 2)
 436:	ef 05       	and.b	#0x5,r7l
 438:	00 00       	nop	
 43a:	00 17       	.word	H'0,H'17
/home/lib.c:65 (discriminator 3)
 43c:	21 05       	mov.b	@0x5:8,r1h
 43e:	00 00       	nop	
/home/lib.c:72
  return 0;
 440:	00 02       	.word	H'0,H'2
 442:	89 05       	add.b	#0x5,r1l
/home/lib.c:67
      return (*s1 > *s2) ? 1 : -1;
 444:	00 00       	nop	
 446:	00 03       	.word	H'0,H'3
 448:	89 05       	add.b	#0x5,r1l
/home/lib.c:65
  while ((*s1 || *s2) && (len > 0)) {
 44a:	00 00       	nop	
 44c:	00 09       	.word	H'0,H'9
 44e:	bb 05       	subx	#0x5,r3l
 450:	00 00       	nop	
 452:	00 0a       	.word	H'0,H'a
 454:	a7 05       	cmp.b	#0x5,r7h
/home/lib.c:73
}
 456:	00 00       	nop	
 458:	00 14       	.word	H'0,H'14
 45a:	7c 05       	.word	H'7c,H'5
 45c:	00 00       	nop	
 45e:	00 17       	.word	H'0,H'17
putc():
/home/lib.c:77
{
 460:	07 05       	ldc	#0x5,ccr
 462:	00 00       	nop	
 464:	00 06       	.word	H'0,H'6
 466:	ed 05       	and.b	#0x5,r5l
 468:	00 00       	nop	
 46a:	00 14       	.word	H'0,H'14
/home/lib.c:78
  if (c == '\n')
 46c:	1e 05       	subx	r0h,r5h
 46e:	00 00       	nop	
/home/lib.c:79
    serial_send_byte(SERIAL_DEFAULT_DEVICE, '\r');
 470:	00 13       	.word	H'0,H'13
 472:	21 05       	mov.b	@0x5:8,r1h
 474:	00 00       	nop	
 476:	00 18       	.word	H'0,H'18
 478:	81 05       	add.b	#0x5,r1h
/home/lib.c:80
  return serial_send_byte(SERIAL_DEFAULT_DEVICE, c);
 47a:	00 00       	nop	
 47c:	00 0b       	.word	H'0,H'b
 47e:	f2 05       	mov.b	#0x5,r2h
 480:	00 00       	nop	
 482:	00 18       	.word	H'0,H'18
/home/lib.c:81
}
 484:	2b 05       	mov.b	@0x5:8,r3l
 486:	00 00       	nop	
 488:	00 18       	.word	H'0,H'18
 48a:	48 05       	.word	H'48,H'5
 48c:	00 00       	nop	
getc():
/home/lib.c:85
{
 48e:	00 07       	.word	H'0,H'7
 490:	7d 05       	.word	H'7d,H'5
 492:	00 00       	nop	
 494:	00 19       	.word	H'0,H'19
 496:	4c 05       	.word	H'4c,H'5
/home/lib.c:86
  unsigned char c = serial_recv_byte(SERIAL_DEFAULT_DEVICE);
 498:	00 00       	nop	
 49a:	00 04       	.word	H'0,H'4
 49c:	e4 05       	and.b	#0x5,r4h
 49e:	00 00       	nop	
 4a0:	00 06       	.word	H'0,H'6
/home/lib.c:87
  c = (c == '\r') ? '\n' : c;
 4a2:	86 05       	add.b	#0x5,r6h
 4a4:	00 00       	nop	
 4a6:	00 0c       	.word	H'0,H'c
/home/lib.c:88 (discriminator 4)
  putc(c); /* エコー・バック */
 4a8:	ab 05       	cmp.b	#0x5,r3l
 4aa:	00 00       	nop	
 4ac:	00 13       	.word	H'0,H'13
/home/lib.c:90
}
 4ae:	4f 05       	.word	H'4f,H'5
 4b0:	00 00       	nop	
 4b2:	00 18       	.word	H'0,H'18
 4b4:	68 05       	mov.b	@er0,r5h
 4b6:	00 00       	nop	
 4b8:	00 0b       	.word	H'0,H'b
puts():
/home/lib.c:94
{
 4ba:	d7 05       	xor.b	#0x5,r7h
 4bc:	00 00       	nop	
 4be:	00 0a       	.word	H'0,H'a
 4c0:	d6 05       	xor.b	#0x5,r6h
 4c2:	00 00       	nop	
 4c4:	00 0d       	.word	H'0,H'd
/home/lib.c:95
  while (*str)
 4c6:	3f 05       	mov.b	r7l,@0x5:8
/home/lib.c:96
    putc(*(str++));
 4c8:	00 00       	nop	
 4ca:	00 0e       	.word	H'0,H'e
 4cc:	97 05       	addx	#0x5,r7h
/home/lib.c:95
  while (*str)
 4ce:	00 00       	nop	
 4d0:	00 0b       	.word	H'0,H'b
/home/lib.c:98
}
 4d2:	48 05       	.word	H'48,H'5
 4d4:	00 00       	nop	
 4d6:	00 04       	.word	H'0,H'4
 4d8:	c4 05       	or.b	#0x5,r4h
 4da:	00 00       	nop	
 4dc:	00 19       	.word	H'0,H'19
gets():
/home/lib.c:102
{
 4de:	fc 05       	mov.b	#0x5,r4l
 4e0:	00 00       	nop	
 4e2:	00 01       	.word	H'0,H'1
 4e4:	18 05       	sub.b	r0h,r5h
 4e6:	00 00       	nop	
 4e8:	00 13       	.word	H'0,H'13
 4ea:	88 05       	add.b	#0x5,r0l
 4ec:	00 00       	nop	
 4ee:	00 04       	.word	H'0,H'4
 4f0:	ab 05       	cmp.b	#0x5,r3l
 4f2:	00 00       	nop	
 4f4:	00 10       	.word	H'0,H'10
/home/lib.c:106
    c = getc();
 4f6:	b5 05       	subx	#0x5,r5h
 4f8:	00 00       	nop	
 4fa:	00 12       	.word	H'0,H'12
 4fc:	d3 05       	xor.b	#0x5,r3h
 4fe:	00 00       	nop	
/home/lib.c:107
    if (c == '\n')
 500:	00 0f       	.word	H'0,H'f
 502:	4e 05       	.word	H'4e,H'5
 504:	00 00       	nop	
 506:	00 04       	.word	H'0,H'4
 508:	09 05       	add.w	r0,r5
/home/lib.c:108
      c = '\0';
 50a:	00 00       	nop	
/home/lib.c:109
    buf[i++] = c;
 50c:	00 01       	.word	H'0,H'1
 50e:	f5 05       	mov.b	#0x5,r5h
/home/lib.c:110
  } while (c);
 510:	00 00       	nop	
/home/lib.c:112
}
 512:	00 13       	.word	H'0,H'13
 514:	33 05       	mov.b	r3h,@0x5:8
 516:	00 00       	nop	
 518:	00 16       	.word	H'0,H'16
 51a:	ee 05       	and.b	#0x5,r6l
 51c:	00 00       	nop	
 51e:	00 16       	.word	H'0,H'16
 520:	29 05       	mov.b	@0x5:8,r1l
 522:	00 00       	nop	
putxval():
/home/lib.c:116
{
 524:	00 01       	.word	H'0,H'1
 526:	3f 05       	mov.b	r7l,@0x5:8
 528:	00 00       	nop	
 52a:	00 10       	.word	H'0,H'10
 52c:	82 05       	add.b	#0x5,r2h
 52e:	00 00       	nop	
 530:	00 04       	.word	H'0,H'4
 532:	6a 05 00 00 	mov.b	@0x0:16,r5h
/home/lib.c:121
  *(p--) = '\0';
 536:	00 16       	.word	H'0,H'16
 538:	83 05       	add.b	#0x5,r3h
/home/lib.c:123
  if (!value && !column)
 53a:	00 00       	nop	
 53c:	00 0b       	.word	H'0,H'b
/home/lib.c:123 (discriminator 1)
 53e:	22 05       	mov.b	@0x5:8,r2h
 540:	00 00       	nop	
/home/lib.c:124
    column++;
 542:	00 00       	nop	
 544:	e3 05       	and.b	#0x5,r3h
 546:	00 00       	nop	
 548:	00 03       	.word	H'0,H'3
 54a:	19 05       	sub.w	r0,r5
/home/lib.c:127
    *(p--) = "0123456789abcdef"[value & 0xf];
 54c:	00 00       	nop	
 54e:	00 10       	.word	H'0,H'10
 550:	6b 05 00 00 	mov.w	@0x0:16,r5
 554:	00 00       	nop	
 556:	fd 05       	mov.b	#0x5,r5l
 558:	00 00       	nop	
 55a:	00 0c       	.word	H'0,H'c
 55c:	66 05       	and.w	r0,r5
 55e:	00 00       	nop	
/home/lib.c:128
    value >>= 4;
 560:	00 03       	.word	H'0,H'3
 562:	d3 05       	xor.b	#0x5,r3h
 564:	00 00       	nop	
 566:	00 0f       	.word	H'0,H'f
/home/lib.c:129
    if (column) column--;
 568:	96 05       	addx	#0x5,r6h
 56a:	00 00       	nop	
/home/lib.c:129 (discriminator 1)
 56c:	00 0f       	.word	H'0,H'f
 56e:	07 05       	ldc	#0x5,ccr
/home/lib.c:126
  while (value || column) {
 570:	00 00       	nop	
 572:	00 15       	.word	H'0,H'15
/home/lib.c:126 (discriminator 1)
 574:	97 05       	addx	#0x5,r7h
 576:	00 00       	nop	
/home/lib.c:132
  puts(p + 1);
 578:	00 15       	.word	H'0,H'15
 57a:	55 05       	bsr	.+5 (0x581)
 57c:	00 00       	nop	
 57e:	00 0e       	.word	H'0,H'e
/home/lib.c:135
}
 580:	2f 05       	mov.b	@0x5:8,r7l
 582:	00 00       	nop	
 584:	00 19       	.word	H'0,H'19
 586:	e5 05       	and.b	#0x5,r5h
 588:	00 00       	nop	
 58a:	00 0d       	.word	H'0,H'd
 58c:	14 05       	or.b	r0h,r5h
 58e:	00 00       	nop	
 590:	00 15       	.word	H'0,H'15
serial_init():
/home/serial.c:59
{
 592:	1b 05       	subs	#1,er5
 594:	00 00       	nop	
 596:	00 0f       	.word	H'0,H'f
/home/serial.c:60
  volatile struct h8_3069f_sci *sci = regs[index].sci;
 598:	30 05       	mov.b	r0h,@0x5:8
 59a:	00 00       	nop	
 59c:	00 10       	.word	H'0,H'10
 59e:	cf 05       	or.b	#0x5,r7l
 5a0:	00 00       	nop	
 5a2:	00 07       	.word	H'0,H'7
 5a4:	5b 05       	jmp	@@5 (0x5)
 5a6:	00 00       	nop	
/home/serial.c:62
  sci->scr = 0;
 5a8:	00 05       	.word	H'0,H'5
 5aa:	28 05       	mov.b	@0x5:8,r0l
 5ac:	00 00       	nop	
/home/serial.c:63
  sci->smr = 0;
 5ae:	00 0d       	.word	H'0,H'd
/home/serial.c:64
  sci->brr = 64; /* 20MHzのクロックから9600bpsを生成(25MHzの場合は80にする) */
 5b0:	57 05       	.word	H'57,H'5
 5b2:	00 00       	nop	
 5b4:	00 0e       	.word	H'0,H'e
/home/serial.c:65
  sci->scr = H8_3069F_SCI_SCR_RE | H8_3069F_SCI_SCR_TE; /* 送受信可能 */
 5b6:	d5 05       	xor.b	#0x5,r5h
 5b8:	00 00       	nop	
 5ba:	00 17       	.word	H'0,H'17
/home/serial.c:66
  sci->ssr = 0;
 5bc:	58 05       	.word	H'58,H'5
 5be:	00 00       	nop	
/home/serial.c:69
}
 5c0:	00 0b       	.word	H'0,H'b
 5c2:	68 05       	mov.b	@er0,r5h
 5c4:	00 00       	nop	
 5c6:	00 17       	.word	H'0,H'17
serial_is_send_enable():
/home/serial.c:73
{
 5c8:	a1 05       	cmp.b	#0x5,r1h
 5ca:	00 00       	nop	
 5cc:	00 0a       	.word	H'0,H'a
/home/serial.c:74
  volatile struct h8_3069f_sci *sci = regs[index].sci;
 5ce:	55 05       	bsr	.+5 (0x5d5)
 5d0:	00 00       	nop	
 5d2:	00 05       	.word	H'0,H'5
 5d4:	75 05       	bxor	#0x0,r5h
 5d6:	00 00       	nop	
 5d8:	00 08       	.word	H'0,H'8
 5da:	32 05       	mov.b	r2h,@0x5:8
 5dc:	00 00       	nop	
/home/serial.c:75
  return (sci->ssr & H8_3069F_SCI_SSR_TDRE);
 5de:	00 02       	.word	H'0,H'2
 5e0:	0b 05       	adds	#1,er5
 5e2:	00 00       	nop	
/home/serial.c:76
}
 5e4:	00 05       	.word	H'0,H'5
 5e6:	11 05       	shlr.b	r5h
 5e8:	00 00       	nop	
 5ea:	00 09       	.word	H'0,H'9
serial_send_byte():
/home/serial.c:80
{
 5ec:	96 05       	addx	#0x5,r6h
 5ee:	00 00       	nop	
 5f0:	00 0f       	.word	H'0,H'f
/home/serial.c:81
  volatile struct h8_3069f_sci *sci = regs[index].sci;
 5f2:	8c 05       	add.b	#0x5,r4l
 5f4:	00 00       	nop	
 5f6:	00 16       	.word	H'0,H'16
 5f8:	20 00       	mov.b	@0x0:8,r0h

000005fa <.Ldebug_macro2>:
.Ldebug_macro2():
 5fa:	00 04       	.word	H'0,H'4
serial_send_byte():
/home/serial.c:81
 5fc:	00 05       	.word	H'0,H'5
 5fe:	02 00       	stc	ccr,r0h
 600:	00 13       	.word	H'0,H'13
serial_is_send_enable():
/home/serial.c:75 (discriminator 1)
  return (sci->ssr & H8_3069F_SCI_SSR_TDRE);
 602:	f1 05       	mov.b	#0x5,r1h
 604:	04 00       	orc	#0x0,ccr
serial_send_byte():
/home/serial.c:84
  while (!serial_is_send_enable(index))
 606:	00 0a       	.word	H'0,H'a
/home/serial.c:86
  sci->tdr = c;
 608:	b6 05       	subx	#0x5,r6h
 60a:	05 00       	xorc	#0x0,ccr
/home/serial.c:87
  sci->ssr &= ~H8_3069F_SCI_SSR_TDRE; /* 送信開始 */
 60c:	00 0c       	.word	H'0,H'c
 60e:	93 00       	addx	#0x0,r3h

00000610 <.Ldebug_macro0>:
.Ldebug_macro0():
 610:	00 04       	.word	H'0,H'4
serial_send_byte():
/home/serial.c:87
 612:	02 00       	stc	ccr,r0h
 614:	00 00       	nop	
/home/serial.c:90
}
 616:	41 07       	.word	H'41,H'7
 618:	00 00       	nop	
 61a:	00 1a       	.word	H'0,H'1a
 61c:	03 00       	ldc	r0h,ccr
serial_is_recv_enable():
/home/serial.c:94
{
 61e:	01 03       	.word	H'1,H'3
 620:	01 07       	.word	H'1,H'7
 622:	07 00       	ldc	#0x0,ccr
/home/serial.c:95
  volatile struct h8_3069f_sci *sci = regs[index].sci;
 624:	00 05       	.word	H'0,H'5
 626:	fa 04       	mov.b	#0x4,r2l
 628:	03 02       	ldc	r2h,ccr
 62a:	02 07       	stc	ccr,r7h
 62c:	00 00       	nop	
 62e:	06 5b       	andc	#0x5b,ccr
 630:	04 03       	orc	#0x3,ccr
 632:	03 04       	ldc	r4h,ccr
/home/serial.c:96
  return (sci->ssr & H8_3069F_SCI_SSR_RDRF);
 634:	05 02       	xorc	#0x2,ccr
 636:	00 00       	nop	
 638:	1a 33       	sub.w	#0x3,r3
/home/serial.c:97
}
 63a:	04 03       	orc	#0x3,ccr
 63c:	04 05       	orc	#0x5,ccr
 63e:	05 02       	xorc	#0x2,ccr
 640:	00 00       	nop	
serial_recv_byte():
/home/serial.c:101
{
 642:	1b 7b       	.word	H'1b,H'7b
 644:	04 03       	orc	#0x3,ccr
 646:	05 06       	xorc	#0x6,ccr
/home/serial.c:102
  volatile struct h8_3069f_sci *sci = regs[index].sci;
 648:	05 02       	xorc	#0x2,ccr
 64a:	00 00       	nop	
 64c:	1a 5a       	sub.w	#0x5,e2
 64e:	04 03       	orc	#0x3,ccr
 650:	06 03       	andc	#0x3,ccr
 652:	05 02       	xorc	#0x2,ccr
 654:	00 00       	nop	
 656:	1b 20       	.word	H'1b,H'20
serial_is_recv_enable():
/home/serial.c:96 (discriminator 1)
  return (sci->ssr & H8_3069F_SCI_SSR_RDRF);
 658:	04 04       	orc	#0x4,ccr
	...

0000065b <.Ldebug_macro3>:
.Ldebug_macro3():
 65b:	00 04       	.word	H'0,H'4
serial_recv_byte():
/home/serial.c:106
  while (!serial_is_recv_enable(index))
 65d:	00 05       	.word	H'0,H'5
 65f:	02 00       	stc	ccr,r0h
/home/serial.c:108
  c = sci->rdr;
 661:	00 1b       	.word	H'0,H'1b
 663:	08 05       	add.b	r0h,r5h
/home/serial.c:109
  sci->ssr &= ~H8_3069F_SCI_SSR_RDRF; /* 受信完了 */
 665:	06 00       	andc	#0x0,ccr
 667:	00 1b       	.word	H'0,H'1b
 669:	90 05       	addx	#0x5,r0h
 66b:	0c 00       	mov.b	r0h,r0h
 66d:	00 1a       	.word	H'0,H'1a
/home/serial.c:112
}
 66f:	db 05       	xor.b	#0x5,r3l
 671:	0e 00       	addx	r0h,r0h
 673:	00 1b       	.word	H'0,H'1b
xmodem_recv():
/home/xmodem.c:60
{
 675:	4d 05       	.word	H'4d,H'5
 677:	0f 00       	daa	r0h
 679:	00 1a       	.word	H'0,H'1a
 67b:	78 00       	.word	H'78,H'0

0000067d <.Ldebug_macro0>:
.Ldebug_macro0():
 67d:	00 04       	.word	H'0,H'4
xmodem_recv():
/home/xmodem.c:60
 67f:	02 00       	stc	ccr,r0h
 681:	00 01       	.word	H'0,H'1
 683:	f7 07       	mov.b	#0x7,r7h
 685:	00 00       	nop	
 687:	00 1a       	.word	H'0,H'1a
 689:	03 00       	ldc	r0h,ccr
/home/xmodem.c:63
  unsigned char c, block_number = 1;
 68b:	01 03       	.word	H'1,H'3
 68d:	01 03       	.word	H'1,H'3
 68f:	07 00       	ldc	#0x0,ccr
/home/xmodem.c:62
  long size = 0;
 691:	00 05       	.word	H'0,H'5
/home/xmodem.c:61
  int r, receiving = 0;
 693:	fa 04       	mov.b	#0x4,r2l
 695:	03 02       	ldc	r2h,ccr
 697:	04 07       	orc	#0x7,ccr
/home/xmodem.c:66
    if (!receiving)
 699:	00 00       	nop	
 69b:	06 a9       	andc	#0xa9,ccr
 69d:	04 03       	orc	#0x3,ccr
/home/xmodem.c:69
    c = serial_recv_byte(SERIAL_DEFAULT_DEVICE);
 69f:	03 02       	ldc	r2h,ccr
 6a1:	07 00       	ldc	#0x0,ccr
 6a3:	00 00       	nop	
 6a5:	00 04       	.word	H'0,H'4
/home/xmodem.c:71
    if (c == XMODEM_EOT) { /* 受信終了 */
 6a7:	04 00       	orc	#0x0,ccr

000006a9 <.Ldebug_macro3>:
.Ldebug_macro3():
 6a9:	00 04       	.word	H'0,H'4
xmodem_recv():
/home/xmodem.c:71
 6ab:	00 05       	.word	H'0,H'5
xmodem_wait():
/home/xmodem.c:22
    if (++cnt >= 2000000) {
 6ad:	02 00       	stc	ccr,r0h
 6af:	00 1c       	.word	H'0,H'1c
/home/xmodem.c:24
      serial_send_byte(SERIAL_DEFAULT_DEVICE, XMODEM_NAK);
 6b1:	8e 05       	add.b	#0x5,r6l
 6b3:	06 00       	andc	#0x0,ccr
 6b5:	00 1c       	.word	H'0,H'1c
 6b7:	36 05       	mov.b	r6h,@0x5:8
 6b9:	08 00       	add.b	r0h,r0h
xmodem_recv():
/home/xmodem.c:61
  int r, receiving = 0;
 6bb:	00 1c       	.word	H'0,H'1c
 6bd:	60 05       	bset	r0h,r5h
 6bf:	09 00       	add.w	r0,r0
xmodem_wait():
/home/xmodem.c:21
  while (!serial_is_recv_enable(SERIAL_DEFAULT_DEVICE)) {
 6c1:	00 1c       	.word	H'0,H'1c
 6c3:	77 05       	bld	#0x0,r5h
 6c5:	0a 00       	inc	r0h
 6c7:	00 1b       	.word	H'0,H'1b
 6c9:	f4 05       	mov.b	#0x5,r4h
 6cb:	0b 00       	adds	#1,er0
 6cd:	00 1b       	.word	H'0,H'1b
 6cf:	dd 00       	xor.b	#0x0,r5l

000006d1 <.Ldebug_macro0>:
.Ldebug_macro0():
 6d1:	00 04       	.word	H'0,H'4
xmodem_wait():
/home/xmodem.c:21
 6d3:	02 00       	stc	ccr,r0h
 6d5:	00 02       	.word	H'0,H'2
 6d7:	ac 07       	cmp.b	#0x7,r4l
 6d9:	00 00       	nop	
xmodem_recv():
/home/xmodem.c:72
      serial_send_byte(SERIAL_DEFAULT_DEVICE, XMODEM_ACK);
 6db:	00 1a       	.word	H'0,H'1a
 6dd:	03 00       	ldc	r0h,ccr
 6df:	01 03       	.word	H'1,H'3
 6e1:	01 03       	.word	H'1,H'3
 6e3:	07 00       	ldc	#0x0,ccr
/home/xmodem.c:93
  return size;
 6e5:	00 05       	.word	H'0,H'5
 6e7:	fa 04       	mov.b	#0x4,r2l
/home/xmodem.c:74
    } else if (c == XMODEM_CAN) { /* 受信中断 */
 6e9:	03 02       	ldc	r2h,ccr
 6eb:	02 05       	stc	ccr,r5h
 6ed:	02 00       	stc	ccr,r0h
/home/xmodem.c:77
      receiving++;
 6ef:	00 1a       	.word	H'0,H'1a
 6f1:	33 04       	mov.b	r3h,@0x4:8
/home/xmodem.c:76
    } else if (c == XMODEM_SOH) { /* 受信開始 */
 6f3:	03 03       	ldc	r3h,ccr
 6f5:	04 05       	orc	#0x5,ccr
 6f7:	02 00       	stc	ccr,r0h
/home/xmodem.c:77
      receiving++;
 6f9:	00 1b       	.word	H'0,H'1b
 6fb:	20 04       	mov.b	@0x4:8,r0h
 6fd:	04 00       	orc	#0x0,ccr

000006ff <.Ldebug_macro0>:
.Ldebug_macro0():
 6ff:	00 04       	.word	H'0,H'4
xmodem_read_block():
/home/xmodem.c:37
  block_num = serial_recv_byte(SERIAL_DEFAULT_DEVICE);
 701:	02 00       	stc	ccr,r0h
 703:	00 06       	.word	H'0,H'6
 705:	4b 07       	.word	H'4b,H'7
/home/xmodem.c:38
  if (block_num != block_number)
 707:	00 00       	nop	
 709:	00 1a       	.word	H'0,H'1a
 70b:	03 00       	ldc	r0h,ccr
 70d:	01 03       	.word	H'1,H'3
 70f:	01 02       	.word	H'1,H'2
/home/xmodem.c:41
  block_num ^= serial_recv_byte(SERIAL_DEFAULT_DEVICE);
 711:	07 00       	ldc	#0x0,ccr
 713:	00 05       	.word	H'0,H'5
 715:	fa 04       	mov.b	#0x4,r2l
 717:	03 02       	ldc	r2h,ccr
 719:	03 05       	ldc	r5h,ccr
 71b:	02 00       	stc	ccr,r0h
 71d:	00 1a       	.word	H'0,H'1a
/home/xmodem.c:42
  if (block_num != 0xff)
 71f:	33 04       	mov.b	r3h,@0x4:8
 721:	05 04       	xorc	#0x4,ccr
 723:	00 00       	nop	
 725:	20 c4       	mov.b	@0xc4:8,r0h
 727:	05 06       	xorc	#0x6,ccr
 729:	00 00       	nop	
/home/xmodem.c:45
  check_sum = 0;
 72b:	1f 46       	cmp.w	#0x4,r6
/home/xmodem.c:47
    c = serial_recv_byte(SERIAL_DEFAULT_DEVICE);
 72d:	05 07       	xorc	#0x7,ccr
 72f:	00 00       	nop	
 731:	1e 4e       	subx	r4h,r6l
 733:	05 08       	xorc	#0x8,ccr
 735:	00 00       	nop	
 737:	1e ba       	subx	r3l,r2l
 739:	05 14       	xorc	#0x14,ccr
 73b:	00 00       	nop	
 73d:	1f d5       	cmp.l	er5,er5
 73f:	05 15       	xorc	#0x15,ccr
 741:	00 00       	nop	
 743:	20 4d       	mov.b	@0x4d:8,r0h
 745:	05 16       	xorc	#0x16,ccr
/home/xmodem.c:48
    *(buf++) = c;
 747:	00 00       	nop	
 749:	1d ba       	cmp.w	e3,e2
 74b:	05 17       	xorc	#0x17,ccr
 74d:	00 00       	nop	
/home/xmodem.c:49
    check_sum += c;
 74f:	20 d5       	mov.b	@0xd5:8,r0h
 751:	05 18       	xorc	#0x18,ccr
 753:	00 00       	nop	
 755:	20 73       	mov.b	@0x73:8,r0h
 757:	05 19       	xorc	#0x19,ccr
/home/xmodem.c:46
  for (i = 0; i < XMODEM_BLOCK_SIZE; i++) {
 759:	00 00       	nop	
 75b:	1e 31       	subx	r3h,r1h
 75d:	05 1a       	xorc	#0x1a,ccr
 75f:	00 00       	nop	
 761:	20 93       	mov.b	@0x93:8,r0h
/home/xmodem.c:52
  check_sum ^= serial_recv_byte(SERIAL_DEFAULT_DEVICE);
 763:	05 1b       	xorc	#0x1b,ccr
 765:	00 00       	nop	
 767:	20 f7       	mov.b	@0xf7:8,r0h
 769:	05 1c       	xorc	#0x1c,ccr
 76b:	00 00       	nop	
 76d:	1d e2       	cmp.w	e6,r2
 76f:	05 1d       	xorc	#0x1d,ccr
/home/xmodem.c:53
  if (check_sum)
 771:	00 00       	nop	
 773:	1d 82       	cmp.w	e0,r2
 775:	05 1f       	xorc	#0x1f,ccr
 777:	00 00       	nop	
 779:	1d 48       	cmp.w	r4,e0
xmodem_recv():
/home/xmodem.c:82
	block_number++;
 77b:	05 20       	xorc	#0x20,ccr
 77d:	00 00       	nop	
 77f:	1f f6       	cmp.l	er7,er6
 781:	05 21       	xorc	#0x21,ccr
 783:	00 00       	nop	
/home/xmodem.c:83
	size += r;
 785:	1d 9d       	cmp.w	e1,e5
 787:	05 22       	xorc	#0x22,ccr
 789:	00 00       	nop	
/home/xmodem.c:84
	buf  += r;
 78b:	1d 65       	cmp.w	r6,r5
 78d:	05 23       	xorc	#0x23,ccr
 78f:	00 00       	nop	
/home/xmodem.c:85
	serial_send_byte(SERIAL_DEFAULT_DEVICE, XMODEM_ACK);
 791:	1f 7f       	cmp.w	#0x7,e7
 793:	05 24       	xorc	#0x24,ccr
/home/xmodem.c:80
	serial_send_byte(SERIAL_DEFAULT_DEVICE, XMODEM_NAK);
 795:	00 00       	nop	
 797:	1f 0f       	das	r7l
 799:	05 25       	xorc	#0x25,ccr
 79b:	00 00       	nop	
 79d:	1e f3       	subx	r7l,r3h
 79f:	05 26       	xorc	#0x26,ccr
 7a1:	00 00       	nop	
/home/xmodem.c:88
      if (receiving)
 7a3:	1f 9a       	cmp.l	#0x1,er2
 7a5:	05 28       	xorc	#0x28,ccr
 7a7:	00 00       	nop	
/home/xmodem.c:75
      return -1;
 7a9:	1d fe       	cmp.w	e7,e6
 7ab:	05 29       	xorc	#0x29,ccr
/home/xmodem.c:94
}
 7ad:	00 00       	nop	
 7af:	1f 2a       	cmp.w	#0x2,e2
 7b1:	05 2a       	xorc	#0x2a,ccr
 7b3:	00 00       	nop	
 7b5:	20 30       	mov.b	@0x30:8,r0h
 7b7:	05 2b       	xorc	#0x2b,ccr
 7b9:	00 00       	nop	
 7bb:	1d 0f       	cmp.w	r0,e7
 7bd:	05 2c       	xorc	#0x2c,ccr
 7bf:	00 00       	nop	
 7c1:	1f b6       	cmp.l	er3,er6
elf_load():
/home/elf.c:84
{
 7c3:	05 2d       	xorc	#0x2d,ccr
 7c5:	00 00       	nop	
 7c7:	1d 2b       	cmp.w	r2,e3
 7c9:	05 2e       	xorc	#0x2e,ccr
 7cb:	00 00       	nop	
 7cd:	1e 87       	subx	r0l,r7h
 7cf:	05 2f       	xorc	#0x2f,ccr
 7d1:	00 00       	nop	
 7d3:	20 13       	mov.b	@0x13:8,r0h
elf_check():
/home/elf.c:44
  if (memcmp(header->id.magic, "\x7f" "ELF", 4))
 7d5:	04 00       	orc	#0x0,ccr

000007d7 <.Ldebug_macro0>:
.Ldebug_macro0():
 7d7:	00 04       	.word	H'0,H'4
elf_check():
/home/elf.c:44
 7d9:	02 00       	stc	ccr,r0h
 7db:	00 07       	.word	H'0,H'7
 7dd:	98 07       	addx	#0x7,r0l
 7df:	00 00       	nop	
 7e1:	00 1a       	.word	H'0,H'1a
 7e3:	03 00       	ldc	r0h,ccr
 7e5:	01 03       	.word	H'1,H'3
 7e7:	01 03       	.word	H'1,H'3
/home/elf.c:47
  if (header->id.class   != 1) return -1; /* ELF32 */
 7e9:	07 00       	ldc	#0x0,ccr
 7eb:	00 05       	.word	H'0,H'5
 7ed:	fa 04       	mov.b	#0x4,r2l
 7ef:	03 02       	ldc	r2h,ccr
 7f1:	02 05       	stc	ccr,r5h
/home/elf.c:48
  if (header->id.format  != 2) return -1; /* Big endian */
 7f3:	02 00       	stc	ccr,r0h
 7f5:	00 1a       	.word	H'0,H'1a
 7f7:	33 04       	mov.b	r3h,@0x4:8
 7f9:	03 03       	ldc	r3h,ccr
 7fb:	04 05       	orc	#0x5,ccr
/home/elf.c:49
  if (header->id.version != 1) return -1; /* version 1 */
 7fd:	02 00       	stc	ccr,r0h
 7ff:	00 1b       	.word	H'0,H'1b
 801:	20 04       	mov.b	@0x4:8,r0h
 803:	03 04       	ldc	r4h,ccr
 805:	05 05       	xorc	#0x5,ccr
/home/elf.c:50
  if (header->type       != 2) return -1; /* Executable file */
 807:	02 00       	stc	ccr,r0h
 809:	00 1b       	.word	H'0,H'1b
 80b:	7b 04       	.word	H'7b,H'4
 80d:	05 06       	xorc	#0x6,ccr
 80f:	00 00       	nop	
/home/elf.c:51
  if (header->version    != 1) return -1; /* version 1 */
 811:	21 51       	mov.b	@0x51:8,r1h
 813:	05 07       	xorc	#0x7,ccr
 815:	00 00       	nop	
 817:	21 12       	mov.b	@0x12:8,r1h
 819:	05 08       	xorc	#0x8,ccr
 81b:	00 00       	nop	
/home/elf.c:54
  if ((header->arch != 46) && (header->arch != 47)) return -1;
 81d:	21 c6       	mov.b	@0xc6:8,r1h
 81f:	05 09       	xorc	#0x9,ccr
 821:	00 00       	nop	
 823:	21 61       	mov.b	@0x61:8,r1h
 825:	05 0a       	xorc	#0xa,ccr
 827:	00 00       	nop	
 829:	21 41       	mov.b	@0x41:8,r1h
elf_load_program():
/home/elf.c:69
       header->program_header_size * i);
 82b:	05 0b       	xorc	#0xb,ccr
 82d:	00 00       	nop	
 82f:	21 90       	mov.b	@0x90:8,r1h
 831:	05 0c       	xorc	#0xc,ccr
 833:	00 00       	nop	
/home/elf.c:68
      ((char *)header + header->program_header_offset +
 835:	21 b6       	mov.b	@0xb6:8,r1h
 837:	05 0e       	xorc	#0xe,ccr
 839:	00 00       	nop	
 83b:	21 a0       	mov.b	@0xa0:8,r1h
/home/elf.c:67
    phdr = (struct elf_program_header *)
 83d:	04 00       	orc	#0x0,ccr

0000083f <.Ldebug_macro0>:
.Ldebug_macro0():
 83f:	00 04       	.word	H'0,H'4
elf_load_program():
/home/elf.c:71
    if (phdr->type != 1) /* ロード可能なセグメントか？ */
 841:	02 00       	stc	ccr,r0h
 843:	00 09       	.word	H'0,H'9
 845:	24 07       	mov.b	@0x7:8,r4h
/home/elf.c:74
    memcpy((char *)phdr->physical_addr, (char *)header + phdr->offset,
 847:	00 00       	nop	
 849:	00 1a       	.word	H'0,H'1a
 84b:	03 00       	ldc	r0h,ccr
 84d:	01 03       	.word	H'1,H'3
 84f:	01 03       	.word	H'1,H'3
 851:	07 00       	ldc	#0x0,ccr
 853:	00 05       	.word	H'0,H'5
 855:	fa 04       	mov.b	#0x4,r2l
 857:	03 02       	ldc	r2h,ccr
 859:	04 05       	orc	#0x5,ccr
 85b:	02 00       	stc	ccr,r0h
 85d:	00 1a       	.word	H'0,H'1a
 85f:	5a 04 03 03 	jmp	@0x40303:24
 863:	02 05       	stc	ccr,r5h
/home/elf.c:77
	   phdr->memory_size - phdr->file_size);
 865:	02 00       	stc	ccr,r0h
 867:	00 1b       	.word	H'0,H'1b
 869:	20 04       	mov.b	@0x4:8,r0h
/home/elf.c:76
    memset((char *)phdr->physical_addr + phdr->file_size, 0,
 86b:	04 00       	orc	#0x0,ccr

Disassembly of section .debug_line:

00000000 <.Ldebug_line0>:
.Ldebug_line0():
   0:	00 00       	nop	
   2:	00 3d       	.word	H'0,H'3d
   4:	00 04       	.word	H'0,H'4
   6:	00 00       	nop	
   8:	00 2d       	.word	H'0,H'2d
   a:	01 01       	.word	H'1,H'1
   c:	01 f6       	.word	H'1,H'f6
   e:	f2 0d       	mov.b	#0xd,r2h
  10:	00 01       	.word	H'0,H'1
  12:	01 01       	.word	H'1,H'1
  14:	01 00       	.word	H'1,H'0
  16:	00 00       	nop	
  18:	01 00       	.word	H'1,H'0
  1a:	00 01       	.word	H'0,H'1
  1c:	00 76       	.word	H'0,H'76
  1e:	65 63       	xor.w	r6,r3
  20:	74 6f       	bor	#0x6,r7l
  22:	72 2e       	bclr	#0x2,r6l
  24:	63 00       	btst	r0h,r0h
  26:	00 00       	nop	
  28:	00 64       	.word	H'0,H'64
  2a:	65 66       	xor.w	r6,r6
  2c:	69 6e       	mov.w	@er6,e6
  2e:	65 73       	xor.w	r7,r3
  30:	2e 68       	mov.b	@0x68:8,r6l
  32:	00 00       	nop	
  34:	00 00       	nop	
  36:	00 00       	nop	
  38:	05 02       	xorc	#0x2,ccr
  3a:	00 00       	nop	
  3c:	01 00       	.word	H'1,H'0
  3e:	00 01       	.word	H'0,H'1
  40:	01        	.word	H'1,H'0

00000041 <.Ldebug_line0>:
  41:	00 00       	nop	
  43:	01 b2       	.word	H'1,H'b2
  45:	00 04       	.word	H'0,H'4
  47:	00 00       	nop	
  49:	00 64       	.word	H'0,H'64
  4b:	01 01       	.word	H'1,H'1
  4d:	01 f6       	.word	H'1,H'f6
  4f:	f2 0d       	mov.b	#0xd,r2h
  51:	00 01       	.word	H'0,H'1
  53:	01 01       	.word	H'1,H'1
  55:	01 00       	.word	H'1,H'0
  57:	00 00       	nop	
  59:	01 00       	.word	H'1,H'0
  5b:	00 01       	.word	H'0,H'1
  5d:	00 6d       	.word	H'0,H'6d
  5f:	61 69       	bnot	r6h,r1l
  61:	6e 2e 63 00 	mov.b	@(0x6300:16,er2),r6l
  65:	00 00       	nop	
  67:	00 69       	.word	H'0,H'69
  69:	6e 74 65 72 	mov.b	@(0x6572:16,er7),r4h
  6d:	72 75       	bclr	#0x7,r5h
  6f:	70 74       	bset	#0x7,r4h
  71:	2e 68       	mov.b	@0x68:8,r6l
  73:	00 00       	nop	
  75:	00 00       	nop	
  77:	6c 69       	mov.b	@er6+,r1l
  79:	62 2e       	bclr	r2h,r6l
  7b:	68 00       	mov.b	@er0,r0h
  7d:	00 00       	nop	
  7f:	00 73       	.word	H'0,H'73
  81:	65 72       	xor.w	r7,r2
  83:	69 61       	mov.w	@er6,r1
  85:	6c 2e       	mov.b	@er2+,r6l
  87:	68 00       	mov.b	@er0,r0h
  89:	00 00       	nop	
  8b:	00 78       	.word	H'0,H'78
  8d:	6d 6f       	mov.w	@er6+,e7
  8f:	64 65       	or.w	r6,r5
  91:	6d 2e       	mov.w	@er2+,e6
  93:	68 00       	mov.b	@er0,r0h
  95:	00 00       	nop	
  97:	00 65       	.word	H'0,H'65
  99:	6c 66       	mov.b	@er6+,r6h
  9b:	2e 68       	mov.b	@0x68:8,r6l
  9d:	00 00       	nop	
  9f:	00 00       	nop	
  a1:	64 65       	or.w	r6,r5
  a3:	66 69       	and.w	r6,e1
  a5:	6e 65 73 2e 	mov.b	@(0x732e:16,er6),r5h
  a9:	68 00       	mov.b	@er0,r0h
  ab:	00 00       	nop	
  ad:	00 00       	nop	
  af:	00 05       	.word	H'0,H'5
  b1:	02 00       	stc	ccr,r0h
  b3:	00 08       	.word	H'0,H'8
  b5:	aa 52       	cmp.b	#0x52,r2l
  b7:	00 05       	.word	H'0,H'5
  b9:	02 00       	stc	ccr,r0h
  bb:	00 08       	.word	H'0,H'8
  bd:	b6 1f       	subx	#0x1f,r6h
  bf:	00 05       	.word	H'0,H'5
  c1:	02 00       	stc	ccr,r0h
  c3:	00 08       	.word	H'0,H'8
  c5:	b8 03       	subx	#0x3,r0l
  c7:	4d 01       	.word	H'4d,H'1
  c9:	00 05       	.word	H'0,H'5
  cb:	02 00       	stc	ccr,r0h
  cd:	00 08       	.word	H'0,H'8
  cf:	d4 18       	xor.b	#0x18,r4h
  d1:	00 05       	.word	H'0,H'5
  d3:	02 00       	stc	ccr,r0h
  d5:	00 08       	.word	H'0,H'8
  d7:	ec 1a       	and.b	#0x1a,r4l
  d9:	00 05       	.word	H'0,H'5
  db:	02 00       	stc	ccr,r0h
  dd:	00 08       	.word	H'0,H'8
  df:	f0 1a       	mov.b	#0x1a,r0h
  e1:	00 05       	.word	H'0,H'5
  e3:	02 00       	stc	ccr,r0h
  e5:	00 08       	.word	H'0,H'8
  e7:	f8 47       	mov.b	#0x47,r0l
  e9:	00 05       	.word	H'0,H'5
  eb:	02 00       	stc	ccr,r0h
  ed:	00 09       	.word	H'0,H'9
  ef:	02 1a       	stc	exr,r2l
  f1:	00 05       	.word	H'0,H'5
  f3:	02 00       	stc	ccr,r0h
  f5:	00 09       	.word	H'0,H'9
  f7:	0c 18       	mov.b	r1h,r0l
  f9:	00 05       	.word	H'0,H'5
  fb:	02 00       	stc	ccr,r0h
  fd:	00 09       	.word	H'0,H'9
  ff:	16 19       	and.b	r1h,r1l
 101:	00 05       	.word	H'0,H'5
 103:	02 00       	stc	ccr,r0h
 105:	00 09       	.word	H'0,H'9
 107:	2a 18       	mov.b	@0x18:8,r2l
 109:	00 05       	.word	H'0,H'5
 10b:	02 00       	stc	ccr,r0h
 10d:	00 09       	.word	H'0,H'9
 10f:	38 18       	mov.b	r0l,@0x18:8
 111:	00 05       	.word	H'0,H'5
 113:	02 00       	stc	ccr,r0h
 115:	00 09       	.word	H'0,H'9
 117:	46 03       	.word	H'46,H'3
 119:	67 01       	bst	#0x0,r1h
 11b:	00 05       	.word	H'0,H'5
 11d:	02 00       	stc	ccr,r0h
 11f:	00 09       	.word	H'0,H'9
 121:	60 32       	bset	r3h,r2h
 123:	00 05       	.word	H'0,H'5
 125:	02 00       	stc	ccr,r0h
 127:	00 09       	.word	H'0,H'9
 129:	64 18       	or.w	r1,e0
 12b:	00 05       	.word	H'0,H'5
 12d:	02 00       	stc	ccr,r0h
 12f:	00 09       	.word	H'0,H'9
 131:	6c 19       	mov.b	@er1+,r1l
 133:	00 05       	.word	H'0,H'5
 135:	02 00       	stc	ccr,r0h
 137:	00 09       	.word	H'0,H'9
 139:	74 19       	bor	#0x1,r1l
 13b:	00 05       	.word	H'0,H'5
 13d:	02 00       	stc	ccr,r0h
 13f:	00 09       	.word	H'0,H'9
 141:	8a 18       	add.b	#0x18,r2l
 143:	00 05       	.word	H'0,H'5
 145:	02 00       	stc	ccr,r0h
 147:	00 09       	.word	H'0,H'9
 149:	94 18       	addx	#0x18,r4h
 14b:	00 05       	.word	H'0,H'5
 14d:	02 00       	stc	ccr,r0h
 14f:	00 09       	.word	H'0,H'9
 151:	a2 18       	cmp.b	#0x18,r2h
 153:	00 05       	.word	H'0,H'5
 155:	02 00       	stc	ccr,r0h
 157:	00 09       	.word	H'0,H'9
 159:	ac 18       	cmp.b	#0x18,r4l
 15b:	00 05       	.word	H'0,H'5
 15d:	02 00       	stc	ccr,r0h
 15f:	00 09       	.word	H'0,H'9
 161:	c2 03       	or.b	#0x3,r2h
 163:	47 01       	.word	H'47,H'1
 165:	00 05       	.word	H'0,H'5
 167:	02 00       	stc	ccr,r0h
 169:	00 09       	.word	H'0,H'9
 16b:	c6 18       	or.b	#0x18,r6h
 16d:	00 05       	.word	H'0,H'5
 16f:	02 00       	stc	ccr,r0h
 171:	00 09       	.word	H'0,H'9
 173:	d0 1b       	xor.b	#0x1b,r0h
 175:	00 05       	.word	H'0,H'5
 177:	02 00       	stc	ccr,r0h
 179:	00 09       	.word	H'0,H'9
 17b:	e4 18       	and.b	#0x18,r4h
 17d:	00 05       	.word	H'0,H'5
 17f:	02 00       	stc	ccr,r0h
 181:	00 09       	.word	H'0,H'9
 183:	f2 18       	mov.b	#0x18,r2h
 185:	00 05       	.word	H'0,H'5
 187:	02 00       	stc	ccr,r0h
 189:	00 09       	.word	H'0,H'9
 18b:	fa 19       	mov.b	#0x19,r2l
 18d:	00 05       	.word	H'0,H'5
 18f:	02 00       	stc	ccr,r0h
 191:	00 0a       	.word	H'0,H'a
 193:	0a 18       	add.w	#0x1,e0
 195:	00 05       	.word	H'0,H'5
 197:	02 00       	stc	ccr,r0h
 199:	00 0a       	.word	H'0,H'a
 19b:	14 11       	or.b	r1h,r1h
 19d:	00 05       	.word	H'0,H'5
 19f:	02 00       	stc	ccr,r0h
 1a1:	00 0a       	.word	H'0,H'a
 1a3:	1e 20       	subx	r2h,r0h
 1a5:	00 05       	.word	H'0,H'5
 1a7:	02 00       	stc	ccr,r0h
 1a9:	00 0a       	.word	H'0,H'a
 1ab:	28 44       	mov.b	@0x44:8,r0l
 1ad:	00 05       	.word	H'0,H'5
 1af:	02 00       	stc	ccr,r0h
 1b1:	00 0a       	.word	H'0,H'a
 1b3:	3c 18       	mov.b	r4l,@0x18:8
 1b5:	00 05       	.word	H'0,H'5
 1b7:	02 00       	stc	ccr,r0h
 1b9:	00 0a       	.word	H'0,H'a
 1bb:	4a 18       	bpl	.+24 (0x1d5)
 1bd:	00 05       	.word	H'0,H'5
 1bf:	02 00       	stc	ccr,r0h
 1c1:	00 0a       	.word	H'0,H'a
 1c3:	4c 18       	bge	.+24 (0x1dd)
 1c5:	00 05       	.word	H'0,H'5
 1c7:	02 00       	stc	ccr,r0h
 1c9:	00 0a       	.word	H'0,H'a
 1cb:	56 19       	.word	H'56,H'19
 1cd:	00 05       	.word	H'0,H'5
 1cf:	02 00       	stc	ccr,r0h
 1d1:	00 0a       	.word	H'0,H'a
 1d3:	60 18       	bset	r1h,r0l
 1d5:	00 05       	.word	H'0,H'5
 1d7:	02 00       	stc	ccr,r0h
 1d9:	00 0a       	.word	H'0,H'a
 1db:	68 18       	mov.b	@er1,r0l
 1dd:	00 05       	.word	H'0,H'5
 1df:	02 00       	stc	ccr,r0h
 1e1:	00 0a       	.word	H'0,H'a
 1e3:	72 19       	bclr	#0x1,r1l
 1e5:	00 05       	.word	H'0,H'5
 1e7:	02 00       	stc	ccr,r0h
 1e9:	00 0a       	.word	H'0,H'a
 1eb:	78 1b       	.word	H'78,H'1b
 1ed:	00 05       	.word	H'0,H'5
 1ef:	02 00       	stc	ccr,r0h
 1f1:	00 0a       	.word	H'0,H'a
 1f3:	82 00       	add.b	#0x0,r2h
 1f5:	01 01       	.word	H'1,H'1

000001f7 <.Ldebug_line0>:
 1f7:	00 00       	nop	
 1f9:	00 b1       	.word	H'0,H'b1
 1fb:	00 04       	.word	H'0,H'4
 1fd:	00 00       	nop	
 1ff:	00 49       	.word	H'0,H'49
 201:	01 01       	.word	H'1,H'1
 203:	01 f6       	.word	H'1,H'f6
 205:	f2 0d       	mov.b	#0xd,r2h
 207:	00 01       	.word	H'0,H'1
 209:	01 01       	.word	H'1,H'1
 20b:	01 00       	.word	H'1,H'0
 20d:	00 00       	nop	
 20f:	01 00       	.word	H'1,H'0
 211:	00 01       	.word	H'0,H'1
 213:	00 69       	.word	H'0,H'69
 215:	6e 74 65 72 	mov.b	@(0x6572:16,er7),r4h
 219:	72 75       	bclr	#0x7,r5h
 21b:	70 74       	bset	#0x7,r4h
 21d:	2e 63       	mov.b	@0x63:8,r6l
 21f:	00 00       	nop	
 221:	00 00       	nop	
 223:	69 6e       	mov.w	@er6,e6
 225:	74 65       	bor	#0x6,r5h
 227:	72 72       	bclr	#0x7,r2h
 229:	75 70       	bxor	#0x7,r0h
 22b:	74 2e       	bor	#0x2,r6l
 22d:	68 00       	mov.b	@er0,r0h
 22f:	00 00       	nop	
 231:	00 64       	.word	H'0,H'64
 233:	65 66       	xor.w	r6,r6
 235:	69 6e       	mov.w	@er6,e6
 237:	65 73       	xor.w	r7,r3
 239:	2e 68       	mov.b	@0x68:8,r6l
 23b:	00 00       	nop	
 23d:	00 00       	nop	
 23f:	69 6e       	mov.w	@er6,e6
 241:	74 72       	bor	#0x7,r2h
 243:	2e 68       	mov.b	@0x68:8,r6l
 245:	00 00       	nop	
 247:	00 00       	nop	
 249:	00 00       	nop	
 24b:	05 02       	xorc	#0x2,ccr
 24d:	00 00       	nop	
 24f:	02 5c       	.word	H'2,H'5c
 251:	1d 00       	cmp.w	r0,r0
 253:	05 02       	xorc	#0x2,ccr
 255:	00 00       	nop	
 257:	02 62       	stc	vbr,er2
 259:	21 00       	mov.b	@0x0:8,r1h
 25b:	05 02       	xorc	#0x2,ccr
softvec_init():
/home/interrupt.c:7
{
 25d:	00 00       	nop	
 25f:	02 c4       	.word	H'2,H'c4
 261:	12 00       	rotxl.b	r0h
softvec_setintr():
/home/interrupt.c:17
  SOFTVECS[type] = handler;
 263:	05 02       	xorc	#0x2,ccr
 265:	00 00       	nop	
 267:	02 cc       	.word	H'2,H'cc
 269:	1b 00       	subs	#1,er0
 26b:	05 02       	xorc	#0x2,ccr
 26d:	00 00       	nop	
 26f:	02 d2       	.word	H'2,H'd2
 271:	18 00       	sub.b	r0h,r0h
 273:	05 02       	xorc	#0x2,ccr
 275:	00 00       	nop	
 277:	02 e2       	.word	H'2,H'e2
 279:	19 00       	sub.w	r0,r0
 27b:	05 02       	xorc	#0x2,ccr
 27d:	00 00       	nop	
 27f:	02 ea       	.word	H'2,H'ea
 281:	1e 00       	subx	r0h,r0h
 283:	05 02       	xorc	#0x2,ccr
 285:	00 00       	nop	
 287:	02 f0       	.word	H'2,H'f0
 289:	18 00       	sub.b	r0h,r0h
 28b:	05 02       	xorc	#0x2,ccr
 28d:	00 00       	nop	
 28f:	03 02       	ldc	r2h,ccr
 291:	18 00       	sub.b	r0h,r0h
 293:	05 02       	xorc	#0x2,ccr
 295:	00 00       	nop	
 297:	03 04       	ldc	r4h,ccr
 299:	18 00       	sub.b	r0h,r0h
 29b:	05 02       	xorc	#0x2,ccr
 29d:	00 00       	nop	
 29f:	03 06       	ldc	r6h,ccr
 2a1:	18 00       	sub.b	r0h,r0h
 2a3:	05 02       	xorc	#0x2,ccr
 2a5:	00 00       	nop	
 2a7:	03 0c       	ldc	r4l,ccr
 2a9:	00 01       	.word	H'0,H'1
 2ab:	01        	.word	H'1,H'0

000002ac <.Ldebug_line0>:
.Ldebug_line0():
 2ac:	00 00       	nop	
softvec_setintr():
/home/interrupt.c:17
 2ae:	03 9b       	.word	H'3,H'9b
 2b0:	00 04       	.word	H'0,H'4
 2b2:	00 00       	nop	
 2b4:	00 3f       	.word	H'0,H'3f
 2b6:	01 01       	.word	H'1,H'1
 2b8:	01 f6       	.word	H'1,H'f6
 2ba:	f2 0d       	mov.b	#0xd,r2h
 2bc:	00 01       	.word	H'0,H'1
 2be:	01 01       	.word	H'1,H'1
 2c0:	01 00       	.word	H'1,H'0
 2c2:	00 00       	nop	
softvec_init():
/home/interrupt.c:12
}
 2c4:	01 00       	.word	H'1,H'0
 2c6:	00 01       	.word	H'0,H'1
 2c8:	00 6c       	.word	H'0,H'6c
 2ca:	69 62       	mov.w	@er6,r2
softvec_setintr():
/home/interrupt.c:16
{
 2cc:	2e 63       	mov.b	@0x63:8,r6l
 2ce:	00 00       	nop	
 2d0:	00 00       	nop	
/home/interrupt.c:17
  SOFTVECS[type] = handler;
 2d2:	73 65       	btst	#0x6,r5h
 2d4:	72 69       	bclr	#0x6,r1l
 2d6:	61 6c       	bnot	r6h,r4l
 2d8:	2e 68       	mov.b	@0x68:8,r6l
 2da:	00 00       	nop	
 2dc:	00 00       	nop	
 2de:	64 65       	or.w	r6,r5
 2e0:	66 69       	and.w	r6,e1
/home/interrupt.c:19
}
 2e2:	6e 65 73 2e 	mov.b	@(0x732e:16,er6),r5h
 2e6:	68 00       	mov.b	@er0,r0h
 2e8:	00 00       	nop	
interrupt():
/home/interrupt.c:26
{
 2ea:	00 6c       	.word	H'0,H'6c
 2ec:	69 62       	mov.w	@er6,r2
 2ee:	2e 68       	mov.b	@0x68:8,r6l
/home/interrupt.c:27
  softvec_handler_t handler = SOFTVECS[type];
 2f0:	00 00       	nop	
 2f2:	00 00       	nop	
 2f4:	00 00       	nop	
 2f6:	05 02       	xorc	#0x2,ccr
 2f8:	00 00       	nop	
 2fa:	03 0c       	ldc	r4l,ccr
 2fc:	1c 00       	cmp.b	r0h,r0h
 2fe:	05 02       	xorc	#0x2,ccr
 300:	00 00       	nop	
/home/interrupt.c:28
  if (handler)
 302:	03 16       	ldc	r6h,exr
/home/interrupt.c:29
    handler(type, sp);
 304:	19 00       	sub.w	r0,r0
/home/interrupt.c:30
}
 306:	05 02       	xorc	#0x2,ccr
 308:	00 00       	nop	
 30a:	03 1c       	ldc	r4l,exr
memset():
/home/lib.c:6
{
 30c:	00 02       	.word	H'0,H'2
 30e:	04 03       	orc	#0x3,ccr
 310:	18 00       	sub.b	r0h,r0h
 312:	05 02       	xorc	#0x2,ccr
 314:	00 00       	nop	
/home/lib.c:8
  for (p = b; len > 0; len--)
 316:	03 24       	ldmac	er4,mach
 318:	00 02       	.word	H'0,H'2
 31a:	04 01       	orc	#0x1,ccr
/home/lib.c:9 (discriminator 3)
    *(p++) = c;
 31c:	16 00       	and.b	r0h,r0h
 31e:	05 02       	xorc	#0x2,ccr
 320:	00 00       	nop	
 322:	03 28       	ldmac	er0,mach
/home/lib.c:8 (discriminator 1)
  for (p = b; len > 0; len--)
 324:	00 02       	.word	H'0,H'2
 326:	04 00       	orc	#0x0,ccr
/home/lib.c:11
}
 328:	1a 00       	dec.b	r0h
 32a:	05 02       	xorc	#0x2,ccr
 32c:	00 00       	nop	
 32e:	03 32       	ldmac	er2,macl
 330:	1a 00       	dec.b	r0h
memcpy():
/home/lib.c:14
{
 332:	05 02       	xorc	#0x2,ccr
 334:	00 00       	nop	
 336:	03 40       	.word	H'3,H'40
 338:	1a 00       	dec.b	r0h
 33a:	05 02       	xorc	#0x2,ccr
 33c:	00 00       	nop	
 33e:	03 44       	.word	H'3,H'44
/home/lib.c:17
  for (; len > 0; len--)
 340:	00 02       	.word	H'0,H'2
 342:	04 02       	orc	#0x2,ccr
/home/lib.c:18 (discriminator 2)
    *(d++) = *(s++);
 344:	18 00       	sub.b	r0h,r0h
 346:	05 02       	xorc	#0x2,ccr
 348:	00 00       	nop	
 34a:	03 56       	.word	H'3,H'56
 34c:	00 02       	.word	H'0,H'2
 34e:	04 01       	orc	#0x1,ccr
 350:	16 00       	and.b	r0h,r0h
 352:	05 02       	xorc	#0x2,ccr
 354:	00 00       	nop	
/home/lib.c:17 (discriminator 1)
  for (; len > 0; len--)
 356:	03 5a       	.word	H'3,H'5a
 358:	00 02       	.word	H'0,H'2
/home/lib.c:20
}
 35a:	04 00       	orc	#0x0,ccr
 35c:	1a 00       	dec.b	r0h
 35e:	05 02       	xorc	#0x2,ccr
 360:	00 00       	nop	
 362:	03 68       	ldc	er0,vbr
 364:	1a 00       	dec.b	r0h
 366:	05 02       	xorc	#0x2,ccr
memcmp():
/home/lib.c:23
{
 368:	00 00       	nop	
 36a:	03 74       	ldc	er4,sbr
 36c:	19 00       	sub.w	r0,r0
 36e:	05 02       	xorc	#0x2,ccr
 370:	00 00       	nop	
 372:	03 76       	ldc	er6,sbr
/home/lib.c:25
  for (; len > 0; len--) {
 374:	18 00       	sub.b	r0h,r0h
/home/lib.c:26
    if (*p1 != *p2)
 376:	05 02       	xorc	#0x2,ccr
 378:	00 00       	nop	
 37a:	03 7e       	ldc	er6,sbr
 37c:	18 00       	sub.b	r0h,r0h
/home/lib.c:27
      return (*p1 > *p2) ? 1 : -1;
 37e:	05 02       	xorc	#0x2,ccr
 380:	00 00       	nop	
 382:	03 86       	.word	H'3,H'86
 384:	18 00       	sub.b	r0h,r0h
/home/lib.c:28
    p1++;
 386:	05 02       	xorc	#0x2,ccr
/home/lib.c:29
    p2++;
 388:	00 00       	nop	
 38a:	03 88       	.word	H'3,H'88
 38c:	18 00       	sub.b	r0h,r0h
/home/lib.c:25 (discriminator 1)
  for (; len > 0; len--) {
 38e:	05 02       	xorc	#0x2,ccr
 390:	00 00       	nop	
/home/lib.c:31
  return 0;
 392:	03 8e       	.word	H'3,H'8e
 394:	00 02       	.word	H'0,H'2
/home/lib.c:27
      return (*p1 > *p2) ? 1 : -1;
 396:	04 01       	orc	#0x1,ccr
 398:	13 00       	rotxr.b	r0h
/home/lib.c:32
}
 39a:	05 02       	xorc	#0x2,ccr
 39c:	00 00       	nop	
 39e:	03 92       	.word	H'3,H'92
 3a0:	00 02       	.word	H'0,H'2
 3a2:	04 00       	orc	#0x0,ccr
strlen():
/home/lib.c:35
{
 3a4:	1d 00       	cmp.w	r0,r0
 3a6:	05 02       	xorc	#0x2,ccr
 3a8:	00 00       	nop	
/home/lib.c:37
  for (len = 0; *s; s++, len++)
 3aa:	03 96       	.word	H'3,H'96
 3ac:	13 00       	rotxr.b	r0h
/home/lib.c:37 (discriminator 3)
 3ae:	05 02       	xorc	#0x2,ccr
 3b0:	00 00       	nop	
/home/lib.c:37 (discriminator 1)
 3b2:	03 9a       	.word	H'3,H'9a
 3b4:	1c 00       	cmp.b	r0h,r0h
/home/lib.c:40
}
 3b6:	05 02       	xorc	#0x2,ccr
 3b8:	00 00       	nop	
 3ba:	03 a4       	ldmac	er4,mach
 3bc:	1a 00       	dec.b	r0h
strcpy():
/home/lib.c:43
{
 3be:	05 02       	xorc	#0x2,ccr
 3c0:	00 00       	nop	
 3c2:	03 aa       	ldmac	er2,mach
 3c4:	19 00       	sub.w	r0,r0
/home/lib.c:46
    *dst = *src;
 3c6:	05 02       	xorc	#0x2,ccr
 3c8:	00 00       	nop	
/home/lib.c:47
    if (!*src) break;
 3ca:	03 ae       	ldmac	er6,mach
 3cc:	00 02       	.word	H'0,H'2
/home/lib.c:45
  for (;; dst++, src++) {
 3ce:	04 03       	orc	#0x3,ccr
 3d0:	06 01       	andc	#0x1,ccr
/home/lib.c:46
    *dst = *src;
 3d2:	00 05       	.word	H'0,H'5
/home/lib.c:50
}
 3d4:	02 00       	stc	ccr,r0h
 3d6:	00 03       	.word	H'0,H'3
 3d8:	b2 00       	subx	#0x0,r2h
strcmp():
/home/lib.c:53
{
 3da:	02 04       	stc	ccr,r4h
 3dc:	01 01       	.word	H'1,H'1
 3de:	00 05       	.word	H'0,H'5
/home/lib.c:54
  while (*s1 || *s2) {
 3e0:	02 00       	stc	ccr,r0h
/home/lib.c:55
    if (*s1 != *s2)
 3e2:	00 03       	.word	H'0,H'3
 3e4:	b6 00       	subx	#0x0,r6h
/home/lib.c:56
      return (*s1 > *s2) ? 1 : -1;
 3e6:	02 04       	stc	ccr,r4h
 3e8:	00 06       	.word	H'0,H'6
 3ea:	1a 00       	dec.b	r0h
 3ec:	05 02       	xorc	#0x2,ccr
/home/lib.c:57
    s1++;
 3ee:	00 00       	nop	
/home/lib.c:58
    s2++;
 3f0:	03 be       	ldmac	er6,macl
/home/lib.c:54
  while (*s1 || *s2) {
 3f2:	1a 00       	dec.b	r0h
 3f4:	05 02       	xorc	#0x2,ccr
 3f6:	00 00       	nop	
 3f8:	03 c4       	.word	H'3,H'c4
/home/lib.c:54 (discriminator 1)
 3fa:	01 00       	.word	H'1,H'0
 3fc:	05 02       	xorc	#0x2,ccr
 3fe:	00 00       	nop	
 400:	03 c6       	.word	H'3,H'c6
 402:	1a 00       	dec.b	r0h
 404:	05 02       	xorc	#0x2,ccr
 406:	00 00       	nop	
/home/lib.c:56
      return (*s1 > *s2) ? 1 : -1;
 408:	03 ca       	.word	H'3,H'ca
 40a:	18 00       	sub.b	r0h,r0h
/home/lib.c:61
}
 40c:	05 02       	xorc	#0x2,ccr
 40e:	00 00       	nop	
 410:	03 ce       	.word	H'3,H'ce
strncmp():
/home/lib.c:64
{
 412:	15 00       	xor.b	r0h,r0h
 414:	05 02       	xorc	#0x2,ccr
 416:	00 00       	nop	
 418:	03 d2       	.word	H'3,H'd2
 41a:	18 00       	sub.b	r0h,r0h
/home/lib.c:65
  while ((*s1 || *s2) && (len > 0)) {
 41c:	05 02       	xorc	#0x2,ccr
/home/lib.c:66
    if (*s1 != *s2)
 41e:	00 00       	nop	
 420:	03 d4       	.word	H'3,H'd4
 422:	1b 00       	subs	#1,er0
/home/lib.c:67
      return (*s1 > *s2) ? 1 : -1;
 424:	05 02       	xorc	#0x2,ccr
 426:	00 00       	nop	
 428:	03 da       	.word	H'3,H'da
 42a:	1a 00       	dec.b	r0h
/home/lib.c:68
    s1++;
 42c:	05 02       	xorc	#0x2,ccr
/home/lib.c:69
    s2++;
 42e:	00 00       	nop	
/home/lib.c:70
    len--;
 430:	03 e0       	.word	H'3,H'e0
/home/lib.c:65
  while ((*s1 || *s2) && (len > 0)) {
 432:	18 00       	sub.b	r0h,r0h
 434:	05 02       	xorc	#0x2,ccr
/home/lib.c:65 (discriminator 2)
 436:	00 00       	nop	
 438:	03 e2       	.word	H'3,H'e2
 43a:	18 00       	sub.b	r0h,r0h
/home/lib.c:65 (discriminator 3)
 43c:	05 02       	xorc	#0x2,ccr
 43e:	00 00       	nop	
/home/lib.c:72
  return 0;
 440:	03 e6       	.word	H'3,H'e6
 442:	18 00       	sub.b	r0h,r0h
/home/lib.c:67
      return (*s1 > *s2) ? 1 : -1;
 444:	05 02       	xorc	#0x2,ccr
 446:	00 00       	nop	
 448:	03 ee       	.word	H'3,H'ee
/home/lib.c:65
  while ((*s1 || *s2) && (len > 0)) {
 44a:	18 00       	sub.b	r0h,r0h
 44c:	05 02       	xorc	#0x2,ccr
 44e:	00 00       	nop	
 450:	03 f0       	.word	H'3,H'f0
 452:	18 00       	sub.b	r0h,r0h
 454:	05 02       	xorc	#0x2,ccr
/home/lib.c:73
}
 456:	00 00       	nop	
 458:	03 f2       	.word	H'3,H'f2
 45a:	13 00       	rotxr.b	r0h
 45c:	05 02       	xorc	#0x2,ccr
 45e:	00 00       	nop	
putc():
/home/lib.c:77
{
 460:	03 fa       	.word	H'3,H'fa
 462:	00 02       	.word	H'0,H'2
 464:	04 01       	orc	#0x1,ccr
 466:	06 01       	andc	#0x1,ccr
 468:	00 05       	.word	H'0,H'5
 46a:	02 00       	stc	ccr,r0h
/home/lib.c:78
  if (c == '\n')
 46c:	00 04       	.word	H'0,H'4
 46e:	08 00       	add.b	r0h,r0h
/home/lib.c:79
    serial_send_byte(SERIAL_DEFAULT_DEVICE, '\r');
 470:	02 04       	stc	ccr,r4h
 472:	00 06       	.word	H'0,H'6
 474:	19 00       	sub.w	r0,r0
 476:	05 02       	xorc	#0x2,ccr
 478:	00 00       	nop	
/home/lib.c:80
  return serial_send_byte(SERIAL_DEFAULT_DEVICE, c);
 47a:	04 0c       	orc	#0xc,ccr
 47c:	1c 00       	cmp.b	r0h,r0h
 47e:	05 02       	xorc	#0x2,ccr
 480:	00 00       	nop	
 482:	04 12       	orc	#0x12,ccr
/home/lib.c:81
}
 484:	1a 00       	dec.b	r0h
 486:	05 02       	xorc	#0x2,ccr
 488:	00 00       	nop	
 48a:	04 1c       	orc	#0x1c,ccr
 48c:	18 00       	sub.b	r0h,r0h
getc():
/home/lib.c:85
{
 48e:	05 02       	xorc	#0x2,ccr
 490:	00 00       	nop	
 492:	04 1e       	orc	#0x1e,ccr
 494:	18 00       	sub.b	r0h,r0h
 496:	05 02       	xorc	#0x2,ccr
/home/lib.c:86
  unsigned char c = serial_recv_byte(SERIAL_DEFAULT_DEVICE);
 498:	00 00       	nop	
 49a:	04 24       	orc	#0x24,ccr
 49c:	18 00       	sub.b	r0h,r0h
 49e:	05 02       	xorc	#0x2,ccr
 4a0:	00 00       	nop	
/home/lib.c:87
  c = (c == '\r') ? '\n' : c;
 4a2:	04 2c       	orc	#0x2c,ccr
 4a4:	18 00       	sub.b	r0h,r0h
 4a6:	05 02       	xorc	#0x2,ccr
/home/lib.c:88 (discriminator 4)
  putc(c); /* エコー・バック */
 4a8:	00 00       	nop	
 4aa:	04 2e       	orc	#0x2e,ccr
 4ac:	18 00       	sub.b	r0h,r0h
/home/lib.c:90
}
 4ae:	05 02       	xorc	#0x2,ccr
 4b0:	00 00       	nop	
 4b2:	04 30       	orc	#0x30,ccr
 4b4:	18 00       	sub.b	r0h,r0h
 4b6:	05 02       	xorc	#0x2,ccr
 4b8:	00 00       	nop	
puts():
/home/lib.c:94
{
 4ba:	04 32       	orc	#0x32,ccr
 4bc:	12 00       	rotxl.b	r0h
 4be:	05 02       	xorc	#0x2,ccr
 4c0:	00 00       	nop	
 4c2:	04 36       	orc	#0x36,ccr
 4c4:	00 02       	.word	H'0,H'2
/home/lib.c:95
  while (*str)
 4c6:	04 02       	orc	#0x2,ccr
/home/lib.c:96
    putc(*(str++));
 4c8:	06 01       	andc	#0x1,ccr
 4ca:	00 05       	.word	H'0,H'5
 4cc:	02 00       	stc	ccr,r0h
/home/lib.c:95
  while (*str)
 4ce:	00 04       	.word	H'0,H'4
 4d0:	3c 00       	mov.b	r4l,@0x0:8
/home/lib.c:98
}
 4d2:	02 04       	stc	ccr,r4h
 4d4:	03 01       	ldc	r1h,ccr
 4d6:	00 05       	.word	H'0,H'5
 4d8:	02 00       	stc	ccr,r0h
 4da:	00 04       	.word	H'0,H'4
 4dc:	40 00       	bra	.0 (0x4de)
gets():
/home/lib.c:102
{
 4de:	02 04       	stc	ccr,r4h
 4e0:	00 06       	.word	H'0,H'6
 4e2:	1e 00       	subx	r0h,r0h
 4e4:	05 02       	xorc	#0x2,ccr
 4e6:	00 00       	nop	
 4e8:	04 44       	orc	#0x44,ccr
 4ea:	12 00       	rotxl.b	r0h
 4ec:	05 02       	xorc	#0x2,ccr
 4ee:	00 00       	nop	
 4f0:	04 4a       	orc	#0x4a,ccr
 4f2:	15 00       	xor.b	r0h,r0h
 4f4:	05 02       	xorc	#0x2,ccr
/home/lib.c:106
    c = getc();
 4f6:	00 00       	nop	
 4f8:	04 56       	orc	#0x56,ccr
 4fa:	1f 00       	das	r0h
 4fc:	05 02       	xorc	#0x2,ccr
 4fe:	00 00       	nop	
/home/lib.c:107
    if (c == '\n')
 500:	04 60       	orc	#0x60,ccr
 502:	1b 00       	subs	#1,er0
 504:	05 02       	xorc	#0x2,ccr
 506:	00 00       	nop	
 508:	04 6c       	orc	#0x6c,ccr
/home/lib.c:108
      c = '\0';
 50a:	18 00       	sub.b	r0h,r0h
/home/lib.c:109
    buf[i++] = c;
 50c:	05 02       	xorc	#0x2,ccr
 50e:	00 00       	nop	
/home/lib.c:110
  } while (c);
 510:	04 70       	orc	#0x70,ccr
/home/lib.c:112
}
 512:	18 00       	sub.b	r0h,r0h
 514:	05 02       	xorc	#0x2,ccr
 516:	00 00       	nop	
 518:	04 7a       	orc	#0x7a,ccr
 51a:	18 00       	sub.b	r0h,r0h
 51c:	05 02       	xorc	#0x2,ccr
 51e:	00 00       	nop	
 520:	04 84       	orc	#0x84,ccr
 522:	18 00       	sub.b	r0h,r0h
putxval():
/home/lib.c:116
{
 524:	05 02       	xorc	#0x2,ccr
 526:	00 00       	nop	
 528:	04 8e       	orc	#0x8e,ccr
 52a:	1b 00       	subs	#1,er0
 52c:	05 02       	xorc	#0x2,ccr
 52e:	00 00       	nop	
 530:	04 98       	orc	#0x98,ccr
 532:	18 00       	sub.b	r0h,r0h
/home/lib.c:121
  *(p--) = '\0';
 534:	05 02       	xorc	#0x2,ccr
 536:	00 00       	nop	
 538:	04 a2       	orc	#0xa2,ccr
/home/lib.c:123
  if (!value && !column)
 53a:	18 00       	sub.b	r0h,r0h
 53c:	05 02       	xorc	#0x2,ccr
/home/lib.c:123 (discriminator 1)
 53e:	00 00       	nop	
 540:	04 a8       	orc	#0xa8,ccr
/home/lib.c:124
    column++;
 542:	00 02       	.word	H'0,H'2
 544:	04 04       	orc	#0x4,ccr
 546:	18 00       	sub.b	r0h,r0h
 548:	05 02       	xorc	#0x2,ccr
 54a:	00 00       	nop	
/home/lib.c:127
    *(p--) = "0123456789abcdef"[value & 0xf];
 54c:	04 ae       	orc	#0xae,ccr
 54e:	19 00       	sub.w	r0,r0
 550:	05 02       	xorc	#0x2,ccr
 552:	00 00       	nop	
 554:	04 ba       	orc	#0xba,ccr
 556:	00 02       	.word	H'0,H'2
 558:	04 00       	orc	#0x0,ccr
 55a:	1b 00       	subs	#1,er0
 55c:	05 02       	xorc	#0x2,ccr
 55e:	00 00       	nop	
/home/lib.c:128
    value >>= 4;
 560:	04 c6       	orc	#0xc6,ccr
 562:	18 00       	sub.b	r0h,r0h
 564:	05 02       	xorc	#0x2,ccr
 566:	00 00       	nop	
/home/lib.c:129
    if (column) column--;
 568:	04 c8       	orc	#0xc8,ccr
 56a:	18 00       	sub.b	r0h,r0h
/home/lib.c:129 (discriminator 1)
 56c:	05 02       	xorc	#0x2,ccr
 56e:	00 00       	nop	
/home/lib.c:126
  while (value || column) {
 570:	04 ce       	orc	#0xce,ccr
 572:	16 00       	and.b	r0h,r0h
/home/lib.c:126 (discriminator 1)
 574:	05 02       	xorc	#0x2,ccr
 576:	00 00       	nop	
/home/lib.c:132
  puts(p + 1);
 578:	04 d2       	orc	#0xd2,ccr
 57a:	1a 00       	dec.b	r0h
 57c:	05 02       	xorc	#0x2,ccr
 57e:	00 00       	nop	
/home/lib.c:135
}
 580:	04 de       	orc	#0xde,ccr
 582:	1b 00       	subs	#1,er0
 584:	05 02       	xorc	#0x2,ccr
 586:	00 00       	nop	
 588:	04 f0       	orc	#0xf0,ccr
 58a:	01 00       	.word	H'1,H'0
 58c:	05 02       	xorc	#0x2,ccr
 58e:	00 00       	nop	
 590:	04 f6       	orc	#0xf6,ccr
serial_init():
/home/serial.c:59
{
 592:	1b 00       	subs	#1,er0
 594:	05 02       	xorc	#0x2,ccr
 596:	00 00       	nop	
/home/serial.c:60
  volatile struct h8_3069f_sci *sci = regs[index].sci;
 598:	05 00       	xorc	#0x0,ccr
 59a:	18 00       	sub.b	r0h,r0h
 59c:	05 02       	xorc	#0x2,ccr
 59e:	00 00       	nop	
 5a0:	05 0a       	xorc	#0xa,ccr
 5a2:	18 00       	sub.b	r0h,r0h
 5a4:	05 02       	xorc	#0x2,ccr
 5a6:	00 00       	nop	
/home/serial.c:62
  sci->scr = 0;
 5a8:	05 0c       	xorc	#0xc,ccr
 5aa:	18 00       	sub.b	r0h,r0h
 5ac:	05 02       	xorc	#0x2,ccr
/home/serial.c:63
  sci->smr = 0;
 5ae:	00 00       	nop	
/home/serial.c:64
  sci->brr = 64; /* 20MHzのクロックから9600bpsを生成(25MHzの場合は80にする) */
 5b0:	05 10       	xorc	#0x10,ccr
 5b2:	18 00       	sub.b	r0h,r0h
 5b4:	05 02       	xorc	#0x2,ccr
/home/serial.c:65
  sci->scr = H8_3069F_SCI_SCR_RE | H8_3069F_SCI_SCR_TE; /* 送受信可能 */
 5b6:	00 00       	nop	
 5b8:	05 12       	xorc	#0x12,ccr
 5ba:	19 00       	sub.w	r0,r0
/home/serial.c:66
  sci->ssr = 0;
 5bc:	05 02       	xorc	#0x2,ccr
 5be:	00 00       	nop	
/home/serial.c:69
}
 5c0:	05 24       	xorc	#0x24,ccr
 5c2:	1b 00       	subs	#1,er0
 5c4:	05 02       	xorc	#0x2,ccr
 5c6:	00 00       	nop	
serial_is_send_enable():
/home/serial.c:73
{
 5c8:	05 34       	xorc	#0x34,ccr
 5ca:	1c 00       	cmp.b	r0h,r0h
 5cc:	05 02       	xorc	#0x2,ccr
/home/serial.c:74
  volatile struct h8_3069f_sci *sci = regs[index].sci;
 5ce:	00 00       	nop	
 5d0:	05 3a       	xorc	#0x3a,ccr
 5d2:	19 00       	sub.w	r0,r0
 5d4:	05 02       	xorc	#0x2,ccr
 5d6:	00 00       	nop	
 5d8:	05 3e       	xorc	#0x3e,ccr
 5da:	00 02       	.word	H'0,H'2
 5dc:	04 01       	orc	#0x1,ccr
/home/serial.c:75
  return (sci->ssr & H8_3069F_SCI_SSR_TDRE);
 5de:	06 01       	andc	#0x1,ccr
 5e0:	00 05       	.word	H'0,H'5
 5e2:	02 00       	stc	ccr,r0h
/home/serial.c:76
}
 5e4:	00 05       	.word	H'0,H'5
 5e6:	42 00       	bhi	.0 (0x5e8)
 5e8:	02 04       	stc	ccr,r4h
 5ea:	00 06       	.word	H'0,H'6
serial_send_byte():
/home/serial.c:80
{
 5ec:	18 00       	sub.b	r0h,r0h
 5ee:	05 02       	xorc	#0x2,ccr
 5f0:	00 00       	nop	
/home/serial.c:81
  volatile struct h8_3069f_sci *sci = regs[index].sci;
 5f2:	05 4c       	xorc	#0x4c,ccr
 5f4:	1a 00       	dec.b	r0h
 5f6:	05 02       	xorc	#0x2,ccr
 5f8:	00 00       	nop	
 5fa:	05 60       	xorc	#0x60,ccr
 5fc:	18 00       	sub.b	r0h,r0h
 5fe:	05 02       	xorc	#0x2,ccr
 600:	00 00       	nop	
serial_is_send_enable():
/home/serial.c:75 (discriminator 1)
  return (sci->ssr & H8_3069F_SCI_SSR_TDRE);
 602:	05 68       	xorc	#0x68,ccr
 604:	18 00       	sub.b	r0h,r0h
serial_send_byte():
/home/serial.c:84
  while (!serial_is_send_enable(index))
 606:	05 02       	xorc	#0x2,ccr
/home/serial.c:86
  sci->tdr = c;
 608:	00 00       	nop	
 60a:	05 6c       	xorc	#0x6c,ccr
/home/serial.c:87
  sci->ssr &= ~H8_3069F_SCI_SSR_TDRE; /* 送信開始 */
 60c:	00 02       	.word	H'0,H'2
 60e:	04 01       	orc	#0x1,ccr
 610:	06 01       	andc	#0x1,ccr
 612:	00 05       	.word	H'0,H'5
 614:	02 00       	stc	ccr,r0h
/home/serial.c:90
}
 616:	00 05       	.word	H'0,H'5
 618:	70 00       	bset	#0x0,r0h
 61a:	02 04       	stc	ccr,r4h
 61c:	00 06       	.word	H'0,H'6
serial_is_recv_enable():
/home/serial.c:94
{
 61e:	14 00       	or.b	r0h,r0h
 620:	05 02       	xorc	#0x2,ccr
 622:	00 00       	nop	
/home/serial.c:95
  volatile struct h8_3069f_sci *sci = regs[index].sci;
 624:	05 74       	xorc	#0x74,ccr
 626:	00 02       	.word	H'0,H'2
 628:	04 01       	orc	#0x1,ccr
 62a:	06 01       	andc	#0x1,ccr
 62c:	00 05       	.word	H'0,H'5
 62e:	02 00       	stc	ccr,r0h
 630:	00 05       	.word	H'0,H'5
 632:	78 00       	.word	H'78,H'0
/home/serial.c:96
  return (sci->ssr & H8_3069F_SCI_SSR_RDRF);
 634:	02 04       	stc	ccr,r4h
 636:	00 06       	.word	H'0,H'6
 638:	1d 00       	cmp.w	r0,r0
/home/serial.c:97
}
 63a:	05 02       	xorc	#0x2,ccr
 63c:	00 00       	nop	
 63e:	05 80       	xorc	#0x80,ccr
 640:	1a 00       	dec.b	r0h
serial_recv_byte():
/home/serial.c:101
{
 642:	05 02       	xorc	#0x2,ccr
 644:	00 00       	nop	
 646:	05 92       	xorc	#0x92,ccr
/home/serial.c:102
  volatile struct h8_3069f_sci *sci = regs[index].sci;
 648:	00 01       	.word	H'0,H'1
 64a:	01        	.word	H'1,H'0

0000064b <.Ldebug_line0>:
.Ldebug_line0():
 64b:	00 00       	nop	
serial_recv_byte():
/home/serial.c:102
 64d:	01 49       	.word	H'1,H'49
 64f:	00 04       	.word	H'0,H'4
 651:	00 00       	nop	
 653:	00 39       	.word	H'0,H'39
 655:	01 01       	.word	H'1,H'1
 657:	01 f6       	.word	H'1,H'f6
serial_is_recv_enable():
/home/serial.c:96 (discriminator 1)
  return (sci->ssr & H8_3069F_SCI_SSR_RDRF);
 659:	f2 0d       	mov.b	#0xd,r2h
 65b:	00 01       	.word	H'0,H'1
serial_recv_byte():
/home/serial.c:106
  while (!serial_is_recv_enable(index))
 65d:	01 01       	.word	H'1,H'1
 65f:	01 00       	.word	H'1,H'0
/home/serial.c:108
  c = sci->rdr;
 661:	00 00       	nop	
 663:	01 00       	.word	H'1,H'0
/home/serial.c:109
  sci->ssr &= ~H8_3069F_SCI_SSR_RDRF; /* 受信完了 */
 665:	00 01       	.word	H'0,H'1
 667:	00 73       	.word	H'0,H'73
 669:	65 72       	xor.w	r7,r2
 66b:	69 61       	mov.w	@er6,r1
 66d:	6c 2e       	mov.b	@er2+,r6l
/home/serial.c:112
}
 66f:	63 00       	btst	r0h,r0h
 671:	00 00       	nop	
 673:	00 64       	.word	H'0,H'64
xmodem_recv():
/home/xmodem.c:60
{
 675:	65 66       	xor.w	r6,r6
 677:	69 6e       	mov.w	@er6,e6
 679:	65 73       	xor.w	r7,r3
 67b:	2e 68       	mov.b	@0x68:8,r6l
 67d:	00 00       	nop	
 67f:	00 00       	nop	
 681:	73 65       	btst	#0x6,r5h
 683:	72 69       	bclr	#0x6,r1l
 685:	61 6c       	bnot	r6h,r4l
 687:	2e 68       	mov.b	@0x68:8,r6l
 689:	00 00       	nop	
/home/xmodem.c:63
  unsigned char c, block_number = 1;
 68b:	00 00       	nop	
 68d:	00 00       	nop	
 68f:	05 02       	xorc	#0x2,ccr
/home/xmodem.c:62
  long size = 0;
 691:	00 00       	nop	
/home/xmodem.c:61
  int r, receiving = 0;
 693:	05 92       	xorc	#0x92,ccr
 695:	51 00       	divxu.b	r0h,r0
 697:	05 02       	xorc	#0x2,ccr
/home/xmodem.c:66
    if (!receiving)
 699:	00 00       	nop	
 69b:	05 98       	xorc	#0x98,ccr
 69d:	18 00       	sub.b	r0h,r0h
/home/xmodem.c:69
    c = serial_recv_byte(SERIAL_DEFAULT_DEVICE);
 69f:	05 02       	xorc	#0x2,ccr
 6a1:	00 00       	nop	
 6a3:	05 a8       	xorc	#0xa8,ccr
 6a5:	19 00       	sub.w	r0,r0
/home/xmodem.c:71
    if (c == XMODEM_EOT) { /* 受信終了 */
 6a7:	05 02       	xorc	#0x2,ccr
 6a9:	00 00       	nop	
 6ab:	05 ae       	xorc	#0xae,ccr
xmodem_wait():
/home/xmodem.c:22
    if (++cnt >= 2000000) {
 6ad:	18 00       	sub.b	r0h,r0h
 6af:	05 02       	xorc	#0x2,ccr
/home/xmodem.c:24
      serial_send_byte(SERIAL_DEFAULT_DEVICE, XMODEM_NAK);
 6b1:	00 00       	nop	
 6b3:	05 b0       	xorc	#0xb0,ccr
 6b5:	18 00       	sub.b	r0h,r0h
 6b7:	05 02       	xorc	#0x2,ccr
 6b9:	00 00       	nop	
xmodem_recv():
/home/xmodem.c:61
  int r, receiving = 0;
 6bb:	05 b6       	xorc	#0xb6,ccr
 6bd:	18 00       	sub.b	r0h,r0h
 6bf:	05 02       	xorc	#0x2,ccr
xmodem_wait():
/home/xmodem.c:21
  while (!serial_is_recv_enable(SERIAL_DEFAULT_DEVICE)) {
 6c1:	00 00       	nop	
 6c3:	05 bc       	xorc	#0xbc,ccr
 6c5:	18 00       	sub.b	r0h,r0h
 6c7:	05 02       	xorc	#0x2,ccr
 6c9:	00 00       	nop	
 6cb:	05 c0       	xorc	#0xc0,ccr
 6cd:	1a 00       	dec.b	r0h
 6cf:	05 02       	xorc	#0x2,ccr
 6d1:	00 00       	nop	
 6d3:	05 c8       	xorc	#0xc8,ccr
 6d5:	1b 00       	subs	#1,er0
 6d7:	05 02       	xorc	#0x2,ccr
 6d9:	00 00       	nop	
xmodem_recv():
/home/xmodem.c:72
      serial_send_byte(SERIAL_DEFAULT_DEVICE, XMODEM_ACK);
 6db:	05 ce       	xorc	#0xce,ccr
 6dd:	18 00       	sub.b	r0h,r0h
 6df:	05 02       	xorc	#0x2,ccr
 6e1:	00 00       	nop	
 6e3:	05 de       	xorc	#0xde,ccr
/home/xmodem.c:93
  return size;
 6e5:	18 00       	sub.b	r0h,r0h
 6e7:	05 02       	xorc	#0x2,ccr
/home/xmodem.c:74
    } else if (c == XMODEM_CAN) { /* 受信中断 */
 6e9:	00 00       	nop	
 6eb:	05 e4       	xorc	#0xe4,ccr
 6ed:	18 00       	sub.b	r0h,r0h
/home/xmodem.c:77
      receiving++;
 6ef:	05 02       	xorc	#0x2,ccr
 6f1:	00 00       	nop	
/home/xmodem.c:76
    } else if (c == XMODEM_SOH) { /* 受信開始 */
 6f3:	05 ec       	xorc	#0xec,ccr
 6f5:	1b 00       	subs	#1,er0
 6f7:	05 02       	xorc	#0x2,ccr
/home/xmodem.c:77
      receiving++;
 6f9:	00 00       	nop	
 6fb:	05 f2       	xorc	#0xf2,ccr
 6fd:	18 00       	sub.b	r0h,r0h
xmodem_read_block():
/home/xmodem.c:37
  block_num = serial_recv_byte(SERIAL_DEFAULT_DEVICE);
 6ff:	05 02       	xorc	#0x2,ccr
 701:	00 00       	nop	
 703:	06 02       	andc	#0x2,ccr
 705:	00 02       	.word	H'0,H'2
/home/xmodem.c:38
  if (block_num != block_number)
 707:	04 01       	orc	#0x1,ccr
 709:	11 00       	shlr.b	r0h
 70b:	05 02       	xorc	#0x2,ccr
 70d:	00 00       	nop	
 70f:	06 06       	andc	#0x6,ccr
/home/xmodem.c:41
  block_num ^= serial_recv_byte(SERIAL_DEFAULT_DEVICE);
 711:	20 00       	mov.b	@0x0:8,r0h
 713:	05 02       	xorc	#0x2,ccr
 715:	00 00       	nop	
 717:	06 08       	andc	#0x8,ccr
 719:	00 02       	.word	H'0,H'2
 71b:	04 00       	orc	#0x0,ccr
 71d:	19 00       	sub.w	r0,r0
/home/xmodem.c:42
  if (block_num != 0xff)
 71f:	05 02       	xorc	#0x2,ccr
 721:	00 00       	nop	
 723:	06 0c       	andc	#0xc,ccr
 725:	18 00       	sub.b	r0h,r0h
 727:	05 02       	xorc	#0x2,ccr
 729:	00 00       	nop	
/home/xmodem.c:45
  check_sum = 0;
 72b:	06 16       	andc	#0x16,ccr
/home/xmodem.c:47
    c = serial_recv_byte(SERIAL_DEFAULT_DEVICE);
 72d:	1a 00       	dec.b	r0h
 72f:	05 02       	xorc	#0x2,ccr
 731:	00 00       	nop	
 733:	06 1e       	andc	#0x1e,ccr
 735:	1b 00       	subs	#1,er0
 737:	05 02       	xorc	#0x2,ccr
 739:	00 00       	nop	
 73b:	06 24       	andc	#0x24,ccr
 73d:	18 00       	sub.b	r0h,r0h
 73f:	05 02       	xorc	#0x2,ccr
 741:	00 00       	nop	
 743:	06 34       	andc	#0x34,ccr
 745:	18 00       	sub.b	r0h,r0h
/home/xmodem.c:48
    *(buf++) = c;
 747:	05 02       	xorc	#0x2,ccr
 749:	00 00       	nop	
 74b:	06 3a       	andc	#0x3a,ccr
 74d:	18 00       	sub.b	r0h,r0h
/home/xmodem.c:49
    check_sum += c;
 74f:	05 02       	xorc	#0x2,ccr
 751:	00 00       	nop	
 753:	06 42       	andc	#0x42,ccr
 755:	1b 00       	subs	#1,er0
 757:	05 02       	xorc	#0x2,ccr
/home/xmodem.c:46
  for (i = 0; i < XMODEM_BLOCK_SIZE; i++) {
 759:	00 00       	nop	
 75b:	06 48       	andc	#0x48,ccr
 75d:	18 00       	sub.b	r0h,r0h
 75f:	05 02       	xorc	#0x2,ccr
 761:	00 00       	nop	
/home/xmodem.c:52
  check_sum ^= serial_recv_byte(SERIAL_DEFAULT_DEVICE);
 763:	06 58       	andc	#0x58,ccr
 765:	00 02       	.word	H'0,H'2
 767:	04 01       	orc	#0x1,ccr
 769:	11 00       	shlr.b	r0h
 76b:	05 02       	xorc	#0x2,ccr
 76d:	00 00       	nop	
 76f:	06 5c       	andc	#0x5c,ccr
/home/xmodem.c:53
  if (check_sum)
 771:	21 00       	mov.b	@0x0:8,r1h
 773:	05 02       	xorc	#0x2,ccr
 775:	00 00       	nop	
 777:	06 60       	andc	#0x60,ccr
 779:	00 02       	.word	H'0,H'2
xmodem_recv():
/home/xmodem.c:82
	block_number++;
 77b:	04 00       	orc	#0x0,ccr
 77d:	19 00       	sub.w	r0,r0
 77f:	05 02       	xorc	#0x2,ccr
 781:	00 00       	nop	
 783:	06 64       	andc	#0x64,ccr
/home/xmodem.c:83
	size += r;
 785:	18 00       	sub.b	r0h,r0h
 787:	05 02       	xorc	#0x2,ccr
 789:	00 00       	nop	
/home/xmodem.c:84
	buf  += r;
 78b:	06 6e       	andc	#0x6e,ccr
 78d:	1a 00       	dec.b	r0h
 78f:	05 02       	xorc	#0x2,ccr
/home/xmodem.c:85
	serial_send_byte(SERIAL_DEFAULT_DEVICE, XMODEM_ACK);
 791:	00 00       	nop	
 793:	06 74       	andc	#0x74,ccr
/home/xmodem.c:80
	serial_send_byte(SERIAL_DEFAULT_DEVICE, XMODEM_NAK);
 795:	00 01       	.word	H'0,H'1
 797:	01        	.word	H'1,H'0

00000798 <.Ldebug_line0>:
.Ldebug_line0():
 798:	00 00       	nop	
xmodem_recv():
/home/xmodem.c:80
 79a:	01 88       	.word	H'1,H'88
 79c:	00 04       	.word	H'0,H'4
 79e:	00 00       	nop	
 7a0:	00 4e       	.word	H'0,H'4e
/home/xmodem.c:88
      if (receiving)
 7a2:	01 01       	.word	H'1,H'1
 7a4:	01 f6       	.word	H'1,H'f6
 7a6:	f2 0d       	mov.b	#0xd,r2h
/home/xmodem.c:75
      return -1;
 7a8:	00 01       	.word	H'0,H'1
 7aa:	01 01       	.word	H'1,H'1
/home/xmodem.c:94
}
 7ac:	01 00       	.word	H'1,H'0
 7ae:	00 00       	nop	
 7b0:	01 00       	.word	H'1,H'0
 7b2:	00 01       	.word	H'0,H'1
 7b4:	00 78       	.word	H'0,H'78
 7b6:	6d 6f       	mov.w	@er6+,e7
 7b8:	64 65       	or.w	r6,r5
 7ba:	6d 2e       	mov.w	@er2+,e6
 7bc:	63 00       	btst	r0h,r0h
 7be:	00 00       	nop	
 7c0:	00 73       	.word	H'0,H'73
elf_load():
/home/elf.c:84
{
 7c2:	65 72       	xor.w	r7,r2
 7c4:	69 61       	mov.w	@er6,r1
 7c6:	6c 2e       	mov.b	@er2+,r6l
 7c8:	68 00       	mov.b	@er0,r0h
 7ca:	00 00       	nop	
 7cc:	00 64       	.word	H'0,H'64
 7ce:	65 66       	xor.w	r6,r6
 7d0:	69 6e       	mov.w	@er6,e6
 7d2:	65 73       	xor.w	r7,r3
elf_check():
/home/elf.c:44
  if (memcmp(header->id.magic, "\x7f" "ELF", 4))
 7d4:	2e 68       	mov.b	@0x68:8,r6l
 7d6:	00 00       	nop	
 7d8:	00 00       	nop	
 7da:	6c 69       	mov.b	@er6+,r1l
 7dc:	62 2e       	bclr	r2h,r6l
 7de:	68 00       	mov.b	@er0,r0h
 7e0:	00 00       	nop	
 7e2:	00 78       	.word	H'0,H'78
 7e4:	6d 6f       	mov.w	@er6+,e7
 7e6:	64 65       	or.w	r6,r5
/home/elf.c:47
  if (header->id.class   != 1) return -1; /* ELF32 */
 7e8:	6d 2e       	mov.w	@er2+,e6
 7ea:	68 00       	mov.b	@er0,r0h
 7ec:	00 00       	nop	
 7ee:	00 00       	nop	
 7f0:	00 05       	.word	H'0,H'5
/home/elf.c:48
  if (header->id.format  != 2) return -1; /* Big endian */
 7f2:	02 00       	stc	ccr,r0h
 7f4:	00 06       	.word	H'0,H'6
 7f6:	74 52       	bor	#0x5,r2h
 7f8:	00 05       	.word	H'0,H'5
 7fa:	02 00       	stc	ccr,r0h
/home/elf.c:49
  if (header->id.version != 1) return -1; /* version 1 */
 7fc:	00 06       	.word	H'0,H'6
 7fe:	8a 1a       	add.b	#0x1a,r2l
 800:	00 05       	.word	H'0,H'5
 802:	02 00       	stc	ccr,r0h
 804:	00 06       	.word	H'0,H'6
/home/elf.c:50
  if (header->type       != 2) return -1; /* Executable file */
 806:	90 16       	addx	#0x16,r0h
 808:	00 05       	.word	H'0,H'5
 80a:	02 00       	stc	ccr,r0h
 80c:	00 06       	.word	H'0,H'6
 80e:	92 16       	addx	#0x16,r2h
/home/elf.c:51
  if (header->version    != 1) return -1; /* version 1 */
 810:	00 05       	.word	H'0,H'5
 812:	02 00       	stc	ccr,r0h
 814:	00 06       	.word	H'0,H'6
 816:	98 1c       	addx	#0x1c,r0l
 818:	00 05       	.word	H'0,H'5
 81a:	02 00       	stc	ccr,r0h
/home/elf.c:54
  if ((header->arch != 46) && (header->arch != 47)) return -1;
 81c:	00 06       	.word	H'0,H'6
 81e:	9e 1a       	addx	#0x1a,r6l
 820:	00 05       	.word	H'0,H'5
 822:	02 00       	stc	ccr,r0h
 824:	00 06       	.word	H'0,H'6
 826:	a6 19       	cmp.b	#0x19,r6h
 828:	00 05       	.word	H'0,H'5
elf_load_program():
/home/elf.c:69
       header->program_header_size * i);
 82a:	02 00       	stc	ccr,r0h
 82c:	00 06       	.word	H'0,H'6
 82e:	ac 03       	cmp.b	#0x3,r4l
 830:	4f 01       	.word	H'4f,H'1
 832:	00 05       	.word	H'0,H'5
/home/elf.c:68
      ((char *)header + header->program_header_offset +
 834:	02 00       	stc	ccr,r0h
 836:	00 06       	.word	H'0,H'6
 838:	b0 19       	subx	#0x19,r0h
 83a:	00 05       	.word	H'0,H'5
/home/elf.c:67
    phdr = (struct elf_program_header *)
 83c:	02 00       	stc	ccr,r0h
/home/elf.c:71
    if (phdr->type != 1) /* ロード可能なセグメントか？ */
 83e:	00 06       	.word	H'0,H'6
 840:	ba 3c       	subx	#0x3c,r2l
 842:	00 05       	.word	H'0,H'5
 844:	02 00       	stc	ccr,r0h
/home/elf.c:74
    memcpy((char *)phdr->physical_addr, (char *)header + phdr->offset,
 846:	00 06       	.word	H'0,H'6
 848:	c0 03       	or.b	#0x3,r0h
 84a:	58 01       	.word	H'58,H'1
 84c:	00 05       	.word	H'0,H'5
 84e:	02 00       	stc	ccr,r0h
 850:	00 06       	.word	H'0,H'6
 852:	da 4a       	xor.b	#0x4a,r2l
 854:	00 05       	.word	H'0,H'5
 856:	02 00       	stc	ccr,r0h
 858:	00 06       	.word	H'0,H'6
 85a:	e4 2c       	and.b	#0x2c,r4h
 85c:	00 05       	.word	H'0,H'5
 85e:	02 00       	stc	ccr,r0h
 860:	00 06       	.word	H'0,H'6
 862:	e8 03       	and.b	#0x3,r0l
/home/elf.c:77
	   phdr->memory_size - phdr->file_size);
 864:	6d 01       	mov.w	@er0+,r1
 866:	00 05       	.word	H'0,H'5
 868:	02 00       	stc	ccr,r0h
/home/elf.c:76
    memset((char *)phdr->physical_addr + phdr->file_size, 0,
 86a:	00 06       	.word	H'0,H'6
 86c:	ee 1a       	and.b	#0x1a,r6l
 86e:	00 05       	.word	H'0,H'5
 870:	02 00       	stc	ccr,r0h
 872:	00 06       	.word	H'0,H'6
 874:	f2 16       	mov.b	#0x16,r2h
 876:	00 05       	.word	H'0,H'5
 878:	02 00       	stc	ccr,r0h
 87a:	00 06       	.word	H'0,H'6
 87c:	f8 18       	mov.b	#0x18,r0l
 87e:	00 05       	.word	H'0,H'5
 880:	02 00       	stc	ccr,r0h
 882:	00 06       	.word	H'0,H'6
 884:	fe 03       	mov.b	#0x3,r6l
/home/elf.c:65
  for (i = 0; i < header->program_header_num; i++) {
 886:	58 01       	.word	H'58,H'1
 888:	00 05       	.word	H'0,H'5
 88a:	02 00       	stc	ccr,r0h
 88c:	00 07       	.word	H'0,H'7
 88e:	06 18       	andc	#0x18,ccr
elf_load():
/home/elf.c:93
  return (char *)header->entry_point;
 890:	00 05       	.word	H'0,H'5
 892:	02 00       	stc	ccr,r0h
 894:	00 07       	.word	H'0,H'7
 896:	10 1a       	shll.w	e2
/home/elf.c:88
    return NULL;
 898:	00 05       	.word	H'0,H'5
/home/elf.c:94
}
 89a:	02 00       	stc	ccr,r0h
 89c:	00 07       	.word	H'0,H'7
 89e:	1e 18       	subx	r1h,r0l
 8a0:	00 05       	.word	H'0,H'5
 8a2:	02 00       	stc	ccr,r0h
 8a4:	00 07       	.word	H'0,H'7
 8a6:	2a 1a       	mov.b	@0x1a:8,r2l
 8a8:	00 05       	.word	H'0,H'5
main():
/home/main.c:60
{
 8aa:	02 00       	stc	ccr,r0h
 8ac:	00 07       	.word	H'0,H'7
 8ae:	2c 19       	mov.b	@0x19:8,r4l
 8b0:	00 05       	.word	H'0,H'5
 8b2:	02 00       	stc	ccr,r0h
 8b4:	00 07       	.word	H'0,H'7
/home/main.c:68
  INTR_DISABLE; /* 割込み無効にする */
 8b6:	46 18       	bne	.+24 (0x8d0)
init():
/home/main.c:17
  memcpy(&data_start, &erodata, (long)&edata - (long)&data_start);
 8b8:	00 05       	.word	H'0,H'5
 8ba:	02 00       	stc	ccr,r0h
 8bc:	00 07       	.word	H'0,H'7
 8be:	4e 18       	bgt	.+24 (0x8d8)
 8c0:	00 05       	.word	H'0,H'5
 8c2:	02 00       	stc	ccr,r0h
 8c4:	00 07       	.word	H'0,H'7
 8c6:	58 14       	.word	H'58,H'14
 8c8:	00 05       	.word	H'0,H'5
 8ca:	02 00       	stc	ccr,r0h
 8cc:	00 07       	.word	H'0,H'7
 8ce:	62 1d       	bclr	r1h,r5l
 8d0:	00 05       	.word	H'0,H'5
 8d2:	02 00       	stc	ccr,r0h
/home/main.c:18
  memset(&bss_start, 0, (long)&ebss - (long)&bss_start);
 8d4:	00 07       	.word	H'0,H'7
 8d6:	70 18       	bset	#0x1,r0l
 8d8:	00 05       	.word	H'0,H'5
 8da:	02 00       	stc	ccr,r0h
 8dc:	00 07       	.word	H'0,H'7
 8de:	7a 34 00 05 	sub.l	#0x50200,er4
 8e2:	02 00 
 8e4:	00 07       	.word	H'0,H'7
 8e6:	84 18       	add.b	#0x18,r4h
 8e8:	00 05       	.word	H'0,H'5
 8ea:	02 00       	stc	ccr,r0h
/home/main.c:21
  softvec_init();
 8ec:	00 07       	.word	H'0,H'7
 8ee:	8a 18       	add.b	#0x18,r2l
/home/main.c:24
  serial_init(SERIAL_DEFAULT_DEVICE);
 8f0:	00 05       	.word	H'0,H'5
 8f2:	02 00       	stc	ccr,r0h
 8f4:	00 07       	.word	H'0,H'7
 8f6:	90 18       	addx	#0x18,r0h
main():
/home/main.c:72
  puts("kzload (kozos boot loader) started.\n");
 8f8:	00 05       	.word	H'0,H'5
 8fa:	02 00       	stc	ccr,r0h
 8fc:	00 07       	.word	H'0,H'7
 8fe:	94 12       	addx	#0x12,r4h
 900:	00 05       	.word	H'0,H'5
/home/main.c:75
    puts("kzload> "); /* プロンプト表示 */
 902:	02 00       	stc	ccr,r0h
 904:	00 07       	.word	H'0,H'7
 906:	a2 1f       	cmp.b	#0x1f,r2h
 908:	00 05       	.word	H'0,H'5
 90a:	02 00       	stc	ccr,r0h
/home/main.c:76
    gets(buf); /* シリアルからのコマンド受信 */
 90c:	00 07       	.word	H'0,H'7
 90e:	a8 03       	cmp.b	#0x3,r0l
 910:	73 01       	btst	#0x0,r1h
 912:	00 05       	.word	H'0,H'5
 914:	02 00       	stc	ccr,r0h
/home/main.c:78
    if (!strcmp(buf, "load")) { /* XMODEMでのファイルのダウンロード */
 916:	00 07       	.word	H'0,H'7
 918:	ac 2a       	cmp.b	#0x2a,r4l
 91a:	00 05       	.word	H'0,H'5
 91c:	02 00       	stc	ccr,r0h
 91e:	00 07       	.word	H'0,H'7
 920:	c2 00       	or.b	#0x0,r2h
 922:	01 01       	.word	H'1,H'1

00000924 <.Ldebug_line0>:
.Ldebug_line0():
 924:	00 00       	nop	
main():
/home/main.c:78
 926:	00 e8       	.word	H'0,H'e8
 928:	00 04       	.word	H'0,H'4
/home/main.c:79
      loadbuf = (char *)(&buffer_start);
 92a:	00 00       	nop	
 92c:	00 3c       	.word	H'0,H'3c
 92e:	01 01       	.word	H'1,H'1
 930:	01 f6       	.word	H'1,H'f6
 932:	f2 0d       	mov.b	#0xd,r2h
 934:	00 01       	.word	H'0,H'1
 936:	01 01       	.word	H'1,H'1
/home/main.c:80
      size = xmodem_recv(loadbuf);
 938:	01 00       	.word	H'1,H'0
 93a:	00 00       	nop	
 93c:	01 00       	.word	H'1,H'0
 93e:	00 01       	.word	H'0,H'1
 940:	00 65       	.word	H'0,H'65
 942:	6c 66       	mov.b	@er6+,r6h
 944:	2e 63       	mov.b	@0x63:8,r6l
wait():
/home/main.c:55
  for (i = 0; i < 300000; i++)
 946:	00 00       	nop	
 948:	00 00       	nop	
 94a:	6c 69       	mov.b	@er6+,r1l
 94c:	62 2e       	bclr	r2h,r6l
 94e:	68 00       	mov.b	@er0,r0h
 950:	00 00       	nop	
 952:	00 64       	.word	H'0,H'64
 954:	65 66       	xor.w	r6,r6
 956:	69 6e       	mov.w	@er6,e6
 958:	65 73       	xor.w	r7,r3
 95a:	2e 68       	mov.b	@0x68:8,r6l
 95c:	00 00       	nop	
 95e:	00 00       	nop	
main():
/home/main.c:82
      if (size < 0) {
 960:	65 6c       	xor.w	r6,e4
 962:	66 2e       	and.w	r2,e6
/home/main.c:83
	puts("\nXMODEM receive error!\n");
 964:	68 00       	mov.b	@er0,r0h
 966:	00 00       	nop	
 968:	00 00       	nop	
 96a:	00 05       	.word	H'0,H'5
/home/main.c:85
	puts("\nXMODEM receive succeeded.\n");
 96c:	02 00       	stc	ccr,r0h
 96e:	00 07       	.word	H'0,H'7
 970:	c2 6a       	or.b	#0x6a,r2h
 972:	00 05       	.word	H'0,H'5
/home/main.c:87
    } else if (!strcmp(buf, "dump")) { /* メモリの16進ダンプ出力 */
 974:	02 00       	stc	ccr,r0h
 976:	00 07       	.word	H'0,H'7
 978:	d4 03       	xor.b	#0x3,r4h
 97a:	58 01       	.word	H'58,H'1
 97c:	00 05       	.word	H'0,H'5
 97e:	02 00       	stc	ccr,r0h
 980:	00 07       	.word	H'0,H'7
 982:	e8 1a       	and.b	#0x1a,r0l
 984:	00 05       	.word	H'0,H'5
 986:	02 00       	stc	ccr,r0h
 988:	00 07       	.word	H'0,H'7
/home/main.c:88
      puts("size: ");
 98a:	f2 18       	mov.b	#0x18,r2h
 98c:	00 05       	.word	H'0,H'5
 98e:	02 00       	stc	ccr,r0h
 990:	00 07       	.word	H'0,H'7
 992:	fc 18       	mov.b	#0x18,r4l
/home/main.c:89
      putxval(size, 0);
 994:	00 05       	.word	H'0,H'5
 996:	02 00       	stc	ccr,r0h
 998:	00 08       	.word	H'0,H'8
 99a:	06 18       	andc	#0x18,ccr
 99c:	00 05       	.word	H'0,H'5
 99e:	02 00       	stc	ccr,r0h
 9a0:	00 08       	.word	H'0,H'8
/home/main.c:90
      puts("\n");
 9a2:	10 18       	shll.w	e0
 9a4:	00 05       	.word	H'0,H'5
 9a6:	02 00       	stc	ccr,r0h
 9a8:	00 08       	.word	H'0,H'8
 9aa:	1c 1a       	cmp.b	r1h,r2l
/home/main.c:91
      dump(loadbuf, size);
 9ac:	00 05       	.word	H'0,H'5
 9ae:	02 00       	stc	ccr,r0h
 9b0:	00 08       	.word	H'0,H'8
 9b2:	2a 26       	mov.b	@0x26:8,r2l
 9b4:	00 05       	.word	H'0,H'5
 9b6:	02 00       	stc	ccr,r0h
 9b8:	00 08       	.word	H'0,H'8
 9ba:	34 16       	mov.b	r4h,@0x16:8
 9bc:	00 05       	.word	H'0,H'5
 9be:	02 00       	stc	ccr,r0h
 9c0:	00 08       	.word	H'0,H'8
dump():
/home/main.c:34
  if (size < 0) {
 9c2:	3c 16       	mov.b	r4l,@0x16:8
 9c4:	00 05       	.word	H'0,H'5
/home/main.c:35
    puts("no data.\n");
 9c6:	02 00       	stc	ccr,r0h
 9c8:	00 08       	.word	H'0,H'8
 9ca:	3e 1b       	mov.b	r6l,@0x1b:8
 9cc:	00 05       	.word	H'0,H'5
 9ce:	02 00       	stc	ccr,r0h
/home/main.c:39
    putxval(buf[i], 2);
 9d0:	00 08       	.word	H'0,H'8
 9d2:	46 1a       	bne	.+26 (0x9ee)
 9d4:	00 05       	.word	H'0,H'5
 9d6:	02 00       	stc	ccr,r0h
 9d8:	00 08       	.word	H'0,H'8
 9da:	64 1a       	or.w	r1,e2
 9dc:	00 05       	.word	H'0,H'5
 9de:	02 00       	stc	ccr,r0h
 9e0:	00 08       	.word	H'0,H'8
 9e2:	6a 16       	.word	H'6a,H'16
/home/main.c:40
    if ((i & 0xf) == 15) {
 9e4:	00 05       	.word	H'0,H'5
 9e6:	02 00       	stc	ccr,r0h
 9e8:	00 08       	.word	H'0,H'8
 9ea:	86 03       	add.b	#0x3,r6h
 9ec:	75 01       	bxor	#0x0,r1h
 9ee:	00 05       	.word	H'0,H'5
 9f0:	02 00       	stc	ccr,r0h
/home/main.c:41
      puts("\n");
 9f2:	00 08       	.word	H'0,H'8
 9f4:	90 33       	addx	#0x33,r0h
 9f6:	00 05       	.word	H'0,H'5
 9f8:	02 00       	stc	ccr,r0h
/home/main.c:43
      if ((i & 0xf) == 7) puts(" ");
 9fa:	00 08       	.word	H'0,H'8
 9fc:	98 12       	addx	#0x12,r0l
 9fe:	00 05       	.word	H'0,H'5
 a00:	02 00       	stc	ccr,r0h
 a02:	00 08       	.word	H'0,H'8
 a04:	9a 1d       	addx	#0x1d,r2l
 a06:	00 05       	.word	H'0,H'5
 a08:	02 00       	stc	ccr,r0h
/home/main.c:44
      puts(" ");
 a0a:	00 08       	.word	H'0,H'8
 a0c:	aa 00       	cmp.b	#0x0,r2l
 a0e:	01 01       	.word	H'1,H'1

Disassembly of section .debug_str:

00000000 <.debug_str>:
       0:	5f 5f       	jsr	@@95 (0x5f)
       2:	55 49       	bsr	.+73 (0x4d)
       4:	4e 54       	bgt	.+84 (0x5a)
       6:	5f 4c       	jsr	@@76 (0x4c)
       8:	45 41       	.word	H'45,H'41
       a:	53 54       	divxu.w	r5,er4
       c:	38 5f       	mov.b	r0l,@0x5f:8
       e:	4d 41       	.word	H'4d,H'41
      10:	58 5f       	.word	H'58,H'5f
      12:	5f 20       	jsr	@@32 (0x20)
      14:	30 78       	mov.b	r0h,@0x78:8
      16:	66 66       	and.w	r6,r6
      18:	00 5f       	.word	H'0,H'5f
      1a:	5f 49       	jsr	@@73 (0x49)
      1c:	4e 54       	bgt	.+84 (0x72)
      1e:	5f 46       	jsr	@@70 (0x46)
      20:	41 53       	.word	H'41,H'53
      22:	54 33       	rts/l	er0-er3
      24:	32 5f       	mov.b	r2h,@0x5f:8
      26:	57 49       	.word	H'57,H'49
      28:	44 54       	bcc	.+84 (0x7e)
      2a:	48 5f       	.word	H'48,H'5f
      2c:	5f 20       	jsr	@@32 (0x20)
      2e:	33 32       	mov.b	r3h,@0x32:8
      30:	00 2f       	.word	H'0,H'2f
      32:	68 6f       	mov.b	@er6,r7l
      34:	6d 65       	mov.w	@er6+,r5
      36:	00 5f       	.word	H'0,H'5f
      38:	5f 53       	jsr	@@83 (0x53)
      3a:	49 5a       	bvs	.+90 (0x96)
      3c:	45 4f       	.word	H'45,H'4f
      3e:	46 5f       	.word	H'46,H'5f
      40:	53 49       	.word	H'53,H'49
      42:	5a 45 5f 54 	jmp	@0x455f54:24
      46:	5f 5f       	jsr	@@95 (0x5f)
      48:	20 34       	mov.b	@0x34:8,r0h
      4a:	00 5f       	.word	H'0,H'5f
      4c:	5f 49       	jsr	@@73 (0x49)
      4e:	4e 54       	bgt	.+84 (0xa4)
      50:	36 34       	mov.b	r6h,@0x34:8
      52:	5f 54       	jsr	@@84 (0x54)
      54:	59 50       	jmp	@er5
      56:	45 5f       	.word	H'45,H'5f
      58:	5f 20       	jsr	@@32 (0x20)
      5a:	6c 6f       	mov.b	@er6+,r7l
      5c:	6e 67 20 6c 	mov.b	@(0x206c:16,er6),r7h
      60:	6f 6e 67 20 	mov.w	@(0x6720:16,er6),e6
      64:	69 6e       	mov.w	@er6,e6
      66:	74 00       	bor	#0x0,r0h
      68:	5f 5f       	jsr	@@95 (0x5f)
      6a:	44 42       	bcc	.+66 (0xae)
      6c:	4c 5f       	.word	H'4c,H'5f
      6e:	44 45       	.word	H'44,H'45
      70:	43 49       	.word	H'43,H'49
      72:	4d 41       	.word	H'4d,H'41
      74:	4c 5f       	.word	H'4c,H'5f
      76:	44 49       	.word	H'44,H'49
      78:	47 5f       	.word	H'47,H'5f
      7a:	5f 20       	jsr	@@32 (0x20)
      7c:	39 00       	mov.b	r1l,@0x0:8
      7e:	5f 5f       	jsr	@@95 (0x5f)
      80:	57 43       	.word	H'57,H'43
      82:	48 41       	.word	H'48,H'41
      84:	52 5f       	.word	H'52,H'5f
      86:	54 59       	.word	H'54,H'59
      88:	50 45       	mulxu.b	r4h,r5
      8a:	5f 5f       	jsr	@@95 (0x5f)
      8c:	20 73       	mov.b	@0x73:8,r0h
      8e:	68 6f       	mov.b	@er6,r7l
      90:	72 74       	bclr	#0x7,r4h
      92:	20 75       	mov.b	@0x75:8,r0h
      94:	6e 73 69 67 	mov.b	@(0x6967:16,er7),r3h
      98:	6e 65 64 20 	mov.b	@(0x6420:16,er6),r5h
      9c:	69 6e       	mov.w	@er6,e6
      9e:	74 00       	bor	#0x0,r0h
      a0:	5f 5f       	jsr	@@95 (0x5f)
      a2:	49 4e       	bvs	.+78 (0xf2)
      a4:	54 36       	rts/l	er3-er6
      a6:	34 5f       	mov.b	r4h,@0x5f:8
      a8:	43 28       	bls	.+40 (0xd2)
      aa:	63 29       	btst	r2h,r1l
      ac:	20 63       	mov.b	@0x63:8,r0h
      ae:	20 23       	mov.b	@0x23:8,r0h
      b0:	23 20       	mov.b	@0x20:8,r3h
      b2:	4c 4c       	bge	.+76 (0x100)
      b4:	00 5f       	.word	H'0,H'5f
      b6:	5f 53       	jsr	@@83 (0x53)
      b8:	49 5a       	bvs	.+90 (0x114)
      ba:	45 4f       	.word	H'45,H'4f
      bc:	46 5f       	.word	H'46,H'5f
      be:	50 4f       	mulxu.b	r4h,e7
      c0:	49 4e       	bvs	.+78 (0x110)
      c2:	54 45       	rts/l	er1-er5
      c4:	52 5f       	.word	H'52,H'5f
      c6:	5f 20       	jsr	@@32 (0x20)
      c8:	34 00       	mov.b	r4h,@0x0:8
      ca:	5f 5f       	jsr	@@95 (0x5f)
      cc:	53 54       	divxu.w	r5,er4
      ce:	44 43       	.word	H'44,H'43
      d0:	5f 56       	jsr	@@86 (0x56)
      d2:	45 52       	bcs	.+82 (0x126)
      d4:	53 49       	.word	H'53,H'49
      d6:	4f 4e       	ble	.+78 (0x126)
      d8:	5f 5f       	jsr	@@95 (0x5f)
      da:	20 32       	mov.b	@0x32:8,r0h
      dc:	30 31       	mov.b	r0h,@0x31:8
      de:	31 31       	mov.b	r1h,@0x31:8
      e0:	32 4c       	mov.b	r2h,@0x4c:8
      e2:	00 5f       	.word	H'0,H'5f
      e4:	5f 44       	jsr	@@68 (0x44)
      e6:	45 43       	.word	H'45,H'43
      e8:	36 34       	mov.b	r6h,@0x34:8
      ea:	5f 45       	jsr	@@69 (0x45)
      ec:	50 53       	mulxu.b	r5h,r3
      ee:	49 4c       	bvs	.+76 (0x13c)
      f0:	4f 4e       	ble	.+78 (0x140)
      f2:	5f 5f       	jsr	@@95 (0x5f)
      f4:	20 31       	mov.b	@0x31:8,r0h
      f6:	45 2d       	.word	H'45,H'2d
      f8:	31 35       	mov.b	r1h,@0x35:8
      fa:	44 44       	bcc	.+68 (0x140)
      fc:	00 5f       	.word	H'0,H'5f
      fe:	5f 44       	jsr	@@68 (0x44)
     100:	45 43       	.word	H'45,H'43
     102:	31 32       	mov.b	r1h,@0x32:8
     104:	38 5f       	mov.b	r0l,@0x5f:8
     106:	4d 49       	.word	H'4d,H'49
     108:	4e 5f       	.word	H'4e,H'5f
     10a:	45 58       	bcs	.+88 (0x164)
     10c:	50 5f       	mulxu.b	r5h,e7
     10e:	5f 20       	jsr	@@32 (0x20)
     110:	28 2d       	mov.b	@0x2d:8,r0l
     112:	36 31       	mov.b	r6h,@0x31:8
     114:	34 32       	mov.b	r4h,@0x32:8
     116:	29 00       	mov.b	@0x0:8,r1l
     118:	5f 5f       	jsr	@@95 (0x5f)
     11a:	46 4c       	bne	.+76 (0x168)
     11c:	54 33       	rts/l	er0-er3
     11e:	32 5f       	mov.b	r2h,@0x5f:8
     120:	44 45       	.word	H'44,H'45
     122:	4e 4f       	.word	H'4e,H'4f
     124:	52 4d       	.word	H'52,H'4d
     126:	5f 4d       	jsr	@@77 (0x4d)
     128:	49 4e       	bvs	.+78 (0x178)
     12a:	5f 5f       	jsr	@@95 (0x5f)
     12c:	20 31       	mov.b	@0x31:8,r0h
     12e:	2e 34       	mov.b	@0x34:8,r6l
     130:	30 31       	mov.b	r0h,@0x31:8
     132:	32 39       	mov.b	r2h,@0x39:8
     134:	38 34       	mov.b	r0l,@0x34:8
     136:	36 65       	mov.b	r6h,@0x65:8
     138:	2d 34       	mov.b	@0x34:8,r5l
     13a:	35 46       	mov.b	r5h,@0x46:8
     13c:	33 32       	mov.b	r3h,@0x32:8
     13e:	00 5f       	.word	H'0,H'5f
     140:	5f 44       	jsr	@@68 (0x44)
     142:	45 43       	.word	H'45,H'43
     144:	36 34       	mov.b	r6h,@0x34:8
     146:	5f 4d       	jsr	@@77 (0x4d)
     148:	41 4e       	brn	.+78 (0x198)
     14a:	54 5f       	.word	H'54,H'5f
     14c:	44 49       	.word	H'44,H'49
     14e:	47 5f       	.word	H'47,H'5f
     150:	5f 20       	jsr	@@32 (0x20)
     152:	31 36       	mov.b	r1h,@0x36:8
     154:	00 5f       	.word	H'0,H'5f
     156:	5f 49       	jsr	@@73 (0x49)
     158:	4e 54       	bgt	.+84 (0x1ae)
     15a:	5f 4d       	jsr	@@77 (0x4d)
     15c:	41 58       	brn	.+88 (0x1b6)
     15e:	5f 5f       	jsr	@@95 (0x5f)
     160:	20 30       	mov.b	@0x30:8,r0h
     162:	78 37       	.word	H'78,H'37
     164:	66 66       	and.w	r6,r6
     166:	66 00       	and.w	r0,r0
     168:	5f 5f       	jsr	@@95 (0x5f)
     16a:	53 49       	.word	H'53,H'49
     16c:	47 5f       	.word	H'47,H'5f
     16e:	41 54       	brn	.+84 (0x1c4)
     170:	4f 4d       	.word	H'4f,H'4d
     172:	49 43       	.word	H'49,H'43
     174:	5f 57       	jsr	@@87 (0x57)
     176:	49 44       	bvs	.+68 (0x1bc)
     178:	54 48       	.word	H'54,H'48
     17a:	5f 5f       	jsr	@@95 (0x5f)
     17c:	20 31       	mov.b	@0x31:8,r0h
     17e:	36 00       	mov.b	r6h,@0x0:8
     180:	5f 5f       	jsr	@@95 (0x5f)
     182:	68 61       	mov.b	@er6,r1h
     184:	73 5f       	btst	#0x5,r7l
     186:	69 6e       	mov.w	@er6,e6
     188:	63 6c       	btst	r6h,r4l
     18a:	75 64       	bxor	#0x6,r4h
     18c:	65 5f       	xor.w	r5,e7
     18e:	6e 65 78 74 	mov.b	@(0x7874:16,er6),r5h
     192:	28 53       	mov.b	@0x53:8,r0l
     194:	54 52       	rts/l	er-3-er2
     196:	29 20       	mov.b	@0x20:8,r1l
     198:	5f 5f       	jsr	@@95 (0x5f)
     19a:	68 61       	mov.b	@er6,r1h
     19c:	73 5f       	btst	#0x5,r7l
     19e:	69 6e       	mov.w	@er6,e6
     1a0:	63 6c       	btst	r6h,r4l
     1a2:	75 64       	bxor	#0x6,r4h
     1a4:	65 5f       	xor.w	r5,e7
     1a6:	6e 65 78 74 	mov.b	@(0x7874:16,er6),r5h
     1aa:	5f 5f       	jsr	@@95 (0x5f)
     1ac:	28 53       	mov.b	@0x53:8,r0l
     1ae:	54 52       	rts/l	er-3-er2
     1b0:	29 00       	mov.b	@0x0:8,r1l
     1b2:	5f 5f       	jsr	@@95 (0x5f)
     1b4:	55 49       	bsr	.+73 (0x1ff)
     1b6:	4e 54       	bgt	.+84 (0x20c)
     1b8:	36 34       	mov.b	r6h,@0x34:8
     1ba:	5f 54       	jsr	@@84 (0x54)
     1bc:	59 50       	jmp	@er5
     1be:	45 5f       	.word	H'45,H'5f
     1c0:	5f 20       	jsr	@@32 (0x20)
     1c2:	6c 6f       	mov.b	@er6+,r7l
     1c4:	6e 67 20 6c 	mov.b	@(0x206c:16,er6),r7h
     1c8:	6f 6e 67 20 	mov.w	@(0x6720:16,er6),e6
     1cc:	75 6e       	bxor	#0x6,r6l
     1ce:	73 69       	btst	#0x6,r1l
     1d0:	67 6e       	bst	#0x6,r6l
     1d2:	65 64       	xor.w	r6,r4
     1d4:	20 69       	mov.b	@0x69:8,r0h
     1d6:	6e 74 00 5f 	mov.b	@(0x5f:16,er7),r4h
     1da:	5f 50       	jsr	@@80 (0x50)
     1dc:	54 52       	rts/l	er-3-er2
     1de:	44 49       	.word	H'44,H'49
     1e0:	46 46       	bne	.+70 (0x228)
     1e2:	5f 4d       	jsr	@@77 (0x4d)
     1e4:	41 58       	brn	.+88 (0x23e)
     1e6:	5f 5f       	jsr	@@95 (0x5f)
     1e8:	20 30       	mov.b	@0x30:8,r0h
     1ea:	78 37       	.word	H'78,H'37
     1ec:	66 66       	and.w	r6,r6
     1ee:	66 66       	and.w	r6,r6
     1f0:	66 66       	and.w	r6,r6
     1f2:	66 4c       	and.w	r4,e4
     1f4:	00 5f       	.word	H'0,H'5f
     1f6:	5f 44       	jsr	@@68 (0x44)
     1f8:	45 43       	.word	H'45,H'43
     1fa:	33 32       	mov.b	r3h,@0x32:8
     1fc:	5f 4d       	jsr	@@77 (0x4d)
     1fe:	49 4e       	bvs	.+78 (0x24e)
     200:	5f 5f       	jsr	@@95 (0x5f)
     202:	20 31       	mov.b	@0x31:8,r0h
     204:	45 2d       	.word	H'45,H'2d
     206:	39 35       	mov.b	r1l,@0x35:8
     208:	44 46       	bcc	.+70 (0x250)
     20a:	00 5f       	.word	H'0,H'5f
     20c:	5f 53       	jsr	@@83 (0x53)
     20e:	49 5a       	bvs	.+90 (0x26a)
     210:	45 4f       	.word	H'45,H'4f
     212:	46 5f       	.word	H'46,H'5f
     214:	57 49       	.word	H'57,H'49
     216:	4e 54       	bgt	.+84 (0x26c)
     218:	5f 54       	jsr	@@84 (0x54)
     21a:	5f 5f       	jsr	@@95 (0x5f)
     21c:	20 32       	mov.b	@0x32:8,r0h
     21e:	00 5f       	.word	H'0,H'5f
     220:	5f 55       	jsr	@@85 (0x55)
     222:	49 4e       	bvs	.+78 (0x272)
     224:	54 31       	rts/l	er-2-er1
     226:	36 5f       	mov.b	r6h,@0x5f:8
     228:	4d 41       	.word	H'4d,H'41
     22a:	58 5f       	.word	H'58,H'5f
     22c:	5f 20       	jsr	@@32 (0x20)
     22e:	30 78       	mov.b	r0h,@0x78:8
     230:	66 66       	and.w	r6,r6
     232:	66 66       	and.w	r6,r6
     234:	55 00       	bsr	.0 (0x236)
     236:	5f 5f       	jsr	@@95 (0x5f)
     238:	55 49       	bsr	.+73 (0x283)
     23a:	4e 54       	bgt	.+84 (0x290)
     23c:	4d 41       	.word	H'4d,H'41
     23e:	58 5f       	.word	H'58,H'5f
     240:	43 28       	bls	.+40 (0x26a)
     242:	63 29       	btst	r2h,r1l
     244:	20 63       	mov.b	@0x63:8,r0h
     246:	20 23       	mov.b	@0x23:8,r0h
     248:	23 20       	mov.b	@0x20:8,r3h
     24a:	55 4c       	bsr	.+76 (0x298)
     24c:	4c 00       	bge	.0 (0x24e)
     24e:	5f 5f       	jsr	@@95 (0x5f)
     250:	49 4e       	bvs	.+78 (0x2a0)
     252:	54 5f       	.word	H'54,H'5f
     254:	4c 45       	.word	H'4c,H'45
     256:	41 53       	.word	H'41,H'53
     258:	54 33       	rts/l	er0-er3
     25a:	32 5f       	mov.b	r2h,@0x5f:8
softvec_init():
/home/interrupt.c:7
{
     25c:	57 49       	.word	H'57,H'49
     25e:	44 54       	bcc	.+84 (0x2b4)
     260:	48 5f       	.word	H'48,H'5f
softvec_setintr():
/home/interrupt.c:17
  SOFTVECS[type] = handler;
     262:	5f 20       	jsr	@@32 (0x20)
     264:	33 32       	mov.b	r3h,@0x32:8
     266:	00 5f       	.word	H'0,H'5f
     268:	5f 43       	jsr	@@67 (0x43)
     26a:	48 41       	.word	H'48,H'41
     26c:	52 33       	mulxu.w	r3,er3
     26e:	32 5f       	mov.b	r2h,@0x5f:8
     270:	54 59       	.word	H'54,H'59
     272:	50 45       	mulxu.b	r4h,r5
     274:	5f 5f       	jsr	@@95 (0x5f)
     276:	20 6c       	mov.b	@0x6c:8,r0h
     278:	6f 6e 67 20 	mov.w	@(0x6720:16,er6),e6
     27c:	75 6e       	bxor	#0x6,r6l
     27e:	73 69       	btst	#0x6,r1l
     280:	67 6e       	bst	#0x6,r6l
     282:	65 64       	xor.w	r6,r4
     284:	20 69       	mov.b	@0x69:8,r0h
     286:	6e 74 00 5f 	mov.b	@(0x5f:16,er7),r4h
     28a:	5f 44       	jsr	@@68 (0x44)
     28c:	42 4c       	bhi	.+76 (0x2da)
     28e:	5f 48       	jsr	@@72 (0x48)
     290:	41 53       	.word	H'41,H'53
     292:	5f 49       	jsr	@@73 (0x49)
     294:	4e 46       	bgt	.+70 (0x2dc)
     296:	49 4e       	bvs	.+78 (0x2e6)
     298:	49 54       	bvs	.+84 (0x2ee)
     29a:	59 5f       	.word	H'59,H'5f
     29c:	5f 20       	jsr	@@32 (0x20)
     29e:	31 00       	mov.b	r1h,@0x0:8
     2a0:	5f 5f       	jsr	@@95 (0x5f)
     2a2:	49 4e       	bvs	.+78 (0x2f2)
     2a4:	54 5f       	.word	H'54,H'5f
     2a6:	46 41       	.word	H'46,H'41
     2a8:	53 54       	divxu.w	r5,er4
     2aa:	31 36       	mov.b	r1h,@0x36:8
     2ac:	5f 57       	jsr	@@87 (0x57)
     2ae:	49 44       	bvs	.+68 (0x2f4)
     2b0:	54 48       	.word	H'54,H'48
     2b2:	5f 5f       	jsr	@@95 (0x5f)
     2b4:	20 31       	mov.b	@0x31:8,r0h
     2b6:	36 00       	mov.b	r6h,@0x0:8
     2b8:	5f 5f       	jsr	@@95 (0x5f)
     2ba:	47 58       	beq	.+88 (0x314)
     2bc:	58 5f       	.word	H'58,H'5f
     2be:	41 42       	brn	.+66 (0x302)
     2c0:	49 5f       	.word	H'49,H'5f
     2c2:	56 45       	rte/l	er1-er5
softvec_init():
/home/interrupt.c:12
}
     2c4:	52 53       	mulxu.w	r5,er3
     2c6:	49 4f       	.word	H'49,H'4f
     2c8:	4e 20       	bgt	.+32 (0x2ea)
     2ca:	31 30       	mov.b	r1h,@0x30:8
softvec_setintr():
/home/interrupt.c:16
{
     2cc:	31 31       	mov.b	r1h,@0x31:8
     2ce:	00 5f       	.word	H'0,H'5f
     2d0:	5f 49       	jsr	@@73 (0x49)
/home/interrupt.c:17
  SOFTVECS[type] = handler;
     2d2:	4e 54       	bgt	.+84 (0x328)
     2d4:	5f 46       	jsr	@@70 (0x46)
     2d6:	41 53       	.word	H'41,H'53
     2d8:	54 38       	.word	H'54,H'38
     2da:	5f 57       	jsr	@@87 (0x57)
     2dc:	49 44       	bvs	.+68 (0x322)
     2de:	54 48       	.word	H'54,H'48
     2e0:	5f 5f       	jsr	@@95 (0x5f)
/home/interrupt.c:19
}
     2e2:	20 31       	mov.b	@0x31:8,r0h
     2e4:	36 00       	mov.b	r6h,@0x0:8
     2e6:	5f 5f       	jsr	@@95 (0x5f)
     2e8:	53 54       	divxu.w	r5,er4
interrupt():
/home/interrupt.c:26
{
     2ea:	44 43       	.word	H'44,H'43
     2ec:	5f 48       	jsr	@@72 (0x48)
     2ee:	4f 53       	.word	H'4f,H'53
/home/interrupt.c:27
  softvec_handler_t handler = SOFTVECS[type];
     2f0:	54 45       	rts/l	er1-er5
     2f2:	44 5f       	.word	H'44,H'5f
     2f4:	5f 20       	jsr	@@32 (0x20)
     2f6:	31 00       	mov.b	r1h,@0x0:8
     2f8:	5f 5f       	jsr	@@95 (0x5f)
     2fa:	46 4c       	bne	.+76 (0x348)
     2fc:	54 5f       	.word	H'54,H'5f
     2fe:	45 56       	bcs	.+86 (0x356)
     300:	41 4c       	brn	.+76 (0x34e)
/home/interrupt.c:28
  if (handler)
     302:	5f 4d       	jsr	@@77 (0x4d)
/home/interrupt.c:29
    handler(type, sp);
     304:	45 54       	bcs	.+84 (0x35a)
/home/interrupt.c:30
}
     306:	48 4f       	.word	H'48,H'4f
     308:	44 5f       	.word	H'44,H'5f
     30a:	54 53       	rts/l	er-2-er3
memset():
/home/lib.c:6
{
     30c:	5f 31       	jsr	@@49 (0x31)
     30e:	38 36       	mov.b	r0l,@0x36:8
     310:	36 31       	mov.b	r6h,@0x31:8
     312:	5f 33       	jsr	@@51 (0x33)
     314:	5f 5f       	jsr	@@95 (0x5f)
/home/lib.c:8
  for (p = b; len > 0; len--)
     316:	20 30       	mov.b	@0x30:8,r0h
     318:	00 5f       	.word	H'0,H'5f
     31a:	5f 44       	jsr	@@68 (0x44)
/home/lib.c:9 (discriminator 3)
    *(p++) = c;
     31c:	45 43       	.word	H'45,H'43
     31e:	36 34       	mov.b	r6h,@0x34:8
     320:	5f 53       	jsr	@@83 (0x53)
     322:	55 42       	bsr	.+66 (0x366)
/home/lib.c:8 (discriminator 1)
  for (p = b; len > 0; len--)
     324:	4e 4f       	.word	H'4e,H'4f
     326:	52 4d       	.word	H'52,H'4d
/home/lib.c:11
}
     328:	41 4c       	brn	.+76 (0x376)
     32a:	5f 4d       	jsr	@@77 (0x4d)
     32c:	49 4e       	bvs	.+78 (0x37c)
     32e:	5f 5f       	jsr	@@95 (0x5f)
     330:	20 30       	mov.b	@0x30:8,r0h
memcpy():
/home/lib.c:14
{
     332:	2e 30       	mov.b	@0x30:8,r6l
     334:	30 30       	mov.b	r0h,@0x30:8
     336:	30 30       	mov.b	r0h,@0x30:8
     338:	30 30       	mov.b	r0h,@0x30:8
     33a:	30 30       	mov.b	r0h,@0x30:8
     33c:	30 30       	mov.b	r0h,@0x30:8
     33e:	30 30       	mov.b	r0h,@0x30:8
/home/lib.c:17
  for (; len > 0; len--)
     340:	30 31       	mov.b	r0h,@0x31:8
     342:	45 2d       	.word	H'45,H'2d
/home/lib.c:18 (discriminator 2)
    *(d++) = *(s++);
     344:	33 38       	mov.b	r3h,@0x38:8
     346:	33 44       	mov.b	r3h,@0x44:8
     348:	44 00       	bcc	.0 (0x34a)
     34a:	5f 5f       	jsr	@@95 (0x5f)
     34c:	53 43       	divxu.w	r4,er3
     34e:	48 41       	.word	H'48,H'41
     350:	52 5f       	.word	H'52,H'5f
     352:	57 49       	.word	H'57,H'49
     354:	44 54       	bcc	.+84 (0x3aa)
/home/lib.c:17 (discriminator 1)
  for (; len > 0; len--)
     356:	48 5f       	.word	H'48,H'5f
     358:	5f 20       	jsr	@@32 (0x20)
/home/lib.c:20
}
     35a:	38 00       	mov.b	r0l,@0x0:8
     35c:	5f 5f       	jsr	@@95 (0x5f)
     35e:	55 49       	bsr	.+73 (0x3a9)
     360:	4e 54       	bgt	.+84 (0x3b6)
     362:	5f 4c       	jsr	@@76 (0x4c)
     364:	45 41       	.word	H'45,H'41
     366:	53 54       	divxu.w	r5,er4
memcmp():
/home/lib.c:23
{
     368:	36 34       	mov.b	r6h,@0x34:8
     36a:	5f 54       	jsr	@@84 (0x54)
     36c:	59 50       	jmp	@er5
     36e:	45 5f       	.word	H'45,H'5f
     370:	5f 20       	jsr	@@32 (0x20)
     372:	6c 6f       	mov.b	@er6+,r7l
/home/lib.c:25
  for (; len > 0; len--) {
     374:	6e 67 20 6c 	mov.b	@(0x206c:16,er6),r7h
/home/lib.c:26
    if (*p1 != *p2)
     378:	6f 6e 67 20 	mov.w	@(0x6720:16,er6),e6
     37c:	75 6e       	bxor	#0x6,r6l
/home/lib.c:27
      return (*p1 > *p2) ? 1 : -1;
     37e:	73 69       	btst	#0x6,r1l
     380:	67 6e       	bst	#0x6,r6l
     382:	65 64       	xor.w	r6,r4
     384:	20 69       	mov.b	@0x69:8,r0h
/home/lib.c:28
    p1++;
     386:	6e 74 00 5f 	mov.b	@(0x5f:16,er7),r4h
/home/lib.c:29
    p2++;
     38a:	5f 44       	jsr	@@68 (0x44)
     38c:	42 4c       	bhi	.+76 (0x3da)
/home/lib.c:25 (discriminator 1)
  for (; len > 0; len--) {
     38e:	5f 48       	jsr	@@72 (0x48)
     390:	41 53       	.word	H'41,H'53
/home/lib.c:31
  return 0;
     392:	5f 51       	jsr	@@81 (0x51)
     394:	55 49       	bsr	.+73 (0x3df)
/home/lib.c:27
      return (*p1 > *p2) ? 1 : -1;
     396:	45 54       	bcs	.+84 (0x3ec)
     398:	5f 4e       	jsr	@@78 (0x4e)
/home/lib.c:32
}
     39a:	41 4e       	brn	.+78 (0x3ea)
     39c:	5f 5f       	jsr	@@95 (0x5f)
     39e:	20 31       	mov.b	@0x31:8,r0h
     3a0:	00 76       	.word	H'0,H'76
     3a2:	65 63       	xor.w	r6,r3
strlen():
/home/lib.c:35
{
     3a4:	74 6f       	bor	#0x6,r7l
     3a6:	72 2e       	bclr	#0x2,r6l
     3a8:	63 00       	btst	r0h,r0h
/home/lib.c:37
  for (len = 0; *s; s++, len++)
     3aa:	5f 5f       	jsr	@@95 (0x5f)
     3ac:	49 4e       	bvs	.+78 (0x3fc)
/home/lib.c:37 (discriminator 3)
     3ae:	54 5f       	.word	H'54,H'5f
     3b0:	4c 45       	.word	H'4c,H'45
/home/lib.c:37 (discriminator 1)
     3b2:	41 53       	.word	H'41,H'53
     3b4:	54 36       	rts/l	er3-er6
/home/lib.c:40
}
     3b6:	34 5f       	mov.b	r4h,@0x5f:8
     3b8:	4d 41       	.word	H'4d,H'41
     3ba:	58 5f       	.word	H'58,H'5f
     3bc:	5f 20       	jsr	@@32 (0x20)
strcpy():
/home/lib.c:43
{
     3be:	30 78       	mov.b	r0h,@0x78:8
     3c0:	37 66       	mov.b	r7h,@0x66:8
     3c2:	66 66       	and.w	r6,r6
     3c4:	66 66       	and.w	r6,r6
/home/lib.c:46
    *dst = *src;
     3c6:	66 66       	and.w	r6,r6
     3c8:	66 66       	and.w	r6,r6
/home/lib.c:47
    if (!*src) break;
     3ca:	66 66       	and.w	r6,r6
     3cc:	66 66       	and.w	r6,r6
/home/lib.c:45
  for (;; dst++, src++) {
     3ce:	66 66       	and.w	r6,r6
     3d0:	4c 4c       	bge	.+76 (0x41e)
/home/lib.c:46
    *dst = *src;
     3d2:	00 5f       	.word	H'0,H'5f
/home/lib.c:50
}
     3d4:	5f 44       	jsr	@@68 (0x44)
     3d6:	45 43       	.word	H'45,H'43
     3d8:	31 32       	mov.b	r1h,@0x32:8
strcmp():
/home/lib.c:53
{
     3da:	38 5f       	mov.b	r0l,@0x5f:8
     3dc:	4d 49       	.word	H'4d,H'49
     3de:	4e 5f       	.word	H'4e,H'5f
/home/lib.c:54
  while (*s1 || *s2) {
     3e0:	5f 20       	jsr	@@32 (0x20)
/home/lib.c:55
    if (*s1 != *s2)
     3e2:	31 45       	mov.b	r1h,@0x45:8
     3e4:	2d 36       	mov.b	@0x36:8,r5l
/home/lib.c:56
      return (*s1 > *s2) ? 1 : -1;
     3e6:	31 34       	mov.b	r1h,@0x34:8
     3e8:	33 44       	mov.b	r3h,@0x44:8
     3ea:	4c 00       	bge	.0 (0x3ec)
     3ec:	5f 5f       	jsr	@@95 (0x5f)
/home/lib.c:57
    s1++;
     3ee:	55 49       	bsr	.+73 (0x439)
/home/lib.c:58
    s2++;
     3f0:	4e 54       	bgt	.+84 (0x446)
/home/lib.c:54
  while (*s1 || *s2) {
     3f2:	38 5f       	mov.b	r0l,@0x5f:8
     3f4:	54 59       	.word	H'54,H'59
     3f6:	50 45       	mulxu.b	r4h,r5
     3f8:	5f 5f       	jsr	@@95 (0x5f)
/home/lib.c:54 (discriminator 1)
     3fa:	20 75       	mov.b	@0x75:8,r0h
     3fc:	6e 73 69 67 	mov.b	@(0x6967:16,er7),r3h
     400:	6e 65 64 20 	mov.b	@(0x6420:16,er6),r5h
     404:	63 68       	btst	r6h,r0l
     406:	61 72       	bnot	r7h,r2h
/home/lib.c:56
      return (*s1 > *s2) ? 1 : -1;
     408:	00 5f       	.word	H'0,H'5f
     40a:	5f 44       	jsr	@@68 (0x44)
/home/lib.c:61
}
     40c:	45 43       	.word	H'45,H'43
     40e:	33 32       	mov.b	r3h,@0x32:8
     410:	5f 4d       	jsr	@@77 (0x4d)
strncmp():
/home/lib.c:64
{
     412:	41 58       	brn	.+88 (0x46c)
     414:	5f 45       	jsr	@@69 (0x45)
     416:	58 50       	.word	H'58,H'50
     418:	5f 5f       	jsr	@@95 (0x5f)
     41a:	20 39       	mov.b	@0x39:8,r0h
/home/lib.c:65
  while ((*s1 || *s2) && (len > 0)) {
     41c:	37 00       	mov.b	r7h,@0x0:8
/home/lib.c:66
    if (*s1 != *s2)
     41e:	5f 5f       	jsr	@@95 (0x5f)
     420:	53 49       	.word	H'53,H'49
     422:	5a 45 4f 46 	jmp	@0x454f46:24
/home/lib.c:67
      return (*s1 > *s2) ? 1 : -1;
     426:	5f 4c       	jsr	@@76 (0x4c)
     428:	4f 4e       	ble	.+78 (0x478)
     42a:	47 5f       	.word	H'47,H'5f
/home/lib.c:68
    s1++;
     42c:	44 4f       	.word	H'44,H'4f
/home/lib.c:69
    s2++;
     42e:	55 42       	bsr	.+66 (0x472)
/home/lib.c:70
    len--;
     430:	4c 45       	.word	H'4c,H'45
/home/lib.c:65
  while ((*s1 || *s2) && (len > 0)) {
     432:	5f 5f       	jsr	@@95 (0x5f)
     434:	20 34       	mov.b	@0x34:8,r0h
/home/lib.c:65 (discriminator 2)
     436:	00 5f       	.word	H'0,H'5f
     438:	5f 49       	jsr	@@73 (0x49)
     43a:	4e 54       	bgt	.+84 (0x490)
/home/lib.c:65 (discriminator 3)
     43c:	50 54       	mulxu.b	r5h,r4
     43e:	52 5f       	.word	H'52,H'5f
/home/lib.c:72
  return 0;
     440:	4d 41       	.word	H'4d,H'41
     442:	58 5f       	.word	H'58,H'5f
/home/lib.c:67
      return (*s1 > *s2) ? 1 : -1;
     444:	5f 20       	jsr	@@32 (0x20)
     446:	30 78       	mov.b	r0h,@0x78:8
     448:	37 66       	mov.b	r7h,@0x66:8
/home/lib.c:65
  while ((*s1 || *s2) && (len > 0)) {
     44a:	66 66       	and.w	r6,r6
     44c:	66 66       	and.w	r6,r6
     44e:	66 66       	and.w	r6,r6
     450:	4c 00       	bge	.0 (0x452)
     452:	5f 5f       	jsr	@@95 (0x5f)
     454:	53 49       	.word	H'53,H'49
/home/lib.c:73
}
     456:	47 5f       	.word	H'47,H'5f
     458:	41 54       	brn	.+84 (0x4ae)
     45a:	4f 4d       	.word	H'4f,H'4d
     45c:	49 43       	.word	H'49,H'43
     45e:	5f 54       	jsr	@@84 (0x54)
putc():
/home/lib.c:77
{
     460:	59 50       	jmp	@er5
     462:	45 5f       	.word	H'45,H'5f
     464:	5f 20       	jsr	@@32 (0x20)
     466:	69 6e       	mov.w	@er6,e6
     468:	74 00       	bor	#0x0,r0h
     46a:	5f 5f       	jsr	@@95 (0x5f)
/home/lib.c:78
  if (c == '\n')
     46c:	44 45       	.word	H'44,H'45
     46e:	43 36       	bls	.+54 (0x4a6)
/home/lib.c:79
    serial_send_byte(SERIAL_DEFAULT_DEVICE, '\r');
     470:	34 5f       	mov.b	r4h,@0x5f:8
     472:	4d 41       	.word	H'4d,H'41
     474:	58 5f       	.word	H'58,H'5f
     476:	45 58       	bcs	.+88 (0x4d0)
     478:	50 5f       	mulxu.b	r5h,e7
/home/lib.c:80
  return serial_send_byte(SERIAL_DEFAULT_DEVICE, c);
     47a:	5f 20       	jsr	@@32 (0x20)
     47c:	33 38       	mov.b	r3h,@0x38:8
     47e:	35 00       	mov.b	r5h,@0x0:8
     480:	5f 5f       	jsr	@@95 (0x5f)
     482:	53 48       	.word	H'53,H'48
/home/lib.c:81
}
     484:	52 54       	mulxu.w	r5,er4
     486:	5f 57       	jsr	@@87 (0x57)
     488:	49 44       	bvs	.+68 (0x4ce)
     48a:	54 48       	.word	H'54,H'48
     48c:	5f 5f       	jsr	@@95 (0x5f)
getc():
/home/lib.c:85
{
     48e:	20 31       	mov.b	@0x31:8,r0h
     490:	36 00       	mov.b	r6h,@0x0:8
     492:	5f 5f       	jsr	@@95 (0x5f)
     494:	49 4e       	bvs	.+78 (0x4e4)
     496:	54 5f       	.word	H'54,H'5f
/home/lib.c:86
  unsigned char c = serial_recv_byte(SERIAL_DEFAULT_DEVICE);
     498:	4c 45       	.word	H'4c,H'45
     49a:	41 53       	.word	H'41,H'53
     49c:	54 31       	rts/l	er-2-er1
     49e:	36 5f       	mov.b	r6h,@0x5f:8
     4a0:	57 49       	.word	H'57,H'49
/home/lib.c:87
  c = (c == '\r') ? '\n' : c;
     4a2:	44 54       	bcc	.+84 (0x4f8)
     4a4:	48 5f       	.word	H'48,H'5f
     4a6:	5f 20       	jsr	@@32 (0x20)
/home/lib.c:88 (discriminator 4)
  putc(c); /* エコー・バック */
     4a8:	31 36       	mov.b	r1h,@0x36:8
     4aa:	00 5f       	.word	H'0,H'5f
     4ac:	5f 46       	jsr	@@70 (0x46)
/home/lib.c:90
}
     4ae:	4c 54       	bge	.+84 (0x504)
     4b0:	33 32       	mov.b	r3h,@0x32:8
     4b2:	5f 48       	jsr	@@72 (0x48)
     4b4:	41 53       	.word	H'41,H'53
     4b6:	5f 49       	jsr	@@73 (0x49)
     4b8:	4e 46       	bgt	.+70 (0x500)
puts():
/home/lib.c:94
{
     4ba:	49 4e       	bvs	.+78 (0x50a)
     4bc:	49 54       	bvs	.+84 (0x512)
     4be:	59 5f       	.word	H'59,H'5f
     4c0:	5f 20       	jsr	@@32 (0x20)
     4c2:	31 00       	mov.b	r1h,@0x0:8
     4c4:	5f 5f       	jsr	@@95 (0x5f)
/home/lib.c:95
  while (*str)
     4c6:	46 4c       	bne	.+76 (0x514)
/home/lib.c:96
    putc(*(str++));
     4c8:	54 33       	rts/l	er0-er3
     4ca:	32 5f       	mov.b	r2h,@0x5f:8
     4cc:	4d 49       	.word	H'4d,H'49
/home/lib.c:95
  while (*str)
     4ce:	4e 5f       	.word	H'4e,H'5f
     4d0:	5f 20       	jsr	@@32 (0x20)
/home/lib.c:98
}
     4d2:	31 2e       	mov.b	r1h,@0x2e:8
     4d4:	31 37       	mov.b	r1h,@0x37:8
     4d6:	35 34       	mov.b	r5h,@0x34:8
     4d8:	39 34       	mov.b	r1l,@0x34:8
     4da:	33 35       	mov.b	r3h,@0x35:8
     4dc:	65 2d       	xor.w	r2,e5
gets():
/home/lib.c:102
{
     4de:	33 38       	mov.b	r3h,@0x38:8
     4e0:	46 33       	.word	H'46,H'33
     4e2:	32 00       	mov.b	r2h,@0x0:8
     4e4:	5f 5f       	jsr	@@95 (0x5f)
     4e6:	4c 44       	bge	.+68 (0x52c)
     4e8:	42 4c       	bhi	.+76 (0x536)
     4ea:	5f 48       	jsr	@@72 (0x48)
     4ec:	41 53       	.word	H'41,H'53
     4ee:	5f 49       	jsr	@@73 (0x49)
     4f0:	4e 46       	bgt	.+70 (0x538)
     4f2:	49 4e       	bvs	.+78 (0x542)
     4f4:	49 54       	bvs	.+84 (0x54a)
/home/lib.c:106
    c = getc();
     4f6:	59 5f       	.word	H'59,H'5f
     4f8:	5f 20       	jsr	@@32 (0x20)
     4fa:	31 00       	mov.b	r1h,@0x0:8
     4fc:	5f 5f       	jsr	@@95 (0x5f)
     4fe:	46 4c       	bne	.+76 (0x54c)
/home/lib.c:107
    if (c == '\n')
     500:	54 5f       	.word	H'54,H'5f
     502:	48 41       	.word	H'48,H'41
     504:	53 5f       	.word	H'53,H'5f
     506:	44 45       	.word	H'44,H'45
     508:	4e 4f       	.word	H'4e,H'4f
/home/lib.c:108
      c = '\0';
     50a:	52 4d       	.word	H'52,H'4d
/home/lib.c:109
    buf[i++] = c;
     50c:	5f 5f       	jsr	@@95 (0x5f)
     50e:	20 31       	mov.b	@0x31:8,r0h
/home/lib.c:110
  } while (c);
     510:	00 5f       	.word	H'0,H'5f
/home/lib.c:112
}
     512:	5f 53       	jsr	@@83 (0x53)
     514:	49 5a       	bvs	.+90 (0x570)
     516:	45 4f       	.word	H'45,H'4f
     518:	46 5f       	.word	H'46,H'5f
     51a:	50 54       	mulxu.b	r5h,r4
     51c:	52 44       	mulxu.w	r4,er4
     51e:	49 46       	bvs	.+70 (0x566)
     520:	46 5f       	.word	H'46,H'5f
     522:	54 5f       	.word	H'54,H'5f
putxval():
/home/lib.c:116
{
     524:	5f 20       	jsr	@@32 (0x20)
     526:	34 00       	mov.b	r4h,@0x0:8
     528:	5f 5f       	jsr	@@95 (0x5f)
     52a:	47 43       	.word	H'47,H'43
     52c:	43 5f       	.word	H'43,H'5f
     52e:	41 54       	brn	.+84 (0x584)
     530:	4f 4d       	.word	H'4f,H'4d
     532:	49 43       	.word	H'49,H'43
/home/lib.c:121
  *(p--) = '\0';
     534:	5f 57       	jsr	@@87 (0x57)
     536:	43 48       	bls	.+72 (0x580)
     538:	41 52       	brn	.+82 (0x58c)
/home/lib.c:123
  if (!value && !column)
     53a:	5f 54       	jsr	@@84 (0x54)
     53c:	5f 4c       	jsr	@@76 (0x4c)
/home/lib.c:123 (discriminator 1)
     53e:	4f 43       	.word	H'4f,H'43
     540:	4b 5f       	.word	H'4b,H'5f
/home/lib.c:124
    column++;
     542:	46 52       	bne	.+82 (0x596)
     544:	45 45       	.word	H'45,H'45
     546:	20 31       	mov.b	@0x31:8,r0h
     548:	00 5f       	.word	H'0,H'5f
     54a:	5f 49       	jsr	@@73 (0x49)
/home/lib.c:127
    *(p--) = "0123456789abcdef"[value & 0xf];
     54c:	4e 54       	bgt	.+84 (0x5a2)
     54e:	38 5f       	mov.b	r0l,@0x5f:8
     550:	54 59       	.word	H'54,H'59
     552:	50 45       	mulxu.b	r4h,r5
     554:	5f 5f       	jsr	@@95 (0x5f)
     556:	20 73       	mov.b	@0x73:8,r0h
     558:	69 67       	mov.w	@er6,r7
     55a:	6e 65 64 20 	mov.b	@(0x6420:16,er6),r5h
     55e:	63 68       	btst	r6h,r0l
/home/lib.c:128
    value >>= 4;
     560:	61 72       	bnot	r7h,r2h
     562:	00 5f       	.word	H'0,H'5f
     564:	5f 4c       	jsr	@@76 (0x4c)
     566:	4f 4e       	ble	.+78 (0x5b6)
/home/lib.c:129
    if (column) column--;
     568:	47 5f       	.word	H'47,H'5f
     56a:	57 49       	.word	H'57,H'49
/home/lib.c:129 (discriminator 1)
     56c:	44 54       	bcc	.+84 (0x5c2)
     56e:	48 5f       	.word	H'48,H'5f
/home/lib.c:126
  while (value || column) {
     570:	5f 20       	jsr	@@32 (0x20)
     572:	33 32       	mov.b	r3h,@0x32:8
/home/lib.c:126 (discriminator 1)
     574:	00 5f       	.word	H'0,H'5f
     576:	5f 50       	jsr	@@80 (0x50)
/home/lib.c:132
  puts(p + 1);
     578:	52 41       	mulxu.w	r4,er1
     57a:	47 4d       	.word	H'47,H'4d
     57c:	41 5f       	.word	H'41,H'5f
     57e:	52 45       	mulxu.w	r4,er5
/home/lib.c:135
}
     580:	44 45       	.word	H'44,H'45
     582:	46 49       	.word	H'46,H'49
     584:	4e 45       	.word	H'4e,H'45
     586:	5f 45       	jsr	@@69 (0x45)
     588:	58 54       	.word	H'58,H'54
     58a:	4e 41       	.word	H'4e,H'41
     58c:	4d 45       	.word	H'4d,H'45
     58e:	20 31       	mov.b	@0x31:8,r0h
     590:	00 5f       	.word	H'0,H'5f
serial_init():
/home/serial.c:59
{
     592:	5f 49       	jsr	@@73 (0x49)
     594:	4e 54       	bgt	.+84 (0x5ea)
     596:	5f 46       	jsr	@@70 (0x46)
/home/serial.c:60
  volatile struct h8_3069f_sci *sci = regs[index].sci;
     598:	41 53       	.word	H'41,H'53
     59a:	54 36       	rts/l	er3-er6
     59c:	34 5f       	mov.b	r4h,@0x5f:8
     59e:	4d 41       	.word	H'4d,H'41
     5a0:	58 5f       	.word	H'58,H'5f
     5a2:	5f 20       	jsr	@@32 (0x20)
     5a4:	30 78       	mov.b	r0h,@0x78:8
     5a6:	37 66       	mov.b	r7h,@0x66:8
/home/serial.c:62
  sci->scr = 0;
     5a8:	66 66       	and.w	r6,r6
     5aa:	66 66       	and.w	r6,r6
     5ac:	66 66       	and.w	r6,r6
/home/serial.c:63
  sci->smr = 0;
     5ae:	66 66       	and.w	r6,r6
/home/serial.c:64
  sci->brr = 64; /* 20MHzのクロックから9600bpsを生成(25MHzの場合は80にする) */
     5b0:	66 66       	and.w	r6,r6
     5b2:	66 66       	and.w	r6,r6
     5b4:	66 66       	and.w	r6,r6
/home/serial.c:65
  sci->scr = H8_3069F_SCI_SCR_RE | H8_3069F_SCI_SCR_TE; /* 送受信可能 */
     5b6:	4c 4c       	bge	.+76 (0x604)
     5b8:	00 5f       	.word	H'0,H'5f
     5ba:	5f 46       	jsr	@@70 (0x46)
/home/serial.c:66
  sci->ssr = 0;
     5bc:	4c 54       	bge	.+84 (0x612)
     5be:	5f 4d       	jsr	@@77 (0x4d)
/home/serial.c:69
}
     5c0:	49 4e       	bvs	.+78 (0x610)
     5c2:	5f 5f       	jsr	@@95 (0x5f)
     5c4:	20 31       	mov.b	@0x31:8,r0h
     5c6:	2e 31       	mov.b	@0x31:8,r6l
serial_is_send_enable():
/home/serial.c:73
{
     5c8:	37 35       	mov.b	r7h,@0x35:8
     5ca:	34 39       	mov.b	r4h,@0x39:8
     5cc:	34 33       	mov.b	r4h,@0x33:8
/home/serial.c:74
  volatile struct h8_3069f_sci *sci = regs[index].sci;
     5ce:	35 65       	mov.b	r5h,@0x65:8
     5d0:	2d 33       	mov.b	@0x33:8,r5l
     5d2:	38 46       	mov.b	r0l,@0x46:8
     5d4:	00 5f       	.word	H'0,H'5f
     5d6:	5f 49       	jsr	@@73 (0x49)
     5d8:	4e 54       	bgt	.+84 (0x62e)
     5da:	33 32       	mov.b	r3h,@0x32:8
     5dc:	5f 54       	jsr	@@84 (0x54)
/home/serial.c:75
  return (sci->ssr & H8_3069F_SCI_SSR_TDRE);
     5de:	59 50       	jmp	@er5
     5e0:	45 5f       	.word	H'45,H'5f
     5e2:	5f 20       	jsr	@@32 (0x20)
/home/serial.c:76
}
     5e4:	6c 6f       	mov.b	@er6+,r7l
     5e6:	6e 67 20 69 	mov.b	@(0x2069:16,er6),r7h
     5ea:	6e 74 00 5f 	mov.b	@(0x5f:16,er7),r4h
serial_send_byte():
/home/serial.c:80
{
     5ee:	5f 49       	jsr	@@73 (0x49)
     5f0:	4e 54       	bgt	.+84 (0x646)
/home/serial.c:81
  volatile struct h8_3069f_sci *sci = regs[index].sci;
     5f2:	5f 4c       	jsr	@@76 (0x4c)
     5f4:	45 41       	.word	H'45,H'41
     5f6:	53 54       	divxu.w	r5,er4
     5f8:	31 36       	mov.b	r1h,@0x36:8
     5fa:	5f 54       	jsr	@@84 (0x54)
     5fc:	59 50       	jmp	@er5
     5fe:	45 5f       	.word	H'45,H'5f
     600:	5f 20       	jsr	@@32 (0x20)
serial_is_send_enable():
/home/serial.c:75 (discriminator 1)
  return (sci->ssr & H8_3069F_SCI_SSR_TDRE);
     602:	73 68       	btst	#0x6,r0l
     604:	6f 72 74 20 	mov.w	@(0x7420:16,er7),r2
serial_send_byte():
/home/serial.c:86
  sci->tdr = c;
     608:	69 6e       	mov.w	@er6,e6
     60a:	74 00       	bor	#0x0,r0h
/home/serial.c:87
  sci->ssr &= ~H8_3069F_SCI_SSR_TDRE; /* 送信開始 */
     60c:	5f 5f       	jsr	@@95 (0x5f)
     60e:	49 4e       	bvs	.+78 (0x65e)
     610:	54 5f       	.word	H'54,H'5f
     612:	46 41       	.word	H'46,H'41
     614:	53 54       	divxu.w	r5,er4
/home/serial.c:90
}
     616:	31 36       	mov.b	r1h,@0x36:8
     618:	5f 54       	jsr	@@84 (0x54)
     61a:	59 50       	jmp	@er5
     61c:	45 5f       	.word	H'45,H'5f
serial_is_recv_enable():
/home/serial.c:94
{
     61e:	5f 20       	jsr	@@32 (0x20)
     620:	69 6e       	mov.w	@er6,e6
     622:	74 00       	bor	#0x0,r0h
/home/serial.c:95
  volatile struct h8_3069f_sci *sci = regs[index].sci;
     624:	5f 5f       	jsr	@@95 (0x5f)
     626:	49 4e       	bvs	.+78 (0x676)
     628:	54 4d       	.word	H'54,H'4d
     62a:	41 58       	brn	.+88 (0x684)
     62c:	5f 4d       	jsr	@@77 (0x4d)
     62e:	41 58       	brn	.+88 (0x688)
     630:	5f 5f       	jsr	@@95 (0x5f)
     632:	20 30       	mov.b	@0x30:8,r0h
/home/serial.c:96
  return (sci->ssr & H8_3069F_SCI_SSR_RDRF);
     634:	78 37       	.word	H'78,H'37
     636:	66 66       	and.w	r6,r6
     638:	66 66       	and.w	r6,r6
/home/serial.c:97
}
     63a:	66 66       	and.w	r6,r6
     63c:	66 66       	and.w	r6,r6
     63e:	66 66       	and.w	r6,r6
     640:	66 66       	and.w	r6,r6
serial_recv_byte():
/home/serial.c:101
{
     642:	66 66       	and.w	r6,r6
     644:	66 4c       	and.w	r4,e4
     646:	4c 00       	bge	.0 (0x648)
/home/serial.c:102
  volatile struct h8_3069f_sci *sci = regs[index].sci;
     648:	5f 5f       	jsr	@@95 (0x5f)
     64a:	49 4e       	bvs	.+78 (0x69a)
     64c:	54 5f       	.word	H'54,H'5f
     64e:	57 49       	.word	H'57,H'49
     650:	44 54       	bcc	.+84 (0x6a6)
     652:	48 5f       	.word	H'48,H'5f
     654:	5f 20       	jsr	@@32 (0x20)
     656:	31 36       	mov.b	r1h,@0x36:8
serial_is_recv_enable():
/home/serial.c:96 (discriminator 1)
  return (sci->ssr & H8_3069F_SCI_SSR_RDRF);
     658:	00 5f       	.word	H'0,H'5f
     65a:	5f 53       	jsr	@@83 (0x53)
serial_recv_byte():
/home/serial.c:106
  while (!serial_is_recv_enable(index))
     65c:	49 5a       	bvs	.+90 (0x6b8)
     65e:	45 4f       	.word	H'45,H'4f
/home/serial.c:108
  c = sci->rdr;
     660:	46 5f       	.word	H'46,H'5f
     662:	44 4f       	.word	H'44,H'4f
/home/serial.c:109
  sci->ssr &= ~H8_3069F_SCI_SSR_RDRF; /* 受信完了 */
     664:	55 42       	bsr	.+66 (0x6a8)
     666:	4c 45       	.word	H'4c,H'45
     668:	5f 5f       	jsr	@@95 (0x5f)
     66a:	20 34       	mov.b	@0x34:8,r0h
     66c:	00 5f       	.word	H'0,H'5f
/home/serial.c:112
}
     66e:	5f 49       	jsr	@@73 (0x49)
     670:	4e 54       	bgt	.+84 (0x6c6)
     672:	31 36       	mov.b	r1h,@0x36:8
xmodem_recv():
/home/xmodem.c:60
{
     674:	5f 54       	jsr	@@84 (0x54)
     676:	59 50       	jmp	@er5
     678:	45 5f       	.word	H'45,H'5f
     67a:	5f 20       	jsr	@@32 (0x20)
     67c:	73 68       	btst	#0x6,r0l
     67e:	6f 72 74 20 	mov.w	@(0x7420:16,er7),r2
     682:	69 6e       	mov.w	@er6,e6
     684:	74 00       	bor	#0x0,r0h
     686:	5f 5f       	jsr	@@95 (0x5f)
     688:	4c 44       	bge	.+68 (0x6ce)
/home/xmodem.c:63
  unsigned char c, block_number = 1;
     68a:	42 4c       	bhi	.+76 (0x6d8)
     68c:	5f 48       	jsr	@@72 (0x48)
     68e:	41 53       	.word	H'41,H'53
/home/xmodem.c:62
  long size = 0;
     690:	5f 51       	jsr	@@81 (0x51)
/home/xmodem.c:61
  int r, receiving = 0;
     692:	55 49       	bsr	.+73 (0x6dd)
     694:	45 54       	bcs	.+84 (0x6ea)
     696:	5f 4e       	jsr	@@78 (0x4e)
/home/xmodem.c:66
    if (!receiving)
     698:	41 4e       	brn	.+78 (0x6e8)
     69a:	5f 5f       	jsr	@@95 (0x5f)
     69c:	20 31       	mov.b	@0x31:8,r0h
/home/xmodem.c:69
    c = serial_recv_byte(SERIAL_DEFAULT_DEVICE);
     69e:	00 76       	.word	H'0,H'76
     6a0:	65 63       	xor.w	r6,r3
     6a2:	74 6f       	bor	#0x6,r7l
     6a4:	72 73       	bclr	#0x7,r3h
/home/xmodem.c:71
    if (c == XMODEM_EOT) { /* 受信終了 */
     6a6:	00 5f       	.word	H'0,H'5f
     6a8:	5f 56       	jsr	@@86 (0x56)
     6aa:	45 52       	bcs	.+82 (0x6fe)
xmodem_wait():
/home/xmodem.c:22
    if (++cnt >= 2000000) {
     6ac:	53 49       	.word	H'53,H'49
     6ae:	4f 4e       	ble	.+78 (0x6fe)
/home/xmodem.c:24
      serial_send_byte(SERIAL_DEFAULT_DEVICE, XMODEM_NAK);
     6b0:	5f 5f       	jsr	@@95 (0x5f)
     6b2:	20 22       	mov.b	@0x22:8,r0h
     6b4:	37 2e       	mov.b	r7h,@0x2e:8
     6b6:	33 2e       	mov.b	r3h,@0x2e:8
     6b8:	30 22       	mov.b	r0h,@0x22:8
xmodem_recv():
/home/xmodem.c:61
  int r, receiving = 0;
     6ba:	00 5f       	.word	H'0,H'5f
     6bc:	5f 55       	jsr	@@85 (0x55)
     6be:	49 4e       	bvs	.+78 (0x70e)
xmodem_wait():
/home/xmodem.c:21
  while (!serial_is_recv_enable(SERIAL_DEFAULT_DEVICE)) {
     6c0:	54 38       	.word	H'54,H'38
     6c2:	5f 4d       	jsr	@@77 (0x4d)
     6c4:	41 58       	brn	.+88 (0x71e)
     6c6:	5f 5f       	jsr	@@95 (0x5f)
     6c8:	20 30       	mov.b	@0x30:8,r0h
     6ca:	78 66       	.word	H'78,H'66
     6cc:	66 00       	and.w	r0,r0
     6ce:	5f 5f       	jsr	@@95 (0x5f)
     6d0:	46 4c       	bne	.+76 (0x71e)
     6d2:	54 5f       	.word	H'54,H'5f
     6d4:	45 50       	bcs	.+80 (0x726)
     6d6:	53 49       	.word	H'53,H'49
     6d8:	4c 4f       	.word	H'4c,H'4f
xmodem_recv():
/home/xmodem.c:72
      serial_send_byte(SERIAL_DEFAULT_DEVICE, XMODEM_ACK);
     6da:	4e 5f       	.word	H'4e,H'5f
     6dc:	5f 20       	jsr	@@32 (0x20)
     6de:	31 2e       	mov.b	r1h,@0x2e:8
     6e0:	31 39       	mov.b	r1h,@0x39:8
     6e2:	32 30       	mov.b	r2h,@0x30:8
/home/xmodem.c:93
  return size;
     6e4:	39 32       	mov.b	r1l,@0x32:8
     6e6:	39 30       	mov.b	r1l,@0x30:8
/home/xmodem.c:74
    } else if (c == XMODEM_CAN) { /* 受信中断 */
     6e8:	65 2d       	xor.w	r2,e5
     6ea:	37 46       	mov.b	r7h,@0x46:8
     6ec:	00 5f       	.word	H'0,H'5f
/home/xmodem.c:77
      receiving++;
     6ee:	5f 4c       	jsr	@@76 (0x4c)
     6f0:	44 42       	bcc	.+66 (0x734)
/home/xmodem.c:76
    } else if (c == XMODEM_SOH) { /* 受信開始 */
     6f2:	4c 5f       	.word	H'4c,H'5f
     6f4:	4d 41       	.word	H'4d,H'41
     6f6:	58 5f       	.word	H'58,H'5f
/home/xmodem.c:77
      receiving++;
     6f8:	45 58       	bcs	.+88 (0x752)
     6fa:	50 5f       	mulxu.b	r5h,e7
     6fc:	5f 20       	jsr	@@32 (0x20)
xmodem_read_block():
/home/xmodem.c:37
  block_num = serial_recv_byte(SERIAL_DEFAULT_DEVICE);
     6fe:	31 32       	mov.b	r1h,@0x32:8
     700:	38 00       	mov.b	r0l,@0x0:8
     702:	5f 5f       	jsr	@@95 (0x5f)
     704:	49 4e       	bvs	.+78 (0x754)
/home/xmodem.c:38
  if (block_num != block_number)
     706:	54 33       	rts/l	er0-er3
     708:	32 5f       	mov.b	r2h,@0x5f:8
     70a:	43 28       	bls	.+40 (0x734)
     70c:	63 29       	btst	r2h,r1l
     70e:	20 63       	mov.b	@0x63:8,r0h
/home/xmodem.c:41
  block_num ^= serial_recv_byte(SERIAL_DEFAULT_DEVICE);
     710:	20 23       	mov.b	@0x23:8,r0h
     712:	23 20       	mov.b	@0x20:8,r3h
     714:	4c 00       	bge	.0 (0x716)
     716:	5f 5f       	jsr	@@95 (0x5f)
     718:	49 4e       	bvs	.+78 (0x768)
     71a:	54 5f       	.word	H'54,H'5f
     71c:	46 41       	.word	H'46,H'41
/home/xmodem.c:42
  if (block_num != 0xff)
     71e:	53 54       	divxu.w	r5,er4
     720:	33 32       	mov.b	r3h,@0x32:8
     722:	5f 4d       	jsr	@@77 (0x4d)
     724:	41 58       	brn	.+88 (0x77e)
     726:	5f 5f       	jsr	@@95 (0x5f)
     728:	20 30       	mov.b	@0x30:8,r0h
/home/xmodem.c:45
  check_sum = 0;
     72a:	78 37       	.word	H'78,H'37
/home/xmodem.c:47
    c = serial_recv_byte(SERIAL_DEFAULT_DEVICE);
     72c:	66 66       	and.w	r6,r6
     72e:	66 66       	and.w	r6,r6
     730:	66 66       	and.w	r6,r6
     732:	66 4c       	and.w	r4,e4
     734:	00 5f       	.word	H'0,H'5f
     736:	5f 49       	jsr	@@73 (0x49)
     738:	4e 54       	bgt	.+84 (0x78e)
     73a:	50 54       	mulxu.b	r5h,r4
     73c:	52 5f       	.word	H'52,H'5f
     73e:	57 49       	.word	H'57,H'49
     740:	44 54       	bcc	.+84 (0x796)
     742:	48 5f       	.word	H'48,H'5f
     744:	5f 20       	jsr	@@32 (0x20)
/home/xmodem.c:48
    *(buf++) = c;
     746:	33 32       	mov.b	r3h,@0x32:8
     748:	00 5f       	.word	H'0,H'5f
     74a:	5f 53       	jsr	@@83 (0x53)
     74c:	49 5a       	bvs	.+90 (0x7a8)
/home/xmodem.c:49
    check_sum += c;
     74e:	45 5f       	.word	H'45,H'5f
     750:	57 49       	.word	H'57,H'49
     752:	44 54       	bcc	.+84 (0x7a8)
     754:	48 5f       	.word	H'48,H'5f
     756:	5f 20       	jsr	@@32 (0x20)
/home/xmodem.c:46
  for (i = 0; i < XMODEM_BLOCK_SIZE; i++) {
     758:	33 32       	mov.b	r3h,@0x32:8
     75a:	00 5f       	.word	H'0,H'5f
     75c:	5f 47       	jsr	@@71 (0x47)
     75e:	43 43       	.word	H'43,H'43
     760:	5f 41       	jsr	@@65 (0x41)
/home/xmodem.c:52
  check_sum ^= serial_recv_byte(SERIAL_DEFAULT_DEVICE);
     762:	54 4f       	.word	H'54,H'4f
     764:	4d 49       	.word	H'4d,H'49
     766:	43 5f       	.word	H'43,H'5f
     768:	43 48       	bls	.+72 (0x7b2)
     76a:	41 52       	brn	.+82 (0x7be)
     76c:	33 32       	mov.b	r3h,@0x32:8
     76e:	5f 54       	jsr	@@84 (0x54)
/home/xmodem.c:53
  if (check_sum)
     770:	5f 4c       	jsr	@@76 (0x4c)
     772:	4f 43       	.word	H'4f,H'43
     774:	4b 5f       	.word	H'4b,H'5f
     776:	46 52       	bne	.+82 (0x7ca)
     778:	45 45       	.word	H'45,H'45
xmodem_recv():
/home/xmodem.c:82
	block_number++;
     77a:	20 31       	mov.b	@0x31:8,r0h
     77c:	00 5f       	.word	H'0,H'5f
     77e:	5f 4c       	jsr	@@76 (0x4c)
     780:	44 42       	bcc	.+66 (0x7c4)
     782:	4c 5f       	.word	H'4c,H'5f
/home/xmodem.c:83
	size += r;
     784:	44 45       	.word	H'44,H'45
     786:	4e 4f       	.word	H'4e,H'4f
     788:	52 4d       	.word	H'52,H'4d
/home/xmodem.c:84
	buf  += r;
     78a:	5f 4d       	jsr	@@77 (0x4d)
     78c:	49 4e       	bvs	.+78 (0x7dc)
     78e:	5f 5f       	jsr	@@95 (0x5f)
/home/xmodem.c:85
	serial_send_byte(SERIAL_DEFAULT_DEVICE, XMODEM_ACK);
     790:	20 31       	mov.b	@0x31:8,r0h
     792:	2e 34       	mov.b	@0x34:8,r6l
/home/xmodem.c:80
	serial_send_byte(SERIAL_DEFAULT_DEVICE, XMODEM_NAK);
     794:	30 31       	mov.b	r0h,@0x31:8
     796:	32 39       	mov.b	r2h,@0x39:8
     798:	38 34       	mov.b	r0l,@0x34:8
     79a:	36 65       	mov.b	r6h,@0x65:8
     79c:	2d 34       	mov.b	@0x34:8,r5l
     79e:	35 4c       	mov.b	r5h,@0x4c:8
     7a0:	00 5f       	.word	H'0,H'5f
/home/xmodem.c:88
      if (receiving)
     7a2:	5f 55       	jsr	@@85 (0x55)
     7a4:	49 4e       	bvs	.+78 (0x7f4)
     7a6:	54 4d       	.word	H'54,H'4d
/home/xmodem.c:75
      return -1;
     7a8:	41 58       	brn	.+88 (0x802)
     7aa:	5f 54       	jsr	@@84 (0x54)
/home/xmodem.c:94
}
     7ac:	59 50       	jmp	@er5
     7ae:	45 5f       	.word	H'45,H'5f
     7b0:	5f 20       	jsr	@@32 (0x20)
     7b2:	6c 6f       	mov.b	@er6+,r7l
     7b4:	6e 67 20 6c 	mov.b	@(0x206c:16,er6),r7h
     7b8:	6f 6e 67 20 	mov.w	@(0x6720:16,er6),e6
     7bc:	75 6e       	bxor	#0x6,r6l
     7be:	73 69       	btst	#0x6,r1l
     7c0:	67 6e       	bst	#0x6,r6l
elf_load():
/home/elf.c:84
{
     7c2:	65 64       	xor.w	r6,r4
     7c4:	20 69       	mov.b	@0x69:8,r0h
     7c6:	6e 74 00 5f 	mov.b	@(0x5f:16,er7),r4h
     7ca:	5f 50       	jsr	@@80 (0x50)
     7cc:	54 52       	rts/l	er-3-er2
     7ce:	44 49       	.word	H'44,H'49
     7d0:	46 46       	bne	.+70 (0x818)
     7d2:	5f 54       	jsr	@@84 (0x54)
elf_check():
/home/elf.c:44
  if (memcmp(header->id.magic, "\x7f" "ELF", 4))
     7d4:	59 50       	jmp	@er5
     7d6:	45 5f       	.word	H'45,H'5f
     7d8:	5f 20       	jsr	@@32 (0x20)
     7da:	6c 6f       	mov.b	@er6+,r7l
     7dc:	6e 67 20 69 	mov.b	@(0x2069:16,er6),r7h
     7e0:	6e 74 00 5f 	mov.b	@(0x5f:16,er7),r4h
     7e4:	5f 55       	jsr	@@85 (0x55)
     7e6:	49 4e       	bvs	.+78 (0x836)
/home/elf.c:47
  if (header->id.class   != 1) return -1; /* ELF32 */
     7e8:	54 5f       	.word	H'54,H'5f
     7ea:	46 41       	.word	H'46,H'41
     7ec:	53 54       	divxu.w	r5,er4
     7ee:	36 34       	mov.b	r6h,@0x34:8
     7f0:	5f 4d       	jsr	@@77 (0x4d)
/home/elf.c:48
  if (header->id.format  != 2) return -1; /* Big endian */
     7f2:	41 58       	brn	.+88 (0x84c)
     7f4:	5f 5f       	jsr	@@95 (0x5f)
     7f6:	20 30       	mov.b	@0x30:8,r0h
     7f8:	78 66       	.word	H'78,H'66
     7fa:	66 66       	and.w	r6,r6
/home/elf.c:49
  if (header->id.version != 1) return -1; /* version 1 */
     7fc:	66 66       	and.w	r6,r6
     7fe:	66 66       	and.w	r6,r6
     800:	66 66       	and.w	r6,r6
     802:	66 66       	and.w	r6,r6
     804:	66 66       	and.w	r6,r6
/home/elf.c:50
  if (header->type       != 2) return -1; /* Executable file */
     806:	66 66       	and.w	r6,r6
     808:	66 55       	and.w	r5,r5
     80a:	4c 4c       	bge	.+76 (0x858)
     80c:	00 5f       	.word	H'0,H'5f
     80e:	5f 53       	jsr	@@83 (0x53)
/home/elf.c:51
  if (header->version    != 1) return -1; /* version 1 */
     810:	49 5a       	bvs	.+90 (0x86c)
     812:	45 4f       	.word	H'45,H'4f
     814:	46 5f       	.word	H'46,H'5f
     816:	4c 4f       	.word	H'4c,H'4f
     818:	4e 47       	.word	H'4e,H'47
     81a:	5f 4c       	jsr	@@76 (0x4c)
/home/elf.c:54
  if ((header->arch != 46) && (header->arch != 47)) return -1;
     81c:	4f 4e       	ble	.+78 (0x86c)
     81e:	47 5f       	.word	H'47,H'5f
     820:	5f 20       	jsr	@@32 (0x20)
     822:	38 00       	mov.b	r0l,@0x0:8
     824:	5f 5f       	jsr	@@95 (0x5f)
     826:	46 4c       	bne	.+76 (0x874)
     828:	54 5f       	.word	H'54,H'5f
elf_load_program():
/home/elf.c:69
       header->program_header_size * i);
     82a:	44 49       	.word	H'44,H'49
     82c:	47 5f       	.word	H'47,H'5f
     82e:	5f 20       	jsr	@@32 (0x20)
     830:	36 00       	mov.b	r6h,@0x0:8
     832:	5f 5f       	jsr	@@95 (0x5f)
/home/elf.c:68
      ((char *)header + header->program_header_offset +
     834:	53 49       	.word	H'53,H'49
     836:	5a 45 4f 46 	jmp	@0x454f46:24
     83a:	5f 57       	jsr	@@87 (0x57)
/home/elf.c:67
    phdr = (struct elf_program_header *)
     83c:	43 48       	bls	.+72 (0x886)
/home/elf.c:71
    if (phdr->type != 1) /* ロード可能なセグメントか？ */
     83e:	41 52       	brn	.+82 (0x892)
     840:	5f 54       	jsr	@@84 (0x54)
     842:	5f 5f       	jsr	@@95 (0x5f)
     844:	20 32       	mov.b	@0x32:8,r0h
/home/elf.c:74
    memcpy((char *)phdr->physical_addr, (char *)header + phdr->offset,
     846:	00 5f       	.word	H'0,H'5f
     848:	5f 41       	jsr	@@65 (0x41)
     84a:	54 4f       	.word	H'54,H'4f
     84c:	4d 49       	.word	H'4d,H'49
     84e:	43 5f       	.word	H'43,H'5f
     850:	52 45       	mulxu.w	r4,er5
     852:	4c 45       	.word	H'4c,H'45
     854:	41 53       	.word	H'41,H'53
     856:	45 20       	bcs	.+32 (0x878)
     858:	33 00       	mov.b	r3h,@0x0:8
     85a:	5f 5f       	jsr	@@95 (0x5f)
     85c:	46 4c       	bne	.+76 (0x8aa)
     85e:	54 5f       	.word	H'54,H'5f
     860:	4d 41       	.word	H'4d,H'41
     862:	58 5f       	.word	H'58,H'5f
/home/elf.c:77
	   phdr->memory_size - phdr->file_size);
     864:	31 30       	mov.b	r1h,@0x30:8
     866:	5f 45       	jsr	@@69 (0x45)
     868:	58 50       	.word	H'58,H'50
/home/elf.c:76
    memset((char *)phdr->physical_addr + phdr->file_size, 0,
     86a:	5f 5f       	jsr	@@95 (0x5f)
     86c:	20 33       	mov.b	@0x33:8,r0h
     86e:	38 00       	mov.b	r0l,@0x0:8
     870:	5f 5f       	jsr	@@95 (0x5f)
     872:	49 4e       	bvs	.+78 (0x8c2)
     874:	54 5f       	.word	H'54,H'5f
     876:	46 41       	.word	H'46,H'41
     878:	53 54       	divxu.w	r5,er4
     87a:	38 5f       	mov.b	r0l,@0x5f:8
     87c:	4d 41       	.word	H'4d,H'41
     87e:	58 5f       	.word	H'58,H'5f
     880:	5f 20       	jsr	@@32 (0x20)
     882:	30 78       	mov.b	r0h,@0x78:8
     884:	37 66       	mov.b	r7h,@0x66:8
/home/elf.c:65
  for (i = 0; i < header->program_header_num; i++) {
     886:	66 66       	and.w	r6,r6
     888:	00 5f       	.word	H'0,H'5f
     88a:	5f 57       	jsr	@@87 (0x57)
     88c:	49 4e       	bvs	.+78 (0x8dc)
     88e:	54 5f       	.word	H'54,H'5f
elf_load():
/home/elf.c:93
  return (char *)header->entry_point;
     890:	57 49       	.word	H'57,H'49
     892:	44 54       	bcc	.+84 (0x8e8)
     894:	48 5f       	.word	H'48,H'5f
     896:	5f 20       	jsr	@@32 (0x20)
/home/elf.c:88
    return NULL;
     898:	31 36       	mov.b	r1h,@0x36:8
/home/elf.c:94
}
     89a:	00 5f       	.word	H'0,H'5f
     89c:	5f 57       	jsr	@@87 (0x57)
     89e:	49 4e       	bvs	.+78 (0x8ee)
     8a0:	54 5f       	.word	H'54,H'5f
     8a2:	4d 49       	.word	H'4d,H'49
     8a4:	4e 5f       	.word	H'4e,H'5f
     8a6:	5f 20       	jsr	@@32 (0x20)
     8a8:	30 55       	mov.b	r0h,@0x55:8
main():
/home/main.c:60
{
     8aa:	00 5f       	.word	H'0,H'5f
     8ac:	5f 49       	jsr	@@73 (0x49)
     8ae:	4e 54       	bgt	.+84 (0x904)
     8b0:	38 5f       	mov.b	r0l,@0x5f:8
     8b2:	43 28       	bls	.+40 (0x8dc)
     8b4:	63 29       	btst	r2h,r1l
/home/main.c:68
  INTR_DISABLE; /* 割込み無効にする */
     8b6:	20 63       	mov.b	@0x63:8,r0h
init():
/home/main.c:17
  memcpy(&data_start, &erodata, (long)&edata - (long)&data_start);
     8b8:	00 5f       	.word	H'0,H'5f
     8ba:	5f 55       	jsr	@@85 (0x55)
     8bc:	49 4e       	bvs	.+78 (0x90c)
     8be:	54 36       	rts/l	er3-er6
     8c0:	34 5f       	mov.b	r4h,@0x5f:8
     8c2:	4d 41       	.word	H'4d,H'41
     8c4:	58 5f       	.word	H'58,H'5f
     8c6:	5f 20       	jsr	@@32 (0x20)
     8c8:	30 78       	mov.b	r0h,@0x78:8
     8ca:	66 66       	and.w	r6,r6
     8cc:	66 66       	and.w	r6,r6
     8ce:	66 66       	and.w	r6,r6
     8d0:	66 66       	and.w	r6,r6
     8d2:	66 66       	and.w	r6,r6
/home/main.c:18
  memset(&bss_start, 0, (long)&ebss - (long)&bss_start);
     8d4:	66 66       	and.w	r6,r6
     8d6:	66 66       	and.w	r6,r6
     8d8:	66 66       	and.w	r6,r6
     8da:	55 4c       	bsr	.+76 (0x928)
     8dc:	4c 00       	bge	.0 (0x8de)
     8de:	5f 5f       	jsr	@@95 (0x5f)
     8e0:	47 4e       	beq	.+78 (0x930)
     8e2:	55 43       	bsr	.+67 (0x927)
     8e4:	5f 4d       	jsr	@@77 (0x4d)
     8e6:	49 4e       	bvs	.+78 (0x936)
     8e8:	4f 52       	ble	.+82 (0x93c)
     8ea:	5f 5f       	jsr	@@95 (0x5f)
/home/main.c:21
  softvec_init();
     8ec:	20 33       	mov.b	@0x33:8,r0h
     8ee:	00 5f       	.word	H'0,H'5f
/home/main.c:24
  serial_init(SERIAL_DEFAULT_DEVICE);
     8f0:	5f 44       	jsr	@@68 (0x44)
     8f2:	42 4c       	bhi	.+76 (0x940)
     8f4:	5f 44       	jsr	@@68 (0x44)
     8f6:	45 4e       	bcs	.+78 (0x946)
main():
/home/main.c:72
  puts("kzload (kozos boot loader) started.\n");
     8f8:	4f 52       	ble	.+82 (0x94c)
     8fa:	4d 5f       	.word	H'4d,H'5f
     8fc:	4d 49       	.word	H'4d,H'49
     8fe:	4e 5f       	.word	H'4e,H'5f
     900:	5f 20       	jsr	@@32 (0x20)
/home/main.c:75
    puts("kzload> "); /* プロンプト表示 */
     902:	28 28       	mov.b	@0x28:8,r0l
     904:	64 6f       	or.w	r6,e7
     906:	75 62       	bxor	#0x6,r2h
     908:	6c 65       	mov.b	@er6+,r5h
     90a:	29 31       	mov.b	@0x31:8,r1l
/home/main.c:76
    gets(buf); /* シリアルからのコマンド受信 */
     90c:	2e 34       	mov.b	@0x34:8,r6l
     90e:	30 31       	mov.b	r0h,@0x31:8
     910:	32 39       	mov.b	r2h,@0x39:8
     912:	38 34       	mov.b	r0l,@0x34:8
     914:	36 65       	mov.b	r6h,@0x65:8
/home/main.c:78
    if (!strcmp(buf, "load")) { /* XMODEMでのファイルのダウンロード */
     916:	2d 34       	mov.b	@0x34:8,r5l
     918:	35 4c       	mov.b	r5h,@0x4c:8
     91a:	29 00       	mov.b	@0x0:8,r1l
     91c:	5f 5f       	jsr	@@95 (0x5f)
     91e:	44 45       	.word	H'44,H'45
     920:	43 5f       	.word	H'43,H'5f
     922:	45 56       	bcs	.+86 (0x97a)
     924:	41 4c       	brn	.+76 (0x972)
     926:	5f 4d       	jsr	@@77 (0x4d)
     928:	45 54       	bcs	.+84 (0x97e)
/home/main.c:79
      loadbuf = (char *)(&buffer_start);
     92a:	48 4f       	.word	H'48,H'4f
     92c:	44 5f       	.word	H'44,H'5f
     92e:	5f 20       	jsr	@@32 (0x20)
     930:	32 00       	mov.b	r2h,@0x0:8
     932:	5f 5f       	jsr	@@95 (0x5f)
     934:	55 49       	bsr	.+73 (0x97f)
     936:	4e 54       	bgt	.+84 (0x98c)
/home/main.c:80
      size = xmodem_recv(loadbuf);
     938:	5f 4c       	jsr	@@76 (0x4c)
     93a:	45 41       	.word	H'45,H'41
     93c:	53 54       	divxu.w	r5,er4
     93e:	31 36       	mov.b	r1h,@0x36:8
     940:	5f 4d       	jsr	@@77 (0x4d)
     942:	41 58       	brn	.+88 (0x99c)
     944:	5f 5f       	jsr	@@95 (0x5f)
wait():
/home/main.c:55
  for (i = 0; i < 300000; i++)
     946:	20 30       	mov.b	@0x30:8,r0h
     948:	78 66       	.word	H'78,H'66
     94a:	66 66       	and.w	r6,r6
     94c:	66 55       	and.w	r5,r5
     94e:	00 5f       	.word	H'0,H'5f
     950:	5f 4c       	jsr	@@76 (0x4c)
     952:	4f 4e       	ble	.+78 (0x9a2)
     954:	47 5f       	.word	H'47,H'5f
     956:	4c 4f       	.word	H'4c,H'4f
     958:	4e 47       	.word	H'4e,H'47
     95a:	5f 4d       	jsr	@@77 (0x4d)
     95c:	41 58       	brn	.+88 (0x9b6)
     95e:	5f 5f       	jsr	@@95 (0x5f)
main():
/home/main.c:82
      if (size < 0) {
     960:	20 30       	mov.b	@0x30:8,r0h
     962:	78 37       	.word	H'78,H'37
/home/main.c:83
	puts("\nXMODEM receive error!\n");
     964:	66 66       	and.w	r6,r6
     966:	66 66       	and.w	r6,r6
     968:	66 66       	and.w	r6,r6
     96a:	66 66       	and.w	r6,r6
/home/main.c:85
	puts("\nXMODEM receive succeeded.\n");
     96c:	66 66       	and.w	r6,r6
     96e:	66 66       	and.w	r6,r6
     970:	66 66       	and.w	r6,r6
     972:	66 4c       	and.w	r4,e4
/home/main.c:87
    } else if (!strcmp(buf, "dump")) { /* メモリの16進ダンプ出力 */
     974:	4c 00       	bge	.0 (0x976)
     976:	5f 5f       	jsr	@@95 (0x5f)
     978:	53 49       	.word	H'53,H'49
     97a:	5a 45 5f 54 	jmp	@0x455f54:24
     97e:	59 50       	jmp	@er5
     980:	45 5f       	.word	H'45,H'5f
     982:	5f 20       	jsr	@@32 (0x20)
     984:	6c 6f       	mov.b	@er6+,r7l
     986:	6e 67 20 75 	mov.b	@(0x2075:16,er6),r7h
/home/main.c:88
      puts("size: ");
     98a:	6e 73 69 67 	mov.b	@(0x6967:16,er7),r3h
     98e:	6e 65 64 20 	mov.b	@(0x6420:16,er6),r5h
     992:	69 6e       	mov.w	@er6,e6
/home/main.c:89
      putxval(size, 0);
     994:	74 00       	bor	#0x0,r0h
     996:	5f 5f       	jsr	@@95 (0x5f)
     998:	48 38       	bvc	.+56 (0x9d2)
     99a:	33 30       	mov.b	r3h,@0x30:8
     99c:	30 48       	mov.b	r0h,@0x48:8
     99e:	5f 5f       	jsr	@@95 (0x5f)
     9a0:	20 31       	mov.b	@0x31:8,r0h
/home/main.c:90
      puts("\n");
     9a2:	00 5f       	.word	H'0,H'5f
     9a4:	5f 47       	jsr	@@71 (0x47)
     9a6:	43 43       	.word	H'43,H'43
     9a8:	5f 49       	jsr	@@73 (0x49)
     9aa:	45 43       	.word	H'45,H'43
/home/main.c:91
      dump(loadbuf, size);
     9ac:	5f 35       	jsr	@@53 (0x35)
     9ae:	35 39       	mov.b	r5h,@0x39:8
     9b0:	5f 43       	jsr	@@67 (0x43)
     9b2:	4f 4d       	.word	H'4f,H'4d
     9b4:	50 4c       	mulxu.b	r4h,e4
     9b6:	45 58       	bcs	.+88 (0xa10)
     9b8:	20 30       	mov.b	@0x30:8,r0h
     9ba:	00 5f       	.word	H'0,H'5f
     9bc:	5f 4c       	jsr	@@76 (0x4c)
     9be:	44 42       	bcc	.+66 (0xa02)
     9c0:	4c 5f       	.word	H'4c,H'5f
dump():
/home/main.c:34
  if (size < 0) {
     9c2:	4d 41       	.word	H'4d,H'41
     9c4:	4e 54       	bgt	.+84 (0xa1a)
/home/main.c:35
    puts("no data.\n");
     9c6:	5f 44       	jsr	@@68 (0x44)
     9c8:	49 47       	.word	H'49,H'47
     9ca:	5f 5f       	jsr	@@95 (0x5f)
     9cc:	20 32       	mov.b	@0x32:8,r0h
     9ce:	34 00       	mov.b	r4h,@0x0:8
/home/main.c:39
    putxval(buf[i], 2);
     9d0:	5f 5f       	jsr	@@95 (0x5f)
     9d2:	46 4c       	bne	.+76 (0xa20)
     9d4:	54 5f       	.word	H'54,H'5f
     9d6:	48 41       	.word	H'48,H'41
     9d8:	53 5f       	.word	H'53,H'5f
     9da:	51 55       	divxu.b	r5h,r5
     9dc:	49 45       	.word	H'49,H'45
     9de:	54 5f       	.word	H'54,H'5f
     9e0:	4e 41       	.word	H'4e,H'41
     9e2:	4e 5f       	.word	H'4e,H'5f
/home/main.c:40
    if ((i & 0xf) == 15) {
     9e4:	5f 20       	jsr	@@32 (0x20)
     9e6:	31 00       	mov.b	r1h,@0x0:8
     9e8:	5f 5f       	jsr	@@95 (0x5f)
     9ea:	49 4e       	bvs	.+78 (0xa3a)
     9ec:	54 36       	rts/l	er3-er6
     9ee:	34 5f       	mov.b	r4h,@0x5f:8
     9f0:	4d 41       	.word	H'4d,H'41
/home/main.c:41
      puts("\n");
     9f2:	58 5f       	.word	H'58,H'5f
     9f4:	5f 20       	jsr	@@32 (0x20)
     9f6:	30 78       	mov.b	r0h,@0x78:8
     9f8:	37 66       	mov.b	r7h,@0x66:8
/home/main.c:43
      if ((i & 0xf) == 7) puts(" ");
     9fa:	66 66       	and.w	r6,r6
     9fc:	66 66       	and.w	r6,r6
     9fe:	66 66       	and.w	r6,r6
     a00:	66 66       	and.w	r6,r6
     a02:	66 66       	and.w	r6,r6
     a04:	66 66       	and.w	r6,r6
     a06:	66 66       	and.w	r6,r6
     a08:	4c 4c       	bge	.+76 (0xa56)
/home/main.c:44
      puts(" ");
     a0a:	00 5f       	.word	H'0,H'5f
     a0c:	5f 46       	jsr	@@70 (0x46)
     a0e:	4c 54       	bge	.+84 (0xa64)
     a10:	5f 4d       	jsr	@@77 (0x4d)
     a12:	49 4e       	bvs	.+78 (0xa62)
/home/main.c:38
  for (i = 0; i < size; i++) {
     a14:	5f 45       	jsr	@@69 (0x45)
     a16:	58 50       	.word	H'58,H'50
     a18:	5f 5f       	jsr	@@95 (0x5f)
     a1a:	20 28       	mov.b	@0x28:8,r0h
     a1c:	2d 31       	mov.b	@0x31:8,r5l
/home/main.c:47
  puts("\n");
     a1e:	32 35       	mov.b	r2h,@0x35:8
     a20:	29 00       	mov.b	@0x0:8,r1l
     a22:	5f 5f       	jsr	@@95 (0x5f)
     a24:	4f 52       	ble	.+82 (0xa78)
     a26:	44 45       	.word	H'44,H'45
main():
/home/main.c:92
    } else if (!strcmp(buf, "run")) { /* ELF形式ファイルの実行 */
     a28:	52 5f       	.word	H'52,H'5f
     a2a:	42 49       	.word	H'42,H'49
     a2c:	47 5f       	.word	H'47,H'5f
     a2e:	45 4e       	bcs	.+78 (0xa7e)
     a30:	44 49       	.word	H'44,H'49
     a32:	41 4e       	brn	.+78 (0xa82)
     a34:	5f 5f       	jsr	@@95 (0x5f)
     a36:	20 34       	mov.b	@0x34:8,r0h
     a38:	33 32       	mov.b	r3h,@0x32:8
     a3a:	31 00       	mov.b	r1h,@0x0:8
/home/main.c:93
      entry_point = elf_load(loadbuf); /* メモリ上に展開(ロード) */
     a3c:	5f 5f       	jsr	@@95 (0x5f)
     a3e:	49 4e       	bvs	.+78 (0xa8e)
     a40:	54 50       	rts/l	er-5-er0
     a42:	54 52       	rts/l	er-3-er2
     a44:	5f 54       	jsr	@@84 (0x54)
     a46:	59 50       	jmp	@er5
     a48:	45 5f       	.word	H'45,H'5f
/home/main.c:94
      if (!entry_point) {
     a4a:	5f 20       	jsr	@@32 (0x20)
/home/main.c:95
	puts("run error!\n");
     a4c:	6c 6f       	mov.b	@er6+,r7l
     a4e:	6e 67 20 69 	mov.b	@(0x2069:16,er6),r7h
     a52:	6e 74 00 5f 	mov.b	@(0x5f:16,er7),r4h
/home/main.c:97
	puts("starting from entry point: ");
     a56:	5f 47       	jsr	@@71 (0x47)
     a58:	43 43       	.word	H'43,H'43
     a5a:	5f 41       	jsr	@@65 (0x41)
     a5c:	54 4f       	.word	H'54,H'4f
     a5e:	4d 49       	.word	H'4d,H'49
/home/main.c:98
	putxval((unsigned long)entry_point, 0);
     a60:	43 5f       	.word	H'43,H'5f
     a62:	50 4f       	mulxu.b	r4h,e7
     a64:	49 4e       	bvs	.+78 (0xab4)
     a66:	54 45       	rts/l	er1-er5
/home/main.c:99
	puts("\n");
     a68:	52 5f       	.word	H'52,H'5f
     a6a:	4c 4f       	.word	H'4c,H'4f
     a6c:	43 4b       	.word	H'43,H'4b
     a6e:	5f 46       	jsr	@@70 (0x46)
     a70:	52 45       	mulxu.w	r4,er5
/home/main.c:101
	f(); /* ここで，ロードしたプログラムに処理を渡す */
     a72:	45 20       	bcs	.+32 (0xa94)
     a74:	31 00       	mov.b	r1h,@0x0:8
     a76:	5f 5f       	jsr	@@95 (0x5f)
/home/main.c:105
      puts("unknown.\n");
     a78:	49 4e       	bvs	.+78 (0xac8)
     a7a:	54 4d       	.word	H'54,H'4d
     a7c:	41 58       	brn	.+88 (0xad6)
     a7e:	5f 54       	jsr	@@84 (0x54)
     a80:	59 50       	jmp	@er5
     a82:	45 5f       	.word	H'45,H'5f
     a84:	5f 20       	jsr	@@32 (0x20)
     a86:	6c 6f       	mov.b	@er6+,r7l
     a88:	6e 67 20 6c 	mov.b	@(0x206c:16,er6),r7h
     a8c:	6f 6e 67 20 	mov.w	@(0x6720:16,er6),e6
     a90:	69 6e       	mov.w	@er6,e6
     a92:	74 00       	bor	#0x0,r0h
     a94:	5f 5f       	jsr	@@95 (0x5f)
     a96:	53 49       	.word	H'53,H'49
     a98:	5a 45 4f 46 	jmp	@0x454f46:24
     a9c:	5f 53       	jsr	@@83 (0x53)
     a9e:	48 4f       	.word	H'48,H'4f
     aa0:	52 54       	mulxu.w	r5,er4
     aa2:	5f 5f       	jsr	@@95 (0x5f)
     aa4:	20 32       	mov.b	@0x32:8,r0h
     aa6:	00 5f       	.word	H'0,H'5f
     aa8:	5f 4c       	jsr	@@76 (0x4c)
     aaa:	44 42       	bcc	.+66 (0xaee)
     aac:	4c 5f       	.word	H'4c,H'5f
     aae:	44 49       	.word	H'44,H'49
     ab0:	47 5f       	.word	H'47,H'5f
     ab2:	5f 20       	jsr	@@32 (0x20)
     ab4:	36 00       	mov.b	r6h,@0x0:8
     ab6:	4e 55       	.word	H'4e,H'55
     ab8:	4c 4c       	bge	.+76 (0xb06)
     aba:	20 28       	mov.b	@0x28:8,r0h
     abc:	28 76       	mov.b	@0x76:8,r0l
     abe:	6f 69 64 20 	mov.w	@(0x6420:16,er6),e1
     ac2:	2a 29       	mov.b	@0x29:8,r2l
     ac4:	30 29       	mov.b	r0h,@0x29:8
     ac6:	00 5f       	.word	H'0,H'5f
     ac8:	5f 49       	jsr	@@73 (0x49)
     aca:	4e 54       	bgt	.+84 (0xb20)
     acc:	31 36       	mov.b	r1h,@0x36:8
     ace:	5f 43       	jsr	@@67 (0x43)
     ad0:	28 63       	mov.b	@0x63:8,r0l
     ad2:	29 20       	mov.b	@0x20:8,r1l
     ad4:	63 00       	btst	r0h,r0h
     ad6:	5f 5f       	jsr	@@95 (0x5f)
     ad8:	46 4c       	bne	.+76 (0xb26)
     ada:	54 33       	rts/l	er0-er3
     adc:	32 5f       	mov.b	r2h,@0x5f:8
     ade:	4d 41       	.word	H'4d,H'41
     ae0:	58 5f       	.word	H'58,H'5f
     ae2:	45 58       	bcs	.+88 (0xb3c)
     ae4:	50 5f       	mulxu.b	r5h,e7
     ae6:	5f 20       	jsr	@@32 (0x20)
     ae8:	31 32       	mov.b	r1h,@0x32:8
     aea:	38 00       	mov.b	r0l,@0x0:8
     aec:	5f 5f       	jsr	@@95 (0x5f)
     aee:	49 4e       	bvs	.+78 (0xb3e)
     af0:	54 5f       	.word	H'54,H'5f
     af2:	46 41       	.word	H'46,H'41
     af4:	53 54       	divxu.w	r5,er4
     af6:	36 34       	mov.b	r6h,@0x34:8
     af8:	5f 54       	jsr	@@84 (0x54)
     afa:	59 50       	jmp	@er5
     afc:	45 5f       	.word	H'45,H'5f
     afe:	5f 20       	jsr	@@32 (0x20)
     b00:	6c 6f       	mov.b	@er6+,r7l
     b02:	6e 67 20 6c 	mov.b	@(0x206c:16,er6),r7h
     b06:	6f 6e 67 20 	mov.w	@(0x6720:16,er6),e6
     b0a:	69 6e       	mov.w	@er6,e6
     b0c:	74 00       	bor	#0x0,r0h
     b0e:	5f 5f       	jsr	@@95 (0x5f)
     b10:	46 4c       	bne	.+76 (0xb5e)
     b12:	54 5f       	.word	H'54,H'5f
     b14:	4d 41       	.word	H'4d,H'41
     b16:	58 5f       	.word	H'58,H'5f
     b18:	45 58       	bcs	.+88 (0xb72)
     b1a:	50 5f       	mulxu.b	r5h,e7
     b1c:	5f 20       	jsr	@@32 (0x20)
     b1e:	31 32       	mov.b	r1h,@0x32:8
     b20:	38 00       	mov.b	r0l,@0x0:8
     b22:	5f 5f       	jsr	@@95 (0x5f)
     b24:	44 45       	.word	H'44,H'45
     b26:	43 36       	bls	.+54 (0xb5e)
     b28:	34 5f       	mov.b	r4h,@0x5f:8
     b2a:	4d 41       	.word	H'4d,H'41
     b2c:	58 5f       	.word	H'58,H'5f
     b2e:	5f 20       	jsr	@@32 (0x20)
     b30:	39 2e       	mov.b	r1l,@0x2e:8
     b32:	39 39       	mov.b	r1l,@0x39:8
     b34:	39 39       	mov.b	r1l,@0x39:8
     b36:	39 39       	mov.b	r1l,@0x39:8
     b38:	39 39       	mov.b	r1l,@0x39:8
     b3a:	39 39       	mov.b	r1l,@0x39:8
     b3c:	39 39       	mov.b	r1l,@0x39:8
     b3e:	39 39       	mov.b	r1l,@0x39:8
     b40:	39 45       	mov.b	r1l,@0x45:8
     b42:	33 38       	mov.b	r3h,@0x38:8
     b44:	34 44       	mov.b	r4h,@0x44:8
     b46:	44 00       	bcc	.0 (0xb48)
     b48:	5f 5f       	jsr	@@95 (0x5f)
     b4a:	46 4c       	bne	.+76 (0xb98)
     b4c:	54 33       	rts/l	er0-er3
     b4e:	32 5f       	mov.b	r2h,@0x5f:8
     b50:	4d 41       	.word	H'4d,H'41
     b52:	58 5f       	.word	H'58,H'5f
     b54:	5f 20       	jsr	@@32 (0x20)
     b56:	33 2e       	mov.b	r3h,@0x2e:8
     b58:	34 30       	mov.b	r4h,@0x30:8
     b5a:	32 38       	mov.b	r2h,@0x38:8
     b5c:	32 33       	mov.b	r2h,@0x33:8
     b5e:	34 37       	mov.b	r4h,@0x37:8
     b60:	65 2b       	xor.w	r2,e3
     b62:	33 38       	mov.b	r3h,@0x38:8
     b64:	46 33       	.word	H'46,H'33
     b66:	32 00       	mov.b	r2h,@0x0:8
     b68:	5f 5f       	jsr	@@95 (0x5f)
     b6a:	47 43       	.word	H'47,H'43
     b6c:	43 5f       	.word	H'43,H'5f
     b6e:	41 54       	brn	.+84 (0xbc4)
     b70:	4f 4d       	.word	H'4f,H'4d
     b72:	49 43       	.word	H'49,H'43
     b74:	5f 4c       	jsr	@@76 (0x4c)
     b76:	4c 4f       	.word	H'4c,H'4f
     b78:	4e 47       	.word	H'4e,H'47
     b7a:	5f 4c       	jsr	@@76 (0x4c)
     b7c:	4f 43       	.word	H'4f,H'43
     b7e:	4b 5f       	.word	H'4b,H'5f
     b80:	46 52       	bne	.+82 (0xbd4)
     b82:	45 45       	.word	H'45,H'45
     b84:	20 31       	mov.b	@0x31:8,r0h
     b86:	00 5f       	.word	H'0,H'5f
     b88:	5f 46       	jsr	@@70 (0x46)
     b8a:	4c 54       	bge	.+84 (0xbe0)
     b8c:	5f 4d       	jsr	@@77 (0x4d)
     b8e:	41 58       	brn	.+88 (0xbe8)
     b90:	5f 5f       	jsr	@@95 (0x5f)
     b92:	20 33       	mov.b	@0x33:8,r0h
     b94:	2e 34       	mov.b	@0x34:8,r6l
     b96:	30 32       	mov.b	r0h,@0x32:8
     b98:	38 32       	mov.b	r0l,@0x32:8
     b9a:	33 34       	mov.b	r3h,@0x34:8
     b9c:	37 65       	mov.b	r7h,@0x65:8
     b9e:	2b 33       	mov.b	@0x33:8,r3l
     ba0:	38 46       	mov.b	r0l,@0x46:8
     ba2:	00 5f       	.word	H'0,H'5f
     ba4:	5f 53       	jsr	@@83 (0x53)
     ba6:	43 48       	bls	.+72 (0xbf0)
     ba8:	41 52       	brn	.+82 (0xbfc)
     baa:	5f 4d       	jsr	@@77 (0x4d)
     bac:	41 58       	brn	.+88 (0xc06)
     bae:	5f 5f       	jsr	@@95 (0x5f)
     bb0:	20 30       	mov.b	@0x30:8,r0h
     bb2:	78 37       	.word	H'78,H'37
     bb4:	66 00       	and.w	r0,r0
     bb6:	5f 5f       	jsr	@@95 (0x5f)
     bb8:	47 4e       	beq	.+78 (0xc08)
     bba:	55 43       	bsr	.+67 (0xbff)
     bbc:	5f 5f       	jsr	@@95 (0x5f)
     bbe:	20 37       	mov.b	@0x37:8,r0h
     bc0:	00 5f       	.word	H'0,H'5f
     bc2:	5f 47       	jsr	@@71 (0x47)
     bc4:	4e 55       	.word	H'4e,H'55
     bc6:	43 5f       	.word	H'43,H'5f
     bc8:	50 41       	mulxu.b	r4h,r1
     bca:	54 43       	rts/l	er-1-er3
     bcc:	48 4c       	bvc	.+76 (0xc1a)
     bce:	45 56       	bcs	.+86 (0xc26)
     bd0:	45 4c       	bcs	.+76 (0xc1e)
     bd2:	5f 5f       	jsr	@@95 (0x5f)
     bd4:	20 30       	mov.b	@0x30:8,r0h
     bd6:	00 5f       	.word	H'0,H'5f
     bd8:	5f 46       	jsr	@@70 (0x46)
     bda:	4c 54       	bge	.+84 (0xc30)
     bdc:	33 32       	mov.b	r3h,@0x32:8
     bde:	5f 4d       	jsr	@@77 (0x4d)
     be0:	49 4e       	bvs	.+78 (0xc30)
     be2:	5f 31       	jsr	@@49 (0x31)
     be4:	30 5f       	mov.b	r0h,@0x5f:8
     be6:	45 58       	bcs	.+88 (0xc40)
     be8:	50 5f       	mulxu.b	r5h,e7
     bea:	5f 20       	jsr	@@32 (0x20)
     bec:	28 2d       	mov.b	@0x2d:8,r0l
     bee:	33 37       	mov.b	r3h,@0x37:8
     bf0:	29 00       	mov.b	@0x0:8,r1l
     bf2:	5f 5f       	jsr	@@95 (0x5f)
     bf4:	4c 44       	bge	.+68 (0xc3a)
     bf6:	42 4c       	bhi	.+76 (0xc44)
     bf8:	5f 4d       	jsr	@@77 (0x4d)
     bfa:	41 58       	brn	.+88 (0xc54)
     bfc:	5f 5f       	jsr	@@95 (0x5f)
     bfe:	20 33       	mov.b	@0x33:8,r0h
     c00:	2e 34       	mov.b	@0x34:8,r6l
     c02:	30 32       	mov.b	r0h,@0x32:8
     c04:	38 32       	mov.b	r0l,@0x32:8
     c06:	33 34       	mov.b	r3h,@0x34:8
     c08:	37 65       	mov.b	r7h,@0x65:8
     c0a:	2b 33       	mov.b	@0x33:8,r3l
     c0c:	38 4c       	mov.b	r0l,@0x4c:8
     c0e:	00 5f       	.word	H'0,H'5f
     c10:	5f 46       	jsr	@@70 (0x46)
     c12:	4c 54       	bge	.+84 (0xc68)
     c14:	5f 44       	jsr	@@68 (0x44)
     c16:	45 43       	.word	H'45,H'43
     c18:	49 4d       	.word	H'49,H'4d
     c1a:	41 4c       	brn	.+76 (0xc68)
     c1c:	5f 44       	jsr	@@68 (0x44)
     c1e:	49 47       	.word	H'49,H'47
     c20:	5f 5f       	jsr	@@95 (0x5f)
     c22:	20 39       	mov.b	@0x39:8,r0h
     c24:	00 5f       	.word	H'0,H'5f
     c26:	5f 41       	jsr	@@65 (0x41)
     c28:	54 4f       	.word	H'54,H'4f
     c2a:	4d 49       	.word	H'4d,H'49
     c2c:	43 5f       	.word	H'43,H'5f
     c2e:	53 45       	divxu.w	r4,er5
     c30:	51 5f       	divxu.b	r5h,e7
     c32:	43 53       	.word	H'43,H'53
     c34:	54 20       	rts/l	er-2-er0
     c36:	35 00       	mov.b	r5h,@0x0:8
     c38:	5f 5f       	jsr	@@95 (0x5f)
     c3a:	53 49       	.word	H'53,H'49
     c3c:	5a 45 4f 46 	jmp	@0x454f46:24
     c40:	5f 49       	jsr	@@73 (0x49)
     c42:	4e 54       	bgt	.+84 (0xc98)
     c44:	5f 5f       	jsr	@@95 (0x5f)
     c46:	20 32       	mov.b	@0x32:8,r0h
     c48:	00 5f       	.word	H'0,H'5f
     c4a:	5f 49       	jsr	@@73 (0x49)
     c4c:	4e 54       	bgt	.+84 (0xca2)
     c4e:	5f 46       	jsr	@@70 (0x46)
     c50:	41 53       	.word	H'41,H'53
     c52:	54 33       	rts/l	er0-er3
     c54:	32 5f       	mov.b	r2h,@0x5f:8
     c56:	54 59       	.word	H'54,H'59
     c58:	50 45       	mulxu.b	r4h,r5
     c5a:	5f 5f       	jsr	@@95 (0x5f)
     c5c:	20 6c       	mov.b	@0x6c:8,r0h
     c5e:	6f 6e 67 20 	mov.w	@(0x6720:16,er6),e6
     c62:	69 6e       	mov.w	@er6,e6
     c64:	74 00       	bor	#0x0,r0h
     c66:	5f 5f       	jsr	@@95 (0x5f)
     c68:	44 45       	.word	H'44,H'45
     c6a:	43 31       	.word	H'43,H'31
     c6c:	32 38       	mov.b	r2h,@0x38:8
     c6e:	5f 4d       	jsr	@@77 (0x4d)
     c70:	41 58       	brn	.+88 (0xcca)
     c72:	5f 45       	jsr	@@69 (0x45)
     c74:	58 50       	.word	H'58,H'50
     c76:	5f 5f       	jsr	@@95 (0x5f)
     c78:	20 36       	mov.b	@0x36:8,r0h
     c7a:	31 34       	mov.b	r1h,@0x34:8
     c7c:	35 00       	mov.b	r5h,@0x0:8
     c7e:	5f 5f       	jsr	@@95 (0x5f)
     c80:	49 4e       	bvs	.+78 (0xcd0)
     c82:	54 31       	rts/l	er-2-er1
     c84:	36 5f       	mov.b	r6h,@0x5f:8
     c86:	4d 41       	.word	H'4d,H'41
     c88:	58 5f       	.word	H'58,H'5f
     c8a:	5f 20       	jsr	@@32 (0x20)
     c8c:	30 78       	mov.b	r0h,@0x78:8
     c8e:	37 66       	mov.b	r7h,@0x66:8
     c90:	66 66       	and.w	r6,r6
     c92:	00 53       	.word	H'0,H'53
     c94:	45 52       	bcs	.+82 (0xce8)
     c96:	49 41       	.word	H'49,H'41
     c98:	4c 5f       	.word	H'4c,H'5f
     c9a:	44 45       	.word	H'44,H'45
     c9c:	46 41       	.word	H'46,H'41
     c9e:	55 4c       	bsr	.+76 (0xcec)
     ca0:	54 5f       	.word	H'54,H'5f
     ca2:	44 45       	.word	H'44,H'45
     ca4:	56 49       	.word	H'56,H'49
     ca6:	43 45       	.word	H'43,H'45
     ca8:	20 31       	mov.b	@0x31:8,r0h
     caa:	00 5f       	.word	H'0,H'5f
     cac:	5f 46       	jsr	@@70 (0x46)
     cae:	4c 54       	bge	.+84 (0xd04)
     cb0:	33 32       	mov.b	r3h,@0x32:8
     cb2:	5f 4d       	jsr	@@77 (0x4d)
     cb4:	41 4e       	brn	.+78 (0xd04)
     cb6:	54 5f       	.word	H'54,H'5f
     cb8:	44 49       	.word	H'44,H'49
     cba:	47 5f       	.word	H'47,H'5f
     cbc:	5f 20       	jsr	@@32 (0x20)
     cbe:	32 34       	mov.b	r2h,@0x34:8
     cc0:	00 5f       	.word	H'0,H'5f
     cc2:	5f 42       	jsr	@@66 (0x42)
     cc4:	49 47       	.word	H'49,H'47
     cc6:	47 45       	.word	H'47,H'45
     cc8:	53 54       	divxu.w	r5,er4
     cca:	5f 41       	jsr	@@65 (0x41)
     ccc:	4c 49       	.word	H'4c,H'49
     cce:	47 4e       	beq	.+78 (0xd1e)
     cd0:	4d 45       	.word	H'4d,H'45
     cd2:	4e 54       	bgt	.+84 (0xd28)
     cd4:	5f 5f       	jsr	@@95 (0x5f)
     cd6:	20 34       	mov.b	@0x34:8,r0h
     cd8:	00 5f       	.word	H'0,H'5f
     cda:	5f 41       	jsr	@@65 (0x41)
     cdc:	54 4f       	.word	H'54,H'4f
     cde:	4d 49       	.word	H'4d,H'49
     ce0:	43 5f       	.word	H'43,H'5f
     ce2:	41 43       	.word	H'41,H'43
     ce4:	51 5f       	divxu.b	r5h,e7
     ce6:	52 45       	mulxu.w	r4,er5
     ce8:	4c 20       	bge	.+32 (0xd0a)
     cea:	34 00       	mov.b	r4h,@0x0:8
     cec:	5f 5f       	jsr	@@95 (0x5f)
     cee:	46 4c       	bne	.+76 (0xd3c)
     cf0:	54 5f       	.word	H'54,H'5f
     cf2:	4d 41       	.word	H'4d,H'41
     cf4:	4e 54       	bgt	.+84 (0xd4a)
     cf6:	5f 44       	jsr	@@68 (0x44)
     cf8:	49 47       	.word	H'49,H'47
     cfa:	5f 5f       	jsr	@@95 (0x5f)
     cfc:	20 32       	mov.b	@0x32:8,r0h
     cfe:	34 00       	mov.b	r4h,@0x0:8
     d00:	5f 5f       	jsr	@@95 (0x5f)
     d02:	49 4e       	bvs	.+78 (0xd52)
     d04:	54 4d       	.word	H'54,H'4d
     d06:	41 58       	brn	.+88 (0xd60)
     d08:	5f 57       	jsr	@@87 (0x57)
     d0a:	49 44       	bvs	.+68 (0xd50)
     d0c:	54 48       	.word	H'54,H'48
     d0e:	5f 5f       	jsr	@@95 (0x5f)
     d10:	20 36       	mov.b	@0x36:8,r0h
     d12:	34 00       	mov.b	r4h,@0x0:8
     d14:	5f 5f       	jsr	@@95 (0x5f)
     d16:	43 48       	bls	.+72 (0xd60)
     d18:	41 52       	brn	.+82 (0xd6c)
     d1a:	5f 55       	jsr	@@85 (0x55)
     d1c:	4e 53       	.word	H'4e,H'53
     d1e:	49 47       	.word	H'49,H'47
     d20:	4e 45       	.word	H'4e,H'45
     d22:	44 5f       	.word	H'44,H'5f
     d24:	5f 20       	jsr	@@32 (0x20)
     d26:	31 00       	mov.b	r1h,@0x0:8
     d28:	5f 5f       	jsr	@@95 (0x5f)
     d2a:	49 4e       	bvs	.+78 (0xd7a)
     d2c:	54 5f       	.word	H'54,H'5f
     d2e:	46 41       	.word	H'46,H'41
     d30:	53 54       	divxu.w	r5,er4
     d32:	38 5f       	mov.b	r0l,@0x5f:8
     d34:	54 59       	.word	H'54,H'59
     d36:	50 45       	mulxu.b	r4h,r5
     d38:	5f 5f       	jsr	@@95 (0x5f)
     d3a:	20 69       	mov.b	@0x69:8,r0h
     d3c:	6e 74 00 5f 	mov.b	@(0x5f:16,er7),r4h
     d40:	5f 46       	jsr	@@70 (0x46)
     d42:	4c 54       	bge	.+84 (0xd98)
     d44:	33 32       	mov.b	r3h,@0x32:8
     d46:	5f 4d       	jsr	@@77 (0x4d)
     d48:	41 58       	brn	.+88 (0xda2)
     d4a:	5f 31       	jsr	@@49 (0x31)
     d4c:	30 5f       	mov.b	r0h,@0x5f:8
     d4e:	45 58       	bcs	.+88 (0xda8)
     d50:	50 5f       	mulxu.b	r5h,e7
     d52:	5f 20       	jsr	@@32 (0x20)
     d54:	33 38       	mov.b	r3h,@0x38:8
     d56:	00 5f       	.word	H'0,H'5f
     d58:	5f 47       	jsr	@@71 (0x47)
     d5a:	43 43       	.word	H'43,H'43
     d5c:	5f 41       	jsr	@@65 (0x41)
     d5e:	54 4f       	.word	H'54,H'4f
     d60:	4d 49       	.word	H'4d,H'49
     d62:	43 5f       	.word	H'43,H'5f
     d64:	53 48       	.word	H'53,H'48
     d66:	4f 52       	ble	.+82 (0xdba)
     d68:	54 5f       	.word	H'54,H'5f
     d6a:	4c 4f       	.word	H'4c,H'4f
     d6c:	43 4b       	.word	H'43,H'4b
     d6e:	5f 46       	jsr	@@70 (0x46)
     d70:	52 45       	mulxu.w	r4,er5
     d72:	45 20       	bcs	.+32 (0xd94)
     d74:	31 00       	mov.b	r1h,@0x0:8
     d76:	5f 5f       	jsr	@@95 (0x5f)
     d78:	55 49       	bsr	.+73 (0xdc3)
     d7a:	4e 54       	bgt	.+84 (0xdd0)
     d7c:	33 32       	mov.b	r3h,@0x32:8
     d7e:	5f 4d       	jsr	@@77 (0x4d)
     d80:	41 58       	brn	.+88 (0xdda)
     d82:	5f 5f       	jsr	@@95 (0x5f)
     d84:	20 30       	mov.b	@0x30:8,r0h
     d86:	78 66       	.word	H'78,H'66
     d88:	66 66       	and.w	r6,r6
     d8a:	66 66       	and.w	r6,r6
     d8c:	66 66       	and.w	r6,r6
     d8e:	66 55       	and.w	r5,r5
     d90:	4c 00       	bge	.0 (0xd92)
     d92:	5f 5f       	jsr	@@95 (0x5f)
     d94:	42 59       	.word	H'42,H'59
     d96:	54 45       	rts/l	er1-er5
     d98:	5f 4f       	jsr	@@79 (0x4f)
     d9a:	52 44       	mulxu.w	r4,er4
     d9c:	45 52       	bcs	.+82 (0xdf0)
     d9e:	5f 5f       	jsr	@@95 (0x5f)
     da0:	20 5f       	mov.b	@0x5f:8,r0h
     da2:	5f 4f       	jsr	@@79 (0x4f)
     da4:	52 44       	mulxu.w	r4,er4
     da6:	45 52       	bcs	.+82 (0xdfa)
     da8:	5f 42       	jsr	@@66 (0x42)
     daa:	49 47       	.word	H'49,H'47
     dac:	5f 45       	jsr	@@69 (0x45)
     dae:	4e 44       	bgt	.+68 (0xdf4)
     db0:	49 41       	.word	H'49,H'41
     db2:	4e 5f       	.word	H'4e,H'5f
     db4:	5f 00       	jsr	@@0 (0x0)
     db6:	5f 5f       	jsr	@@95 (0x5f)
     db8:	49 4e       	bvs	.+78 (0xe08)
     dba:	54 5f       	.word	H'54,H'5f
     dbc:	4c 45       	.word	H'4c,H'45
     dbe:	41 53       	.word	H'41,H'53
     dc0:	54 38       	.word	H'54,H'38
     dc2:	5f 57       	jsr	@@87 (0x57)
     dc4:	49 44       	bvs	.+68 (0xe0a)
     dc6:	54 48       	.word	H'54,H'48
     dc8:	5f 5f       	jsr	@@95 (0x5f)
     dca:	20 38       	mov.b	@0x38:8,r0h
     dcc:	00 5f       	.word	H'0,H'5f
     dce:	5f 55       	jsr	@@85 (0x55)
     dd0:	49 4e       	bvs	.+78 (0xe20)
     dd2:	54 5f       	.word	H'54,H'5f
     dd4:	4c 45       	.word	H'4c,H'45
     dd6:	41 53       	.word	H'41,H'53
     dd8:	54 31       	rts/l	er-2-er1
     dda:	36 5f       	mov.b	r6h,@0x5f:8
     ddc:	54 59       	.word	H'54,H'59
     dde:	50 45       	mulxu.b	r4h,r5
     de0:	5f 5f       	jsr	@@95 (0x5f)
     de2:	20 73       	mov.b	@0x73:8,r0h
     de4:	68 6f       	mov.b	@er6,r7l
     de6:	72 74       	bclr	#0x7,r4h
     de8:	20 75       	mov.b	@0x75:8,r0h
     dea:	6e 73 69 67 	mov.b	@(0x6967:16,er7),r3h
     dee:	6e 65 64 20 	mov.b	@(0x6420:16,er6),r5h
     df2:	69 6e       	mov.w	@er6,e6
     df4:	74 00       	bor	#0x0,r0h
     df6:	5f 5f       	jsr	@@95 (0x5f)
     df8:	55 49       	bsr	.+73 (0xe43)
     dfa:	4e 54       	bgt	.+84 (0xe50)
     dfc:	50 54       	mulxu.b	r5h,r4
     dfe:	52 5f       	.word	H'52,H'5f
     e00:	54 59       	.word	H'54,H'59
     e02:	50 45       	mulxu.b	r4h,r5
     e04:	5f 5f       	jsr	@@95 (0x5f)
     e06:	20 6c       	mov.b	@0x6c:8,r0h
     e08:	6f 6e 67 20 	mov.w	@(0x6720:16,er6),e6
     e0c:	75 6e       	bxor	#0x6,r6l
     e0e:	73 69       	btst	#0x6,r1l
     e10:	67 6e       	bst	#0x6,r6l
     e12:	65 64       	xor.w	r6,r4
     e14:	20 69       	mov.b	@0x69:8,r0h
     e16:	6e 74 00 5f 	mov.b	@(0x5f:16,er7),r4h
     e1a:	5f 57       	jsr	@@87 (0x57)
     e1c:	43 48       	bls	.+72 (0xe66)
     e1e:	41 52       	brn	.+82 (0xe72)
     e20:	5f 4d       	jsr	@@77 (0x4d)
     e22:	41 58       	brn	.+88 (0xe7c)
     e24:	5f 5f       	jsr	@@95 (0x5f)
     e26:	20 30       	mov.b	@0x30:8,r0h
     e28:	78 66       	.word	H'78,H'66
     e2a:	66 66       	and.w	r6,r6
     e2c:	66 55       	and.w	r5,r5
     e2e:	00 5f       	.word	H'0,H'5f
     e30:	5f 55       	jsr	@@85 (0x55)
     e32:	53 45       	divxu.w	r4,er5
     e34:	52 5f       	.word	H'52,H'5f
     e36:	4c 41       	.word	H'4c,H'41
     e38:	42 45       	.word	H'42,H'45
     e3a:	4c 5f       	.word	H'4c,H'5f
     e3c:	50 52       	mulxu.b	r5h,r2
     e3e:	45 46       	bcs	.+70 (0xe86)
     e40:	49 58       	bvs	.+88 (0xe9a)
     e42:	5f 5f       	jsr	@@95 (0x5f)
     e44:	20 5f       	mov.b	@0x5f:8,r0h
     e46:	00 5f       	.word	H'0,H'5f
     e48:	5f 46       	jsr	@@70 (0x46)
     e4a:	4c 54       	bge	.+84 (0xea0)
     e4c:	5f 45       	jsr	@@69 (0x45)
     e4e:	56 41       	rte/l	er-3-er1
     e50:	4c 5f       	.word	H'4c,H'5f
     e52:	4d 45       	.word	H'4d,H'45
     e54:	54 48       	.word	H'54,H'48
     e56:	4f 44       	ble	.+68 (0xe9c)
     e58:	5f 5f       	jsr	@@95 (0x5f)
     e5a:	20 30       	mov.b	@0x30:8,r0h
     e5c:	00 5f       	.word	H'0,H'5f
     e5e:	5f 41       	jsr	@@65 (0x41)
     e60:	54 4f       	.word	H'54,H'4f
     e62:	4d 49       	.word	H'4d,H'49
     e64:	43 5f       	.word	H'43,H'5f
     e66:	41 43       	.word	H'41,H'43
     e68:	51 55       	divxu.b	r5h,r5
     e6a:	49 52       	bvs	.+82 (0xebe)
     e6c:	45 20       	bcs	.+32 (0xe8e)
     e6e:	32 00       	mov.b	r2h,@0x0:8
     e70:	5f 5f       	jsr	@@95 (0x5f)
     e72:	55 49       	bsr	.+73 (0xebd)
     e74:	4e 54       	bgt	.+84 (0xeca)
     e76:	5f 46       	jsr	@@70 (0x46)
     e78:	41 53       	.word	H'41,H'53
     e7a:	54 33       	rts/l	er0-er3
     e7c:	32 5f       	mov.b	r2h,@0x5f:8
     e7e:	54 59       	.word	H'54,H'59
     e80:	50 45       	mulxu.b	r4h,r5
     e82:	5f 5f       	jsr	@@95 (0x5f)
     e84:	20 6c       	mov.b	@0x6c:8,r0h
     e86:	6f 6e 67 20 	mov.w	@(0x6720:16,er6),e6
     e8a:	75 6e       	bxor	#0x6,r6l
     e8c:	73 69       	btst	#0x6,r1l
     e8e:	67 6e       	bst	#0x6,r6l
     e90:	65 64       	xor.w	r6,r4
     e92:	20 69       	mov.b	@0x69:8,r0h
     e94:	6e 74 00 5f 	mov.b	@(0x5f:16,er7),r4h
     e98:	5f 46       	jsr	@@70 (0x46)
     e9a:	4c 54       	bge	.+84 (0xef0)
     e9c:	33 32       	mov.b	r3h,@0x32:8
     e9e:	5f 44       	jsr	@@68 (0x44)
     ea0:	45 43       	.word	H'45,H'43
     ea2:	49 4d       	.word	H'49,H'4d
     ea4:	41 4c       	brn	.+76 (0xef2)
     ea6:	5f 44       	jsr	@@68 (0x44)
     ea8:	49 47       	.word	H'49,H'47
     eaa:	5f 5f       	jsr	@@95 (0x5f)
     eac:	20 39       	mov.b	@0x39:8,r0h
     eae:	00 5f       	.word	H'0,H'5f
     eb0:	5f 55       	jsr	@@85 (0x55)
     eb2:	49 4e       	bvs	.+78 (0xf02)
     eb4:	54 4d       	.word	H'54,H'4d
     eb6:	41 58       	brn	.+88 (0xf10)
     eb8:	5f 4d       	jsr	@@77 (0x4d)
     eba:	41 58       	brn	.+88 (0xf14)
     ebc:	5f 5f       	jsr	@@95 (0x5f)
     ebe:	20 30       	mov.b	@0x30:8,r0h
     ec0:	78 66       	.word	H'78,H'66
     ec2:	66 66       	and.w	r6,r6
     ec4:	66 66       	and.w	r6,r6
     ec6:	66 66       	and.w	r6,r6
     ec8:	66 66       	and.w	r6,r6
     eca:	66 66       	and.w	r6,r6
     ecc:	66 66       	and.w	r6,r6
     ece:	66 66       	and.w	r6,r6
     ed0:	66 55       	and.w	r5,r5
     ed2:	4c 4c       	bge	.+76 (0xf20)
     ed4:	00 5f       	.word	H'0,H'5f
     ed6:	5f 47       	jsr	@@71 (0x47)
     ed8:	43 43       	.word	H'43,H'43
     eda:	5f 41       	jsr	@@65 (0x41)
     edc:	54 4f       	.word	H'54,H'4f
     ede:	4d 49       	.word	H'4d,H'49
     ee0:	43 5f       	.word	H'43,H'5f
     ee2:	49 4e       	bvs	.+78 (0xf32)
     ee4:	54 5f       	.word	H'54,H'5f
     ee6:	4c 4f       	.word	H'4c,H'4f
     ee8:	43 4b       	.word	H'43,H'4b
     eea:	5f 46       	jsr	@@70 (0x46)
     eec:	52 45       	mulxu.w	r4,er5
     eee:	45 20       	bcs	.+32 (0xf10)
     ef0:	31 00       	mov.b	r1h,@0x0:8
     ef2:	5f 5f       	jsr	@@95 (0x5f)
     ef4:	57 49       	.word	H'57,H'49
     ef6:	4e 54       	bgt	.+84 (0xf4c)
     ef8:	5f 4d       	jsr	@@77 (0x4d)
     efa:	41 58       	brn	.+88 (0xf54)
     efc:	5f 5f       	jsr	@@95 (0x5f)
     efe:	20 30       	mov.b	@0x30:8,r0h
     f00:	78 66       	.word	H'78,H'66
     f02:	66 66       	and.w	r6,r6
     f04:	66 55       	and.w	r5,r5
     f06:	00 5f       	.word	H'0,H'5f
     f08:	5f 44       	jsr	@@68 (0x44)
     f0a:	45 43       	.word	H'45,H'43
     f0c:	31 32       	mov.b	r1h,@0x32:8
     f0e:	38 5f       	mov.b	r0l,@0x5f:8
     f10:	45 50       	bcs	.+80 (0xf62)
     f12:	53 49       	.word	H'53,H'49
     f14:	4c 4f       	.word	H'4c,H'4f
     f16:	4e 5f       	.word	H'4e,H'5f
     f18:	5f 20       	jsr	@@32 (0x20)
     f1a:	31 45       	mov.b	r1h,@0x45:8
     f1c:	2d 33       	mov.b	@0x33:8,r5l
     f1e:	33 44       	mov.b	r3h,@0x44:8
     f20:	4c 00       	bge	.0 (0xf22)
     f22:	5f 5f       	jsr	@@95 (0x5f)
     f24:	44 42       	bcc	.+66 (0xf68)
     f26:	4c 5f       	.word	H'4c,H'5f
     f28:	44 49       	.word	H'44,H'49
     f2a:	47 5f       	.word	H'47,H'5f
     f2c:	5f 20       	jsr	@@32 (0x20)
     f2e:	36 00       	mov.b	r6h,@0x0:8
     f30:	5f 5f       	jsr	@@95 (0x5f)
     f32:	47 43       	.word	H'47,H'43
     f34:	43 5f       	.word	H'43,H'5f
     f36:	41 54       	brn	.+84 (0xf8c)
     f38:	4f 4d       	.word	H'4f,H'4d
     f3a:	49 43       	.word	H'49,H'43
     f3c:	5f 43       	jsr	@@67 (0x43)
     f3e:	48 41       	.word	H'48,H'41
     f40:	52 5f       	.word	H'52,H'5f
     f42:	4c 4f       	.word	H'4c,H'4f
     f44:	43 4b       	.word	H'43,H'4b
     f46:	5f 46       	jsr	@@70 (0x46)
     f48:	52 45       	mulxu.w	r4,er5
     f4a:	45 20       	bcs	.+32 (0xf6c)
     f4c:	31 00       	mov.b	r1h,@0x0:8
     f4e:	5f 5f       	jsr	@@95 (0x5f)
     f50:	44 45       	.word	H'44,H'45
     f52:	43 33       	.word	H'43,H'33
     f54:	32 5f       	mov.b	r2h,@0x5f:8
     f56:	4d 49       	.word	H'4d,H'49
     f58:	4e 5f       	.word	H'4e,H'5f
     f5a:	45 58       	bcs	.+88 (0xfb4)
     f5c:	50 5f       	mulxu.b	r5h,e7
     f5e:	5f 20       	jsr	@@32 (0x20)
     f60:	28 2d       	mov.b	@0x2d:8,r0l
     f62:	39 34       	mov.b	r1l,@0x34:8
     f64:	29 00       	mov.b	@0x0:8,r1l
     f66:	5f 5f       	jsr	@@95 (0x5f)
     f68:	44 42       	bcc	.+66 (0xfac)
     f6a:	4c 5f       	.word	H'4c,H'5f
     f6c:	4d 49       	.word	H'4d,H'49
     f6e:	4e 5f       	.word	H'4e,H'5f
     f70:	5f 20       	jsr	@@32 (0x20)
     f72:	28 28       	mov.b	@0x28:8,r0l
     f74:	64 6f       	or.w	r6,e7
     f76:	75 62       	bxor	#0x6,r2h
     f78:	6c 65       	mov.b	@er6+,r5h
     f7a:	29 31       	mov.b	@0x31:8,r1l
     f7c:	2e 31       	mov.b	@0x31:8,r6l
     f7e:	37 35       	mov.b	r7h,@0x35:8
     f80:	34 39       	mov.b	r4h,@0x39:8
     f82:	34 33       	mov.b	r4h,@0x33:8
     f84:	35 65       	mov.b	r5h,@0x65:8
     f86:	2d 33       	mov.b	@0x33:8,r5l
     f88:	38 4c       	mov.b	r0l,@0x4c:8
     f8a:	29 00       	mov.b	@0x0:8,r1l
     f8c:	5f 5f       	jsr	@@95 (0x5f)
     f8e:	45 4c       	bcs	.+76 (0xfdc)
     f90:	46 5f       	.word	H'46,H'5f
     f92:	5f 20       	jsr	@@32 (0x20)
     f94:	31 00       	mov.b	r1h,@0x0:8
     f96:	5f 5f       	jsr	@@95 (0x5f)
     f98:	44 45       	.word	H'44,H'45
     f9a:	43 31       	.word	H'43,H'31
     f9c:	32 38       	mov.b	r2h,@0x38:8
     f9e:	5f 4d       	jsr	@@77 (0x4d)
     fa0:	41 58       	brn	.+88 (0xffa)
     fa2:	5f 5f       	jsr	@@95 (0x5f)
     fa4:	20 39       	mov.b	@0x39:8,r0h
     fa6:	2e 39       	mov.b	@0x39:8,r6l
     fa8:	39 39       	mov.b	r1l,@0x39:8
     faa:	39 39       	mov.b	r1l,@0x39:8
     fac:	39 39       	mov.b	r1l,@0x39:8
     fae:	39 39       	mov.b	r1l,@0x39:8
     fb0:	39 39       	mov.b	r1l,@0x39:8
     fb2:	39 39       	mov.b	r1l,@0x39:8
     fb4:	39 39       	mov.b	r1l,@0x39:8
     fb6:	39 39       	mov.b	r1l,@0x39:8
     fb8:	39 39       	mov.b	r1l,@0x39:8
     fba:	39 39       	mov.b	r1l,@0x39:8
     fbc:	39 39       	mov.b	r1l,@0x39:8
     fbe:	39 39       	mov.b	r1l,@0x39:8
     fc0:	39 39       	mov.b	r1l,@0x39:8
     fc2:	39 39       	mov.b	r1l,@0x39:8
     fc4:	39 39       	mov.b	r1l,@0x39:8
     fc6:	39 39       	mov.b	r1l,@0x39:8
     fc8:	45 36       	bcs	.+54 (0x1000)
     fca:	31 34       	mov.b	r1h,@0x34:8
     fcc:	34 44       	mov.b	r4h,@0x44:8
     fce:	4c 00       	bge	.0 (0xfd0)
     fd0:	5f 5f       	jsr	@@95 (0x5f)
     fd2:	46 4c       	bne	.+76 (0x1020)
     fd4:	54 5f       	.word	H'54,H'5f
     fd6:	52 41       	mulxu.w	r4,er1
     fd8:	44 49       	.word	H'44,H'49
     fda:	58 5f       	.word	H'58,H'5f
     fdc:	5f 20       	jsr	@@32 (0x20)
     fde:	32 00       	mov.b	r2h,@0x0:8
     fe0:	5f 5f       	jsr	@@95 (0x5f)
     fe2:	53 49       	.word	H'53,H'49
     fe4:	5a 45 5f 4d 	jmp	@0x455f4d:24
     fe8:	41 58       	brn	.+88 (0x1042)
     fea:	5f 5f       	jsr	@@95 (0x5f)
     fec:	20 30       	mov.b	@0x30:8,r0h
     fee:	78 66       	.word	H'78,H'66
     ff0:	66 66       	and.w	r6,r6
     ff2:	66 66       	and.w	r6,r6
     ff4:	66 66       	and.w	r6,r6
     ff6:	66 55       	and.w	r5,r5
     ff8:	4c 00       	bge	.0 (0xffa)
     ffa:	5f 5f       	jsr	@@95 (0x5f)
     ffc:	55 49       	bsr	.+73 (0x1047)
     ffe:	4e 54       	bgt	.+84 (0x1054)
    1000:	33 32       	mov.b	r3h,@0x32:8
    1002:	5f 54       	jsr	@@84 (0x54)
    1004:	59 50       	jmp	@er5
    1006:	45 5f       	.word	H'45,H'5f
    1008:	5f 20       	jsr	@@32 (0x20)
    100a:	6c 6f       	mov.b	@er6+,r7l
    100c:	6e 67 20 75 	mov.b	@(0x2075:16,er6),r7h
    1010:	6e 73 69 67 	mov.b	@(0x6967:16,er7),r3h
    1014:	6e 65 64 20 	mov.b	@(0x6420:16,er6),r5h
    1018:	69 6e       	mov.w	@er6,e6
    101a:	74 00       	bor	#0x0,r0h
    101c:	5f 5f       	jsr	@@95 (0x5f)
    101e:	55 49       	bsr	.+73 (0x1069)
    1020:	4e 54       	bgt	.+84 (0x1076)
    1022:	33 32       	mov.b	r3h,@0x32:8
    1024:	5f 43       	jsr	@@67 (0x43)
    1026:	28 63       	mov.b	@0x63:8,r0l
    1028:	29 20       	mov.b	@0x20:8,r1l
    102a:	63 20       	btst	r2h,r0h
    102c:	23 23       	mov.b	@0x23:8,r3h
    102e:	20 55       	mov.b	@0x55:8,r0h
    1030:	4c 00       	bge	.0 (0x1032)
    1032:	5f 5f       	jsr	@@95 (0x5f)
    1034:	49 4e       	bvs	.+78 (0x1084)
    1036:	54 5f       	.word	H'54,H'5f
    1038:	4c 45       	.word	H'4c,H'45
    103a:	41 53       	.word	H'41,H'53
    103c:	54 33       	rts/l	er0-er3
    103e:	32 5f       	mov.b	r2h,@0x5f:8
    1040:	54 59       	.word	H'54,H'59
    1042:	50 45       	mulxu.b	r4h,r5
    1044:	5f 5f       	jsr	@@95 (0x5f)
    1046:	20 6c       	mov.b	@0x6c:8,r0h
    1048:	6f 6e 67 20 	mov.w	@(0x6720:16,er6),e6
    104c:	69 6e       	mov.w	@er6,e6
    104e:	74 00       	bor	#0x0,r0h
    1050:	5f 5f       	jsr	@@95 (0x5f)
    1052:	49 4e       	bvs	.+78 (0x10a2)
    1054:	54 5f       	.word	H'54,H'5f
    1056:	4c 45       	.word	H'4c,H'45
    1058:	41 53       	.word	H'41,H'53
    105a:	54 31       	rts/l	er-2-er1
    105c:	36 5f       	mov.b	r6h,@0x5f:8
    105e:	4d 41       	.word	H'4d,H'41
    1060:	58 5f       	.word	H'58,H'5f
    1062:	5f 20       	jsr	@@32 (0x20)
    1064:	30 78       	mov.b	r0h,@0x78:8
    1066:	37 66       	mov.b	r7h,@0x66:8
    1068:	66 66       	and.w	r6,r6
    106a:	00 5f       	.word	H'0,H'5f
    106c:	5f 44       	jsr	@@68 (0x44)
    106e:	45 43       	.word	H'45,H'43
    1070:	31 32       	mov.b	r1h,@0x32:8
    1072:	38 5f       	mov.b	r0l,@0x5f:8
    1074:	4d 41       	.word	H'4d,H'41
    1076:	4e 54       	bgt	.+84 (0x10cc)
    1078:	5f 44       	jsr	@@68 (0x44)
    107a:	49 47       	.word	H'49,H'47
    107c:	5f 5f       	jsr	@@95 (0x5f)
    107e:	20 33       	mov.b	@0x33:8,r0h
    1080:	34 00       	mov.b	r4h,@0x0:8
    1082:	5f 5f       	jsr	@@95 (0x5f)
    1084:	44 45       	.word	H'44,H'45
    1086:	43 36       	bls	.+54 (0x10be)
    1088:	34 5f       	mov.b	r4h,@0x5f:8
    108a:	4d 49       	.word	H'4d,H'49
    108c:	4e 5f       	.word	H'4e,H'5f
    108e:	45 58       	bcs	.+88 (0x10e8)
    1090:	50 5f       	mulxu.b	r5h,e7
    1092:	5f 20       	jsr	@@32 (0x20)
    1094:	28 2d       	mov.b	@0x2d:8,r0l
    1096:	33 38       	mov.b	r3h,@0x38:8
    1098:	32 29       	mov.b	r2h,@0x29:8
    109a:	00 5f       	.word	H'0,H'5f
    109c:	5f 53       	jsr	@@83 (0x53)
    109e:	49 47       	.word	H'49,H'47
    10a0:	5f 41       	jsr	@@65 (0x41)
    10a2:	54 4f       	.word	H'54,H'4f
    10a4:	4d 49       	.word	H'4d,H'49
    10a6:	43 5f       	.word	H'43,H'5f
    10a8:	4d 41       	.word	H'4d,H'41
    10aa:	58 5f       	.word	H'58,H'5f
    10ac:	5f 20       	jsr	@@32 (0x20)
    10ae:	30 78       	mov.b	r0h,@0x78:8
    10b0:	37 66       	mov.b	r7h,@0x66:8
    10b2:	66 66       	and.w	r6,r6
    10b4:	00 5f       	.word	H'0,H'5f
    10b6:	5f 46       	jsr	@@70 (0x46)
    10b8:	4c 54       	bge	.+84 (0x110e)
    10ba:	33 32       	mov.b	r3h,@0x32:8
    10bc:	5f 48       	jsr	@@72 (0x48)
    10be:	41 53       	.word	H'41,H'53
    10c0:	5f 51       	jsr	@@81 (0x51)
    10c2:	55 49       	bsr	.+73 (0x110d)
    10c4:	45 54       	bcs	.+84 (0x111a)
    10c6:	5f 4e       	jsr	@@78 (0x4e)
    10c8:	41 4e       	brn	.+78 (0x1118)
    10ca:	5f 5f       	jsr	@@95 (0x5f)
    10cc:	20 31       	mov.b	@0x31:8,r0h
    10ce:	00 5f       	.word	H'0,H'5f
    10d0:	5f 47       	jsr	@@71 (0x47)
    10d2:	43 43       	.word	H'43,H'43
    10d4:	5f 41       	jsr	@@65 (0x41)
    10d6:	54 4f       	.word	H'54,H'4f
    10d8:	4d 49       	.word	H'4d,H'49
    10da:	43 5f       	.word	H'43,H'5f
    10dc:	43 48       	bls	.+72 (0x1126)
    10de:	41 52       	brn	.+82 (0x1132)
    10e0:	31 36       	mov.b	r1h,@0x36:8
    10e2:	5f 54       	jsr	@@84 (0x54)
    10e4:	5f 4c       	jsr	@@76 (0x4c)
    10e6:	4f 43       	.word	H'4f,H'43
    10e8:	4b 5f       	.word	H'4b,H'5f
    10ea:	46 52       	bne	.+82 (0x113e)
    10ec:	45 45       	.word	H'45,H'45
    10ee:	20 31       	mov.b	@0x31:8,r0h
    10f0:	00 5f       	.word	H'0,H'5f
    10f2:	5f 4f       	jsr	@@79 (0x4f)
    10f4:	50 54       	mulxu.b	r5h,r4
    10f6:	49 4d       	.word	H'49,H'4d
    10f8:	49 5a       	bvs	.+90 (0x1154)
    10fa:	45 5f       	.word	H'45,H'5f
    10fc:	53 49       	.word	H'53,H'49
    10fe:	5a 45 5f 5f 	jmp	@0x455f5f:24
    1102:	20 31       	mov.b	@0x31:8,r0h
    1104:	00 5f       	.word	H'0,H'5f
    1106:	5f 49       	jsr	@@73 (0x49)
    1108:	4e 54       	bgt	.+84 (0x115e)
    110a:	4d 41       	.word	H'4d,H'41
    110c:	58 5f       	.word	H'58,H'5f
    110e:	43 28       	bls	.+40 (0x1138)
    1110:	63 29       	btst	r2h,r1l
    1112:	20 63       	mov.b	@0x63:8,r0h
    1114:	20 23       	mov.b	@0x23:8,r0h
    1116:	23 20       	mov.b	@0x20:8,r3h
    1118:	4c 4c       	bge	.+76 (0x1166)
    111a:	00 5f       	.word	H'0,H'5f
    111c:	5f 55       	jsr	@@85 (0x55)
    111e:	49 4e       	bvs	.+78 (0x116e)
    1120:	54 5f       	.word	H'54,H'5f
    1122:	4c 45       	.word	H'4c,H'45
    1124:	41 53       	.word	H'41,H'53
    1126:	54 33       	rts/l	er0-er3
    1128:	32 5f       	mov.b	r2h,@0x5f:8
    112a:	54 59       	.word	H'54,H'59
    112c:	50 45       	mulxu.b	r4h,r5
    112e:	5f 5f       	jsr	@@95 (0x5f)
    1130:	20 6c       	mov.b	@0x6c:8,r0h
    1132:	6f 6e 67 20 	mov.w	@(0x6720:16,er6),e6
    1136:	75 6e       	bxor	#0x6,r6l
    1138:	73 69       	btst	#0x6,r1l
    113a:	67 6e       	bst	#0x6,r6l
    113c:	65 64       	xor.w	r6,r4
    113e:	20 69       	mov.b	@0x69:8,r0h
    1140:	6e 74 00 5f 	mov.b	@(0x5f:16,er7),r4h
    1144:	5f 55       	jsr	@@85 (0x55)
    1146:	49 4e       	bvs	.+78 (0x1196)
    1148:	54 5f       	.word	H'54,H'5f
    114a:	46 41       	.word	H'46,H'41
    114c:	53 54       	divxu.w	r5,er4
    114e:	38 5f       	mov.b	r0l,@0x5f:8
    1150:	4d 41       	.word	H'4d,H'41
    1152:	58 5f       	.word	H'58,H'5f
    1154:	5f 20       	jsr	@@32 (0x20)
    1156:	30 78       	mov.b	r0h,@0x78:8
    1158:	66 66       	and.w	r6,r6
    115a:	66 66       	and.w	r6,r6
    115c:	55 00       	bsr	.0 (0x115e)
    115e:	5f 5f       	jsr	@@95 (0x5f)
    1160:	49 4e       	bvs	.+78 (0x11b0)
    1162:	54 5f       	.word	H'54,H'5f
    1164:	4c 45       	.word	H'4c,H'45
    1166:	41 53       	.word	H'41,H'53
    1168:	54 38       	.word	H'54,H'38
    116a:	5f 54       	jsr	@@84 (0x54)
    116c:	59 50       	jmp	@er5
    116e:	45 5f       	.word	H'45,H'5f
    1170:	5f 20       	jsr	@@32 (0x20)
    1172:	73 69       	btst	#0x6,r1l
    1174:	67 6e       	bst	#0x6,r6l
    1176:	65 64       	xor.w	r6,r4
    1178:	20 63       	mov.b	@0x63:8,r0h
    117a:	68 61       	mov.b	@er6,r1h
    117c:	72 00       	bclr	#0x0,r0h
    117e:	5f 5f       	jsr	@@95 (0x5f)
    1180:	53 48       	.word	H'53,H'48
    1182:	52 54       	mulxu.w	r5,er4
    1184:	5f 4d       	jsr	@@77 (0x4d)
    1186:	41 58       	brn	.+88 (0x11e0)
    1188:	5f 5f       	jsr	@@95 (0x5f)
    118a:	20 30       	mov.b	@0x30:8,r0h
    118c:	78 37       	.word	H'78,H'37
    118e:	66 66       	and.w	r6,r6
    1190:	66 00       	and.w	r0,r0
    1192:	5f 5f       	jsr	@@95 (0x5f)
    1194:	53 49       	.word	H'53,H'49
    1196:	5a 45 4f 46 	jmp	@0x454f46:24
    119a:	5f 46       	jsr	@@70 (0x46)
    119c:	4c 4f       	.word	H'4c,H'4f
    119e:	41 54       	brn	.+84 (0x11f4)
    11a0:	5f 5f       	jsr	@@95 (0x5f)
    11a2:	20 34       	mov.b	@0x34:8,r0h
    11a4:	00 5f       	.word	H'0,H'5f
    11a6:	5f 44       	jsr	@@68 (0x44)
    11a8:	42 4c       	bhi	.+76 (0x11f6)
    11aa:	5f 4d       	jsr	@@77 (0x4d)
    11ac:	41 58       	brn	.+88 (0x1206)
    11ae:	5f 45       	jsr	@@69 (0x45)
    11b0:	58 50       	.word	H'58,H'50
    11b2:	5f 5f       	jsr	@@95 (0x5f)
    11b4:	20 31       	mov.b	@0x31:8,r0h
    11b6:	32 38       	mov.b	r2h,@0x38:8
    11b8:	00 5f       	.word	H'0,H'5f
    11ba:	5f 53       	jsr	@@83 (0x53)
    11bc:	54 44       	rts/l	er0-er4
    11be:	43 5f       	.word	H'43,H'5f
    11c0:	5f 20       	jsr	@@32 (0x20)
    11c2:	31 00       	mov.b	r1h,@0x0:8
    11c4:	5f 5f       	jsr	@@95 (0x5f)
    11c6:	4f 52       	ble	.+82 (0x121a)
    11c8:	44 45       	.word	H'44,H'45
    11ca:	52 5f       	.word	H'52,H'5f
    11cc:	50 44       	mulxu.b	r4h,r4
    11ce:	50 5f       	mulxu.b	r5h,e7
    11d0:	45 4e       	bcs	.+78 (0x1220)
    11d2:	44 49       	.word	H'44,H'49
    11d4:	41 4e       	brn	.+78 (0x1224)
    11d6:	5f 5f       	jsr	@@95 (0x5f)
    11d8:	20 33       	mov.b	@0x33:8,r0h
    11da:	34 31       	mov.b	r4h,@0x31:8
    11dc:	32 00       	mov.b	r2h,@0x0:8
    11de:	5f 5f       	jsr	@@95 (0x5f)
    11e0:	4f 52       	ble	.+82 (0x1234)
    11e2:	44 45       	.word	H'44,H'45
    11e4:	52 5f       	.word	H'52,H'5f
    11e6:	4c 49       	.word	H'4c,H'49
    11e8:	54 54       	rts/l	er-1-er4
    11ea:	4c 45       	.word	H'4c,H'45
    11ec:	5f 45       	jsr	@@69 (0x45)
    11ee:	4e 44       	bgt	.+68 (0x1234)
    11f0:	49 41       	.word	H'49,H'41
    11f2:	4e 5f       	.word	H'4e,H'5f
    11f4:	5f 20       	jsr	@@32 (0x20)
    11f6:	31 32       	mov.b	r1h,@0x32:8
    11f8:	33 34       	mov.b	r3h,@0x34:8
    11fa:	00 5f       	.word	H'0,H'5f
    11fc:	5f 57       	jsr	@@87 (0x57)
    11fe:	49 4e       	bvs	.+78 (0x124e)
    1200:	54 5f       	.word	H'54,H'5f
    1202:	54 59       	.word	H'54,H'59
    1204:	50 45       	mulxu.b	r4h,r5
    1206:	5f 5f       	jsr	@@95 (0x5f)
    1208:	20 75       	mov.b	@0x75:8,r0h
    120a:	6e 73 69 67 	mov.b	@(0x6967:16,er7),r3h
    120e:	6e 65 64 20 	mov.b	@(0x6420:16,er6),r5h
    1212:	69 6e       	mov.w	@er6,e6
    1214:	74 00       	bor	#0x0,r0h
    1216:	5f 5f       	jsr	@@95 (0x5f)
    1218:	49 4e       	bvs	.+78 (0x1268)
    121a:	54 5f       	.word	H'54,H'5f
    121c:	4c 45       	.word	H'4c,H'45
    121e:	41 53       	.word	H'41,H'53
    1220:	54 36       	rts/l	er3-er6
    1222:	34 5f       	mov.b	r4h,@0x5f:8
    1224:	54 59       	.word	H'54,H'59
    1226:	50 45       	mulxu.b	r4h,r5
    1228:	5f 5f       	jsr	@@95 (0x5f)
    122a:	20 6c       	mov.b	@0x6c:8,r0h
    122c:	6f 6e 67 20 	mov.w	@(0x6720:16,er6),e6
    1230:	6c 6f       	mov.b	@er6+,r7l
    1232:	6e 67 20 69 	mov.b	@(0x2069:16,er6),r7h
    1236:	6e 74 00 5f 	mov.b	@(0x5f:16,er7),r4h
    123a:	5f 41       	jsr	@@65 (0x41)
    123c:	54 4f       	.word	H'54,H'4f
    123e:	4d 49       	.word	H'4d,H'49
    1240:	43 5f       	.word	H'43,H'5f
    1242:	52 45       	mulxu.w	r4,er5
    1244:	4c 41       	.word	H'4c,H'41
    1246:	58 45       	.word	H'58,H'45
    1248:	44 20       	bcc	.+32 (0x126a)
    124a:	30 00       	mov.b	r0h,@0x0:8
    124c:	5f 5f       	jsr	@@95 (0x5f)
    124e:	44 42       	bcc	.+66 (0x1292)
    1250:	4c 5f       	.word	H'4c,H'5f
    1252:	4d 49       	.word	H'4d,H'49
    1254:	4e 5f       	.word	H'4e,H'5f
    1256:	45 58       	bcs	.+88 (0x12b0)
    1258:	50 5f       	mulxu.b	r5h,e7
    125a:	5f 20       	jsr	@@32 (0x20)
    125c:	28 2d       	mov.b	@0x2d:8,r0l
    125e:	31 32       	mov.b	r1h,@0x32:8
    1260:	35 29       	mov.b	r5h,@0x29:8
    1262:	00 5f       	.word	H'0,H'5f
    1264:	5f 44       	jsr	@@68 (0x44)
    1266:	42 4c       	bhi	.+76 (0x12b4)
    1268:	5f 4d       	jsr	@@77 (0x4d)
    126a:	41 58       	brn	.+88 (0x12c4)
    126c:	5f 5f       	jsr	@@95 (0x5f)
    126e:	20 28       	mov.b	@0x28:8,r0h
    1270:	28 64       	mov.b	@0x64:8,r0l
    1272:	6f 75 62 6c 	mov.w	@(0x626c:16,er7),r5
    1276:	65 29       	xor.w	r2,e1
    1278:	33 2e       	mov.b	r3h,@0x2e:8
    127a:	34 30       	mov.b	r4h,@0x30:8
    127c:	32 38       	mov.b	r2h,@0x38:8
    127e:	32 33       	mov.b	r2h,@0x33:8
    1280:	34 37       	mov.b	r4h,@0x37:8
    1282:	65 2b       	xor.w	r2,e3
    1284:	33 38       	mov.b	r3h,@0x38:8
    1286:	4c 29       	.word	H'4c,H'29
    1288:	00 5f       	.word	H'0,H'5f
    128a:	5f 46       	jsr	@@70 (0x46)
    128c:	4c 4f       	.word	H'4c,H'4f
    128e:	41 54       	brn	.+84 (0x12e4)
    1290:	5f 57       	jsr	@@87 (0x57)
    1292:	4f 52       	ble	.+82 (0x12e6)
    1294:	44 5f       	.word	H'44,H'5f
    1296:	4f 52       	ble	.+82 (0x12ea)
    1298:	44 45       	.word	H'44,H'45
    129a:	52 5f       	.word	H'52,H'5f
    129c:	5f 20       	jsr	@@32 (0x20)
    129e:	5f 5f       	jsr	@@95 (0x5f)
    12a0:	4f 52       	ble	.+82 (0x12f4)
    12a2:	44 45       	.word	H'44,H'45
    12a4:	52 5f       	.word	H'52,H'5f
    12a6:	42 49       	.word	H'42,H'49
    12a8:	47 5f       	.word	H'47,H'5f
    12aa:	45 4e       	bcs	.+78 (0x12fa)
    12ac:	44 49       	.word	H'44,H'49
    12ae:	41 4e       	brn	.+78 (0x12fe)
    12b0:	5f 5f       	jsr	@@95 (0x5f)
    12b2:	00 5f       	.word	H'0,H'5f
    12b4:	5f 49       	jsr	@@73 (0x49)
    12b6:	4e 54       	bgt	.+84 (0x130c)
    12b8:	5f 4c       	jsr	@@76 (0x4c)
    12ba:	45 41       	.word	H'45,H'41
    12bc:	53 54       	divxu.w	r5,er4
    12be:	33 32       	mov.b	r3h,@0x32:8
    12c0:	5f 4d       	jsr	@@77 (0x4d)
    12c2:	41 58       	brn	.+88 (0x131c)
    12c4:	5f 5f       	jsr	@@95 (0x5f)
    12c6:	20 30       	mov.b	@0x30:8,r0h
    12c8:	78 37       	.word	H'78,H'37
    12ca:	66 66       	and.w	r6,r6
    12cc:	66 66       	and.w	r6,r6
    12ce:	66 66       	and.w	r6,r6
    12d0:	66 4c       	and.w	r4,e4
    12d2:	00 5f       	.word	H'0,H'5f
    12d4:	5f 44       	jsr	@@68 (0x44)
    12d6:	45 43       	.word	H'45,H'43
    12d8:	33 32       	mov.b	r3h,@0x32:8
    12da:	5f 4d       	jsr	@@77 (0x4d)
    12dc:	41 4e       	brn	.+78 (0x132c)
    12de:	54 5f       	.word	H'54,H'5f
    12e0:	44 49       	.word	H'44,H'49
    12e2:	47 5f       	.word	H'47,H'5f
    12e4:	5f 20       	jsr	@@32 (0x20)
    12e6:	37 00       	mov.b	r7h,@0x0:8
    12e8:	5f 5f       	jsr	@@95 (0x5f)
    12ea:	47 43       	.word	H'47,H'43
    12ec:	43 5f       	.word	H'43,H'5f
    12ee:	49 45       	.word	H'49,H'45
    12f0:	43 5f       	.word	H'43,H'5f
    12f2:	35 35       	mov.b	r5h,@0x35:8
    12f4:	39 20       	mov.b	r1l,@0x20:8
    12f6:	30 00       	mov.b	r0h,@0x0:8
    12f8:	5f 5f       	jsr	@@95 (0x5f)
    12fa:	44 42       	bcc	.+66 (0x133e)
    12fc:	4c 5f       	.word	H'4c,H'5f
    12fe:	45 50       	bcs	.+80 (0x1350)
    1300:	53 49       	.word	H'53,H'49
    1302:	4c 4f       	.word	H'4c,H'4f
    1304:	4e 5f       	.word	H'4e,H'5f
    1306:	5f 20       	jsr	@@32 (0x20)
    1308:	28 28       	mov.b	@0x28:8,r0l
    130a:	64 6f       	or.w	r6,e7
    130c:	75 62       	bxor	#0x6,r2h
    130e:	6c 65       	mov.b	@er6+,r5h
    1310:	29 31       	mov.b	@0x31:8,r1l
    1312:	2e 31       	mov.b	@0x31:8,r6l
    1314:	39 32       	mov.b	r1l,@0x32:8
    1316:	30 39       	mov.b	r0h,@0x39:8
    1318:	32 39       	mov.b	r2h,@0x39:8
    131a:	30 65       	mov.b	r0h,@0x65:8
    131c:	2d 37       	mov.b	@0x37:8,r5l
    131e:	4c 29       	.word	H'4c,H'29
    1320:	00 5f       	.word	H'0,H'5f
    1322:	5f 44       	jsr	@@68 (0x44)
    1324:	45 43       	.word	H'45,H'43
    1326:	49 4d       	.word	H'49,H'4d
    1328:	41 4c       	brn	.+76 (0x1376)
    132a:	5f 44       	jsr	@@68 (0x44)
    132c:	49 47       	.word	H'49,H'47
    132e:	5f 5f       	jsr	@@95 (0x5f)
    1330:	20 39       	mov.b	@0x39:8,r0h
    1332:	00 5f       	.word	H'0,H'5f
    1334:	5f 44       	jsr	@@68 (0x44)
    1336:	45 43       	.word	H'45,H'43
    1338:	33 32       	mov.b	r3h,@0x32:8
    133a:	5f 4d       	jsr	@@77 (0x4d)
    133c:	41 58       	brn	.+88 (0x1396)
    133e:	5f 5f       	jsr	@@95 (0x5f)
    1340:	20 39       	mov.b	@0x39:8,r0h
    1342:	2e 39       	mov.b	@0x39:8,r6l
    1344:	39 39       	mov.b	r1l,@0x39:8
    1346:	39 39       	mov.b	r1l,@0x39:8
    1348:	39 45       	mov.b	r1l,@0x45:8
    134a:	39 36       	mov.b	r1l,@0x36:8
    134c:	44 46       	bcc	.+70 (0x1394)
    134e:	00 5f       	.word	H'0,H'5f
    1350:	5f 46       	jsr	@@70 (0x46)
    1352:	4c 54       	bge	.+84 (0x13a8)
    1354:	33 32       	mov.b	r3h,@0x32:8
    1356:	5f 44       	jsr	@@68 (0x44)
    1358:	49 47       	.word	H'49,H'47
    135a:	5f 5f       	jsr	@@95 (0x5f)
    135c:	20 36       	mov.b	@0x36:8,r0h
    135e:	00 5f       	.word	H'0,H'5f
    1360:	5f 55       	jsr	@@85 (0x55)
    1362:	49 4e       	bvs	.+78 (0x13b2)
    1364:	54 31       	rts/l	er-2-er1
    1366:	36 5f       	mov.b	r6h,@0x5f:8
    1368:	43 28       	bls	.+40 (0x1392)
    136a:	63 29       	btst	r2h,r1l
    136c:	20 63       	mov.b	@0x63:8,r0h
    136e:	20 23       	mov.b	@0x23:8,r0h
    1370:	23 20       	mov.b	@0x20:8,r3h
    1372:	55 00       	bsr	.0 (0x1374)
    1374:	5f 5f       	jsr	@@95 (0x5f)
    1376:	44 42       	bcc	.+66 (0x13ba)
    1378:	4c 5f       	.word	H'4c,H'5f
    137a:	4d 41       	.word	H'4d,H'41
    137c:	4e 54       	bgt	.+84 (0x13d2)
    137e:	5f 44       	jsr	@@68 (0x44)
    1380:	49 47       	.word	H'49,H'47
    1382:	5f 5f       	jsr	@@95 (0x5f)
    1384:	20 32       	mov.b	@0x32:8,r0h
    1386:	34 00       	mov.b	r4h,@0x0:8
    1388:	5f 5f       	jsr	@@95 (0x5f)
    138a:	46 4c       	bne	.+76 (0x13d8)
    138c:	54 33       	rts/l	er0-er3
    138e:	32 5f       	mov.b	r2h,@0x5f:8
    1390:	48 41       	.word	H'48,H'41
    1392:	53 5f       	.word	H'53,H'5f
    1394:	44 45       	.word	H'44,H'45
    1396:	4e 4f       	.word	H'4e,H'4f
    1398:	52 4d       	.word	H'52,H'4d
    139a:	5f 5f       	jsr	@@95 (0x5f)
    139c:	20 31       	mov.b	@0x31:8,r0h
    139e:	00 5f       	.word	H'0,H'5f
    13a0:	5f 55       	jsr	@@85 (0x55)
    13a2:	49 4e       	bvs	.+78 (0x13f2)
    13a4:	54 36       	rts/l	er3-er6
    13a6:	34 5f       	mov.b	r4h,@0x5f:8
    13a8:	43 28       	bls	.+40 (0x13d2)
    13aa:	63 29       	btst	r2h,r1l
    13ac:	20 63       	mov.b	@0x63:8,r0h
    13ae:	20 23       	mov.b	@0x23:8,r0h
    13b0:	23 20       	mov.b	@0x20:8,r3h
    13b2:	55 4c       	bsr	.+76 (0x1400)
    13b4:	4c 00       	bge	.0 (0x13b6)
    13b6:	5f 5f       	jsr	@@95 (0x5f)
    13b8:	46 4c       	bne	.+76 (0x1406)
    13ba:	54 5f       	.word	H'54,H'5f
    13bc:	48 41       	.word	H'48,H'41
    13be:	53 5f       	.word	H'53,H'5f
    13c0:	49 4e       	bvs	.+78 (0x1410)
    13c2:	46 49       	.word	H'46,H'49
    13c4:	4e 49       	.word	H'4e,H'49
    13c6:	54 59       	.word	H'54,H'59
    13c8:	5f 5f       	jsr	@@95 (0x5f)
    13ca:	20 31       	mov.b	@0x31:8,r0h
    13cc:	00 5f       	.word	H'0,H'5f
    13ce:	5f 57       	jsr	@@87 (0x57)
    13d0:	43 48       	bls	.+72 (0x141a)
    13d2:	41 52       	brn	.+82 (0x1426)
    13d4:	5f 4d       	jsr	@@77 (0x4d)
    13d6:	49 4e       	bvs	.+78 (0x1426)
    13d8:	5f 5f       	jsr	@@95 (0x5f)
    13da:	20 30       	mov.b	@0x30:8,r0h
    13dc:	55 00       	bsr	.0 (0x13de)
    13de:	5f 5f       	jsr	@@95 (0x5f)
    13e0:	57 43       	.word	H'57,H'43
    13e2:	48 41       	.word	H'48,H'41
    13e4:	52 5f       	.word	H'52,H'5f
    13e6:	57 49       	.word	H'57,H'49
    13e8:	44 54       	bcc	.+84 (0x143e)
    13ea:	48 5f       	.word	H'48,H'5f
    13ec:	5f 20       	jsr	@@32 (0x20)
    13ee:	31 36       	mov.b	r1h,@0x36:8
    13f0:	00 5f       	.word	H'0,H'5f
    13f2:	44 45       	.word	H'44,H'45
    13f4:	46 49       	.word	H'46,H'49
    13f6:	4e 45       	.word	H'4e,H'45
    13f8:	53 5f       	.word	H'53,H'5f
    13fa:	48 5f       	.word	H'48,H'5f
    13fc:	49 4e       	bvs	.+78 (0x144c)
    13fe:	43 4c       	bls	.+76 (0x144c)
    1400:	55 44       	bsr	.+68 (0x1446)
    1402:	45 44       	bcs	.+68 (0x1448)
    1404:	5f 20       	jsr	@@32 (0x20)
    1406:	00 5f       	.word	H'0,H'5f
    1408:	5f 4c       	jsr	@@76 (0x4c)
    140a:	4f 4e       	ble	.+78 (0x145a)
    140c:	47 5f       	.word	H'47,H'5f
    140e:	4c 4f       	.word	H'4c,H'4f
    1410:	4e 47       	.word	H'4e,H'47
    1412:	5f 57       	jsr	@@87 (0x57)
    1414:	49 44       	bvs	.+68 (0x145a)
    1416:	54 48       	.word	H'54,H'48
    1418:	5f 5f       	jsr	@@95 (0x5f)
    141a:	20 36       	mov.b	@0x36:8,r0h
    141c:	34 00       	mov.b	r4h,@0x0:8
    141e:	5f 5f       	jsr	@@95 (0x5f)
    1420:	4c 44       	bge	.+68 (0x1466)
    1422:	42 4c       	bhi	.+76 (0x1470)
    1424:	5f 4d       	jsr	@@77 (0x4d)
    1426:	41 58       	brn	.+88 (0x1480)
    1428:	5f 31       	jsr	@@49 (0x31)
    142a:	30 5f       	mov.b	r0h,@0x5f:8
    142c:	45 58       	bcs	.+88 (0x1486)
    142e:	50 5f       	mulxu.b	r5h,e7
    1430:	5f 20       	jsr	@@32 (0x20)
    1432:	33 38       	mov.b	r3h,@0x38:8
    1434:	00 5f       	.word	H'0,H'5f
    1436:	5f 46       	jsr	@@70 (0x46)
    1438:	4c 54       	bge	.+84 (0x148e)
    143a:	5f 44       	jsr	@@68 (0x44)
    143c:	45 4e       	bcs	.+78 (0x148c)
    143e:	4f 52       	ble	.+82 (0x1492)
    1440:	4d 5f       	.word	H'4d,H'5f
    1442:	4d 49       	.word	H'4d,H'49
    1444:	4e 5f       	.word	H'4e,H'5f
    1446:	5f 20       	jsr	@@32 (0x20)
    1448:	31 2e       	mov.b	r1h,@0x2e:8
    144a:	34 30       	mov.b	r4h,@0x30:8
    144c:	31 32       	mov.b	r1h,@0x32:8
    144e:	39 38       	mov.b	r1l,@0x38:8
    1450:	34 36       	mov.b	r4h,@0x36:8
    1452:	65 2d       	xor.w	r2,e5
    1454:	34 35       	mov.b	r4h,@0x35:8
    1456:	46 00       	bne	.0 (0x1458)
    1458:	5f 5f       	jsr	@@95 (0x5f)
    145a:	53 49       	.word	H'53,H'49
    145c:	5a 45 4f 46 	jmp	@0x454f46:24
    1460:	5f 4c       	jsr	@@76 (0x4c)
    1462:	4f 4e       	ble	.+78 (0x14b2)
    1464:	47 5f       	.word	H'47,H'5f
    1466:	5f 20       	jsr	@@32 (0x20)
    1468:	34 00       	mov.b	r4h,@0x0:8
    146a:	5f 5f       	jsr	@@95 (0x5f)
    146c:	53 54       	divxu.w	r5,er4
    146e:	44 43       	.word	H'44,H'43
    1470:	5f 55       	jsr	@@85 (0x55)
    1472:	54 46       	rts/l	er2-er6
    1474:	5f 31       	jsr	@@49 (0x31)
    1476:	36 5f       	mov.b	r6h,@0x5f:8
    1478:	5f 20       	jsr	@@32 (0x20)
    147a:	31 00       	mov.b	r1h,@0x0:8
    147c:	5f 5f       	jsr	@@95 (0x5f)
    147e:	4c 44       	bge	.+68 (0x14c4)
    1480:	42 4c       	bhi	.+76 (0x14ce)
    1482:	5f 4d       	jsr	@@77 (0x4d)
    1484:	49 4e       	bvs	.+78 (0x14d4)
    1486:	5f 45       	jsr	@@69 (0x45)
    1488:	58 50       	.word	H'58,H'50
    148a:	5f 5f       	jsr	@@95 (0x5f)
    148c:	20 28       	mov.b	@0x28:8,r0h
    148e:	2d 31       	mov.b	@0x31:8,r5l
    1490:	32 35       	mov.b	r2h,@0x35:8
    1492:	29 00       	mov.b	@0x0:8,r1l
    1494:	5f 5f       	jsr	@@95 (0x5f)
    1496:	55 49       	bsr	.+73 (0x14e1)
    1498:	4e 54       	bgt	.+84 (0x14ee)
    149a:	5f 46       	jsr	@@70 (0x46)
    149c:	41 53       	.word	H'41,H'53
    149e:	54 38       	.word	H'54,H'38
    14a0:	5f 54       	jsr	@@84 (0x54)
    14a2:	59 50       	jmp	@er5
    14a4:	45 5f       	.word	H'45,H'5f
    14a6:	5f 20       	jsr	@@32 (0x20)
    14a8:	75 6e       	bxor	#0x6,r6l
    14aa:	73 69       	btst	#0x6,r1l
    14ac:	67 6e       	bst	#0x6,r6l
    14ae:	65 64       	xor.w	r6,r4
    14b0:	20 69       	mov.b	@0x69:8,r0h
    14b2:	6e 74 00 5f 	mov.b	@(0x5f:16,er7),r4h
    14b6:	5f 55       	jsr	@@85 (0x55)
    14b8:	49 4e       	bvs	.+78 (0x1508)
    14ba:	54 5f       	.word	H'54,H'5f
    14bc:	46 41       	.word	H'46,H'41
    14be:	53 54       	divxu.w	r5,er4
    14c0:	31 36       	mov.b	r1h,@0x36:8
    14c2:	5f 4d       	jsr	@@77 (0x4d)
    14c4:	41 58       	brn	.+88 (0x151e)
    14c6:	5f 5f       	jsr	@@95 (0x5f)
    14c8:	20 30       	mov.b	@0x30:8,r0h
    14ca:	78 66       	.word	H'78,H'66
    14cc:	66 66       	and.w	r6,r6
    14ce:	66 55       	and.w	r5,r5
    14d0:	00 5f       	.word	H'0,H'5f
    14d2:	5f 55       	jsr	@@85 (0x55)
    14d4:	49 4e       	bvs	.+78 (0x1524)
    14d6:	54 5f       	.word	H'54,H'5f
    14d8:	4c 45       	.word	H'4c,H'45
    14da:	41 53       	.word	H'41,H'53
    14dc:	54 33       	rts/l	er0-er3
    14de:	32 5f       	mov.b	r2h,@0x5f:8
    14e0:	4d 41       	.word	H'4d,H'41
    14e2:	58 5f       	.word	H'58,H'5f
    14e4:	5f 20       	jsr	@@32 (0x20)
    14e6:	30 78       	mov.b	r0h,@0x78:8
    14e8:	66 66       	and.w	r6,r6
    14ea:	66 66       	and.w	r6,r6
    14ec:	66 66       	and.w	r6,r6
    14ee:	66 66       	and.w	r6,r6
    14f0:	55 4c       	bsr	.+76 (0x153e)
    14f2:	00 5f       	.word	H'0,H'5f
    14f4:	5f 68       	jsr	@@104 (0x68)
    14f6:	61 73       	bnot	r7h,r3h
    14f8:	5f 69       	jsr	@@105 (0x69)
    14fa:	6e 63 6c 75 	mov.b	@(0x6c75:16,er6),r3h
    14fe:	64 65       	or.w	r6,r5
    1500:	28 53       	mov.b	@0x53:8,r0l
    1502:	54 52       	rts/l	er-3-er2
    1504:	29 20       	mov.b	@0x20:8,r1l
    1506:	5f 5f       	jsr	@@95 (0x5f)
    1508:	68 61       	mov.b	@er6,r1h
    150a:	73 5f       	btst	#0x5,r7l
    150c:	69 6e       	mov.w	@er6,e6
    150e:	63 6c       	btst	r6h,r4l
    1510:	75 64       	bxor	#0x6,r4h
    1512:	65 5f       	xor.w	r5,e7
    1514:	5f 28       	jsr	@@40 (0x28)
    1516:	53 54       	divxu.w	r5,er4
    1518:	52 29       	.word	H'52,H'29
    151a:	00 5f       	.word	H'0,H'5f
    151c:	5f 47       	jsr	@@71 (0x47)
    151e:	43 43       	.word	H'43,H'43
    1520:	5f 41       	jsr	@@65 (0x41)
    1522:	54 4f       	.word	H'54,H'4f
    1524:	4d 49       	.word	H'4d,H'49
    1526:	43 5f       	.word	H'43,H'5f
    1528:	42 4f       	.word	H'42,H'4f
    152a:	4f 4c       	ble	.+76 (0x1578)
    152c:	5f 4c       	jsr	@@76 (0x4c)
    152e:	4f 43       	.word	H'4f,H'43
    1530:	4b 5f       	.word	H'4b,H'5f
    1532:	46 52       	bne	.+82 (0x1586)
    1534:	45 45       	.word	H'45,H'45
    1536:	20 31       	mov.b	@0x31:8,r0h
    1538:	00 5f       	.word	H'0,H'5f
    153a:	5f 55       	jsr	@@85 (0x55)
    153c:	53 49       	.word	H'53,H'49
    153e:	4e 47       	.word	H'4e,H'47
    1540:	5f 53       	jsr	@@83 (0x53)
    1542:	4a 4c       	bpl	.+76 (0x1590)
    1544:	4a 5f       	.word	H'4a,H'5f
    1546:	45 58       	bcs	.+88 (0x15a0)
    1548:	43 45       	.word	H'43,H'45
    154a:	50 54       	mulxu.b	r5h,r4
    154c:	49 4f       	.word	H'49,H'4f
    154e:	4e 53       	.word	H'4e,H'53
    1550:	5f 5f       	jsr	@@95 (0x5f)
    1552:	20 31       	mov.b	@0x31:8,r0h
    1554:	00 5f       	.word	H'0,H'5f
    1556:	5f 52       	jsr	@@82 (0x52)
    1558:	45 47       	.word	H'45,H'47
    155a:	49 53       	.word	H'49,H'53
    155c:	54 45       	rts/l	er1-er5
    155e:	52 5f       	.word	H'52,H'5f
    1560:	50 52       	mulxu.b	r5h,r2
    1562:	45 46       	bcs	.+70 (0x15aa)
    1564:	49 58       	bvs	.+88 (0x15be)
    1566:	5f 5f       	jsr	@@95 (0x5f)
    1568:	20 00       	mov.b	@0x0:8,r0h
    156a:	5f 5f       	jsr	@@95 (0x5f)
    156c:	41 54       	brn	.+84 (0x15c2)
    156e:	4f 4d       	.word	H'4f,H'4d
    1570:	49 43       	.word	H'49,H'43
    1572:	5f 43       	jsr	@@67 (0x43)
    1574:	4f 4e       	ble	.+78 (0x15c4)
    1576:	53 55       	divxu.w	r5,er5
    1578:	4d 45       	.word	H'4d,H'45
    157a:	20 31       	mov.b	@0x31:8,r0h
    157c:	00 5f       	.word	H'0,H'5f
    157e:	5f 49       	jsr	@@73 (0x49)
    1580:	4e 54       	bgt	.+84 (0x15d6)
    1582:	5f 46       	jsr	@@70 (0x46)
    1584:	41 53       	.word	H'41,H'53
    1586:	54 31       	rts/l	er-2-er1
    1588:	36 5f       	mov.b	r6h,@0x5f:8
    158a:	4d 41       	.word	H'4d,H'41
    158c:	58 5f       	.word	H'58,H'5f
    158e:	5f 20       	jsr	@@32 (0x20)
    1590:	30 78       	mov.b	r0h,@0x78:8
    1592:	37 66       	mov.b	r7h,@0x66:8
    1594:	66 66       	and.w	r6,r6
    1596:	00 5f       	.word	H'0,H'5f
    1598:	5f 44       	jsr	@@68 (0x44)
    159a:	45 43       	.word	H'45,H'43
    159c:	31 32       	mov.b	r1h,@0x32:8
    159e:	38 5f       	mov.b	r0l,@0x5f:8
    15a0:	53 55       	divxu.w	r5,er5
    15a2:	42 4e       	bhi	.+78 (0x15f2)
    15a4:	4f 52       	ble	.+82 (0x15f8)
    15a6:	4d 41       	.word	H'4d,H'41
    15a8:	4c 5f       	.word	H'4c,H'5f
    15aa:	4d 49       	.word	H'4d,H'49
    15ac:	4e 5f       	.word	H'4e,H'5f
    15ae:	5f 20       	jsr	@@32 (0x20)
    15b0:	30 2e       	mov.b	r0h,@0x2e:8
    15b2:	30 30       	mov.b	r0h,@0x30:8
    15b4:	30 30       	mov.b	r0h,@0x30:8
    15b6:	30 30       	mov.b	r0h,@0x30:8
    15b8:	30 30       	mov.b	r0h,@0x30:8
    15ba:	30 30       	mov.b	r0h,@0x30:8
    15bc:	30 30       	mov.b	r0h,@0x30:8
    15be:	30 30       	mov.b	r0h,@0x30:8
    15c0:	30 30       	mov.b	r0h,@0x30:8
    15c2:	30 30       	mov.b	r0h,@0x30:8
    15c4:	30 30       	mov.b	r0h,@0x30:8
    15c6:	30 30       	mov.b	r0h,@0x30:8
    15c8:	30 30       	mov.b	r0h,@0x30:8
    15ca:	30 30       	mov.b	r0h,@0x30:8
    15cc:	30 30       	mov.b	r0h,@0x30:8
    15ce:	30 30       	mov.b	r0h,@0x30:8
    15d0:	30 30       	mov.b	r0h,@0x30:8
    15d2:	31 45       	mov.b	r1h,@0x45:8
    15d4:	2d 36       	mov.b	@0x36:8,r5l
    15d6:	31 34       	mov.b	r1h,@0x34:8
    15d8:	33 44       	mov.b	r3h,@0x44:8
    15da:	4c 00       	bge	.0 (0x15dc)
    15dc:	5f 5f       	jsr	@@95 (0x5f)
    15de:	53 54       	divxu.w	r5,er4
    15e0:	44 43       	.word	H'44,H'43
    15e2:	5f 55       	jsr	@@85 (0x55)
    15e4:	54 46       	rts/l	er2-er6
    15e6:	5f 33       	jsr	@@51 (0x33)
    15e8:	32 5f       	mov.b	r2h,@0x5f:8
    15ea:	5f 20       	jsr	@@32 (0x20)
    15ec:	31 00       	mov.b	r1h,@0x0:8
    15ee:	5f 5f       	jsr	@@95 (0x5f)
    15f0:	55 49       	bsr	.+73 (0x163b)
    15f2:	4e 54       	bgt	.+84 (0x1648)
    15f4:	31 36       	mov.b	r1h,@0x36:8
    15f6:	5f 54       	jsr	@@84 (0x54)
    15f8:	59 50       	jmp	@er5
    15fa:	45 5f       	.word	H'45,H'5f
    15fc:	5f 20       	jsr	@@32 (0x20)
    15fe:	73 68       	btst	#0x6,r0l
    1600:	6f 72 74 20 	mov.w	@(0x7420:16,er7),r2
    1604:	75 6e       	bxor	#0x6,r6l
    1606:	73 69       	btst	#0x6,r1l
    1608:	67 6e       	bst	#0x6,r6l
    160a:	65 64       	xor.w	r6,r4
    160c:	20 69       	mov.b	@0x69:8,r0h
    160e:	6e 74 00 5f 	mov.b	@(0x5f:16,er7),r4h
    1612:	5f 4f       	jsr	@@79 (0x4f)
    1614:	50 54       	mulxu.b	r5h,r4
    1616:	49 4d       	.word	H'49,H'4d
    1618:	49 5a       	bvs	.+90 (0x1674)
    161a:	45 5f       	.word	H'45,H'5f
    161c:	5f 20       	jsr	@@32 (0x20)
    161e:	31 00       	mov.b	r1h,@0x0:8
    1620:	4b 5a       	bmi	.+90 (0x167c)
    1622:	4c 4f       	.word	H'4c,H'4f
    1624:	41 44       	brn	.+68 (0x166a)
    1626:	20 31       	mov.b	@0x31:8,r0h
    1628:	00 5f       	.word	H'0,H'5f
    162a:	5f 44       	jsr	@@68 (0x44)
    162c:	45 43       	.word	H'45,H'43
    162e:	33 32       	mov.b	r3h,@0x32:8
    1630:	5f 53       	jsr	@@83 (0x53)
    1632:	55 42       	bsr	.+66 (0x1676)
    1634:	4e 4f       	.word	H'4e,H'4f
    1636:	52 4d       	.word	H'52,H'4d
    1638:	41 4c       	brn	.+76 (0x1686)
    163a:	5f 4d       	jsr	@@77 (0x4d)
    163c:	49 4e       	bvs	.+78 (0x168c)
    163e:	5f 5f       	jsr	@@95 (0x5f)
    1640:	20 30       	mov.b	@0x30:8,r0h
    1642:	2e 30       	mov.b	@0x30:8,r6l
    1644:	30 30       	mov.b	r0h,@0x30:8
    1646:	30 30       	mov.b	r0h,@0x30:8
    1648:	31 45       	mov.b	r1h,@0x45:8
    164a:	2d 39       	mov.b	@0x39:8,r5l
    164c:	35 44       	mov.b	r5h,@0x44:8
    164e:	46 00       	bne	.0 (0x1650)
    1650:	5f 5f       	jsr	@@95 (0x5f)
    1652:	55 49       	bsr	.+73 (0x169d)
    1654:	4e 54       	bgt	.+84 (0x16aa)
    1656:	50 54       	mulxu.b	r5h,r4
    1658:	52 5f       	.word	H'52,H'5f
    165a:	4d 41       	.word	H'4d,H'41
    165c:	58 5f       	.word	H'58,H'5f
    165e:	5f 20       	jsr	@@32 (0x20)
    1660:	30 78       	mov.b	r0h,@0x78:8
    1662:	66 66       	and.w	r6,r6
    1664:	66 66       	and.w	r6,r6
    1666:	66 66       	and.w	r6,r6
    1668:	66 66       	and.w	r6,r6
    166a:	55 4c       	bsr	.+76 (0x16b8)
    166c:	00 5f       	.word	H'0,H'5f
    166e:	5f 44       	jsr	@@68 (0x44)
    1670:	42 4c       	bhi	.+76 (0x16be)
    1672:	5f 4d       	jsr	@@77 (0x4d)
    1674:	41 58       	brn	.+88 (0x16ce)
    1676:	5f 31       	jsr	@@49 (0x31)
    1678:	30 5f       	mov.b	r0h,@0x5f:8
    167a:	45 58       	bcs	.+88 (0x16d4)
    167c:	50 5f       	mulxu.b	r5h,e7
    167e:	5f 20       	jsr	@@32 (0x20)
    1680:	33 38       	mov.b	r3h,@0x38:8
    1682:	00 5f       	.word	H'0,H'5f
    1684:	5f 44       	jsr	@@68 (0x44)
    1686:	45 43       	.word	H'45,H'43
    1688:	36 34       	mov.b	r6h,@0x34:8
    168a:	5f 4d       	jsr	@@77 (0x4d)
    168c:	49 4e       	bvs	.+78 (0x16dc)
    168e:	5f 5f       	jsr	@@95 (0x5f)
    1690:	20 31       	mov.b	@0x31:8,r0h
    1692:	45 2d       	.word	H'45,H'2d
    1694:	33 38       	mov.b	r3h,@0x38:8
    1696:	33 44       	mov.b	r3h,@0x44:8
    1698:	44 00       	bcc	.0 (0x169a)
    169a:	5f 5f       	jsr	@@95 (0x5f)
    169c:	43 48       	bls	.+72 (0x16e6)
    169e:	41 52       	brn	.+82 (0x16f2)
    16a0:	5f 42       	jsr	@@66 (0x42)
    16a2:	49 54       	bvs	.+84 (0x16f8)
    16a4:	5f 5f       	jsr	@@95 (0x5f)
    16a6:	20 38       	mov.b	@0x38:8,r0h
    16a8:	00 5f       	.word	H'0,H'5f
    16aa:	5f 53       	jsr	@@83 (0x53)
    16ac:	49 47       	.word	H'49,H'47
    16ae:	5f 41       	jsr	@@65 (0x41)
    16b0:	54 4f       	.word	H'54,H'4f
    16b2:	4d 49       	.word	H'4d,H'49
    16b4:	43 5f       	.word	H'43,H'5f
    16b6:	4d 49       	.word	H'4d,H'49
    16b8:	4e 5f       	.word	H'4e,H'5f
    16ba:	5f 20       	jsr	@@32 (0x20)
    16bc:	28 2d       	mov.b	@0x2d:8,r0l
    16be:	5f 5f       	jsr	@@95 (0x5f)
    16c0:	53 49       	.word	H'53,H'49
    16c2:	47 5f       	.word	H'47,H'5f
    16c4:	41 54       	brn	.+84 (0x171a)
    16c6:	4f 4d       	.word	H'4f,H'4d
    16c8:	49 43       	.word	H'49,H'43
    16ca:	5f 4d       	jsr	@@77 (0x4d)
    16cc:	41 58       	brn	.+88 (0x1726)
    16ce:	5f 5f       	jsr	@@95 (0x5f)
    16d0:	20 2d       	mov.b	@0x2d:8,r0h
    16d2:	20 31       	mov.b	@0x31:8,r0h
    16d4:	29 00       	mov.b	@0x0:8,r1l
    16d6:	5f 5f       	jsr	@@95 (0x5f)
    16d8:	49 4e       	bvs	.+78 (0x1728)
    16da:	54 5f       	.word	H'54,H'5f
    16dc:	46 41       	.word	H'46,H'41
    16de:	53 54       	divxu.w	r5,er4
    16e0:	36 34       	mov.b	r6h,@0x34:8
    16e2:	5f 57       	jsr	@@87 (0x57)
    16e4:	49 44       	bvs	.+68 (0x172a)
    16e6:	54 48       	.word	H'54,H'48
    16e8:	5f 5f       	jsr	@@95 (0x5f)
    16ea:	20 36       	mov.b	@0x36:8,r0h
    16ec:	34 00       	mov.b	r4h,@0x0:8
    16ee:	5f 5f       	jsr	@@95 (0x5f)
    16f0:	44 45       	.word	H'44,H'45
    16f2:	43 33       	.word	H'43,H'33
    16f4:	32 5f       	mov.b	r2h,@0x5f:8
    16f6:	45 50       	bcs	.+80 (0x1748)
    16f8:	53 49       	.word	H'53,H'49
    16fa:	4c 4f       	.word	H'4c,H'4f
    16fc:	4e 5f       	.word	H'4e,H'5f
    16fe:	5f 20       	jsr	@@32 (0x20)
    1700:	31 45       	mov.b	r1h,@0x45:8
    1702:	2d 36       	mov.b	@0x36:8,r5l
    1704:	44 46       	bcc	.+70 (0x174c)
    1706:	00 5f       	.word	H'0,H'5f
    1708:	5f 4c       	jsr	@@76 (0x4c)
    170a:	44 42       	bcc	.+66 (0x174e)
    170c:	4c 5f       	.word	H'4c,H'5f
    170e:	4d 49       	.word	H'4d,H'49
    1710:	4e 5f       	.word	H'4e,H'5f
    1712:	31 30       	mov.b	r1h,@0x30:8
    1714:	5f 45       	jsr	@@69 (0x45)
    1716:	58 50       	.word	H'58,H'50
    1718:	5f 5f       	jsr	@@95 (0x5f)
    171a:	20 28       	mov.b	@0x28:8,r0h
    171c:	2d 33       	mov.b	@0x33:8,r5l
    171e:	37 29       	mov.b	r7h,@0x29:8
    1720:	00 5f       	.word	H'0,H'5f
    1722:	5f 44       	jsr	@@68 (0x44)
    1724:	42 4c       	bhi	.+76 (0x1772)
    1726:	5f 48       	jsr	@@72 (0x48)
    1728:	41 53       	.word	H'41,H'53
    172a:	5f 44       	jsr	@@68 (0x44)
    172c:	45 4e       	bcs	.+78 (0x177c)
    172e:	4f 52       	ble	.+82 (0x1782)
    1730:	4d 5f       	.word	H'4d,H'5f
    1732:	5f 20       	jsr	@@32 (0x20)
    1734:	31 00       	mov.b	r1h,@0x0:8
    1736:	5f 5f       	jsr	@@95 (0x5f)
    1738:	55 49       	bsr	.+73 (0x1783)
    173a:	4e 54       	bgt	.+84 (0x1790)
    173c:	5f 46       	jsr	@@70 (0x46)
    173e:	41 53       	.word	H'41,H'53
    1740:	54 31       	rts/l	er-2-er1
    1742:	36 5f       	mov.b	r6h,@0x5f:8
    1744:	54 59       	.word	H'54,H'59
    1746:	50 45       	mulxu.b	r4h,r5
    1748:	5f 5f       	jsr	@@95 (0x5f)
    174a:	20 75       	mov.b	@0x75:8,r0h
    174c:	6e 73 69 67 	mov.b	@(0x6967:16,er7),r3h
    1750:	6e 65 64 20 	mov.b	@(0x6420:16,er6),r5h
    1754:	69 6e       	mov.w	@er6,e6
    1756:	74 00       	bor	#0x0,r0h
    1758:	5f 5f       	jsr	@@95 (0x5f)
    175a:	47 43       	.word	H'47,H'43
    175c:	43 5f       	.word	H'43,H'5f
    175e:	41 54       	brn	.+84 (0x17b4)
    1760:	4f 4d       	.word	H'4f,H'4d
    1762:	49 43       	.word	H'49,H'43
    1764:	5f 4c       	jsr	@@76 (0x4c)
    1766:	4f 4e       	ble	.+78 (0x17b6)
    1768:	47 5f       	.word	H'47,H'5f
    176a:	4c 4f       	.word	H'4c,H'4f
    176c:	43 4b       	.word	H'43,H'4b
    176e:	5f 46       	jsr	@@70 (0x46)
    1770:	52 45       	mulxu.w	r4,er5
    1772:	45 20       	bcs	.+32 (0x1794)
    1774:	31 00       	mov.b	r1h,@0x0:8
    1776:	5f 5f       	jsr	@@95 (0x5f)
    1778:	49 4e       	bvs	.+78 (0x17c8)
    177a:	54 38       	.word	H'54,H'38
    177c:	5f 4d       	jsr	@@77 (0x4d)
    177e:	41 58       	brn	.+88 (0x17d8)
    1780:	5f 5f       	jsr	@@95 (0x5f)
    1782:	20 30       	mov.b	@0x30:8,r0h
    1784:	78 37       	.word	H'78,H'37
    1786:	66 00       	and.w	r0,r0
    1788:	5f 5f       	jsr	@@95 (0x5f)
    178a:	46 4c       	bne	.+76 (0x17d8)
    178c:	54 5f       	.word	H'54,H'5f
    178e:	4d 49       	.word	H'4d,H'49
    1790:	4e 5f       	.word	H'4e,H'5f
    1792:	31 30       	mov.b	r1h,@0x30:8
    1794:	5f 45       	jsr	@@69 (0x45)
    1796:	58 50       	.word	H'58,H'50
    1798:	5f 5f       	jsr	@@95 (0x5f)
    179a:	20 28       	mov.b	@0x28:8,r0h
    179c:	2d 33       	mov.b	@0x33:8,r5l
    179e:	37 29       	mov.b	r7h,@0x29:8
    17a0:	00 5f       	.word	H'0,H'5f
    17a2:	5f 47       	jsr	@@71 (0x47)
    17a4:	43 43       	.word	H'43,H'43
    17a6:	5f 41       	jsr	@@65 (0x41)
    17a8:	54 4f       	.word	H'54,H'4f
    17aa:	4d 49       	.word	H'4d,H'49
    17ac:	43 5f       	.word	H'43,H'5f
    17ae:	54 45       	rts/l	er1-er5
    17b0:	53 54       	divxu.w	r5,er4
    17b2:	5f 41       	jsr	@@65 (0x41)
    17b4:	4e 44       	bgt	.+68 (0x17fa)
    17b6:	5f 53       	jsr	@@83 (0x53)
    17b8:	45 54       	bcs	.+84 (0x180e)
    17ba:	5f 54       	jsr	@@84 (0x54)
    17bc:	52 55       	mulxu.w	r5,er5
    17be:	45 56       	bcs	.+86 (0x1816)
    17c0:	41 4c       	brn	.+76 (0x180e)
    17c2:	20 31       	mov.b	@0x31:8,r0h
    17c4:	00 5f       	.word	H'0,H'5f
    17c6:	5f 46       	jsr	@@70 (0x46)
    17c8:	49 4e       	bvs	.+78 (0x1818)
    17ca:	49 54       	bvs	.+84 (0x1820)
    17cc:	45 5f       	.word	H'45,H'5f
    17ce:	4d 41       	.word	H'4d,H'41
    17d0:	54 48       	.word	H'54,H'48
    17d2:	5f 4f       	jsr	@@79 (0x4f)
    17d4:	4e 4c       	bgt	.+76 (0x1822)
    17d6:	59 5f       	.word	H'59,H'5f
    17d8:	5f 20       	jsr	@@32 (0x20)
    17da:	30 00       	mov.b	r0h,@0x0:8
    17dc:	5f 5f       	jsr	@@95 (0x5f)
    17de:	4c 4f       	.word	H'4c,H'4f
    17e0:	4e 47       	.word	H'4e,H'47
    17e2:	5f 4d       	jsr	@@77 (0x4d)
    17e4:	41 58       	brn	.+88 (0x183e)
    17e6:	5f 5f       	jsr	@@95 (0x5f)
    17e8:	20 30       	mov.b	@0x30:8,r0h
    17ea:	78 37       	.word	H'78,H'37
    17ec:	66 66       	and.w	r6,r6
    17ee:	66 66       	and.w	r6,r6
    17f0:	66 66       	and.w	r6,r6
    17f2:	66 4c       	and.w	r4,e4
    17f4:	00 5f       	.word	H'0,H'5f
    17f6:	5f 55       	jsr	@@85 (0x55)
    17f8:	49 4e       	bvs	.+78 (0x1848)
    17fa:	54 5f       	.word	H'54,H'5f
    17fc:	46 41       	.word	H'46,H'41
    17fe:	53 54       	divxu.w	r5,er4
    1800:	33 32       	mov.b	r3h,@0x32:8
    1802:	5f 4d       	jsr	@@77 (0x4d)
    1804:	41 58       	brn	.+88 (0x185e)
    1806:	5f 5f       	jsr	@@95 (0x5f)
    1808:	20 30       	mov.b	@0x30:8,r0h
    180a:	78 66       	.word	H'78,H'66
    180c:	66 66       	and.w	r6,r6
    180e:	66 66       	and.w	r6,r6
    1810:	66 66       	and.w	r6,r6
    1812:	66 55       	and.w	r5,r5
    1814:	4c 00       	bge	.0 (0x1816)
    1816:	5f 5f       	jsr	@@95 (0x5f)
    1818:	50 54       	mulxu.b	r5h,r4
    181a:	52 44       	mulxu.w	r4,er4
    181c:	49 46       	bvs	.+70 (0x1864)
    181e:	46 5f       	.word	H'46,H'5f
    1820:	57 49       	.word	H'57,H'49
    1822:	44 54       	bcc	.+84 (0x1878)
    1824:	48 5f       	.word	H'48,H'5f
    1826:	5f 20       	jsr	@@32 (0x20)
    1828:	33 32       	mov.b	r3h,@0x32:8
    182a:	00 5f       	.word	H'0,H'5f
    182c:	5f 4c       	jsr	@@76 (0x4c)
    182e:	44 42       	bcc	.+66 (0x1872)
    1830:	4c 5f       	.word	H'4c,H'5f
    1832:	4d 49       	.word	H'4d,H'49
    1834:	4e 5f       	.word	H'4e,H'5f
    1836:	5f 20       	jsr	@@32 (0x20)
    1838:	31 2e       	mov.b	r1h,@0x2e:8
    183a:	31 37       	mov.b	r1h,@0x37:8
    183c:	35 34       	mov.b	r5h,@0x34:8
    183e:	39 34       	mov.b	r1l,@0x34:8
    1840:	33 35       	mov.b	r3h,@0x35:8
    1842:	65 2d       	xor.w	r2,e5
    1844:	33 38       	mov.b	r3h,@0x38:8
    1846:	4c 00       	bge	.0 (0x1848)
    1848:	5f 5f       	jsr	@@95 (0x5f)
    184a:	4c 44       	bge	.+68 (0x1890)
    184c:	42 4c       	bhi	.+76 (0x189a)
    184e:	5f 45       	jsr	@@69 (0x45)
    1850:	50 53       	mulxu.b	r5h,r3
    1852:	49 4c       	bvs	.+76 (0x18a0)
    1854:	4f 4e       	ble	.+78 (0x18a4)
    1856:	5f 5f       	jsr	@@95 (0x5f)
    1858:	20 31       	mov.b	@0x31:8,r0h
    185a:	2e 31       	mov.b	@0x31:8,r6l
    185c:	39 32       	mov.b	r1l,@0x32:8
    185e:	30 39       	mov.b	r0h,@0x39:8
    1860:	32 39       	mov.b	r2h,@0x39:8
    1862:	30 65       	mov.b	r0h,@0x65:8
    1864:	2d 37       	mov.b	@0x37:8,r5l
    1866:	4c 00       	bge	.0 (0x1868)
    1868:	5f 5f       	jsr	@@95 (0x5f)
    186a:	46 4c       	bne	.+76 (0x18b8)
    186c:	54 33       	rts/l	er0-er3
    186e:	32 5f       	mov.b	r2h,@0x5f:8
    1870:	4d 49       	.word	H'4d,H'49
    1872:	4e 5f       	.word	H'4e,H'5f
    1874:	45 58       	bcs	.+88 (0x18ce)
    1876:	50 5f       	mulxu.b	r5h,e7
    1878:	5f 20       	jsr	@@32 (0x20)
    187a:	28 2d       	mov.b	@0x2d:8,r0l
    187c:	31 32       	mov.b	r1h,@0x32:8
    187e:	35 29       	mov.b	r5h,@0x29:8
    1880:	00 5f       	.word	H'0,H'5f
    1882:	5f 4c       	jsr	@@76 (0x4c)
    1884:	44 42       	bcc	.+66 (0x18c8)
    1886:	4c 5f       	.word	H'4c,H'5f
    1888:	44 45       	.word	H'44,H'45
    188a:	43 49       	.word	H'43,H'49
    188c:	4d 41       	.word	H'4d,H'41
    188e:	4c 5f       	.word	H'4c,H'5f
    1890:	44 49       	.word	H'44,H'49
    1892:	47 5f       	.word	H'47,H'5f
    1894:	5f 20       	jsr	@@32 (0x20)
    1896:	39 00       	mov.b	r1l,@0x0:8
    1898:	5f 5f       	jsr	@@95 (0x5f)
    189a:	43 48       	bls	.+72 (0x18e4)
    189c:	41 52       	brn	.+82 (0x18f0)
    189e:	31 36       	mov.b	r1h,@0x36:8
    18a0:	5f 54       	jsr	@@84 (0x54)
    18a2:	59 50       	jmp	@er5
    18a4:	45 5f       	.word	H'45,H'5f
    18a6:	5f 20       	jsr	@@32 (0x20)
    18a8:	73 68       	btst	#0x6,r0l
    18aa:	6f 72 74 20 	mov.w	@(0x7420:16,er7),r2
    18ae:	75 6e       	bxor	#0x6,r6l
    18b0:	73 69       	btst	#0x6,r1l
    18b2:	67 6e       	bst	#0x6,r6l
    18b4:	65 64       	xor.w	r6,r4
    18b6:	20 69       	mov.b	@0x69:8,r0h
    18b8:	6e 74 00 5f 	mov.b	@(0x5f:16,er7),r4h
    18bc:	5f 55       	jsr	@@85 (0x55)
    18be:	49 4e       	bvs	.+78 (0x190e)
    18c0:	54 5f       	.word	H'54,H'5f
    18c2:	46 41       	.word	H'46,H'41
    18c4:	53 54       	divxu.w	r5,er4
    18c6:	36 34       	mov.b	r6h,@0x34:8
    18c8:	5f 54       	jsr	@@84 (0x54)
    18ca:	59 50       	jmp	@er5
    18cc:	45 5f       	.word	H'45,H'5f
    18ce:	5f 20       	jsr	@@32 (0x20)
    18d0:	6c 6f       	mov.b	@er6+,r7l
    18d2:	6e 67 20 6c 	mov.b	@(0x206c:16,er6),r7h
    18d6:	6f 6e 67 20 	mov.w	@(0x6720:16,er6),e6
    18da:	75 6e       	bxor	#0x6,r6l
    18dc:	73 69       	btst	#0x6,r1l
    18de:	67 6e       	bst	#0x6,r6l
    18e0:	65 64       	xor.w	r6,r4
    18e2:	20 69       	mov.b	@0x69:8,r0h
    18e4:	6e 74 00 5f 	mov.b	@(0x5f:16,er7),r4h
    18e8:	5f 55       	jsr	@@85 (0x55)
    18ea:	49 4e       	bvs	.+78 (0x193a)
    18ec:	54 38       	.word	H'54,H'38
    18ee:	5f 43       	jsr	@@67 (0x43)
    18f0:	28 63       	mov.b	@0x63:8,r0l
    18f2:	29 20       	mov.b	@0x20:8,r1l
    18f4:	63 00       	btst	r0h,r0h
    18f6:	5f 5f       	jsr	@@95 (0x5f)
    18f8:	55 49       	bsr	.+73 (0x1943)
    18fa:	4e 54       	bgt	.+84 (0x1950)
    18fc:	5f 4c       	jsr	@@76 (0x4c)
    18fe:	45 41       	.word	H'45,H'41
    1900:	53 54       	divxu.w	r5,er4
    1902:	38 5f       	mov.b	r0l,@0x5f:8
    1904:	54 59       	.word	H'54,H'59
    1906:	50 45       	mulxu.b	r4h,r5
    1908:	5f 5f       	jsr	@@95 (0x5f)
    190a:	20 75       	mov.b	@0x75:8,r0h
    190c:	6e 73 69 67 	mov.b	@(0x6967:16,er7),r3h
    1910:	6e 65 64 20 	mov.b	@(0x6420:16,er6),r5h
    1914:	63 68       	btst	r6h,r0l
    1916:	61 72       	bnot	r7h,r2h
    1918:	00 5f       	.word	H'0,H'5f
    191a:	5f 49       	jsr	@@73 (0x49)
    191c:	4e 54       	bgt	.+84 (0x1972)
    191e:	5f 4c       	jsr	@@76 (0x4c)
    1920:	45 41       	.word	H'45,H'41
    1922:	53 54       	divxu.w	r5,er4
    1924:	36 34       	mov.b	r6h,@0x34:8
    1926:	5f 57       	jsr	@@87 (0x57)
    1928:	49 44       	bvs	.+68 (0x196e)
    192a:	54 48       	.word	H'54,H'48
    192c:	5f 5f       	jsr	@@95 (0x5f)
    192e:	20 36       	mov.b	@0x36:8,r0h
    1930:	34 00       	mov.b	r4h,@0x0:8
    1932:	5f 5f       	jsr	@@95 (0x5f)
    1934:	49 4e       	bvs	.+78 (0x1984)
    1936:	54 33       	rts/l	er0-er3
    1938:	32 5f       	mov.b	r2h,@0x5f:8
    193a:	4d 41       	.word	H'4d,H'41
    193c:	58 5f       	.word	H'58,H'5f
    193e:	5f 20       	jsr	@@32 (0x20)
    1940:	30 78       	mov.b	r0h,@0x78:8
    1942:	37 66       	mov.b	r7h,@0x66:8
    1944:	66 66       	and.w	r6,r6
    1946:	66 66       	and.w	r6,r6
    1948:	66 66       	and.w	r6,r6
    194a:	4c 00       	bge	.0 (0x194c)
    194c:	5f 5f       	jsr	@@95 (0x5f)
    194e:	4c 44       	bge	.+68 (0x1994)
    1950:	42 4c       	bhi	.+76 (0x199e)
    1952:	5f 48       	jsr	@@72 (0x48)
    1954:	41 53       	.word	H'41,H'53
    1956:	5f 44       	jsr	@@68 (0x44)
    1958:	45 4e       	bcs	.+78 (0x19a8)
    195a:	4f 52       	ble	.+82 (0x19ae)
    195c:	4d 5f       	.word	H'4d,H'5f
    195e:	5f 20       	jsr	@@32 (0x20)
    1960:	31 00       	mov.b	r1h,@0x0:8
    1962:	5f 5f       	jsr	@@95 (0x5f)
    1964:	49 4e       	bvs	.+78 (0x19b4)
    1966:	54 5f       	.word	H'54,H'5f
    1968:	4c 45       	.word	H'4c,H'45
    196a:	41 53       	.word	H'41,H'53
    196c:	54 38       	.word	H'54,H'38
    196e:	5f 4d       	jsr	@@77 (0x4d)
    1970:	41 58       	brn	.+88 (0x19ca)
    1972:	5f 5f       	jsr	@@95 (0x5f)
    1974:	20 30       	mov.b	@0x30:8,r0h
    1976:	78 37       	.word	H'78,H'37
    1978:	66 00       	and.w	r0,r0
    197a:	5f 5f       	jsr	@@95 (0x5f)
    197c:	55 49       	bsr	.+73 (0x19c7)
    197e:	4e 54       	bgt	.+84 (0x19d4)
    1980:	5f 4c       	jsr	@@76 (0x4c)
    1982:	45 41       	.word	H'45,H'41
    1984:	53 54       	divxu.w	r5,er4
    1986:	36 34       	mov.b	r6h,@0x34:8
    1988:	5f 4d       	jsr	@@77 (0x4d)
    198a:	41 58       	brn	.+88 (0x19e4)
    198c:	5f 5f       	jsr	@@95 (0x5f)
    198e:	20 30       	mov.b	@0x30:8,r0h
    1990:	78 66       	.word	H'78,H'66
    1992:	66 66       	and.w	r6,r6
    1994:	66 66       	and.w	r6,r6
    1996:	66 66       	and.w	r6,r6
    1998:	66 66       	and.w	r6,r6
    199a:	66 66       	and.w	r6,r6
    199c:	66 66       	and.w	r6,r6
    199e:	66 66       	and.w	r6,r6
    19a0:	66 55       	and.w	r5,r5
    19a2:	4c 4c       	bge	.+76 (0x19f0)
    19a4:	00 47       	.word	H'0,H'47
    19a6:	4e 55       	.word	H'4e,H'55
    19a8:	20 43       	mov.b	@0x43:8,r0h
    19aa:	31 31       	mov.b	r1h,@0x31:8
    19ac:	20 37       	mov.b	@0x37:8,r0h
    19ae:	2e 33       	mov.b	@0x33:8,r6l
    19b0:	2e 30       	mov.b	@0x30:8,r6l
    19b2:	20 2d       	mov.b	@0x2d:8,r0h
    19b4:	6d 68       	mov.w	@er6+,e0
    19b6:	20 2d       	mov.b	@0x2d:8,r0h
    19b8:	67 33       	bst	#0x3,r3h
    19ba:	20 2d       	mov.b	@0x2d:8,r0h
    19bc:	4f 73       	.word	H'4f,H'73
    19be:	20 2d       	mov.b	@0x2d:8,r0h
    19c0:	66 6e       	and.w	r6,e6
    19c2:	6f 2d 62 75 	mov.w	@(0x6275:16,er2),e5
    19c6:	69 6c       	mov.w	@er6,e4
    19c8:	74 69       	bor	#0x6,r1l
    19ca:	6e 00 5f 5f 	mov.b	@(0x5f5f:16,er0),r0h
    19ce:	44 42       	bcc	.+66 (0x1a12)
    19d0:	4c 5f       	.word	H'4c,H'5f
    19d2:	4d 49       	.word	H'4d,H'49
    19d4:	4e 5f       	.word	H'4e,H'5f
    19d6:	31 30       	mov.b	r1h,@0x30:8
    19d8:	5f 45       	jsr	@@69 (0x45)
    19da:	58 50       	.word	H'58,H'50
    19dc:	5f 5f       	jsr	@@95 (0x5f)
    19de:	20 28       	mov.b	@0x28:8,r0h
    19e0:	2d 33       	mov.b	@0x33:8,r5l
    19e2:	37 29       	mov.b	r7h,@0x29:8
    19e4:	00 5f       	.word	H'0,H'5f
    19e6:	5f 47       	jsr	@@71 (0x47)
    19e8:	4e 55       	.word	H'4e,H'55
    19ea:	43 5f       	.word	H'43,H'5f
    19ec:	53 54       	divxu.w	r5,er4
    19ee:	44 43       	.word	H'44,H'43
    19f0:	5f 49       	jsr	@@73 (0x49)
    19f2:	4e 4c       	bgt	.+76 (0x1a40)
    19f4:	49 4e       	bvs	.+78 (0x1a44)
    19f6:	45 5f       	.word	H'45,H'5f
    19f8:	5f 20       	jsr	@@32 (0x20)
    19fa:	31 00       	mov.b	r1h,@0x0:8
    19fc:	5f 5f       	jsr	@@95 (0x5f)
    19fe:	46 4c       	bne	.+76 (0x1a4c)
    1a00:	54 33       	rts/l	er0-er3
    1a02:	32 5f       	mov.b	r2h,@0x5f:8
    1a04:	45 50       	bcs	.+80 (0x1a56)
    1a06:	53 49       	.word	H'53,H'49
    1a08:	4c 4f       	.word	H'4c,H'4f
    1a0a:	4e 5f       	.word	H'4e,H'5f
    1a0c:	5f 20       	jsr	@@32 (0x20)
    1a0e:	31 2e       	mov.b	r1h,@0x2e:8
    1a10:	31 39       	mov.b	r1h,@0x39:8
    1a12:	32 30       	mov.b	r2h,@0x30:8
    1a14:	39 32       	mov.b	r1l,@0x32:8
    1a16:	39 30       	mov.b	r1l,@0x30:8
    1a18:	65 2d       	xor.w	r2,e5
    1a1a:	37 46       	mov.b	r7h,@0x46:8
    1a1c:	33 32       	mov.b	r3h,@0x32:8
    1a1e:	00 73       	.word	H'0,H'73
    1a20:	65 72       	xor.w	r7,r2
    1a22:	69 61       	mov.w	@er6,r1
    1a24:	6c 5f       	mov.b	@er5+,r7l
    1a26:	69 6e       	mov.w	@er6,e6
    1a28:	69 74       	mov.w	@er7,r4
    1a2a:	00 65       	.word	H'0,H'65
    1a2c:	72 6f       	bclr	#0x6,r7l
    1a2e:	64 61       	or.w	r6,r1
    1a30:	74 61       	bor	#0x6,r1h
    1a32:	00 5f       	.word	H'0,H'5f
    1a34:	53 45       	divxu.w	r4,er5
    1a36:	52 49       	.word	H'52,H'49
    1a38:	41 4c       	brn	.+76 (0x1a86)
    1a3a:	5f 48       	jsr	@@72 (0x48)
    1a3c:	5f 49       	jsr	@@73 (0x49)
    1a3e:	4e 43       	.word	H'4e,H'43
    1a40:	4c 55       	.word	H'4c,H'55
    1a42:	44 45       	.word	H'44,H'45
    1a44:	44 5f       	.word	H'44,H'5f
    1a46:	20 00       	mov.b	@0x0:8,r0h
    1a48:	62 73       	bclr	r7h,r3h
    1a4a:	73 5f       	btst	#0x5,r7l
    1a4c:	73 74       	btst	#0x7,r4h
    1a4e:	61 72       	bnot	r7h,r2h
    1a50:	74 00       	bor	#0x0,r0h
    1a52:	6c 6f       	mov.b	@er6+,r7l
    1a54:	61 64       	bnot	r6h,r4h
    1a56:	62 75       	bclr	r7h,r5h
    1a58:	66 00       	and.w	r0,r0
    1a5a:	5f 45       	jsr	@@69 (0x45)
    1a5c:	4c 46       	bge	.+70 (0x1aa4)
    1a5e:	5f 48       	jsr	@@72 (0x48)
    1a60:	5f 49       	jsr	@@73 (0x49)
    1a62:	4e 43       	.word	H'4e,H'43
    1a64:	4c 55       	.word	H'4c,H'55
    1a66:	44 45       	.word	H'44,H'45
    1a68:	44 5f       	.word	H'44,H'5f
    1a6a:	20 00       	mov.b	@0x0:8,r0h
    1a6c:	67 65       	bst	#0x6,r5h
    1a6e:	74 73       	bor	#0x7,r3h
    1a70:	00 6d       	.word	H'0,H'6d
    1a72:	65 6d       	xor.w	r6,e5
    1a74:	63 70       	btst	r7h,r0h
    1a76:	79 00 49 4e 	mov.w	#0x494e,r0
    1a7a:	54 52       	rts/l	er-3-er2
    1a7c:	5f 44       	jsr	@@68 (0x44)
    1a7e:	49 53       	.word	H'49,H'53
    1a80:	41 42       	brn	.+66 (0x1ac4)
    1a82:	4c 45       	.word	H'4c,H'45
    1a84:	20 61       	mov.b	@0x61:8,r0h
    1a86:	73 6d       	btst	#0x6,r5l
    1a88:	20 76       	mov.b	@0x76:8,r0h
    1a8a:	6f 6c 61 74 	mov.w	@(0x6174:16,er6),e4
    1a8e:	69 6c       	mov.w	@er6,e4
    1a90:	65 20       	xor.w	r2,r0
    1a92:	28 22       	mov.b	@0x22:8,r0l
    1a94:	6f 72 63 2e 	mov.w	@(0x632e:16,er7),r2
    1a98:	62 20       	bclr	r2h,r0h
    1a9a:	23 30       	mov.b	@0x30:8,r3h
    1a9c:	78 63       	.word	H'78,H'63
    1a9e:	30 2c       	mov.b	r0h,@0x2c:8
    1aa0:	63 63       	btst	r6h,r3h
    1aa2:	72 22       	bclr	#0x2,r2h
    1aa4:	29 00       	mov.b	@0x0:8,r1l
    1aa6:	64 61       	or.w	r6,r1
    1aa8:	74 61       	bor	#0x6,r1h
    1aaa:	5f 73       	jsr	@@115 (0x73)
    1aac:	74 61       	bor	#0x6,r1h
    1aae:	72 74       	bclr	#0x7,r4h
    1ab0:	00 65       	.word	H'0,H'65
    1ab2:	6c 66       	mov.b	@er6+,r6h
    1ab4:	5f 6c       	jsr	@@108 (0x6c)
    1ab6:	6f 61 64 00 	mov.w	@(0x6400:16,er6),r1
    1aba:	70 75       	bset	#0x7,r5h
    1abc:	74 78       	bor	#0x7,r0l
    1abe:	76 61       	band	#0x6,r1h
    1ac0:	6c 00       	mov.b	@er0+,r0h
    1ac2:	73 6f       	btst	#0x6,r7l
    1ac4:	66 74       	and.w	r7,r4
    1ac6:	76 65       	band	#0x6,r5h
    1ac8:	63 5f       	btst	r5h,r7l
    1aca:	69 6e       	mov.w	@er6,e6
    1acc:	69 74       	mov.w	@er7,r4
    1ace:	00 78       	.word	H'0,H'78
    1ad0:	6d 6f       	mov.w	@er6+,e7
    1ad2:	64 65       	or.w	r6,r5
    1ad4:	6d 5f       	mov.w	@er5+,e7
    1ad6:	72 65       	bclr	#0x6,r5h
    1ad8:	63 76       	btst	r7h,r6h
    1ada:	00 53       	.word	H'0,H'53
    1adc:	4f 46       	ble	.+70 (0x1b24)
    1ade:	54 56       	rts/l	er1-er6
    1ae0:	45 43       	.word	H'45,H'43
    1ae2:	53 20       	divxu.w	r2,er0
    1ae4:	28 28       	mov.b	@0x28:8,r0l
    1ae6:	73 6f       	btst	#0x6,r7l
    1ae8:	66 74       	and.w	r7,r4
    1aea:	76 65       	band	#0x6,r5h
    1aec:	63 5f       	btst	r5h,r7l
    1aee:	68 61       	mov.b	@er6,r1h
    1af0:	6e 64 6c 65 	mov.b	@(0x6c65:16,er6),r4h
    1af4:	72 5f       	bclr	#0x5,r7l
    1af6:	74 20       	bor	#0x2,r0h
    1af8:	2a 29       	mov.b	@0x29:8,r2l
    1afa:	53 4f       	.word	H'53,H'4f
    1afc:	46 54       	bne	.+84 (0x1b52)
    1afe:	56 45       	rte/l	er1-er5
    1b00:	43 5f       	.word	H'43,H'5f
    1b02:	41 44       	brn	.+68 (0x1b48)
    1b04:	44 52       	bcc	.+82 (0x1b58)
    1b06:	29 00       	mov.b	@0x0:8,r1l
    1b08:	5f 49       	jsr	@@73 (0x49)
    1b0a:	4e 54       	bgt	.+84 (0x1b60)
    1b0c:	45 52       	bcs	.+82 (0x1b60)
    1b0e:	52 55       	mulxu.w	r5,er5
    1b10:	50 54       	mulxu.b	r5h,r4
    1b12:	5f 48       	jsr	@@72 (0x48)
    1b14:	5f 49       	jsr	@@73 (0x49)
    1b16:	4e 43       	.word	H'4e,H'43
    1b18:	4c 55       	.word	H'4c,H'55
    1b1a:	44 45       	.word	H'44,H'45
    1b1c:	44 5f       	.word	H'44,H'5f
    1b1e:	20 00       	mov.b	@0x0:8,r0h
    1b20:	5f 4c       	jsr	@@76 (0x4c)
    1b22:	49 42       	bvs	.+66 (0x1b66)
    1b24:	5f 48       	jsr	@@72 (0x48)
    1b26:	5f 49       	jsr	@@73 (0x49)
    1b28:	4e 43       	.word	H'4e,H'43
    1b2a:	4c 55       	.word	H'4c,H'55
    1b2c:	44 45       	.word	H'44,H'45
    1b2e:	44 5f       	.word	H'44,H'5f
    1b30:	20 00       	mov.b	@0x0:8,r0h
    1b32:	6d 61       	mov.w	@er6+,r1
    1b34:	69 6e       	mov.w	@er6,e6
    1b36:	2e 63       	mov.b	@0x63:8,r6l
    1b38:	00 65       	.word	H'0,H'65
    1b3a:	6e 74 72 79 	mov.b	@(0x7279:16,er7),r4h
    1b3e:	5f 70       	jsr	@@112 (0x70)
    1b40:	6f 69 6e 74 	mov.w	@(0x6e74:16,er6),e1
    1b44:	00 73       	.word	H'0,H'73
    1b46:	6f 66 74 76 	mov.w	@(0x7476:16,er6),r6
    1b4a:	65 63       	xor.w	r6,r3
    1b4c:	00 49       	.word	H'0,H'49
    1b4e:	4e 54       	bgt	.+84 (0x1ba4)
    1b50:	52 5f       	.word	H'52,H'5f
    1b52:	45 4e       	bcs	.+78 (0x1ba2)
    1b54:	41 42       	brn	.+66 (0x1b98)
    1b56:	4c 45       	.word	H'4c,H'45
    1b58:	20 61       	mov.b	@0x61:8,r0h
    1b5a:	73 6d       	btst	#0x6,r5l
    1b5c:	20 76       	mov.b	@0x76:8,r0h
    1b5e:	6f 6c 61 74 	mov.w	@(0x6174:16,er6),e4
    1b62:	69 6c       	mov.w	@er6,e4
    1b64:	65 20       	xor.w	r2,r0
    1b66:	28 22       	mov.b	@0x22:8,r0l
    1b68:	61 6e       	bnot	r6h,r6l
    1b6a:	64 63       	or.w	r6,r3
    1b6c:	2e 62       	mov.b	@0x62:8,r6l
    1b6e:	20 23       	mov.b	@0x23:8,r0h
    1b70:	30 78       	mov.b	r0h,@0x78:8
    1b72:	33 66       	mov.b	r3h,@0x66:8
    1b74:	2c 63       	mov.b	@0x63:8,r4l
    1b76:	63 72       	btst	r7h,r2h
    1b78:	22 29       	mov.b	@0x29:8,r2h
    1b7a:	00 5f       	.word	H'0,H'5f
    1b7c:	58 4d       	.word	H'58,H'4d
    1b7e:	4f 44       	ble	.+68 (0x1bc4)
    1b80:	45 4d       	.word	H'45,H'4d
    1b82:	5f 48       	jsr	@@72 (0x48)
    1b84:	5f 49       	jsr	@@73 (0x49)
    1b86:	4e 43       	.word	H'4e,H'43
    1b88:	4c 55       	.word	H'4c,H'55
    1b8a:	44 45       	.word	H'44,H'45
    1b8c:	44 5f       	.word	H'44,H'5f
    1b8e:	20 00       	mov.b	@0x0:8,r0h
    1b90:	53 4f       	.word	H'53,H'4f
    1b92:	46 54       	bne	.+84 (0x1be8)
    1b94:	56 45       	rte/l	er1-er5
    1b96:	43 5f       	.word	H'43,H'5f
    1b98:	41 44       	brn	.+68 (0x1bde)
    1b9a:	44 52       	bcc	.+82 (0x1bee)
    1b9c:	20 28       	mov.b	@0x28:8,r0h
    1b9e:	26 73       	mov.b	@0x73:8,r6h
    1ba0:	6f 66 74 76 	mov.w	@(0x7476:16,er6),r6
    1ba4:	65 63       	xor.w	r6,r3
    1ba6:	29 00       	mov.b	@0x0:8,r1l
    1ba8:	64 75       	or.w	r7,r5
    1baa:	6d 70       	mov.w	@er7+,r0
    1bac:	00 65       	.word	H'0,H'65
    1bae:	64 61       	or.w	r6,r1
    1bb0:	74 61       	bor	#0x6,r1h
    1bb2:	00 6d       	.word	H'0,H'6d
    1bb4:	65 6d       	xor.w	r6,e5
    1bb6:	73 65       	btst	#0x6,r5h
    1bb8:	74 00       	bor	#0x0,r0h
    1bba:	73 74       	btst	#0x7,r4h
    1bbc:	72 63       	bclr	#0x6,r3h
    1bbe:	6d 70       	mov.w	@er7+,r0
    1bc0:	00 62       	.word	H'0,H'62
    1bc2:	75 66       	bxor	#0x6,r6h
    1bc4:	66 65       	and.w	r6,r5
    1bc6:	72 5f       	bclr	#0x5,r7l
    1bc8:	73 74       	btst	#0x7,r4h
    1bca:	61 72       	bnot	r7h,r2h
    1bcc:	74 00       	bor	#0x0,r0h
    1bce:	70 75       	bset	#0x7,r5h
    1bd0:	74 73       	bor	#0x7,r3h
    1bd2:	00 6d       	.word	H'0,H'6d
    1bd4:	61 69       	bnot	r6h,r1l
    1bd6:	6e 00 65 62 	mov.b	@(0x6562:16,er0),r0h
    1bda:	73 73       	btst	#0x7,r3h
    1bdc:	00 53       	.word	H'0,H'53
    1bde:	4f 46       	ble	.+70 (0x1c26)
    1be0:	54 56       	rts/l	er1-er6
    1be2:	45 43       	.word	H'45,H'43
    1be4:	5f 54       	jsr	@@84 (0x54)
    1be6:	59 50       	jmp	@er5
    1be8:	45 5f       	.word	H'45,H'5f
    1bea:	54 49       	.word	H'54,H'49
    1bec:	4d 49       	.word	H'4d,H'49
    1bee:	4e 54       	bgt	.+84 (0x1c44)
    1bf0:	52 20       	mulxu.w	r2,er0
    1bf2:	33 00       	mov.b	r3h,@0x0:8
    1bf4:	53 4f       	.word	H'53,H'4f
    1bf6:	46 54       	bne	.+84 (0x1c4c)
    1bf8:	56 45       	rte/l	er1-er5
    1bfa:	43 5f       	.word	H'43,H'5f
    1bfc:	54 59       	.word	H'54,H'59
    1bfe:	50 45       	mulxu.b	r4h,r5
    1c00:	5f 53       	jsr	@@83 (0x53)
    1c02:	45 52       	bcs	.+82 (0x1c56)
    1c04:	49 4e       	bvs	.+78 (0x1c54)
    1c06:	54 52       	rts/l	er-3-er2
    1c08:	20 32       	mov.b	@0x32:8,r0h
    1c0a:	00 74       	.word	H'0,H'74
    1c0c:	79 70       	.word	H'79,H'70
    1c0e:	65 00       	xor.w	r0,r0
    1c10:	69 6e       	mov.w	@er6,e6
    1c12:	74 65       	bor	#0x6,r5h
    1c14:	72 72       	bclr	#0x7,r2h
    1c16:	75 70       	bxor	#0x7,r0h
    1c18:	74 2e       	bor	#0x2,r6l
    1c1a:	63 00       	btst	r0h,r0h
    1c1c:	69 6e       	mov.w	@er6,e6
    1c1e:	74 65       	bor	#0x6,r5h
    1c20:	72 72       	bclr	#0x7,r2h
    1c22:	75 70       	bxor	#0x7,r0h
    1c24:	74 00       	bor	#0x0,r0h
    1c26:	73 6f       	btst	#0x6,r7l
    1c28:	66 74       	and.w	r7,r4
    1c2a:	76 65       	band	#0x6,r5h
    1c2c:	63 5f       	btst	r5h,r7l
    1c2e:	73 65       	btst	#0x6,r5h
    1c30:	74 69       	bor	#0x6,r1l
    1c32:	6e 74 72 00 	mov.b	@(0x7200:16,er7),r4h
    1c36:	53 4f       	.word	H'53,H'4f
    1c38:	46 54       	bne	.+84 (0x1c8e)
    1c3a:	56 45       	rte/l	er1-er5
    1c3c:	43 5f       	.word	H'43,H'5f
    1c3e:	54 59       	.word	H'54,H'59
    1c40:	50 45       	mulxu.b	r4h,r5
    1c42:	5f 4e       	jsr	@@78 (0x4e)
    1c44:	55 4d       	bsr	.+77 (0x1c93)
    1c46:	20 34       	mov.b	@0x34:8,r0h
    1c48:	00 68       	.word	H'0,H'68
    1c4a:	61 6e       	bnot	r6h,r6l
    1c4c:	64 6c       	or.w	r6,e4
    1c4e:	65 72       	xor.w	r7,r2
    1c50:	00 73       	.word	H'0,H'73
    1c52:	6f 66 74 76 	mov.w	@(0x7476:16,er6),r6
    1c56:	65 63       	xor.w	r6,r3
    1c58:	5f 74       	jsr	@@116 (0x74)
    1c5a:	79 70       	.word	H'79,H'70
    1c5c:	65 5f       	xor.w	r5,e7
    1c5e:	74 00       	bor	#0x0,r0h
    1c60:	53 4f       	.word	H'53,H'4f
    1c62:	46 54       	bne	.+84 (0x1cb8)
    1c64:	56 45       	rte/l	er1-er5
    1c66:	43 5f       	.word	H'43,H'5f
    1c68:	54 59       	.word	H'54,H'59
    1c6a:	50 45       	mulxu.b	r4h,r5
    1c6c:	5f 53       	jsr	@@83 (0x53)
    1c6e:	4f 46       	ble	.+70 (0x1cb6)
    1c70:	54 45       	rts/l	er1-er5
    1c72:	52 52       	mulxu.w	r5,er2
    1c74:	20 30       	mov.b	@0x30:8,r0h
    1c76:	00 53       	.word	H'0,H'53
    1c78:	4f 46       	ble	.+70 (0x1cc0)
    1c7a:	54 56       	rts/l	er1-er6
    1c7c:	45 43       	.word	H'45,H'43
    1c7e:	5f 54       	jsr	@@84 (0x54)
    1c80:	59 50       	jmp	@er5
    1c82:	45 5f       	.word	H'45,H'5f
    1c84:	53 59       	.word	H'53,H'59
    1c86:	53 43       	divxu.w	r4,er3
    1c88:	41 4c       	brn	.+76 (0x1cd6)
    1c8a:	4c 20       	bge	.+32 (0x1cac)
    1c8c:	31 00       	mov.b	r1h,@0x0:8
    1c8e:	5f 49       	jsr	@@73 (0x49)
    1c90:	4e 54       	bgt	.+84 (0x1ce6)
    1c92:	52 5f       	.word	H'52,H'5f
    1c94:	48 5f       	.word	H'48,H'5f
    1c96:	49 4e       	bvs	.+78 (0x1ce6)
    1c98:	43 4c       	bls	.+76 (0x1ce6)
    1c9a:	55 44       	bsr	.+68 (0x1ce0)
    1c9c:	45 44       	bcs	.+68 (0x1ce2)
    1c9e:	5f 20       	jsr	@@32 (0x20)
    1ca0:	00 73       	.word	H'0,H'73
    1ca2:	6f 66 74 76 	mov.w	@(0x7476:16,er6),r6
    1ca6:	65 63       	xor.w	r6,r3
    1ca8:	5f 68       	jsr	@@104 (0x68)
    1caa:	61 6e       	bnot	r6h,r6l
    1cac:	64 6c       	or.w	r6,e4
    1cae:	65 72       	xor.w	r7,r2
    1cb0:	5f 74       	jsr	@@116 (0x74)
    1cb2:	00 6c       	.word	H'0,H'6c
    1cb4:	69 62       	mov.w	@er6,r2
    1cb6:	2e 63       	mov.b	@0x63:8,r6l
    1cb8:	00 76       	.word	H'0,H'76
    1cba:	61 6c       	bnot	r6h,r4l
    1cbc:	75 65       	bxor	#0x6,r5h
    1cbe:	00 67       	.word	H'0,H'67
    1cc0:	65 74       	xor.w	r7,r4
    1cc2:	63 00       	btst	r0h,r0h
    1cc4:	73 74       	btst	#0x7,r4h
    1cc6:	72 6c       	bclr	#0x6,r4l
    1cc8:	65 6e       	xor.w	r6,e6
    1cca:	00 73       	.word	H'0,H'73
    1ccc:	74 72       	bor	#0x7,r2h
    1cce:	63 70       	btst	r7h,r0h
    1cd0:	79 00 70 75 	mov.w	#0x7075,r0
    1cd4:	74 63       	bor	#0x6,r3h
    1cd6:	00 73       	.word	H'0,H'73
    1cd8:	65 72       	xor.w	r7,r2
    1cda:	69 61       	mov.w	@er6,r1
    1cdc:	6c 5f       	mov.b	@er5+,r7l
    1cde:	72 65       	bclr	#0x6,r5h
    1ce0:	63 76       	btst	r7h,r6h
    1ce2:	5f 62       	jsr	@@98 (0x62)
    1ce4:	79 74       	.word	H'79,H'74
    1ce6:	65 00       	xor.w	r0,r0
    1ce8:	73 74       	btst	#0x7,r4h
    1cea:	72 6e       	bclr	#0x6,r6l
    1cec:	63 6d       	btst	r6h,r5l
    1cee:	70 00       	bset	#0x0,r0h
    1cf0:	73 65       	btst	#0x6,r5h
    1cf2:	72 69       	bclr	#0x6,r1l
    1cf4:	61 6c       	bnot	r6h,r4l
    1cf6:	5f 73       	jsr	@@115 (0x73)
    1cf8:	65 6e       	xor.w	r6,e6
    1cfa:	64 5f       	or.w	r5,e7
    1cfc:	62 79       	bclr	r7h,r1l
    1cfe:	74 65       	bor	#0x6,r5h
    1d00:	00 6d       	.word	H'0,H'6d
    1d02:	65 6d       	xor.w	r6,e5
    1d04:	63 6d       	btst	r6h,r5l
    1d06:	70 00       	bset	#0x0,r0h
    1d08:	63 6f       	btst	r6h,r7l
    1d0a:	6c 75       	mov.b	@er7+,r5h
    1d0c:	6d 6e       	mov.w	@er6+,e6
    1d0e:	00 48       	.word	H'0,H'48
    1d10:	38 5f       	mov.b	r0l,@0x5f:8
    1d12:	33 30       	mov.b	r3h,@0x30:8
    1d14:	36 39       	mov.b	r6h,@0x39:8
    1d16:	46 5f       	.word	H'46,H'5f
    1d18:	53 43       	divxu.w	r4,er3
    1d1a:	49 5f       	.word	H'49,H'5f
    1d1c:	53 53       	divxu.w	r5,er3
    1d1e:	52 5f       	.word	H'52,H'5f
    1d20:	50 45       	mulxu.b	r4h,r5
    1d22:	52 20       	mulxu.w	r2,er0
    1d24:	28 31       	mov.b	@0x31:8,r0l
    1d26:	3c 3c       	mov.b	r4l,@0x3c:8
    1d28:	33 29       	mov.b	r3h,@0x29:8
    1d2a:	00 48       	.word	H'0,H'48
    1d2c:	38 5f       	mov.b	r0l,@0x5f:8
    1d2e:	33 30       	mov.b	r3h,@0x30:8
    1d30:	36 39       	mov.b	r6h,@0x39:8
    1d32:	46 5f       	.word	H'46,H'5f
    1d34:	53 43       	divxu.w	r4,er3
    1d36:	49 5f       	.word	H'49,H'5f
    1d38:	53 53       	divxu.w	r5,er3
    1d3a:	52 5f       	.word	H'52,H'5f
    1d3c:	4f 52       	ble	.+82 (0x1d90)
    1d3e:	45 52       	bcs	.+82 (0x1d92)
    1d40:	20 28       	mov.b	@0x28:8,r0h
    1d42:	31 3c       	mov.b	r1h,@0x3c:8
    1d44:	3c 35       	mov.b	r4l,@0x35:8
    1d46:	29 00       	mov.b	@0x0:8,r1l
    1d48:	48 38       	bvc	.+56 (0x1d82)
    1d4a:	5f 33       	jsr	@@51 (0x33)
    1d4c:	30 36       	mov.b	r0h,@0x36:8
    1d4e:	39 46       	mov.b	r1l,@0x46:8
    1d50:	5f 53       	jsr	@@83 (0x53)
    1d52:	43 49       	.word	H'43,H'49
    1d54:	5f 53       	jsr	@@83 (0x53)
    1d56:	43 52       	bls	.+82 (0x1daa)
    1d58:	5f 43       	jsr	@@67 (0x43)
    1d5a:	4b 45       	.word	H'4b,H'45
    1d5c:	30 20       	mov.b	r0h,@0x20:8
    1d5e:	28 31       	mov.b	@0x31:8,r0l
    1d60:	3c 3c       	mov.b	r4l,@0x3c:8
    1d62:	30 29       	mov.b	r0h,@0x29:8
    1d64:	00 48       	.word	H'0,H'48
    1d66:	38 5f       	mov.b	r0l,@0x5f:8
    1d68:	33 30       	mov.b	r3h,@0x30:8
    1d6a:	36 39       	mov.b	r6h,@0x39:8
    1d6c:	46 5f       	.word	H'46,H'5f
    1d6e:	53 43       	divxu.w	r4,er3
    1d70:	49 5f       	.word	H'49,H'5f
    1d72:	53 43       	divxu.w	r4,er3
    1d74:	52 5f       	.word	H'52,H'5f
    1d76:	4d 50       	blt	.+80 (0x1dc8)
    1d78:	49 45       	.word	H'49,H'45
    1d7a:	20 28       	mov.b	@0x28:8,r0h
    1d7c:	31 3c       	mov.b	r1h,@0x3c:8
    1d7e:	3c 33       	mov.b	r4l,@0x33:8
    1d80:	29 00       	mov.b	@0x0:8,r1l
    1d82:	48 38       	bvc	.+56 (0x1dbc)
    1d84:	5f 33       	jsr	@@51 (0x33)
    1d86:	30 36       	mov.b	r0h,@0x36:8
    1d88:	39 46       	mov.b	r1l,@0x46:8
    1d8a:	5f 53       	jsr	@@83 (0x53)
    1d8c:	43 49       	.word	H'43,H'49
    1d8e:	5f 53       	jsr	@@83 (0x53)
    1d90:	4d 52       	blt	.+82 (0x1de4)
    1d92:	5f 43       	jsr	@@67 (0x43)
    1d94:	41 20       	brn	.+32 (0x1db6)
    1d96:	28 31       	mov.b	@0x31:8,r0l
    1d98:	3c 3c       	mov.b	r4l,@0x3c:8
    1d9a:	37 29       	mov.b	r7h,@0x29:8
    1d9c:	00 48       	.word	H'0,H'48
    1d9e:	38 5f       	mov.b	r0l,@0x5f:8
    1da0:	33 30       	mov.b	r3h,@0x30:8
    1da2:	36 39       	mov.b	r6h,@0x39:8
    1da4:	46 5f       	.word	H'46,H'5f
    1da6:	53 43       	divxu.w	r4,er3
    1da8:	49 5f       	.word	H'49,H'5f
    1daa:	53 43       	divxu.w	r4,er3
    1dac:	52 5f       	.word	H'52,H'5f
    1dae:	54 45       	rts/l	er1-er5
    1db0:	49 45       	.word	H'49,H'45
    1db2:	20 28       	mov.b	@0x28:8,r0h
    1db4:	31 3c       	mov.b	r1h,@0x3c:8
    1db6:	3c 32       	mov.b	r4l,@0x32:8
    1db8:	29 00       	mov.b	@0x0:8,r1l
    1dba:	48 38       	bvc	.+56 (0x1df4)
    1dbc:	5f 33       	jsr	@@51 (0x33)
    1dbe:	30 36       	mov.b	r0h,@0x36:8
    1dc0:	39 46       	mov.b	r1l,@0x46:8
    1dc2:	5f 53       	jsr	@@83 (0x53)
    1dc4:	43 49       	.word	H'43,H'49
    1dc6:	5f 53       	jsr	@@83 (0x53)
    1dc8:	4d 52       	blt	.+82 (0x1e1c)
    1dca:	5f 43       	jsr	@@67 (0x43)
    1dcc:	4b 53       	.word	H'4b,H'53
    1dce:	5f 50       	jsr	@@80 (0x50)
    1dd0:	45 52       	bcs	.+82 (0x1e24)
    1dd2:	31 36       	mov.b	r1h,@0x36:8
    1dd4:	20 28       	mov.b	@0x28:8,r0h
    1dd6:	32 3c       	mov.b	r2h,@0x3c:8
    1dd8:	3c 30       	mov.b	r4l,@0x30:8
    1dda:	29 00       	mov.b	@0x0:8,r1l
    1ddc:	75 69       	bxor	#0x6,r1l
    1dde:	6e 74 38 00 	mov.b	@(0x3800:16,er7),r4h
    1de2:	48 38       	bvc	.+56 (0x1e1c)
    1de4:	5f 33       	jsr	@@51 (0x33)
    1de6:	30 36       	mov.b	r0h,@0x36:8
    1de8:	39 46       	mov.b	r1l,@0x46:8
    1dea:	5f 53       	jsr	@@83 (0x53)
    1dec:	43 49       	.word	H'43,H'49
    1dee:	5f 53       	jsr	@@83 (0x53)
    1df0:	4d 52       	blt	.+82 (0x1e44)
    1df2:	5f 43       	jsr	@@67 (0x43)
    1df4:	48 52       	bvc	.+82 (0x1e48)
    1df6:	20 28       	mov.b	@0x28:8,r0h
    1df8:	31 3c       	mov.b	r1h,@0x3c:8
    1dfa:	3c 36       	mov.b	r4l,@0x36:8
    1dfc:	29 00       	mov.b	@0x0:8,r1l
    1dfe:	48 38       	bvc	.+56 (0x1e38)
    1e00:	5f 33       	jsr	@@51 (0x33)
    1e02:	30 36       	mov.b	r0h,@0x36:8
    1e04:	39 46       	mov.b	r1l,@0x46:8
    1e06:	5f 53       	jsr	@@83 (0x53)
    1e08:	43 49       	.word	H'43,H'49
    1e0a:	5f 53       	jsr	@@83 (0x53)
    1e0c:	53 52       	divxu.w	r5,er2
    1e0e:	5f 4d       	jsr	@@77 (0x4d)
    1e10:	50 42       	mulxu.b	r4h,r2
    1e12:	54 20       	rts/l	er-2-er0
    1e14:	28 31       	mov.b	@0x31:8,r0l
    1e16:	3c 3c       	mov.b	r4l,@0x3c:8
    1e18:	30 29       	mov.b	r0h,@0x29:8
    1e1a:	00 73       	.word	H'0,H'73
    1e1c:	65 72       	xor.w	r7,r2
    1e1e:	69 61       	mov.w	@er6,r1
    1e20:	6c 5f       	mov.b	@er5+,r7l
    1e22:	69 73       	mov.w	@er7,r3
    1e24:	5f 72       	jsr	@@114 (0x72)
    1e26:	65 63       	xor.w	r6,r3
    1e28:	76 5f       	band	#0x5,r7l
    1e2a:	65 6e       	xor.w	r6,e6
    1e2c:	61 62       	bnot	r6h,r2h
    1e2e:	6c 65       	mov.b	@er6+,r5h
    1e30:	00 48       	.word	H'0,H'48
    1e32:	38 5f       	mov.b	r0l,@0x5f:8
    1e34:	33 30       	mov.b	r3h,@0x30:8
    1e36:	36 39       	mov.b	r6h,@0x39:8
    1e38:	46 5f       	.word	H'46,H'5f
    1e3a:	53 43       	divxu.w	r4,er3
    1e3c:	49 5f       	.word	H'49,H'5f
    1e3e:	53 4d       	.word	H'53,H'4d
    1e40:	52 5f       	.word	H'52,H'5f
    1e42:	53 54       	divxu.w	r5,er4
    1e44:	4f 50       	ble	.+80 (0x1e96)
    1e46:	20 28       	mov.b	@0x28:8,r0h
    1e48:	31 3c       	mov.b	r1h,@0x3c:8
    1e4a:	3c 33       	mov.b	r4l,@0x33:8
    1e4c:	29 00       	mov.b	@0x0:8,r1l
    1e4e:	48 38       	bvc	.+56 (0x1e88)
    1e50:	5f 33       	jsr	@@51 (0x33)
    1e52:	30 36       	mov.b	r0h,@0x36:8
    1e54:	39 46       	mov.b	r1l,@0x46:8
    1e56:	5f 53       	jsr	@@83 (0x53)
    1e58:	43 49       	.word	H'43,H'49
    1e5a:	31 20       	mov.b	r1h,@0x20:8
    1e5c:	28 28       	mov.b	@0x28:8,r0l
    1e5e:	76 6f       	band	#0x6,r7l
    1e60:	6c 61       	mov.b	@er6+,r1h
    1e62:	74 69       	bor	#0x6,r1l
    1e64:	6c 65       	mov.b	@er6+,r5h
    1e66:	20 73       	mov.b	@0x73:8,r0h
    1e68:	74 72       	bor	#0x7,r2h
    1e6a:	75 63       	bxor	#0x6,r3h
    1e6c:	74 20       	bor	#0x2,r0h
    1e6e:	68 38       	mov.b	@er3,r0l
    1e70:	5f 33       	jsr	@@51 (0x33)
    1e72:	30 36       	mov.b	r0h,@0x36:8
    1e74:	39 66       	mov.b	r1l,@0x66:8
    1e76:	5f 73       	jsr	@@115 (0x73)
    1e78:	63 69       	btst	r6h,r1l
    1e7a:	20 2a       	mov.b	@0x2a:8,r0h
    1e7c:	29 30       	mov.b	@0x30:8,r1l
    1e7e:	78 66       	.word	H'78,H'66
    1e80:	66 66       	and.w	r6,r6
    1e82:	66 62       	and.w	r6,r2
    1e84:	38 29       	mov.b	r0l,@0x29:8
    1e86:	00 48       	.word	H'0,H'48
    1e88:	38 5f       	mov.b	r0l,@0x5f:8
    1e8a:	33 30       	mov.b	r3h,@0x30:8
    1e8c:	36 39       	mov.b	r6h,@0x39:8
    1e8e:	46 5f       	.word	H'46,H'5f
    1e90:	53 43       	divxu.w	r4,er3
    1e92:	49 5f       	.word	H'49,H'5f
    1e94:	53 53       	divxu.w	r5,er3
    1e96:	52 5f       	.word	H'52,H'5f
    1e98:	52 44       	mulxu.w	r4,er4
    1e9a:	52 46       	mulxu.w	r4,er6
    1e9c:	20 28       	mov.b	@0x28:8,r0h
    1e9e:	31 3c       	mov.b	r1h,@0x3c:8
    1ea0:	3c 36       	mov.b	r4l,@0x36:8
    1ea2:	29 00       	mov.b	@0x0:8,r1l
    1ea4:	73 65       	btst	#0x6,r5h
    1ea6:	72 69       	bclr	#0x6,r1l
    1ea8:	61 6c       	bnot	r6h,r4l
    1eaa:	5f 69       	jsr	@@105 (0x69)
    1eac:	73 5f       	btst	#0x5,r7l
    1eae:	73 65       	btst	#0x6,r5h
    1eb0:	6e 64 5f 65 	mov.b	@(0x5f65:16,er6),r4h
    1eb4:	6e 61 62 6c 	mov.b	@(0x626c:16,er6),r1h
    1eb8:	65 00       	xor.w	r0,r0
    1eba:	48 38       	bvc	.+56 (0x1ef4)
    1ebc:	5f 33       	jsr	@@51 (0x33)
    1ebe:	30 36       	mov.b	r0h,@0x36:8
    1ec0:	39 46       	mov.b	r1l,@0x46:8
    1ec2:	5f 53       	jsr	@@83 (0x53)
    1ec4:	43 49       	.word	H'43,H'49
    1ec6:	32 20       	mov.b	r2h,@0x20:8
    1ec8:	28 28       	mov.b	@0x28:8,r0l
    1eca:	76 6f       	band	#0x6,r7l
    1ecc:	6c 61       	mov.b	@er6+,r1h
    1ece:	74 69       	bor	#0x6,r1l
    1ed0:	6c 65       	mov.b	@er6+,r5h
    1ed2:	20 73       	mov.b	@0x73:8,r0h
    1ed4:	74 72       	bor	#0x7,r2h
    1ed6:	75 63       	bxor	#0x6,r3h
    1ed8:	74 20       	bor	#0x2,r0h
    1eda:	68 38       	mov.b	@er3,r0l
    1edc:	5f 33       	jsr	@@51 (0x33)
    1ede:	30 36       	mov.b	r0h,@0x36:8
    1ee0:	39 66       	mov.b	r1l,@0x66:8
    1ee2:	5f 73       	jsr	@@115 (0x73)
    1ee4:	63 69       	btst	r6h,r1l
    1ee6:	20 2a       	mov.b	@0x2a:8,r0h
    1ee8:	29 30       	mov.b	@0x30:8,r1l
    1eea:	78 66       	.word	H'78,H'66
    1eec:	66 66       	and.w	r6,r6
    1eee:	66 63       	and.w	r6,r3
    1ef0:	30 29       	mov.b	r0h,@0x29:8
    1ef2:	00 48       	.word	H'0,H'48
    1ef4:	38 5f       	mov.b	r0l,@0x5f:8
    1ef6:	33 30       	mov.b	r3h,@0x30:8
    1ef8:	36 39       	mov.b	r6h,@0x39:8
    1efa:	46 5f       	.word	H'46,H'5f
    1efc:	53 43       	divxu.w	r4,er3
    1efe:	49 5f       	.word	H'49,H'5f
    1f00:	53 43       	divxu.w	r4,er3
    1f02:	52 5f       	.word	H'52,H'5f
    1f04:	52 49       	.word	H'52,H'49
    1f06:	45 20       	bcs	.+32 (0x1f28)
    1f08:	28 31       	mov.b	@0x31:8,r0l
    1f0a:	3c 3c       	mov.b	r4l,@0x3c:8
    1f0c:	36 29       	mov.b	r6h,@0x29:8
    1f0e:	00 48       	.word	H'0,H'48
    1f10:	38 5f       	mov.b	r0l,@0x5f:8
    1f12:	33 30       	mov.b	r3h,@0x30:8
    1f14:	36 39       	mov.b	r6h,@0x39:8
    1f16:	46 5f       	.word	H'46,H'5f
    1f18:	53 43       	divxu.w	r4,er3
    1f1a:	49 5f       	.word	H'49,H'5f
    1f1c:	53 43       	divxu.w	r4,er3
    1f1e:	52 5f       	.word	H'52,H'5f
    1f20:	54 45       	rts/l	er1-er5
    1f22:	20 28       	mov.b	@0x28:8,r0h
    1f24:	31 3c       	mov.b	r1h,@0x3c:8
    1f26:	3c 35       	mov.b	r4l,@0x35:8
    1f28:	29 00       	mov.b	@0x0:8,r1l
    1f2a:	48 38       	bvc	.+56 (0x1f64)
    1f2c:	5f 33       	jsr	@@51 (0x33)
    1f2e:	30 36       	mov.b	r0h,@0x36:8
    1f30:	39 46       	mov.b	r1l,@0x46:8
    1f32:	5f 53       	jsr	@@83 (0x53)
    1f34:	43 49       	.word	H'43,H'49
    1f36:	5f 53       	jsr	@@83 (0x53)
    1f38:	53 52       	divxu.w	r5,er2
    1f3a:	5f 4d       	jsr	@@77 (0x4d)
    1f3c:	50 42       	mulxu.b	r4h,r2
    1f3e:	20 28       	mov.b	@0x28:8,r0h
    1f40:	31 3c       	mov.b	r1h,@0x3c:8
    1f42:	3c 31       	mov.b	r4l,@0x31:8
    1f44:	29 00       	mov.b	@0x0:8,r1l
    1f46:	48 38       	bvc	.+56 (0x1f80)
    1f48:	5f 33       	jsr	@@51 (0x33)
    1f4a:	30 36       	mov.b	r0h,@0x36:8
    1f4c:	39 46       	mov.b	r1l,@0x46:8
    1f4e:	5f 53       	jsr	@@83 (0x53)
    1f50:	43 49       	.word	H'43,H'49
    1f52:	30 20       	mov.b	r0h,@0x20:8
    1f54:	28 28       	mov.b	@0x28:8,r0l
    1f56:	76 6f       	band	#0x6,r7l
    1f58:	6c 61       	mov.b	@er6+,r1h
    1f5a:	74 69       	bor	#0x6,r1l
    1f5c:	6c 65       	mov.b	@er6+,r5h
    1f5e:	20 73       	mov.b	@0x73:8,r0h
    1f60:	74 72       	bor	#0x7,r2h
    1f62:	75 63       	bxor	#0x6,r3h
    1f64:	74 20       	bor	#0x2,r0h
    1f66:	68 38       	mov.b	@er3,r0l
    1f68:	5f 33       	jsr	@@51 (0x33)
    1f6a:	30 36       	mov.b	r0h,@0x36:8
    1f6c:	39 66       	mov.b	r1l,@0x66:8
    1f6e:	5f 73       	jsr	@@115 (0x73)
    1f70:	63 69       	btst	r6h,r1l
    1f72:	20 2a       	mov.b	@0x2a:8,r0h
    1f74:	29 30       	mov.b	@0x30:8,r1l
    1f76:	78 66       	.word	H'78,H'66
    1f78:	66 66       	and.w	r6,r6
    1f7a:	66 62       	and.w	r6,r2
    1f7c:	30 29       	mov.b	r0h,@0x29:8
    1f7e:	00 48       	.word	H'0,H'48
    1f80:	38 5f       	mov.b	r0l,@0x5f:8
    1f82:	33 30       	mov.b	r3h,@0x30:8
    1f84:	36 39       	mov.b	r6h,@0x39:8
    1f86:	46 5f       	.word	H'46,H'5f
    1f88:	53 43       	divxu.w	r4,er3
    1f8a:	49 5f       	.word	H'49,H'5f
    1f8c:	53 43       	divxu.w	r4,er3
    1f8e:	52 5f       	.word	H'52,H'5f
    1f90:	52 45       	mulxu.w	r4,er5
    1f92:	20 28       	mov.b	@0x28:8,r0h
    1f94:	31 3c       	mov.b	r1h,@0x3c:8
    1f96:	3c 34       	mov.b	r4l,@0x34:8
    1f98:	29 00       	mov.b	@0x0:8,r1l
    1f9a:	48 38       	bvc	.+56 (0x1fd4)
    1f9c:	5f 33       	jsr	@@51 (0x33)
    1f9e:	30 36       	mov.b	r0h,@0x36:8
    1fa0:	39 46       	mov.b	r1l,@0x46:8
    1fa2:	5f 53       	jsr	@@83 (0x53)
    1fa4:	43 49       	.word	H'43,H'49
    1fa6:	5f 53       	jsr	@@83 (0x53)
    1fa8:	43 52       	bls	.+82 (0x1ffc)
    1faa:	5f 54       	jsr	@@84 (0x54)
    1fac:	49 45       	.word	H'49,H'45
    1fae:	20 28       	mov.b	@0x28:8,r0h
    1fb0:	31 3c       	mov.b	r1h,@0x3c:8
    1fb2:	3c 37       	mov.b	r4l,@0x37:8
    1fb4:	29 00       	mov.b	@0x0:8,r1l
    1fb6:	48 38       	bvc	.+56 (0x1ff0)
    1fb8:	5f 33       	jsr	@@51 (0x33)
    1fba:	30 36       	mov.b	r0h,@0x36:8
    1fbc:	39 46       	mov.b	r1l,@0x46:8
    1fbe:	5f 53       	jsr	@@83 (0x53)
    1fc0:	43 49       	.word	H'43,H'49
    1fc2:	5f 53       	jsr	@@83 (0x53)
    1fc4:	53 52       	divxu.w	r5,er2
    1fc6:	5f 46       	jsr	@@70 (0x46)
    1fc8:	45 52       	bcs	.+82 (0x201c)
    1fca:	45 52       	bcs	.+82 (0x201e)
    1fcc:	53 20       	divxu.w	r2,er0
    1fce:	28 31       	mov.b	@0x31:8,r0l
    1fd0:	3c 3c       	mov.b	r4l,@0x3c:8
    1fd2:	34 29       	mov.b	r4h,@0x29:8
    1fd4:	00 48       	.word	H'0,H'48
    1fd6:	38 5f       	mov.b	r0l,@0x5f:8
    1fd8:	33 30       	mov.b	r3h,@0x30:8
    1fda:	36 39       	mov.b	r6h,@0x39:8
    1fdc:	46 5f       	.word	H'46,H'5f
    1fde:	53 43       	divxu.w	r4,er3
    1fe0:	49 5f       	.word	H'49,H'5f
    1fe2:	53 4d       	.word	H'53,H'4d
    1fe4:	52 5f       	.word	H'52,H'5f
    1fe6:	43 4b       	.word	H'43,H'4b
    1fe8:	53 5f       	.word	H'53,H'5f
    1fea:	50 45       	mulxu.b	r4h,r5
    1fec:	52 31       	mulxu.w	r3,er1
    1fee:	20 28       	mov.b	@0x28:8,r0h
    1ff0:	30 3c       	mov.b	r0h,@0x3c:8
    1ff2:	3c 30       	mov.b	r4l,@0x30:8
    1ff4:	29 00       	mov.b	@0x0:8,r1l
    1ff6:	48 38       	bvc	.+56 (0x2030)
    1ff8:	5f 33       	jsr	@@51 (0x33)
    1ffa:	30 36       	mov.b	r0h,@0x36:8
    1ffc:	39 46       	mov.b	r1l,@0x46:8
    1ffe:	5f 53       	jsr	@@83 (0x53)
    2000:	43 49       	.word	H'43,H'49
    2002:	5f 53       	jsr	@@83 (0x53)
    2004:	43 52       	bls	.+82 (0x2058)
    2006:	5f 43       	jsr	@@67 (0x43)
    2008:	4b 45       	.word	H'4b,H'45
    200a:	31 20       	mov.b	r1h,@0x20:8
    200c:	28 31       	mov.b	@0x31:8,r0l
    200e:	3c 3c       	mov.b	r4l,@0x3c:8
    2010:	31 29       	mov.b	r1h,@0x29:8
    2012:	00 48       	.word	H'0,H'48
    2014:	38 5f       	mov.b	r0l,@0x5f:8
    2016:	33 30       	mov.b	r3h,@0x30:8
    2018:	36 39       	mov.b	r6h,@0x39:8
    201a:	46 5f       	.word	H'46,H'5f
    201c:	53 43       	divxu.w	r4,er3
    201e:	49 5f       	.word	H'49,H'5f
    2020:	53 53       	divxu.w	r5,er3
    2022:	52 5f       	.word	H'52,H'5f
    2024:	54 44       	rts/l	er0-er4
    2026:	52 45       	mulxu.w	r4,er5
    2028:	20 28       	mov.b	@0x28:8,r0h
    202a:	31 3c       	mov.b	r1h,@0x3c:8
    202c:	3c 37       	mov.b	r4l,@0x37:8
    202e:	29 00       	mov.b	@0x0:8,r1l
    2030:	48 38       	bvc	.+56 (0x206a)
    2032:	5f 33       	jsr	@@51 (0x33)
    2034:	30 36       	mov.b	r0h,@0x36:8
    2036:	39 46       	mov.b	r1l,@0x46:8
    2038:	5f 53       	jsr	@@83 (0x53)
    203a:	43 49       	.word	H'43,H'49
    203c:	5f 53       	jsr	@@83 (0x53)
    203e:	53 52       	divxu.w	r5,er2
    2040:	5f 54       	jsr	@@84 (0x54)
    2042:	45 4e       	bcs	.+78 (0x2092)
    2044:	44 20       	bcc	.+32 (0x2066)
    2046:	28 31       	mov.b	@0x31:8,r0l
    2048:	3c 3c       	mov.b	r4l,@0x3c:8
    204a:	32 29       	mov.b	r2h,@0x29:8
    204c:	00 48       	.word	H'0,H'48
    204e:	38 5f       	mov.b	r0l,@0x5f:8
    2050:	33 30       	mov.b	r3h,@0x30:8
    2052:	36 39       	mov.b	r6h,@0x39:8
    2054:	46 5f       	.word	H'46,H'5f
    2056:	53 43       	divxu.w	r4,er3
    2058:	49 5f       	.word	H'49,H'5f
    205a:	53 4d       	.word	H'53,H'4d
    205c:	52 5f       	.word	H'52,H'5f
    205e:	43 4b       	.word	H'43,H'4b
    2060:	53 5f       	.word	H'53,H'5f
    2062:	50 45       	mulxu.b	r4h,r5
    2064:	52 34       	mulxu.w	r3,er4
    2066:	20 28       	mov.b	@0x28:8,r0h
    2068:	31 3c       	mov.b	r1h,@0x3c:8
    206a:	3c 30       	mov.b	r4l,@0x30:8
    206c:	29 00       	mov.b	@0x0:8,r1l
    206e:	72 65       	bclr	#0x6,r5h
    2070:	67 73       	bst	#0x7,r3h
    2072:	00 48       	.word	H'0,H'48
    2074:	38 5f       	mov.b	r0l,@0x5f:8
    2076:	33 30       	mov.b	r3h,@0x30:8
    2078:	36 39       	mov.b	r6h,@0x39:8
    207a:	46 5f       	.word	H'46,H'5f
    207c:	53 43       	divxu.w	r4,er3
    207e:	49 5f       	.word	H'49,H'5f
    2080:	53 4d       	.word	H'53,H'4d
    2082:	52 5f       	.word	H'52,H'5f
    2084:	4d 50       	blt	.+80 (0x20d6)
    2086:	20 28       	mov.b	@0x28:8,r0h
    2088:	31 3c       	mov.b	r1h,@0x3c:8
    208a:	3c 32       	mov.b	r4l,@0x32:8
    208c:	29 00       	mov.b	@0x0:8,r1l
    208e:	73 63       	btst	#0x6,r3h
    2090:	6d 72       	mov.w	@er7+,r2
    2092:	00 48       	.word	H'0,H'48
    2094:	38 5f       	mov.b	r0l,@0x5f:8
    2096:	33 30       	mov.b	r3h,@0x30:8
    2098:	36 39       	mov.b	r6h,@0x39:8
    209a:	46 5f       	.word	H'46,H'5f
    209c:	53 43       	divxu.w	r4,er3
    209e:	49 5f       	.word	H'49,H'5f
    20a0:	53 4d       	.word	H'53,H'4d
    20a2:	52 5f       	.word	H'52,H'5f
    20a4:	4f 45       	.word	H'4f,H'45
    20a6:	20 28       	mov.b	@0x28:8,r0h
    20a8:	31 3c       	mov.b	r1h,@0x3c:8
    20aa:	3c 34       	mov.b	r4l,@0x34:8
    20ac:	29 00       	mov.b	@0x0:8,r1l
    20ae:	73 65       	btst	#0x6,r5h
    20b0:	72 69       	bclr	#0x6,r1l
    20b2:	61 6c       	bnot	r6h,r4l
    20b4:	2e 63       	mov.b	@0x63:8,r6l
    20b6:	00 68       	.word	H'0,H'68
    20b8:	38 5f       	mov.b	r0l,@0x5f:8
    20ba:	33 30       	mov.b	r3h,@0x30:8
    20bc:	36 39       	mov.b	r6h,@0x39:8
    20be:	66 5f       	and.w	r5,e7
    20c0:	73 63       	btst	#0x6,r3h
    20c2:	69 00       	mov.w	@er0,r0
    20c4:	53 45       	divxu.w	r4,er5
    20c6:	52 49       	.word	H'52,H'49
    20c8:	41 4c       	brn	.+76 (0x2116)
    20ca:	5f 53       	jsr	@@83 (0x53)
    20cc:	43 49       	.word	H'43,H'49
    20ce:	5f 4e       	jsr	@@78 (0x4e)
    20d0:	55 4d       	bsr	.+77 (0x211f)
    20d2:	20 33       	mov.b	@0x33:8,r0h
    20d4:	00 48       	.word	H'0,H'48
    20d6:	38 5f       	mov.b	r0l,@0x5f:8
    20d8:	33 30       	mov.b	r3h,@0x30:8
    20da:	36 39       	mov.b	r6h,@0x39:8
    20dc:	46 5f       	.word	H'46,H'5f
    20de:	53 43       	divxu.w	r4,er3
    20e0:	49 5f       	.word	H'49,H'5f
    20e2:	53 4d       	.word	H'53,H'4d
    20e4:	52 5f       	.word	H'52,H'5f
    20e6:	43 4b       	.word	H'43,H'4b
    20e8:	53 5f       	.word	H'53,H'5f
    20ea:	50 45       	mulxu.b	r4h,r5
    20ec:	52 36       	mulxu.w	r3,er6
    20ee:	34 20       	mov.b	r4h,@0x20:8
    20f0:	28 33       	mov.b	@0x33:8,r0l
    20f2:	3c 3c       	mov.b	r4l,@0x3c:8
    20f4:	30 29       	mov.b	r0h,@0x29:8
    20f6:	00 48       	.word	H'0,H'48
    20f8:	38 5f       	mov.b	r0l,@0x5f:8
    20fa:	33 30       	mov.b	r3h,@0x30:8
    20fc:	36 39       	mov.b	r6h,@0x39:8
    20fe:	46 5f       	.word	H'46,H'5f
    2100:	53 43       	divxu.w	r4,er3
    2102:	49 5f       	.word	H'49,H'5f
    2104:	53 4d       	.word	H'53,H'4d
    2106:	52 5f       	.word	H'52,H'5f
    2108:	50 45       	mulxu.b	r4h,r5
    210a:	20 28       	mov.b	@0x28:8,r0h
    210c:	31 3c       	mov.b	r1h,@0x3c:8
    210e:	3c 35       	mov.b	r4l,@0x35:8
    2110:	29 00       	mov.b	@0x0:8,r1l
    2112:	58 4d       	.word	H'58,H'4d
    2114:	4f 44       	ble	.+68 (0x215a)
    2116:	45 4d       	.word	H'45,H'4d
    2118:	5f 53       	jsr	@@83 (0x53)
    211a:	54 58       	.word	H'54,H'58
    211c:	20 30       	mov.b	@0x30:8,r0h
    211e:	78 30       	.word	H'78,H'30
    2120:	32 00       	mov.b	r2h,@0x0:8
    2122:	78 6d       	.word	H'78,H'6d
    2124:	6f 64 65 6d 	mov.w	@(0x656d:16,er6),r4
    2128:	2e 63       	mov.b	@0x63:8,r6l
    212a:	00 78       	.word	H'0,H'78
    212c:	6d 6f       	mov.w	@er6+,e7
    212e:	64 65       	or.w	r6,r5
    2130:	6d 5f       	mov.w	@er5+,e7
    2132:	77 61       	bld	#0x6,r1h
    2134:	69 74       	mov.w	@er7,r4
    2136:	00 72       	.word	H'0,H'72
    2138:	65 63       	xor.w	r6,r3
    213a:	65 69       	xor.w	r6,e1
    213c:	76 69       	band	#0x6,r1l
    213e:	6e 67 00 58 	mov.b	@(0x58:16,er6),r7h
    2142:	4d 4f       	.word	H'4d,H'4f
    2144:	44 45       	.word	H'44,H'45
    2146:	4d 5f       	.word	H'4d,H'5f
    2148:	4e 41       	.word	H'4e,H'41
    214a:	4b 20       	bmi	.+32 (0x216c)
    214c:	30 78       	mov.b	r0h,@0x78:8
    214e:	31 35       	mov.b	r1h,@0x35:8
    2150:	00 58       	.word	H'0,H'58
    2152:	4d 4f       	.word	H'4d,H'4f
    2154:	44 45       	.word	H'44,H'45
    2156:	4d 5f       	.word	H'4d,H'5f
    2158:	53 4f       	.word	H'53,H'4f
    215a:	48 20       	bvc	.+32 (0x217c)
    215c:	30 78       	mov.b	r0h,@0x78:8
    215e:	30 31       	mov.b	r0h,@0x31:8
    2160:	00 58       	.word	H'0,H'58
    2162:	4d 4f       	.word	H'4d,H'4f
    2164:	44 45       	.word	H'44,H'45
    2166:	4d 5f       	.word	H'4d,H'5f
    2168:	41 43       	.word	H'41,H'43
    216a:	4b 20       	bmi	.+32 (0x218c)
    216c:	30 78       	mov.b	r0h,@0x78:8
    216e:	30 36       	mov.b	r0h,@0x36:8
    2170:	00 62       	.word	H'0,H'62
    2172:	6c 6f       	mov.b	@er6+,r7l
    2174:	63 6b       	btst	r6h,r3l
    2176:	5f 6e       	jsr	@@110 (0x6e)
    2178:	75 6d       	bxor	#0x6,r5l
    217a:	62 65       	bclr	r6h,r5h
    217c:	72 00       	bclr	#0x0,r0h
    217e:	78 6d       	.word	H'78,H'6d
    2180:	6f 64 65 6d 	mov.w	@(0x656d:16,er6),r4
    2184:	5f 72       	jsr	@@114 (0x72)
    2186:	65 61       	xor.w	r6,r1
    2188:	64 5f       	or.w	r5,e7
    218a:	62 6c       	bclr	r6h,r4l
    218c:	6f 63 6b 00 	mov.w	@(0x6b00:16,er6),r3
    2190:	58 4d       	.word	H'58,H'4d
    2192:	4f 44       	ble	.+68 (0x21d8)
    2194:	45 4d       	.word	H'45,H'4d
    2196:	5f 43       	jsr	@@67 (0x43)
    2198:	41 4e       	brn	.+78 (0x21e8)
    219a:	20 30       	mov.b	@0x30:8,r0h
    219c:	78 31       	.word	H'78,H'31
    219e:	38 00       	mov.b	r0l,@0x0:8
    21a0:	58 4d       	.word	H'58,H'4d
    21a2:	4f 44       	ble	.+68 (0x21e8)
    21a4:	45 4d       	.word	H'45,H'4d
    21a6:	5f 42       	jsr	@@66 (0x42)
    21a8:	4c 4f       	.word	H'4c,H'4f
    21aa:	43 4b       	.word	H'43,H'4b
    21ac:	5f 53       	jsr	@@83 (0x53)
    21ae:	49 5a       	bvs	.+90 (0x220a)
    21b0:	45 20       	bcs	.+32 (0x21d2)
    21b2:	31 32       	mov.b	r1h,@0x32:8
    21b4:	38 00       	mov.b	r0l,@0x0:8
    21b6:	58 4d       	.word	H'58,H'4d
    21b8:	4f 44       	ble	.+68 (0x21fe)
    21ba:	45 4d       	.word	H'45,H'4d
    21bc:	5f 45       	jsr	@@69 (0x45)
    21be:	4f 46       	ble	.+70 (0x2206)
    21c0:	20 30       	mov.b	@0x30:8,r0h
    21c2:	78 31       	.word	H'78,H'31
    21c4:	61 00       	bnot	r0h,r0h
    21c6:	58 4d       	.word	H'58,H'4d
    21c8:	4f 44       	ble	.+68 (0x220e)
    21ca:	45 4d       	.word	H'45,H'4d
    21cc:	5f 45       	jsr	@@69 (0x45)
    21ce:	4f 54       	ble	.+84 (0x2224)
    21d0:	20 30       	mov.b	@0x30:8,r0h
    21d2:	78 30       	.word	H'78,H'30
    21d4:	34 00       	mov.b	r4h,@0x0:8
    21d6:	62 6c       	bclr	r6h,r4l
    21d8:	6f 63 6b 5f 	mov.w	@(0x6b5f:16,er6),r3
    21dc:	6e 75 6d 00 	mov.b	@(0x6d00:16,er7),r5h
    21e0:	63 68       	btst	r6h,r0l
    21e2:	65 63       	xor.w	r6,r3
    21e4:	6b 5f       	.word	H'6b,H'5f
    21e6:	73 75       	btst	#0x7,r5h
    21e8:	6d 00       	mov.w	@er0+,r0
    21ea:	70 68       	bset	#0x6,r0l
    21ec:	79 73       	.word	H'79,H'73
    21ee:	69 63       	mov.w	@er6,r3
    21f0:	61 6c       	bnot	r6h,r4l
    21f2:	5f 61       	jsr	@@97 (0x61)
    21f4:	64 64       	or.w	r6,r4
    21f6:	72 00       	bclr	#0x0,r0h
    21f8:	73 65       	btst	#0x6,r5h
    21fa:	63 74       	btst	r7h,r4h
    21fc:	69 6f       	mov.w	@er6,e7
    21fe:	6e 5f 68 65 	mov.b	@(0x6865:16,er5),r7l
    2202:	61 64       	bnot	r6h,r4h
    2204:	65 72       	xor.w	r7,r2
    2206:	5f 6f       	jsr	@@111 (0x6f)
    2208:	66 66       	and.w	r6,r6
    220a:	73 65       	btst	#0x6,r5h
    220c:	74 00       	bor	#0x0,r0h
    220e:	65 6c       	xor.w	r6,e4
    2210:	66 5f       	and.w	r5,e7
    2212:	63 68       	btst	r6h,r0l
    2214:	65 63       	xor.w	r6,r3
    2216:	6b 00 61 6c 	mov.w	@0x616c:16,r0
    221a:	69 67       	mov.w	@er6,r7
    221c:	6e 00 73 65 	mov.b	@(0x7365:16,er0),r0h
    2220:	63 74       	btst	r7h,r4h
    2222:	69 6f       	mov.w	@er6,e7
    2224:	6e 5f 6e 61 	mov.b	@(0x6e61:16,er5),r7l
    2228:	6d 65       	mov.w	@er6+,r5
    222a:	5f 69       	jsr	@@105 (0x69)
    222c:	6e 64 65 78 	mov.b	@(0x6578:16,er6),r4h
    2230:	00 6d       	.word	H'0,H'6d
    2232:	65 6d       	xor.w	r6,e5
    2234:	6f 72 79 5f 	mov.w	@(0x795f:16,er7),r2
    2238:	73 69       	btst	#0x6,r1l
    223a:	7a 65 00 61 	and.l	#0x617263,er5
    223e:	72 63 
    2240:	68 00       	mov.b	@er0,r0h
    2242:	65 6c       	xor.w	r6,e4
    2244:	66 5f       	and.w	r5,e7
    2246:	70 72       	bset	#0x7,r2h
    2248:	6f 67 72 61 	mov.w	@(0x7261:16,er6),r7
    224c:	6d 5f       	mov.w	@er5+,e7
    224e:	68 65       	mov.b	@er6,r5h
    2250:	61 64       	bnot	r6h,r4h
    2252:	65 72       	xor.w	r7,r2
    2254:	00 70       	.word	H'0,H'70
    2256:	72 6f       	bclr	#0x6,r7l
    2258:	67 72       	bst	#0x7,r2h
    225a:	61 6d       	bnot	r6h,r5l
    225c:	5f 68       	jsr	@@104 (0x68)
    225e:	65 61       	xor.w	r6,r1
    2260:	64 65       	or.w	r6,r5
    2262:	72 5f       	bclr	#0x5,r7l
    2264:	73 69       	btst	#0x6,r1l
    2266:	7a 65 00 63 	and.l	#0x636c61,er5
    226a:	6c 61 
    226c:	73 73       	btst	#0x7,r3h
    226e:	00 73       	.word	H'0,H'73
    2270:	65 63       	xor.w	r6,r3
    2272:	74 69       	bor	#0x6,r1l
    2274:	6f 6e 5f 68 	mov.w	@(0x5f68:16,er6),e6
    2278:	65 61       	xor.w	r6,r1
    227a:	64 65       	or.w	r6,r5
    227c:	72 5f       	bclr	#0x5,r7l
    227e:	6e 75 6d 00 	mov.b	@(0x6d00:16,er7),r5h
    2282:	65 6c       	xor.w	r6,e4
    2284:	66 5f       	and.w	r5,e7
    2286:	68 65       	mov.b	@er6,r5h
    2288:	61 64       	bnot	r6h,r4h
    228a:	65 72       	xor.w	r7,r2
    228c:	00 61       	.word	H'0,H'61
    228e:	62 69       	bclr	r6h,r1l
    2290:	5f 76       	jsr	@@118 (0x76)
    2292:	65 72       	xor.w	r7,r2
    2294:	73 69       	btst	#0x6,r1l
    2296:	6f 6e 00 73 	mov.w	@(0x73:16,er6),e6
    229a:	65 63       	xor.w	r6,r3
    229c:	74 69       	bor	#0x6,r1l
    229e:	6f 6e 5f 68 	mov.w	@(0x5f68:16,er6),e6
    22a2:	65 61       	xor.w	r6,r1
    22a4:	64 65       	or.w	r6,r5
    22a6:	72 5f       	bclr	#0x5,r7l
    22a8:	73 69       	btst	#0x6,r1l
    22aa:	7a 65 00 66 	and.l	#0x666f72,er5
    22ae:	6f 72 
    22b0:	6d 61       	mov.w	@er6+,r1
    22b2:	74 00       	bor	#0x0,r0h
    22b4:	6d 61       	mov.w	@er6+,r1
    22b6:	67 69       	bst	#0x6,r1l
    22b8:	63 00       	btst	r0h,r0h
    22ba:	70 68       	bset	#0x6,r0l
    22bc:	64 72       	or.w	r7,r2
    22be:	00 65       	.word	H'0,H'65
    22c0:	6c 66       	mov.b	@er6+,r6h
    22c2:	2e 63       	mov.b	@0x63:8,r6l
    22c4:	00 70       	.word	H'0,H'70
    22c6:	72 6f       	bclr	#0x6,r7l
    22c8:	67 72       	bst	#0x7,r2h
    22ca:	61 6d       	bnot	r6h,r5l
    22cc:	5f 68       	jsr	@@104 (0x68)
    22ce:	65 61       	xor.w	r6,r1
    22d0:	64 65       	or.w	r6,r5
    22d2:	72 5f       	bclr	#0x5,r7l
    22d4:	6f 66 66 73 	mov.w	@(0x6673:16,er6),r6
    22d8:	65 74       	xor.w	r7,r4
    22da:	00 70       	.word	H'0,H'70
    22dc:	72 6f       	bclr	#0x6,r7l
    22de:	67 72       	bst	#0x7,r2h
    22e0:	61 6d       	bnot	r6h,r5l
    22e2:	5f 68       	jsr	@@104 (0x68)
    22e4:	65 61       	xor.w	r6,r1
    22e6:	64 65       	or.w	r6,r5
    22e8:	72 5f       	bclr	#0x5,r7l
    22ea:	6e 75 6d 00 	mov.b	@(0x6d00:16,er7),r5h
    22ee:	72 65       	bclr	#0x6,r5h
    22f0:	73 65       	btst	#0x6,r5h
    22f2:	72 76       	bclr	#0x7,r6h
    22f4:	65 00       	xor.w	r0,r0
    22f6:	76 69       	band	#0x6,r1l
    22f8:	72 74       	bclr	#0x7,r4h
    22fa:	75 61       	bxor	#0x6,r1h
    22fc:	6c 5f       	mov.b	@er5+,r7l
    22fe:	61 64       	bnot	r6h,r4h
    2300:	64 72       	or.w	r7,r2
    2302:	00 66       	.word	H'0,H'66
    2304:	6c 61       	mov.b	@er6+,r1h
    2306:	67 73       	bst	#0x7,r3h
    2308:	00 65       	.word	H'0,H'65
    230a:	6c 66       	mov.b	@er6+,r6h
    230c:	5f 6c       	jsr	@@108 (0x6c)
    230e:	6f 61 64 5f 	mov.w	@(0x645f:16,er6),r1
    2312:	70 72       	bset	#0x7,r2h
    2314:	6f 67 72 61 	mov.w	@(0x7261:16,er6),r7
    2318:	6d 00       	mov.w	@er0+,r0
    231a:	66 69       	and.w	r6,e1
    231c:	6c 65       	mov.b	@er6+,r5h
    231e:	5f 73       	jsr	@@115 (0x73)
    2320:	69 7a       	mov.w	@er7,e2
    2322:	65 00       	xor.w	r0,r0

Disassembly of section .comment:

00000000 <.comment>:
   0:	47 43       	.word	H'47,H'43
   2:	43 3a       	bls	.+58 (0x3e)
   4:	20 28       	mov.b	@0x28:8,r0h
   6:	47 4e       	beq	.+78 (0x56)
   8:	55 29       	bsr	.+41 (0x33)
   a:	20 37       	mov.b	@0x37:8,r0h
   c:	2e 33       	mov.b	@0x33:8,r6l
   e:	2e 30       	mov.b	@0x30:8,r6l
	...

Disassembly of section .debug_frame:

00000000 <.Lframe0>:
.Lframe0():
   0:	00 00       	nop	
   2:	00 10       	.word	H'0,H'10
   4:	ff ff       	mov.b	#0xff,r7l
   6:	ff ff       	mov.b	#0xff,r7l
   8:	03 00       	ldc	r0h,ccr
   a:	01 02       	.word	H'1,H'2
   c:	0c 0c       	mov.b	r0h,r4l
   e:	07 04       	ldc	#0x4,ccr
  10:	11 0c       	shlr.b	r4l
  12:	7e 00       	.word	H'7e,H'0
  14:	00 00       	nop	
  16:	00 20       	.word	H'0,H'20
  18:	00 00       	nop	
  1a:	00 00       	nop	
  1c:	00 00       	nop	
  1e:	08 aa       	add.b	r2l,r2l
  20:	00 00       	nop	
  22:	01 d8       	.word	H'1,H'd8
  24:	04 00       	orc	#0x0,ccr
  26:	00 00       	nop	
  28:	04 0e       	orc	#0xe,ccr
  2a:	08 11       	add.b	r1h,r1h
  2c:	06 7c       	andc	#0x7c,ccr
  2e:	04 00       	orc	#0x0,ccr
  30:	00 00       	nop	
  32:	02 0d       	stc	ccr,r5l
  34:	06 00       	andc	#0x0,ccr
	...

00000038 <.Lframe0>:
  38:	00 00       	nop	
  3a:	00 10       	.word	H'0,H'10
  3c:	ff ff       	mov.b	#0xff,r7l
  3e:	ff ff       	mov.b	#0xff,r7l
  40:	03 00       	ldc	r0h,ccr
  42:	01 02       	.word	H'1,H'2
  44:	0c 0c       	mov.b	r0h,r4l
  46:	07 04       	ldc	#0x4,ccr
  48:	11 0c       	shlr.b	r4l
  4a:	7e 00       	.word	H'7e,H'0
  4c:	00 00       	nop	
  4e:	00 20       	.word	H'0,H'20
  50:	00 00       	nop	
  52:	00 38       	.word	H'0,H'38
  54:	00 00       	nop	
  56:	02 5c       	.word	H'2,H'5c
  58:	00 00       	nop	
  5a:	00 70       	.word	H'0,H'70
  5c:	04 00       	orc	#0x0,ccr
  5e:	00 00       	nop	
  60:	04 0e       	orc	#0xe,ccr
  62:	08 11       	add.b	r1h,r1h
  64:	06 7c       	andc	#0x7c,ccr
  66:	04 00       	orc	#0x0,ccr
  68:	00 00       	nop	
  6a:	02 0d       	stc	ccr,r5l
  6c:	06 00       	andc	#0x0,ccr
  6e:	00 00       	nop	
  70:	00 00       	nop	
  72:	00 20       	.word	H'0,H'20
  74:	00 00       	nop	
  76:	00 38       	.word	H'0,H'38
  78:	00 00       	nop	
  7a:	02 cc       	.word	H'2,H'cc
  7c:	00 00       	nop	
  7e:	00 1e       	.word	H'0,H'1e
  80:	04 00       	orc	#0x0,ccr
  82:	00 00       	nop	
  84:	04 0e       	orc	#0xe,ccr
  86:	08 11       	add.b	r1h,r1h
  88:	06 7c       	andc	#0x7c,ccr
  8a:	04 00       	orc	#0x0,ccr
  8c:	00 00       	nop	
  8e:	02 0d       	stc	ccr,r5l
  90:	06 00       	andc	#0x0,ccr
  92:	00 00       	nop	
  94:	00 00       	nop	
  96:	00 20       	.word	H'0,H'20
  98:	00 00       	nop	
  9a:	00 38       	.word	H'0,H'38
  9c:	00 00       	nop	
  9e:	02 ea       	.word	H'2,H'ea
  a0:	00 00       	nop	
  a2:	00 22       	.word	H'0,H'22
  a4:	04 00       	orc	#0x0,ccr
  a6:	00 00       	nop	
  a8:	04 0e       	orc	#0xe,ccr
  aa:	08 11       	add.b	r1h,r1h
  ac:	06 7c       	andc	#0x7c,ccr
  ae:	04 00       	orc	#0x0,ccr
  b0:	00 00       	nop	
  b2:	02 0d       	stc	ccr,r5l
  b4:	06 00       	andc	#0x0,ccr
	...

000000b8 <.Lframe0>:
  b8:	00 00       	nop	
  ba:	00 10       	.word	H'0,H'10
  bc:	ff ff       	mov.b	#0xff,r7l
  be:	ff ff       	mov.b	#0xff,r7l
  c0:	03 00       	ldc	r0h,ccr
  c2:	01 02       	.word	H'1,H'2
  c4:	0c 0c       	mov.b	r0h,r4l
  c6:	07 04       	ldc	#0x4,ccr
  c8:	11 0c       	shlr.b	r4l
  ca:	7e 00       	.word	H'7e,H'0
  cc:	00 00       	nop	
  ce:	00 20       	.word	H'0,H'20
  d0:	00 00       	nop	
  d2:	00 b8       	.word	H'0,H'b8
  d4:	00 00       	nop	
  d6:	03 0c       	ldc	r4l,ccr
  d8:	00 00       	nop	
  da:	00 26       	.word	H'0,H'26
  dc:	04 00       	orc	#0x0,ccr
  de:	00 00       	nop	
  e0:	04 0e       	orc	#0xe,ccr
  e2:	08 11       	add.b	r1h,r1h
  e4:	06 7c       	andc	#0x7c,ccr
  e6:	04 00       	orc	#0x0,ccr
  e8:	00 00       	nop	
  ea:	02 0d       	stc	ccr,r5l
  ec:	06 00       	andc	#0x0,ccr
  ee:	00 00       	nop	
  f0:	00 00       	nop	
  f2:	00 20       	.word	H'0,H'20
  f4:	00 00       	nop	
  f6:	00 b8       	.word	H'0,H'b8
  f8:	00 00       	nop	
  fa:	03 32       	ldmac	er2,macl
  fc:	00 00       	nop	
  fe:	00 36       	.word	H'0,H'36
 100:	04 00       	orc	#0x0,ccr
 102:	00 00       	nop	
 104:	04 0e       	orc	#0xe,ccr
 106:	08 11       	add.b	r1h,r1h
 108:	06 7c       	andc	#0x7c,ccr
 10a:	04 00       	orc	#0x0,ccr
 10c:	00 00       	nop	
 10e:	02 0d       	stc	ccr,r5l
 110:	06 00       	andc	#0x0,ccr
 112:	00 00       	nop	
 114:	00 00       	nop	
 116:	00 20       	.word	H'0,H'20
 118:	00 00       	nop	
 11a:	00 b8       	.word	H'0,H'b8
 11c:	00 00       	nop	
 11e:	03 68       	ldc	er0,vbr
 120:	00 00       	nop	
 122:	00 3c       	.word	H'0,H'3c
 124:	04 00       	orc	#0x0,ccr
 126:	00 00       	nop	
 128:	04 0e       	orc	#0xe,ccr
 12a:	08 11       	add.b	r1h,r1h
 12c:	06 7c       	andc	#0x7c,ccr
 12e:	04 00       	orc	#0x0,ccr
 130:	00 00       	nop	
 132:	02 0d       	stc	ccr,r5l
 134:	06 00       	andc	#0x0,ccr
 136:	00 00       	nop	
 138:	00 00       	nop	
 13a:	00 20       	.word	H'0,H'20
 13c:	00 00       	nop	
 13e:	00 b8       	.word	H'0,H'b8
 140:	00 00       	nop	
 142:	03 a4       	ldmac	er4,mach
 144:	00 00       	nop	
 146:	00 1a       	.word	H'0,H'1a
 148:	04 00       	orc	#0x0,ccr
 14a:	00 00       	nop	
 14c:	04 0e       	orc	#0xe,ccr
 14e:	08 11       	add.b	r1h,r1h
 150:	06 7c       	andc	#0x7c,ccr
 152:	04 00       	orc	#0x0,ccr
 154:	00 00       	nop	
 156:	02 0d       	stc	ccr,r5l
 158:	06 00       	andc	#0x0,ccr
 15a:	00 00       	nop	
 15c:	00 00       	nop	
 15e:	00 20       	.word	H'0,H'20
 160:	00 00       	nop	
 162:	00 b8       	.word	H'0,H'b8
 164:	00 00       	nop	
 166:	03 be       	ldmac	er6,macl
 168:	00 00       	nop	
 16a:	00 1c       	.word	H'0,H'1c
 16c:	04 00       	orc	#0x0,ccr
 16e:	00 00       	nop	
 170:	04 0e       	orc	#0xe,ccr
 172:	08 11       	add.b	r1h,r1h
 174:	06 7c       	andc	#0x7c,ccr
 176:	04 00       	orc	#0x0,ccr
 178:	00 00       	nop	
 17a:	02 0d       	stc	ccr,r5l
 17c:	06 00       	andc	#0x0,ccr
 17e:	00 00       	nop	
 180:	00 00       	nop	
 182:	00 20       	.word	H'0,H'20
 184:	00 00       	nop	
 186:	00 b8       	.word	H'0,H'b8
 188:	00 00       	nop	
 18a:	03 da       	.word	H'3,H'da
 18c:	00 00       	nop	
 18e:	00 38       	.word	H'0,H'38
 190:	04 00       	orc	#0x0,ccr
 192:	00 00       	nop	
 194:	04 0e       	orc	#0xe,ccr
 196:	08 11       	add.b	r1h,r1h
 198:	06 7c       	andc	#0x7c,ccr
 19a:	04 00       	orc	#0x0,ccr
 19c:	00 00       	nop	
 19e:	02 0d       	stc	ccr,r5l
 1a0:	06 00       	andc	#0x0,ccr
 1a2:	00 00       	nop	
 1a4:	00 00       	nop	
 1a6:	00 20       	.word	H'0,H'20
 1a8:	00 00       	nop	
 1aa:	00 b8       	.word	H'0,H'b8
 1ac:	00 00       	nop	
 1ae:	04 12       	orc	#0x12,ccr
 1b0:	00 00       	nop	
 1b2:	00 4e       	.word	H'0,H'4e
 1b4:	04 00       	orc	#0x0,ccr
 1b6:	00 00       	nop	
 1b8:	04 0e       	orc	#0xe,ccr
 1ba:	08 11       	add.b	r1h,r1h
 1bc:	06 7c       	andc	#0x7c,ccr
 1be:	04 00       	orc	#0x0,ccr
 1c0:	00 00       	nop	
 1c2:	02 0d       	stc	ccr,r5l
 1c4:	06 00       	andc	#0x0,ccr
 1c6:	00 00       	nop	
 1c8:	00 00       	nop	
 1ca:	00 20       	.word	H'0,H'20
 1cc:	00 00       	nop	
 1ce:	00 b8       	.word	H'0,H'b8
 1d0:	00 00       	nop	
 1d2:	04 60       	orc	#0x60,ccr
 1d4:	00 00       	nop	
 1d6:	00 2e       	.word	H'0,H'2e
 1d8:	04 00       	orc	#0x0,ccr
 1da:	00 00       	nop	
 1dc:	04 0e       	orc	#0xe,ccr
 1de:	08 11       	add.b	r1h,r1h
 1e0:	06 7c       	andc	#0x7c,ccr
 1e2:	04 00       	orc	#0x0,ccr
 1e4:	00 00       	nop	
 1e6:	02 0d       	stc	ccr,r5l
 1e8:	06 00       	andc	#0x0,ccr
 1ea:	00 00       	nop	
 1ec:	00 00       	nop	
 1ee:	00 20       	.word	H'0,H'20
 1f0:	00 00       	nop	
 1f2:	00 b8       	.word	H'0,H'b8
 1f4:	00 00       	nop	
 1f6:	04 8e       	orc	#0x8e,ccr
 1f8:	00 00       	nop	
 1fa:	00 2c       	.word	H'0,H'2c
 1fc:	04 00       	orc	#0x0,ccr
 1fe:	00 00       	nop	
 200:	04 0e       	orc	#0xe,ccr
 202:	08 11       	add.b	r1h,r1h
 204:	06 7c       	andc	#0x7c,ccr
 206:	04 00       	orc	#0x0,ccr
 208:	00 00       	nop	
 20a:	02 0d       	stc	ccr,r5l
 20c:	06 00       	andc	#0x0,ccr
 20e:	00 00       	nop	
 210:	00 00       	nop	
 212:	00 20       	.word	H'0,H'20
 214:	00 00       	nop	
 216:	00 b8       	.word	H'0,H'b8
 218:	00 00       	nop	
 21a:	04 ba       	orc	#0xba,ccr
 21c:	00 00       	nop	
 21e:	00 24       	.word	H'0,H'24
 220:	04 00       	orc	#0x0,ccr
 222:	00 00       	nop	
 224:	04 0e       	orc	#0xe,ccr
 226:	08 11       	add.b	r1h,r1h
 228:	06 7c       	andc	#0x7c,ccr
 22a:	04 00       	orc	#0x0,ccr
 22c:	00 00       	nop	
 22e:	02 0d       	stc	ccr,r5l
 230:	06 00       	andc	#0x0,ccr
 232:	00 00       	nop	
 234:	00 00       	nop	
 236:	00 20       	.word	H'0,H'20
 238:	00 00       	nop	
 23a:	00 b8       	.word	H'0,H'b8
 23c:	00 00       	nop	
 23e:	04 de       	orc	#0xde,ccr
 240:	00 00       	nop	
 242:	00 46       	.word	H'0,H'46
 244:	04 00       	orc	#0x0,ccr
 246:	00 00       	nop	
 248:	04 0e       	orc	#0xe,ccr
 24a:	08 11       	add.b	r1h,r1h
 24c:	06 7c       	andc	#0x7c,ccr
 24e:	04 00       	orc	#0x0,ccr
 250:	00 00       	nop	
 252:	02 0d       	stc	ccr,r5l
 254:	06 00       	andc	#0x0,ccr
 256:	00 00       	nop	
 258:	00 00       	nop	
 25a:	00 20       	.word	H'0,H'20
softvec_init():
/home/interrupt.c:7
{
 25c:	00 00       	nop	
 25e:	00 b8       	.word	H'0,H'b8
 260:	00 00       	nop	
softvec_setintr():
/home/interrupt.c:17
  SOFTVECS[type] = handler;
 262:	05 24       	xorc	#0x24,ccr
 264:	00 00       	nop	
 266:	00 6e       	.word	H'0,H'6e
 268:	04 00       	orc	#0x0,ccr
 26a:	00 00       	nop	
 26c:	04 0e       	orc	#0xe,ccr
 26e:	08 11       	add.b	r1h,r1h
 270:	06 7c       	andc	#0x7c,ccr
 272:	04 00       	orc	#0x0,ccr
 274:	00 00       	nop	
 276:	02 0d       	stc	ccr,r5l
 278:	06 00       	andc	#0x0,ccr
	...

0000027c <.Lframe0>:
.Lframe0():
 27c:	00 00       	nop	
softvec_setintr():
/home/interrupt.c:17
 27e:	00 10       	.word	H'0,H'10
 280:	ff ff       	mov.b	#0xff,r7l
 282:	ff ff       	mov.b	#0xff,r7l
 284:	03 00       	ldc	r0h,ccr
 286:	01 02       	.word	H'1,H'2
 288:	0c 0c       	mov.b	r0h,r4l
 28a:	07 04       	ldc	#0x4,ccr
 28c:	11 0c       	shlr.b	r4l
 28e:	7e 00       	.word	H'7e,H'0
 290:	00 00       	nop	
 292:	00 20       	.word	H'0,H'20
 294:	00 00       	nop	
 296:	02 7c       	stc	sbr,er4
 298:	00 00       	nop	
 29a:	05 92       	xorc	#0x92,ccr
 29c:	00 00       	nop	
 29e:	00 36       	.word	H'0,H'36
 2a0:	04 00       	orc	#0x0,ccr
 2a2:	00 00       	nop	
 2a4:	04 0e       	orc	#0xe,ccr
 2a6:	08 11       	add.b	r1h,r1h
 2a8:	06 7c       	andc	#0x7c,ccr
 2aa:	04 00       	orc	#0x0,ccr
 2ac:	00 00       	nop	
 2ae:	02 0d       	stc	ccr,r5l
 2b0:	06 00       	andc	#0x0,ccr
 2b2:	00 00       	nop	
 2b4:	00 00       	nop	
 2b6:	00 20       	.word	H'0,H'20
 2b8:	00 00       	nop	
 2ba:	02 7c       	stc	sbr,er4
 2bc:	00 00       	nop	
 2be:	05 c8       	xorc	#0xc8,ccr
 2c0:	00 00       	nop	
 2c2:	00 24       	.word	H'0,H'24
softvec_init():
/home/interrupt.c:12
}
 2c4:	04 00       	orc	#0x0,ccr
 2c6:	00 00       	nop	
 2c8:	04 0e       	orc	#0xe,ccr
 2ca:	08 11       	add.b	r1h,r1h
softvec_setintr():
/home/interrupt.c:16
{
 2cc:	06 7c       	andc	#0x7c,ccr
 2ce:	04 00       	orc	#0x0,ccr
 2d0:	00 00       	nop	
/home/interrupt.c:17
  SOFTVECS[type] = handler;
 2d2:	02 0d       	stc	ccr,r5l
 2d4:	06 00       	andc	#0x0,ccr
 2d6:	00 00       	nop	
 2d8:	00 00       	nop	
 2da:	00 20       	.word	H'0,H'20
 2dc:	00 00       	nop	
 2de:	02 7c       	stc	sbr,er4
 2e0:	00 00       	nop	
/home/interrupt.c:19
}
 2e2:	05 ec       	xorc	#0xec,ccr
 2e4:	00 00       	nop	
 2e6:	00 32       	.word	H'0,H'32
 2e8:	04 00       	orc	#0x0,ccr
interrupt():
/home/interrupt.c:26
{
 2ea:	00 00       	nop	
 2ec:	04 0e       	orc	#0xe,ccr
 2ee:	08 11       	add.b	r1h,r1h
/home/interrupt.c:27
  softvec_handler_t handler = SOFTVECS[type];
 2f0:	06 7c       	andc	#0x7c,ccr
 2f2:	04 00       	orc	#0x0,ccr
 2f4:	00 00       	nop	
 2f6:	02 0d       	stc	ccr,r5l
 2f8:	06 00       	andc	#0x0,ccr
 2fa:	00 00       	nop	
 2fc:	00 00       	nop	
 2fe:	00 20       	.word	H'0,H'20
 300:	00 00       	nop	
/home/interrupt.c:28
  if (handler)
 302:	02 7c       	stc	sbr,er4
/home/interrupt.c:29
    handler(type, sp);
 304:	00 00       	nop	
/home/interrupt.c:30
}
 306:	06 1e       	andc	#0x1e,ccr
 308:	00 00       	nop	
 30a:	00 24       	.word	H'0,H'24
memset():
/home/lib.c:6
{
 30c:	04 00       	orc	#0x0,ccr
 30e:	00 00       	nop	
 310:	04 0e       	orc	#0xe,ccr
 312:	08 11       	add.b	r1h,r1h
 314:	06 7c       	andc	#0x7c,ccr
/home/lib.c:8
  for (p = b; len > 0; len--)
 316:	04 00       	orc	#0x0,ccr
 318:	00 00       	nop	
 31a:	02 0d       	stc	ccr,r5l
/home/lib.c:9 (discriminator 3)
    *(p++) = c;
 31c:	06 00       	andc	#0x0,ccr
 31e:	00 00       	nop	
 320:	00 00       	nop	
 322:	00 20       	.word	H'0,H'20
/home/lib.c:8 (discriminator 1)
  for (p = b; len > 0; len--)
 324:	00 00       	nop	
 326:	02 7c       	stc	sbr,er4
/home/lib.c:11
}
 328:	00 00       	nop	
 32a:	06 42       	andc	#0x42,ccr
 32c:	00 00       	nop	
 32e:	00 32       	.word	H'0,H'32
 330:	04 00       	orc	#0x0,ccr
memcpy():
/home/lib.c:14
{
 332:	00 00       	nop	
 334:	04 0e       	orc	#0xe,ccr
 336:	08 11       	add.b	r1h,r1h
 338:	06 7c       	andc	#0x7c,ccr
 33a:	04 00       	orc	#0x0,ccr
 33c:	00 00       	nop	
 33e:	02 0d       	stc	ccr,r5l
/home/lib.c:17
  for (; len > 0; len--)
 340:	06 00       	andc	#0x0,ccr
	...

00000344 <.Lframe0>:
.Lframe0():
 344:	00 00       	nop	
memcpy():
/home/lib.c:18 (discriminator 2)
    *(d++) = *(s++);
 346:	00 10       	.word	H'0,H'10
 348:	ff ff       	mov.b	#0xff,r7l
 34a:	ff ff       	mov.b	#0xff,r7l
 34c:	03 00       	ldc	r0h,ccr
 34e:	01 02       	.word	H'1,H'2
 350:	0c 0c       	mov.b	r0h,r4l
 352:	07 04       	ldc	#0x4,ccr
 354:	11 0c       	shlr.b	r4l
/home/lib.c:17 (discriminator 1)
  for (; len > 0; len--)
 356:	7e 00       	.word	H'7e,H'0
 358:	00 00       	nop	
/home/lib.c:20
}
 35a:	00 20       	.word	H'0,H'20
 35c:	00 00       	nop	
 35e:	03 44       	.word	H'3,H'44
 360:	00 00       	nop	
 362:	06 74       	andc	#0x74,ccr
 364:	00 00       	nop	
 366:	01 4e       	.word	H'1,H'4e
memcmp():
/home/lib.c:23
{
 368:	04 00       	orc	#0x0,ccr
 36a:	00 00       	nop	
 36c:	04 0e       	orc	#0xe,ccr
 36e:	08 11       	add.b	r1h,r1h
 370:	06 7c       	andc	#0x7c,ccr
 372:	04 00       	orc	#0x0,ccr
/home/lib.c:25
  for (; len > 0; len--) {
 374:	00 00       	nop	
/home/lib.c:26
    if (*p1 != *p2)
 376:	02 0d       	stc	ccr,r5l
 378:	06 00       	andc	#0x0,ccr
	...

0000037c <.Lframe0>:
.Lframe0():
 37c:	00 00       	nop	
memcmp():
/home/lib.c:27
      return (*p1 > *p2) ? 1 : -1;
 37e:	00 10       	.word	H'0,H'10
 380:	ff ff       	mov.b	#0xff,r7l
 382:	ff ff       	mov.b	#0xff,r7l
 384:	03 00       	ldc	r0h,ccr
/home/lib.c:28
    p1++;
 386:	01 02       	.word	H'1,H'2
/home/lib.c:29
    p2++;
 388:	0c 0c       	mov.b	r0h,r4l
 38a:	07 04       	ldc	#0x4,ccr
 38c:	11 0c       	shlr.b	r4l
/home/lib.c:25 (discriminator 1)
  for (; len > 0; len--) {
 38e:	7e 00       	.word	H'7e,H'0
 390:	00 00       	nop	
/home/lib.c:31
  return 0;
 392:	00 20       	.word	H'0,H'20
 394:	00 00       	nop	
/home/lib.c:27
      return (*p1 > *p2) ? 1 : -1;
 396:	03 7c       	ldc	er4,sbr
 398:	00 00       	nop	
/home/lib.c:32
}
 39a:	07 c2       	ldc	#0xc2,ccr
 39c:	00 00       	nop	
 39e:	00 e8       	.word	H'0,H'e8
 3a0:	04 00       	orc	#0x0,ccr
 3a2:	00 00       	nop	
strlen():
/home/lib.c:35
{
 3a4:	04 0e       	orc	#0xe,ccr
 3a6:	08 11       	add.b	r1h,r1h
 3a8:	06 7c       	andc	#0x7c,ccr
/home/lib.c:37
  for (len = 0; *s; s++, len++)
 3aa:	04 00       	orc	#0x0,ccr
 3ac:	00 00       	nop	
/home/lib.c:37 (discriminator 3)
 3ae:	02 0d       	stc	ccr,r5l
 3b0:	06 00       	andc	#0x0,ccr
	...

Disassembly of section .debug_loc:

00000000 <.LLST0>:
.LLST0():
   0:	00 00       	nop	
   2:	0a 4a       	add.w	#0x4,e2
   4:	00 00       	nop	
   6:	0a 52       	add.w	#0x5,r2
   8:	00 01       	.word	H'0,H'1
   a:	50 00       	mulxu.b	r0h,r0
   c:	00 0a       	.word	H'0,H'a
   e:	52 00       	mulxu.w	r0,er0
  10:	00 0a       	.word	H'0,H'a
  12:	56 00       	rte/l	er0
  14:	01 54       	.word	H'1,H'54
  16:	00 00       	nop	
  18:	0a 56       	add.w	#0x5,r6
  1a:	00 00       	nop	
  1c:	0a 5c       	add.w	#0x5,e4
  1e:	00 01       	.word	H'0,H'1
  20:	50 00       	mulxu.b	r0h,r0
  22:	00 0a       	.word	H'0,H'a
  24:	5c 00 00 0a 	bsr	.+10 (0x32)
  28:	78 00       	.word	H'78,H'0
  2a:	01 54       	.word	H'1,H'54
	...

00000034 <.LLST1>:
.LLST1():
  34:	00 00       	nop	
  36:	0a 72       	add.w	#0x7,r2
  38:	00 00       	nop	
  3a:	0a 78       	add.w	#0x7,e0
  3c:	00 01       	.word	H'0,H'1
  3e:	54 00       	rts/l	er0
  40:	00 00       	nop	
  42:	00 00       	nop	
  44:	00 00       	nop	
	...

00000047 <.LLST2>:
.LLST2():
  47:	00 00       	nop	
  49:	09 c2       	add.w	e4,r2
  4b:	00 00       	nop	
  4d:	0a 28       	add.w	#0x2,e0
  4f:	00 01       	.word	H'0,H'1
  51:	55 00       	bsr	.0 (0x53)
  53:	00 00       	nop	
  55:	00 00       	nop	
  57:	00 00       	nop	
	...

0000005a <.LLST3>:
.LLST3():
  5a:	00 00       	nop	
  5c:	09 c2       	add.w	e4,r2
  5e:	00 00       	nop	
  60:	09 d0       	add.w	e5,r0
  62:	00 01       	.word	H'0,H'1
  64:	52 00       	mulxu.w	r0,er0
  66:	00 09       	.word	H'0,H'9
  68:	d0 00       	xor.b	#0x0,r0h
  6a:	00 0a       	.word	H'0,H'a
  6c:	18 00       	sub.b	r0h,r0h
  6e:	02 76       	stc	sbr,er6
  70:	7c 00       	.word	H'7c,H'0
  72:	00 0a       	.word	H'0,H'a
  74:	18 00       	sub.b	r0h,r0h
  76:	00 0a       	.word	H'0,H'a
  78:	1a 00       	dec.b	r0h
  7a:	01 52       	.word	H'1,H'52
  7c:	00 00       	nop	
  7e:	0a 1a       	add.w	#0x1,e2
  80:	00 00       	nop	
  82:	0a 28       	add.w	#0x2,e0
  84:	00 02       	.word	H'0,H'2
  86:	76 7c       	band	#0x7,r4l
	...

00000090 <.LLST4>:
.LLST4():
  90:	00 00       	nop	
  92:	09 d0       	add.w	e5,r0
  94:	00 00       	nop	
  96:	0a 18       	add.w	#0x1,e0
  98:	00 01       	.word	H'0,H'1
  9a:	54 00       	rts/l	er0
  9c:	00 0a       	.word	H'0,H'a
  9e:	1a 00       	dec.b	r0h
  a0:	00 0a       	.word	H'0,H'a
  a2:	28 00       	mov.b	@0x0:8,r0l
  a4:	01 54       	.word	H'1,H'54
	...

000000ae <.LLST4>:
  ae:	00 00       	nop	
  b0:	00 8e       	.word	H'0,H'8e
  b2:	00 00       	nop	
  b4:	00 a9       	.word	H'0,H'a9
  b6:	00 01       	.word	H'0,H'1
  b8:	50 00       	mulxu.b	r0h,r0
  ba:	00 00       	nop	
  bc:	a9 00       	cmp.b	#0x0,r1l
  be:	00 00       	nop	
  c0:	b0 00       	subx	#0x0,r0h
  c2:	04 f3       	orc	#0xf3,ccr
  c4:	01 50       	.word	H'1,H'50
  c6:	9f 00       	addx	#0x0,r7l
  c8:	00 00       	nop	
  ca:	00 00       	nop	
  cc:	00 00       	nop	
	...

000000cf <.LLST5>:
.LLST5():
  cf:	00 00       	nop	
  d1:	00 8e       	.word	H'0,H'8e
  d3:	00 00       	nop	
  d5:	00 a9       	.word	H'0,H'a9
  d7:	00 01       	.word	H'0,H'1
  d9:	51 00       	divxu.b	r0h,r0
  db:	00 00       	nop	
  dd:	a9 00       	cmp.b	#0x0,r1l
  df:	00 00       	nop	
  e1:	b0 00       	subx	#0x0,r0h
  e3:	04 f3       	orc	#0xf3,ccr
  e5:	01 51       	.word	H'1,H'51
  e7:	9f 00       	addx	#0x0,r7l
  e9:	00 00       	nop	
  eb:	00 00       	nop	
  ed:	00 00       	nop	
	...

000000f0 <.LLST6>:
.LLST6():
  f0:	00 00       	nop	
  f2:	00 a6       	.word	H'0,H'a6
  f4:	00 00       	nop	
  f6:	00 a9       	.word	H'0,H'a9
  f8:	00 01       	.word	H'0,H'1
  fa:	52 00       	mulxu.w	r0,er0
  fc:	00 00       	nop	
  fe:	00 00       	nop	
 100:	00 00       	nop	
	...

00000103 <.LLST0>:
.LLST0():
 103:	00 00       	nop	
 105:	00 06       	.word	H'0,H'6
 107:	00 00       	nop	
 109:	00 20       	.word	H'0,H'20
 10b:	00 02       	.word	H'0,H'2
 10d:	30 9f       	mov.b	r0h,@0x9f:8
 10f:	00 00       	nop	
 111:	00 20       	.word	H'0,H'20
 113:	00 00       	nop	
 115:	00 38       	.word	H'0,H'38
 117:	00 02       	.word	H'0,H'2
 119:	31 9f       	mov.b	r1h,@0x9f:8
 11b:	00 00       	nop	
 11d:	00 38       	.word	H'0,H'38
 11f:	00 00       	nop	
 121:	00 50       	.word	H'0,H'50
 123:	00 02       	.word	H'0,H'2
 125:	32 9f       	mov.b	r2h,@0x9f:8
 127:	00 00       	nop	
 129:	00 50       	.word	H'0,H'50
 12b:	00 00       	nop	
 12d:	00 68       	.word	H'0,H'68
 12f:	00 02       	.word	H'0,H'2
 131:	33 9f       	mov.b	r3h,@0x9f:8
 133:	00 00       	nop	
 135:	00 68       	.word	H'0,H'68
 137:	00 00       	nop	
 139:	00 70       	.word	H'0,H'70
 13b:	00 02       	.word	H'0,H'2
 13d:	34 9f       	mov.b	r4h,@0x9f:8
	...

00000147 <.LLST1>:
.LLST1():
 147:	00 00       	nop	
 149:	00 06       	.word	H'0,H'6
 14b:	00 00       	nop	
 14d:	00 68       	.word	H'0,H'68
 14f:	00 02       	.word	H'0,H'2
 151:	30 9f       	mov.b	r0h,@0x9f:8
	...

0000015b <.LLST2>:
.LLST2():
 15b:	00 00       	nop	
 15d:	00 06       	.word	H'0,H'6
 15f:	00 00       	nop	
 161:	00 20       	.word	H'0,H'20
 163:	00 02       	.word	H'0,H'2
 165:	30 9f       	mov.b	r0h,@0x9f:8
 167:	00 00       	nop	
 169:	00 20       	.word	H'0,H'20
 16b:	00 00       	nop	
 16d:	00 38       	.word	H'0,H'38
 16f:	00 02       	.word	H'0,H'2
 171:	31 9f       	mov.b	r1h,@0x9f:8
 173:	00 00       	nop	
 175:	00 38       	.word	H'0,H'38
 177:	00 00       	nop	
 179:	00 50       	.word	H'0,H'50
 17b:	00 02       	.word	H'0,H'2
 17d:	32 9f       	mov.b	r2h,@0x9f:8
 17f:	00 00       	nop	
 181:	00 50       	.word	H'0,H'50
 183:	00 00       	nop	
 185:	00 68       	.word	H'0,H'68
 187:	00 02       	.word	H'0,H'2
 189:	33 9f       	mov.b	r3h,@0x9f:8
	...

00000193 <.LLST3>:
.LLST3():
 193:	00 00       	nop	
 195:	00 70       	.word	H'0,H'70
 197:	00 00       	nop	
 199:	00 7c       	.word	H'0,H'7c
 19b:	00 01       	.word	H'0,H'1
 19d:	50 00       	mulxu.b	r0h,r0
 19f:	00 00       	nop	
 1a1:	7c 00       	.word	H'7c,H'0
 1a3:	00 00       	nop	
 1a5:	8e 00       	add.b	#0x0,r6l
 1a7:	04 f3       	orc	#0xf3,ccr
 1a9:	01 50       	.word	H'1,H'50
 1ab:	9f 00       	addx	#0x0,r7l
 1ad:	00 00       	nop	
 1af:	00 00       	nop	
 1b1:	00 00       	nop	
	...

000001b4 <.LLST24>:
.LLST24():
 1b4:	00 00       	nop	
 1b6:	02 18       	stc	exr,r0l
 1b8:	00 00       	nop	
 1ba:	02 48       	.word	H'2,H'48
 1bc:	00 01       	.word	H'0,H'1
 1be:	50 00       	mulxu.b	r0h,r0
 1c0:	00 02       	.word	H'0,H'2
 1c2:	5c 00 00 02 	bsr	.+2 (0x1c8)
 1c6:	68 00       	mov.b	@er0,r0h
 1c8:	01 50       	.word	H'1,H'50
 1ca:	00 00       	nop	
 1cc:	02 68       	stc	vbr,er0
 1ce:	00 00       	nop	
 1d0:	02 86       	.word	H'2,H'86
 1d2:	00 02       	.word	H'0,H'2
 1d4:	30 9f       	mov.b	r0h,@0x9f:8
	...

000001de <.LLST25>:
.LLST25():
 1de:	00 00       	nop	
 1e0:	02 18       	stc	exr,r0l
 1e2:	00 00       	nop	
 1e4:	02 3a       	stmac	macl,er2
 1e6:	00 01       	.word	H'0,H'1
 1e8:	51 00       	divxu.b	r0h,r0
 1ea:	00 02       	.word	H'0,H'2
 1ec:	3a 00       	mov.b	r2l,@0x0:8
 1ee:	00 02       	.word	H'0,H'2
 1f0:	48 00       	bvc	.0 (0x1f2)
 1f2:	04 f3       	orc	#0xf3,ccr
 1f4:	01 51       	.word	H'1,H'51
 1f6:	9f 00       	addx	#0x0,r7l
 1f8:	00 02       	.word	H'0,H'2
 1fa:	48 00       	bvc	.0 (0x1fc)
 1fc:	00 02       	.word	H'0,H'2
 1fe:	73 00       	btst	#0x0,r0h
 200:	01 51       	.word	H'1,H'51
	...

0000020a <.LLST26>:
.LLST26():
 20a:	00 00       	nop	
 20c:	02 28       	stmac	mach,er0
 20e:	00 00       	nop	
 210:	02 48       	.word	H'2,H'48
 212:	00 03       	.word	H'0,H'3
 214:	76 7a       	band	#0x7,r2l
 216:	9f 00       	addx	#0x0,r7l
 218:	00 02       	.word	H'0,H'2
 21a:	48 00       	bvc	.0 (0x21c)
 21c:	00 02       	.word	H'0,H'2
 21e:	64 00       	or.w	r0,r0
 220:	03 72       	ldc	er2,sbr
 222:	7f 9f       	.word	H'7f,H'9f
 224:	00 00       	nop	
 226:	02 64       	stc	vbr,er4
 228:	00 00       	nop	
 22a:	02 73       	stc	sbr,er3
 22c:	00 01       	.word	H'0,H'1
 22e:	52 00       	mulxu.w	r0,er0
 230:	00 00       	nop	
 232:	00 00       	nop	
 234:	00 00       	nop	
	...

00000237 <.LLST21>:
.LLST21():
 237:	00 00       	nop	
 239:	01 d2       	.word	H'1,H'd2
 23b:	00 00       	nop	
 23d:	01 e6       	.word	H'1,H'e6
 23f:	00 01       	.word	H'0,H'1
 241:	50 00       	mulxu.b	r0h,r0
 243:	00 01       	.word	H'0,H'1
 245:	e6 00       	and.b	#0x0,r6h
 247:	00 02       	.word	H'0,H'2
 249:	0e 00       	addx	r0h,r0h
 24b:	01 55       	.word	H'1,H'55
 24d:	00 00       	nop	
 24f:	02 0e       	stc	ccr,r6l
 251:	00 00       	nop	
 253:	02 18       	stc	exr,r0l
 255:	00 04       	.word	H'0,H'4
 257:	f3 01       	mov.b	#0x1,r3h
 259:	50 9f       	mulxu.b	r1l,e7
	...

00000263 <.LLST22>:
.LLST22():
 263:	00 00       	nop	
softvec_setintr():
/home/interrupt.c:17
  SOFTVECS[type] = handler;
 265:	01 e4       	.word	H'1,H'e4
 267:	00 00       	nop	
 269:	01 e6       	.word	H'1,H'e6
 26b:	00 02       	.word	H'0,H'2
 26d:	30 9f       	mov.b	r0h,@0x9f:8
 26f:	00 00       	nop	
 271:	01 ea       	.word	H'1,H'ea
 273:	00 00       	nop	
 275:	01 f3       	.word	H'1,H'f3
 277:	00 01       	.word	H'0,H'1
 279:	52 00       	mulxu.w	r0,er0
 27b:	00 01       	.word	H'0,H'1
 27d:	f3 00       	mov.b	#0x0,r3h
 27f:	00 02       	.word	H'0,H'2
 281:	00 00       	nop	
 283:	06 74       	andc	#0x74,ccr
 285:	00 75       	.word	H'0,H'75
 287:	00 1c       	.word	H'0,H'1c
 289:	9f 00       	addx	#0x0,r7l
 28b:	00 02       	.word	H'0,H'2
 28d:	00 00       	nop	
 28f:	00 02       	.word	H'0,H'2
 291:	02 00       	stc	ccr,r0h
 293:	08 74       	add.b	r7h,r4h
 295:	00 75       	.word	H'0,H'75
 297:	00 1c       	.word	H'0,H'1c
 299:	23 01       	mov.b	@0x1:8,r3h
 29b:	9f 00       	addx	#0x0,r7l
 29d:	00 02       	.word	H'0,H'2
 29f:	02 00       	stc	ccr,r0h
 2a1:	00 02       	.word	H'0,H'2
 2a3:	04 00       	orc	#0x0,ccr
 2a5:	08 74       	add.b	r7h,r4h
 2a7:	00 75       	.word	H'0,H'75
 2a9:	00 1c       	.word	H'0,H'1c
 2ab:	23 02       	mov.b	@0x2:8,r3h
 2ad:	9f 00       	addx	#0x0,r7l
 2af:	00 02       	.word	H'0,H'2
 2b1:	04 00       	orc	#0x0,ccr
 2b3:	00 02       	.word	H'0,H'2
 2b5:	0e 00       	addx	r0h,r0h
 2b7:	08 74       	add.b	r7h,r4h
 2b9:	00 75       	.word	H'0,H'75
 2bb:	00 1c       	.word	H'0,H'1c
 2bd:	23 01       	mov.b	@0x1:8,r3h
 2bf:	9f 00       	addx	#0x0,r7l
 2c1:	00 02       	.word	H'0,H'2
 2c3:	0e 00       	addx	r0h,r0h
softvec_init():
/home/interrupt.c:12
}
 2c5:	00 02       	.word	H'0,H'2
 2c7:	12 00       	rotxl.b	r0h
 2c9:	09 74       	add.w	r7,r4
 2cb:	00 f3       	.word	H'0,H'f3
softvec_setintr():
/home/interrupt.c:16
{
 2cd:	01 50       	.word	H'1,H'50
 2cf:	1c 23       	cmp.b	r2h,r3h
 2d1:	01 9f       	.word	H'1,H'9f
	...

000002db <.LLST23>:
.LLST23():
 2db:	00 00       	nop	
softvec_setintr():
/home/interrupt.c:17
  SOFTVECS[type] = handler;
 2dd:	01 f4       	.word	H'1,H'f4
 2df:	00 00       	nop	
 2e1:	02 06       	stc	ccr,r6h
/home/interrupt.c:19
}
 2e3:	00 01       	.word	H'0,H'1
 2e5:	50 00       	mulxu.b	r0h,r0
 2e7:	00 02       	.word	H'0,H'2
 2e9:	06 00       	andc	#0x0,ccr
interrupt():
/home/interrupt.c:26
{
 2eb:	00 02       	.word	H'0,H'2
 2ed:	18 00       	sub.b	r0h,r0h
 2ef:	02 30       	stmac	macl,er0
/home/interrupt.c:27
  softvec_handler_t handler = SOFTVECS[type];
 2f1:	9f 00       	addx	#0x0,r7l
 2f3:	00 00       	nop	
 2f5:	00 00       	nop	
 2f7:	00 00       	nop	
	...

000002fa <.LLST20>:
.LLST20():
 2fa:	00 00       	nop	
interrupt():
/home/interrupt.c:27
 2fc:	01 ae       	.word	H'1,H'ae
 2fe:	00 00       	nop	
 300:	01 bc       	.word	H'1,H'bc
/home/interrupt.c:28
  if (handler)
 302:	00 01       	.word	H'0,H'1
/home/interrupt.c:29
    handler(type, sp);
 304:	50 00       	mulxu.b	r0h,r0
/home/interrupt.c:30
}
 306:	00 01       	.word	H'0,H'1
 308:	bc 00       	subx	#0x0,r4l
 30a:	00 01       	.word	H'0,H'1
memset():
/home/lib.c:6
{
 30c:	cc 00       	or.b	#0x0,r4l
 30e:	01 54       	.word	H'1,H'54
	...

00000318 <.LLST19>:
.LLST19():
 318:	00 00       	nop	
memset():
/home/lib.c:8
  for (p = b; len > 0; len--)
 31a:	01 96       	.word	H'1,H'96
/home/lib.c:9 (discriminator 3)
    *(p++) = c;
 31c:	00 00       	nop	
 31e:	01 9c       	.word	H'1,H'9c
 320:	00 01       	.word	H'0,H'1
 322:	50 00       	mulxu.b	r0h,r0
/home/lib.c:8 (discriminator 1)
  for (p = b; len > 0; len--)
 324:	00 01       	.word	H'0,H'1
 326:	9c 00       	addx	#0x0,r4l
/home/lib.c:11
}
 328:	00 01       	.word	H'0,H'1
 32a:	a8 00       	cmp.b	#0x0,r0l
 32c:	01 54       	.word	H'1,H'54
 32e:	00 00       	nop	
 330:	01 a8       	.word	H'1,H'a8
memcpy():
/home/lib.c:14
{
 332:	00 00       	nop	
 334:	01 ae       	.word	H'1,H'ae
 336:	00 01       	.word	H'0,H'1
 338:	50 00       	mulxu.b	r0h,r0
 33a:	00 00       	nop	
 33c:	00 00       	nop	
 33e:	00 00       	nop	
	...

00000341 <.LLST18>:
.LLST18():
 341:	00 00       	nop	
memcpy():
/home/lib.c:17
  for (; len > 0; len--)
 343:	01 54       	.word	H'1,H'54
/home/lib.c:18 (discriminator 2)
    *(d++) = *(s++);
 345:	00 00       	nop	
 347:	01 6a       	.word	H'1,H'6a
 349:	00 01       	.word	H'0,H'1
 34b:	50 00       	mulxu.b	r0h,r0
 34d:	00 01       	.word	H'0,H'1
 34f:	6a 00 00 01 	mov.b	@0x1:16,r0h
 353:	7c 00       	.word	H'7c,H'0
 355:	01 54       	.word	H'1,H'54
/home/lib.c:17 (discriminator 1)
  for (; len > 0; len--)
 357:	00 00       	nop	
 359:	01 7c       	.word	H'1,H'7c
/home/lib.c:20
}
 35b:	00 00       	nop	
 35d:	01 82       	.word	H'1,H'82
 35f:	00 04       	.word	H'0,H'4
 361:	f3 01       	mov.b	#0x1,r3h
 363:	50 9f       	mulxu.b	r1l,e7
	...

0000036d <.LLST15>:
.LLST15():
 36d:	00 00       	nop	
memcmp():
/home/lib.c:23
{
 36f:	01 06       	.word	H'1,H'6
 371:	00 00       	nop	
 373:	01 1e       	.word	H'1,H'1e
/home/lib.c:25
  for (; len > 0; len--) {
 375:	00 01       	.word	H'0,H'1
/home/lib.c:26
    if (*p1 != *p2)
 377:	50 00       	mulxu.b	r0h,r0
 379:	00 01       	.word	H'0,H'1
 37b:	20 00       	mov.b	@0x0:8,r0h
 37d:	00 01       	.word	H'0,H'1
/home/lib.c:27
      return (*p1 > *p2) ? 1 : -1;
 37f:	36 00       	mov.b	r6h,@0x0:8
 381:	01 50       	.word	H'1,H'50
 383:	00 00       	nop	
 385:	01 38       	.word	H'1,H'38
/home/lib.c:28
    p1++;
 387:	00 00       	nop	
/home/lib.c:29
    p2++;
 389:	01 3c       	.word	H'1,H'3c
 38b:	00 01       	.word	H'0,H'1
 38d:	50 00       	mulxu.b	r0h,r0
/home/lib.c:25 (discriminator 1)
  for (; len > 0; len--) {
 38f:	00 01       	.word	H'0,H'1
 391:	3e 00       	mov.b	r6l,@0x0:8
/home/lib.c:31
  return 0;
 393:	00 01       	.word	H'0,H'1
 395:	42 00       	bhi	.0 (0x397)
/home/lib.c:27
      return (*p1 > *p2) ? 1 : -1;
 397:	01 50       	.word	H'1,H'50
	...

000003a1 <.LLST16>:
.LLST16():
 3a1:	00 00       	nop	
memcmp():
/home/lib.c:32
}
 3a3:	01 06       	.word	H'1,H'6
strlen():
/home/lib.c:35
{
 3a5:	00 00       	nop	
 3a7:	01 24       	.word	H'1,H'24
 3a9:	00 01       	.word	H'0,H'1
/home/lib.c:37
  for (len = 0; *s; s++, len++)
 3ab:	51 00       	divxu.b	r0h,r0
 3ad:	00 01       	.word	H'0,H'1
/home/lib.c:37 (discriminator 3)
 3af:	24 00       	mov.b	@0x0:8,r4h
 3b1:	00 01       	.word	H'0,H'1
/home/lib.c:37 (discriminator 1)
 3b3:	54 00       	rts/l	er0
 3b5:	01 51       	.word	H'1,H'51
	...

000003bf <.LLST17>:
.LLST17():
 3bf:	00 00       	nop	
strcpy():
/home/lib.c:43
{
 3c1:	01 06       	.word	H'1,H'6
 3c3:	00 00       	nop	
 3c5:	01 26       	.word	H'1,H'26
/home/lib.c:46
    *dst = *src;
 3c7:	00 01       	.word	H'0,H'1
 3c9:	52 00       	mulxu.w	r0,er0
/home/lib.c:47
    if (!*src) break;
 3cb:	00 01       	.word	H'0,H'1
 3cd:	26 00       	mov.b	@0x0:8,r6h
/home/lib.c:45
  for (;; dst++, src++) {
 3cf:	00 01       	.word	H'0,H'1
 3d1:	54 00       	rts/l	er0
/home/lib.c:46
    *dst = *src;
 3d3:	01 52       	.word	H'1,H'52
	...

000003dd <.LLST13>:
.LLST13():
 3dd:	00 00       	nop	
strcmp():
/home/lib.c:53
{
 3df:	00 ce       	.word	H'0,H'ce
/home/lib.c:54
  while (*s1 || *s2) {
 3e1:	00 00       	nop	
/home/lib.c:55
    if (*s1 != *s2)
 3e3:	00 e0       	.word	H'0,H'e0
 3e5:	00 01       	.word	H'0,H'1
/home/lib.c:56
      return (*s1 > *s2) ? 1 : -1;
 3e7:	50 00       	mulxu.b	r0h,r0
 3e9:	00 00       	nop	
 3eb:	e2 00       	and.b	#0x0,r2h
 3ed:	00 00       	nop	
/home/lib.c:57
    s1++;
 3ef:	f2 00       	mov.b	#0x0,r2h
/home/lib.c:58
    s2++;
 3f1:	01 50       	.word	H'1,H'50
/home/lib.c:54
  while (*s1 || *s2) {
 3f3:	00 00       	nop	
 3f5:	00 fc       	.word	H'0,H'fc
 3f7:	00 00       	nop	
 3f9:	01 00       	.word	H'1,H'0
/home/lib.c:54 (discriminator 1)
 3fb:	00 01       	.word	H'0,H'1
 3fd:	50 00       	mulxu.b	r0h,r0
 3ff:	00 00       	nop	
 401:	00 00       	nop	
 403:	00 00       	nop	
	...

00000406 <.LLST14>:
.LLST14():
 406:	00 00       	nop	
strcmp():
/home/lib.c:56
      return (*s1 > *s2) ? 1 : -1;
 408:	00 ce       	.word	H'0,H'ce
 40a:	00 00       	nop	
/home/lib.c:61
}
 40c:	00 e6       	.word	H'0,H'e6
 40e:	00 01       	.word	H'0,H'1
 410:	51 00       	divxu.b	r0h,r0
strncmp():
/home/lib.c:64
{
 412:	00 00       	nop	
 414:	e6 00       	and.b	#0x0,r6h
 416:	00 01       	.word	H'0,H'1
 418:	06 00       	andc	#0x0,ccr
 41a:	01 51       	.word	H'1,H'51
	...

00000424 <.LLST11>:
.LLST11():
 424:	00 00       	nop	
strncmp():
/home/lib.c:67
      return (*s1 > *s2) ? 1 : -1;
 426:	00 b2       	.word	H'0,H'b2
 428:	00 00       	nop	
 42a:	00 ba       	.word	H'0,H'ba
/home/lib.c:68
    s1++;
 42c:	00 01       	.word	H'0,H'1
/home/lib.c:69
    s2++;
 42e:	50 00       	mulxu.b	r0h,r0
/home/lib.c:70
    len--;
 430:	00 00       	nop	
/home/lib.c:65
  while ((*s1 || *s2) && (len > 0)) {
 432:	ba 00       	subx	#0x0,r2l
 434:	00 00       	nop	
/home/lib.c:65 (discriminator 2)
 436:	ce 00       	or.b	#0x0,r6l
 438:	01 52       	.word	H'1,H'52
	...

00000442 <.LLST12>:
.LLST12():
 442:	00 00       	nop	
strncmp():
/home/lib.c:67
      return (*s1 > *s2) ? 1 : -1;
 444:	00 b2       	.word	H'0,H'b2
 446:	00 00       	nop	
 448:	00 c6       	.word	H'0,H'c6
/home/lib.c:65
  while ((*s1 || *s2) && (len > 0)) {
 44a:	00 01       	.word	H'0,H'1
 44c:	51 00       	divxu.b	r0h,r0
 44e:	00 00       	nop	
 450:	c6 00       	or.b	#0x0,r6h
 452:	00 00       	nop	
 454:	ce 00       	or.b	#0x0,r6l
/home/lib.c:73
}
 456:	01 51       	.word	H'1,H'51
	...

00000460 <.LLST9>:
.LLST9():
 460:	00 00       	nop	
putc():
/home/lib.c:77
{
 462:	00 98       	.word	H'0,H'98
 464:	00 00       	nop	
 466:	00 a4       	.word	H'0,H'a4
 468:	00 01       	.word	H'0,H'1
 46a:	50 00       	mulxu.b	r0h,r0
/home/lib.c:78
  if (c == '\n')
 46c:	00 00       	nop	
 46e:	a4 00       	cmp.b	#0x0,r4h
/home/lib.c:79
    serial_send_byte(SERIAL_DEFAULT_DEVICE, '\r');
 470:	00 00       	nop	
 472:	ac 00       	cmp.b	#0x0,r4l
 474:	01 50       	.word	H'1,H'50
	...

0000047e <.LLST10>:
.LLST10():
 47e:	00 00       	nop	
putc():
/home/lib.c:80
  return serial_send_byte(SERIAL_DEFAULT_DEVICE, c);
 480:	00 9e       	.word	H'0,H'9e
 482:	00 00       	nop	
/home/lib.c:81
}
 484:	00 a2       	.word	H'0,H'a2
 486:	00 02       	.word	H'0,H'2
 488:	30 9f       	mov.b	r0h,@0x9f:8
 48a:	00 00       	nop	
 48c:	00 a2       	.word	H'0,H'a2
getc():
/home/lib.c:85
{
 48e:	00 00       	nop	
 490:	00 b2       	.word	H'0,H'b2
 492:	00 01       	.word	H'0,H'1
 494:	52 00       	mulxu.w	r0,er0
 496:	00 00       	nop	
/home/lib.c:86
  unsigned char c = serial_recv_byte(SERIAL_DEFAULT_DEVICE);
 498:	00 00       	nop	
 49a:	00 00       	nop	
	...

0000049d <.LLST5>:
.LLST5():
 49d:	00 00       	nop	
getc():
/home/lib.c:86
 49f:	00 5c       	.word	H'0,H'5c
 4a1:	00 00       	nop	
/home/lib.c:87
  c = (c == '\r') ? '\n' : c;
 4a3:	00 6a       	.word	H'0,H'6a
 4a5:	00 01       	.word	H'0,H'1
 4a7:	50 00       	mulxu.b	r0h,r0
/home/lib.c:88 (discriminator 4)
  putc(c); /* エコー・バック */
 4a9:	00 00       	nop	
 4ab:	6a 00 00 00 	mov.b	@0x0:16,r0h
/home/lib.c:90
}
 4af:	98 00       	addx	#0x0,r0l
 4b1:	04 f3       	orc	#0xf3,ccr
 4b3:	01 50       	.word	H'1,H'50
 4b5:	9f 00       	addx	#0x0,r7l
 4b7:	00 00       	nop	
 4b9:	00 00       	nop	
puts():
/home/lib.c:94
{
 4bb:	00 00       	nop	
	...

000004be <.LLST6>:
.LLST6():
 4be:	00 00       	nop	
puts():
/home/lib.c:94
 4c0:	00 5c       	.word	H'0,H'5c
 4c2:	00 00       	nop	
 4c4:	00 6a       	.word	H'0,H'6a
/home/lib.c:95
  while (*str)
 4c6:	00 01       	.word	H'0,H'1
/home/lib.c:96
    putc(*(str++));
 4c8:	51 00       	divxu.b	r0h,r0
 4ca:	00 00       	nop	
 4cc:	6a 00 00 00 	mov.b	@0x0:16,r0h
/home/lib.c:95
  while (*str)
 4d0:	98 00       	addx	#0x0,r0l
/home/lib.c:98
}
 4d2:	04 f3       	orc	#0xf3,ccr
 4d4:	01 51       	.word	H'1,H'51
 4d6:	9f 00       	addx	#0x0,r7l
 4d8:	00 00       	nop	
 4da:	00 00       	nop	
 4dc:	00 00       	nop	
	...

000004df <.LLST7>:
.LLST7():
 4df:	00 00       	nop	
gets():
/home/lib.c:102
{
 4e1:	00 5c       	.word	H'0,H'5c
 4e3:	00 00       	nop	
 4e5:	00 68       	.word	H'0,H'68
 4e7:	00 01       	.word	H'0,H'1
 4e9:	52 00       	mulxu.w	r0,er0
 4eb:	00 00       	nop	
 4ed:	68 00       	mov.b	@er0,r0h
 4ef:	00 00       	nop	
 4f1:	6a 00 04 f3 	mov.b	@0x4f3:16,r0h
 4f5:	01 52       	.word	H'1,H'52
/home/lib.c:106
    c = getc();
 4f7:	9f 00       	addx	#0x0,r7l
 4f9:	00 00       	nop	
 4fb:	6a 00 00 00 	mov.b	@0x0:16,r0h
 4ff:	78 00       	.word	H'78,H'0
/home/lib.c:107
    if (c == '\n')
 501:	0b f3       	inc.l	#2,er3
 503:	01 50       	.word	H'1,H'50
 505:	70 00       	bset	#0x0,r0h
 507:	1c f3       	cmp.b	r7l,r3h
 509:	01 52       	.word	H'1,H'52
/home/lib.c:108
      c = '\0';
 50b:	22 9f       	mov.b	@0x9f:8,r2h
/home/lib.c:109
    buf[i++] = c;
 50d:	00 00       	nop	
 50f:	00 7a       	.word	H'0,H'7a
/home/lib.c:110
  } while (c);
 511:	00 00       	nop	
/home/lib.c:112
}
 513:	00 7c       	.word	H'0,H'7c
 515:	00 0b       	.word	H'0,H'b
 517:	f3 01       	mov.b	#0x1,r3h
 519:	50 70       	mulxu.b	r7h,r0
 51b:	00 1c       	.word	H'0,H'1c
 51d:	f3 01       	mov.b	#0x1,r3h
 51f:	52 22       	mulxu.w	r2,er2
 521:	9f 00       	addx	#0x0,r7l
 523:	00 00       	nop	
putxval():
/home/lib.c:116
{
 525:	7c 00       	.word	H'7c,H'0
 527:	00 00       	nop	
 529:	7e 00       	.word	H'7e,H'0
 52b:	0d f3       	mov.w	e7,r3
 52d:	01 50       	.word	H'1,H'50
 52f:	70 00       	bset	#0x0,r0h
 531:	1c f3       	cmp.b	r7l,r3h
 533:	01 52       	.word	H'1,H'52
/home/lib.c:121
  *(p--) = '\0';
 535:	22 23       	mov.b	@0x23:8,r2h
 537:	01 9f       	.word	H'1,H'9f
 539:	00 00       	nop	
/home/lib.c:123
  if (!value && !column)
 53b:	00 7e       	.word	H'0,H'7e
 53d:	00 00       	nop	
/home/lib.c:123 (discriminator 1)
 53f:	00 88       	.word	H'0,H'88
 541:	00 0b       	.word	H'0,H'b
/home/lib.c:124
    column++;
 543:	f3 01       	mov.b	#0x1,r3h
 545:	50 70       	mulxu.b	r7h,r0
 547:	00 1c       	.word	H'0,H'1c
 549:	f3 01       	mov.b	#0x1,r3h
 54b:	52 22       	mulxu.w	r2,er2
/home/lib.c:127
    *(p--) = "0123456789abcdef"[value & 0xf];
 54d:	9f 00       	addx	#0x0,r7l
 54f:	00 00       	nop	
 551:	8a 00       	add.b	#0x0,r2l
 553:	00 00       	nop	
 555:	8e 00       	add.b	#0x0,r6l
 557:	0b f3       	inc.l	#2,er3
 559:	01 50       	.word	H'1,H'50
 55b:	70 00       	bset	#0x0,r0h
 55d:	1c f3       	cmp.b	r7l,r3h
 55f:	01 52       	.word	H'1,H'52
/home/lib.c:128
    value >>= 4;
 561:	22 9f       	mov.b	@0x9f:8,r2h
	...

0000056b <.LLST8>:
.LLST8():
 56b:	00 00       	nop	
putxval():
/home/lib.c:129 (discriminator 1)
    if (column) column--;
 56d:	00 66       	.word	H'0,H'66
 56f:	00 00       	nop	
/home/lib.c:126
  while (value || column) {
 571:	00 78       	.word	H'0,H'78
 573:	00 01       	.word	H'0,H'1
/home/lib.c:126 (discriminator 1)
 575:	50 00       	mulxu.b	r0h,r0
 577:	00 00       	nop	
/home/lib.c:132
  puts(p + 1);
 579:	7a 00 00 00 	mov.l	#0x8800,er0
 57d:	88 00 
 57f:	01 50       	.word	H'1,H'50
/home/lib.c:135
}
 581:	00 00       	nop	
 583:	00 8a       	.word	H'0,H'8a
 585:	00 00       	nop	
 587:	00 8e       	.word	H'0,H'8e
 589:	00 01       	.word	H'0,H'1
 58b:	50 00       	mulxu.b	r0h,r0
 58d:	00 00       	nop	
 58f:	00 00       	nop	
 591:	00 00       	nop	
	...

00000594 <.LLST2>:
.LLST2():
 594:	00 00       	nop	
serial_init():
/home/serial.c:59
{
 596:	00 26       	.word	H'0,H'26
/home/serial.c:60
  volatile struct h8_3069f_sci *sci = regs[index].sci;
 598:	00 00       	nop	
 59a:	00 38       	.word	H'0,H'38
 59c:	00 01       	.word	H'0,H'1
 59e:	52 00       	mulxu.w	r0,er0
 5a0:	00 00       	nop	
 5a2:	38 00       	mov.b	r0l,@0x0:8
 5a4:	00 00       	nop	
 5a6:	3a 00       	mov.b	r2l,@0x0:8
/home/serial.c:62
  sci->scr = 0;
 5a8:	01 54       	.word	H'1,H'54
 5aa:	00 00       	nop	
 5ac:	00 3a       	.word	H'0,H'3a
/home/serial.c:63
  sci->smr = 0;
 5ae:	00 00       	nop	
/home/serial.c:64
  sci->brr = 64; /* 20MHzのクロックから9600bpsを生成(25MHzの場合は80にする) */
 5b0:	00 44       	.word	H'0,H'44
 5b2:	00 06       	.word	H'0,H'6
 5b4:	72 00       	bclr	#0x0,r0h
/home/serial.c:65
  sci->scr = H8_3069F_SCI_SCR_RE | H8_3069F_SCI_SCR_TE; /* 送受信可能 */
 5b6:	73 00       	btst	#0x0,r0h
 5b8:	1c 9f       	cmp.b	r1l,r7l
 5ba:	00 00       	nop	
/home/serial.c:66
  sci->ssr = 0;
 5bc:	00 44       	.word	H'0,H'44
 5be:	00 00       	nop	
/home/serial.c:69
}
 5c0:	00 46       	.word	H'0,H'46
 5c2:	00 07       	.word	H'0,H'7
 5c4:	73 00       	btst	#0x0,r0h
 5c6:	20 72       	mov.b	@0x72:8,r0h
serial_is_send_enable():
/home/serial.c:73
{
 5c8:	00 22       	.word	H'0,H'22
 5ca:	9f 00       	addx	#0x0,r7l
 5cc:	00 00       	nop	
/home/serial.c:74
  volatile struct h8_3069f_sci *sci = regs[index].sci;
 5ce:	46 00       	bne	.0 (0x5d0)
 5d0:	00 00       	nop	
 5d2:	4a 00       	bpl	.0 (0x5d4)
 5d4:	06 72       	andc	#0x72,ccr
 5d6:	00 73       	.word	H'0,H'73
 5d8:	00 1c       	.word	H'0,H'1c
 5da:	9f 00       	addx	#0x0,r7l
 5dc:	00 00       	nop	
/home/serial.c:75
  return (sci->ssr & H8_3069F_SCI_SSR_TDRE);
 5de:	4a 00       	bpl	.0 (0x5e0)
 5e0:	00 00       	nop	
 5e2:	56 00       	rte/l	er0
/home/serial.c:76
}
 5e4:	01 54       	.word	H'1,H'54
 5e6:	00 00       	nop	
 5e8:	00 56       	.word	H'0,H'56
 5ea:	00 00       	nop	
serial_send_byte():
/home/serial.c:80
{
 5ec:	00 5c       	.word	H'0,H'5c
 5ee:	00 06       	.word	H'0,H'6
 5f0:	72 00       	bclr	#0x0,r0h
/home/serial.c:81
  volatile struct h8_3069f_sci *sci = regs[index].sci;
 5f2:	73 00       	btst	#0x0,r0h
 5f4:	1c 9f       	cmp.b	r1l,r7l
	...

000005fe <.LLST3>:
.LLST3():
 5fe:	00 00       	nop	
serial_send_byte():
/home/serial.c:81
 600:	00 34       	.word	H'0,H'34
serial_is_send_enable():
/home/serial.c:75 (discriminator 1)
  return (sci->ssr & H8_3069F_SCI_SSR_TDRE);
 602:	00 00       	nop	
 604:	00 38       	.word	H'0,H'38
serial_send_byte():
/home/serial.c:84
  while (!serial_is_send_enable(index))
 606:	00 01       	.word	H'0,H'1
/home/serial.c:86
  sci->tdr = c;
 608:	50 00       	mulxu.b	r0h,r0
 60a:	00 00       	nop	
/home/serial.c:87
  sci->ssr &= ~H8_3069F_SCI_SSR_TDRE; /* 送信開始 */
 60c:	38 00       	mov.b	r0l,@0x0:8
 60e:	00 00       	nop	
 610:	46 00       	bne	.0 (0x612)
 612:	08 70       	add.b	r7h,r0h
 614:	00 73       	.word	H'0,H'73
/home/serial.c:90
}
 616:	00 22       	.word	H'0,H'22
 618:	23 01       	mov.b	@0x1:8,r3h
 61a:	9f 00       	addx	#0x0,r7l
 61c:	00 00       	nop	
serial_is_recv_enable():
/home/serial.c:94
{
 61e:	46 00       	bne	.0 (0x620)
 620:	00 00       	nop	
 622:	5c 00 06 70 	bsr	.+1648 (0xc96)
/home/serial.c:95
  volatile struct h8_3069f_sci *sci = regs[index].sci;
 626:	00 73       	.word	H'0,H'73
 628:	00 22       	.word	H'0,H'22
 62a:	9f 00       	addx	#0x0,r7l
 62c:	00 00       	nop	
 62e:	00 00       	nop	
 630:	00 00       	nop	
	...

00000633 <.LLST4>:
.LLST4():
 633:	00 00       	nop	
serial_is_recv_enable():
/home/serial.c:96
  return (sci->ssr & H8_3069F_SCI_SSR_RDRF);
 635:	00 34       	.word	H'0,H'34
 637:	00 00       	nop	
 639:	00 38       	.word	H'0,H'38
/home/serial.c:97
}
 63b:	00 01       	.word	H'0,H'1
 63d:	51 00       	divxu.b	r0h,r0
 63f:	00 00       	nop	
 641:	38 00       	mov.b	r0l,@0x0:8
serial_recv_byte():
/home/serial.c:101
{
 643:	00 00       	nop	
 645:	46 00       	bne	.0 (0x647)
 647:	08 71       	add.b	r7h,r1h
/home/serial.c:102
  volatile struct h8_3069f_sci *sci = regs[index].sci;
 649:	00 73       	.word	H'0,H'73
 64b:	00 22       	.word	H'0,H'22
 64d:	23 01       	mov.b	@0x1:8,r3h
 64f:	9f 00       	addx	#0x0,r7l
 651:	00 00       	nop	
 653:	46 00       	bne	.0 (0x655)
 655:	00 00       	nop	
 657:	5c 00 06 71 	bsr	.+1649 (0xccc)
serial_is_recv_enable():
/home/serial.c:96 (discriminator 1)
  return (sci->ssr & H8_3069F_SCI_SSR_RDRF);
 65b:	00 73       	.word	H'0,H'73
serial_recv_byte():
/home/serial.c:106
  while (!serial_is_recv_enable(index))
 65d:	00 22       	.word	H'0,H'22
 65f:	9f 00       	addx	#0x0,r7l
/home/serial.c:108
  c = sci->rdr;
 661:	00 00       	nop	
 663:	00 00       	nop	
/home/serial.c:109
  sci->ssr &= ~H8_3069F_SCI_SSR_RDRF; /* 受信完了 */
 665:	00 00       	nop	
	...

00000668 <.LLST0>:
.LLST0():
 668:	00 00       	nop	
serial_recv_byte():
/home/serial.c:109
 66a:	00 00       	nop	
 66c:	00 00       	nop	
/home/serial.c:112
}
 66e:	00 0e       	.word	H'0,H'e
 670:	00 01       	.word	H'0,H'1
 672:	52 00       	mulxu.w	r0,er0
xmodem_recv():
/home/xmodem.c:60
{
 674:	00 00       	nop	
 676:	0e 00       	addx	r0h,r0h
 678:	00 00       	nop	
 67a:	10 00       	shll.b	r0h
 67c:	04 f3       	orc	#0xf3,ccr
 67e:	01 52       	.word	H'1,H'52
 680:	9f 00       	addx	#0x0,r7l
 682:	00 00       	nop	
 684:	10 00       	shll.b	r0h
 686:	00 00       	nop	
 688:	12 00       	rotxl.b	r0h
/home/xmodem.c:63
  unsigned char c, block_number = 1;
 68a:	0a 70       	add.w	#0x7,r0
 68c:	00 73       	.word	H'0,H'73
 68e:	00 1c       	.word	H'0,H'1c
/home/xmodem.c:62
  long size = 0;
 690:	f3 01       	mov.b	#0x1,r3h
/home/xmodem.c:61
  int r, receiving = 0;
 692:	52 22       	mulxu.w	r2,er2
 694:	9f 00       	addx	#0x0,r7l
 696:	00 00       	nop	
/home/xmodem.c:66
    if (!receiving)
 698:	12 00       	rotxl.b	r0h
 69a:	00 00       	nop	
 69c:	14 00       	or.b	r0h,r0h
/home/xmodem.c:69
    c = serial_recv_byte(SERIAL_DEFAULT_DEVICE);
 69e:	0b 73       	inc.l	#1,er3
 6a0:	00 20       	.word	H'0,H'20
 6a2:	f3 01       	mov.b	#0x1,r3h
 6a4:	52 22       	mulxu.w	r2,er2
/home/xmodem.c:71
    if (c == XMODEM_EOT) { /* 受信終了 */
 6a6:	70 00       	bset	#0x0,r0h
 6a8:	22 9f       	mov.b	@0x9f:8,r2h
 6aa:	00 00       	nop	
xmodem_wait():
/home/xmodem.c:22
    if (++cnt >= 2000000) {
 6ac:	00 14       	.word	H'0,H'14
 6ae:	00 00       	nop	
/home/xmodem.c:24
      serial_send_byte(SERIAL_DEFAULT_DEVICE, XMODEM_NAK);
 6b0:	00 26       	.word	H'0,H'26
 6b2:	00 0a       	.word	H'0,H'a
 6b4:	70 00       	bset	#0x0,r0h
 6b6:	73 00       	btst	#0x0,r0h
 6b8:	1c f3       	cmp.b	r7l,r3h
xmodem_recv():
/home/xmodem.c:61
  int r, receiving = 0;
 6ba:	01 52       	.word	H'1,H'52
 6bc:	22 9f       	mov.b	@0x9f:8,r2h
	...

000006c6 <.LLST1>:
.LLST1():
 6c6:	00 00       	nop	
xmodem_wait():
/home/xmodem.c:21
  while (!serial_is_recv_enable(SERIAL_DEFAULT_DEVICE)) {
 6c8:	00 0a       	.word	H'0,H'a
 6ca:	00 00       	nop	
 6cc:	00 10       	.word	H'0,H'10
 6ce:	00 01       	.word	H'0,H'1
 6d0:	50 00       	mulxu.b	r0h,r0
 6d2:	00 00       	nop	
 6d4:	10 00       	shll.b	r0h
 6d6:	00 00       	nop	
 6d8:	14 00       	or.b	r0h,r0h
xmodem_recv():
/home/xmodem.c:72
      serial_send_byte(SERIAL_DEFAULT_DEVICE, XMODEM_ACK);
 6da:	03 73       	ldc	er3,sbr
 6dc:	01 9f       	.word	H'1,H'9f
 6de:	00 00       	nop	
 6e0:	00 14       	.word	H'0,H'14
 6e2:	00 00       	nop	
/home/xmodem.c:93
  return size;
 6e4:	00 26       	.word	H'0,H'26
 6e6:	00 01       	.word	H'0,H'1
/home/xmodem.c:74
    } else if (c == XMODEM_CAN) { /* 受信中断 */
 6e8:	53 00       	divxu.w	r0,er0
 6ea:	00 00       	nop	
 6ec:	00 00       	nop	
/home/xmodem.c:77
      receiving++;
 6ee:	00 00       	nop	
	...

000006f1 <.LLST5>:
.LLST5():
 6f1:	00 00       	nop	
xmodem_recv():
/home/xmodem.c:76
    } else if (c == XMODEM_SOH) { /* 受信開始 */
 6f3:	00 b0       	.word	H'0,H'b0
 6f5:	00 00       	nop	
 6f7:	00 bc       	.word	H'0,H'bc
/home/xmodem.c:77
      receiving++;
 6f9:	00 01       	.word	H'0,H'1
 6fb:	50 00       	mulxu.b	r0h,r0
 6fd:	00 00       	nop	
xmodem_read_block():
/home/xmodem.c:37
  block_num = serial_recv_byte(SERIAL_DEFAULT_DEVICE);
 6ff:	bc 00       	subx	#0x0,r4l
 701:	00 00       	nop	
 703:	e2 00       	and.b	#0x0,r2h
 705:	04 f3       	orc	#0xf3,ccr
/home/xmodem.c:38
  if (block_num != block_number)
 707:	01 50       	.word	H'1,H'50
 709:	9f 00       	addx	#0x0,r7l
 70b:	00 00       	nop	
 70d:	00 00       	nop	
 70f:	00 00       	nop	
	...

00000712 <.LLST6>:
.LLST6():
 712:	00 00       	nop	
xmodem_read_block():
/home/xmodem.c:41
  block_num ^= serial_recv_byte(SERIAL_DEFAULT_DEVICE);
 714:	00 c6       	.word	H'0,H'c6
 716:	00 00       	nop	
 718:	00 ca       	.word	H'0,H'ca
 71a:	00 04       	.word	H'0,H'4
 71c:	f3 01       	mov.b	#0x1,r3h
/home/xmodem.c:42
  if (block_num != 0xff)
 71e:	50 9f       	mulxu.b	r1l,e7
	...

00000728 <.LLST2>:
.LLST2():
 728:	00 00       	nop	
xmodem_read_block():
/home/xmodem.c:45
  check_sum = 0;
 72a:	00 5a       	.word	H'0,H'5a
/home/xmodem.c:47
    c = serial_recv_byte(SERIAL_DEFAULT_DEVICE);
 72c:	00 00       	nop	
 72e:	00 66       	.word	H'0,H'66
 730:	00 01       	.word	H'0,H'1
 732:	50 00       	mulxu.b	r0h,r0
 734:	00 00       	nop	
 736:	66 00       	and.w	r0,r0
 738:	00 00       	nop	
 73a:	8c 00       	add.b	#0x0,r4l
 73c:	04 f3       	orc	#0xf3,ccr
 73e:	01 50       	.word	H'1,H'50
 740:	9f 00       	addx	#0x0,r7l
 742:	00 00       	nop	
 744:	00 00       	nop	
/home/xmodem.c:48
    *(buf++) = c;
 746:	00 00       	nop	
	...

00000749 <.LLST3>:
.LLST3():
 749:	00 00       	nop	
xmodem_read_block():
/home/xmodem.c:48
 74b:	00 70       	.word	H'0,H'70
 74d:	00 00       	nop	
/home/xmodem.c:49
    check_sum += c;
 74f:	00 74       	.word	H'0,H'74
 751:	00 04       	.word	H'0,H'4
 753:	f3 01       	mov.b	#0x1,r3h
 755:	50 9f       	mulxu.b	r1l,e7
	...

0000075f <.LLST0>:
.LLST0():
 75f:	00 00       	nop	
xmodem_read_block():
/home/xmodem.c:46
  for (i = 0; i < XMODEM_BLOCK_SIZE; i++) {
 761:	00 00       	nop	
/home/xmodem.c:52
  check_sum ^= serial_recv_byte(SERIAL_DEFAULT_DEVICE);
 763:	00 00       	nop	
 765:	00 0c       	.word	H'0,H'c
 767:	00 01       	.word	H'0,H'1
 769:	50 00       	mulxu.b	r0h,r0
 76b:	00 00       	nop	
 76d:	0c 00       	mov.b	r0h,r0h
 76f:	00 00       	nop	
/home/xmodem.c:53
  if (check_sum)
 771:	36 00       	mov.b	r6h,@0x0:8
 773:	04 f3       	orc	#0xf3,ccr
 775:	01 50       	.word	H'1,H'50
 777:	9f 00       	addx	#0x0,r7l
 779:	00 00       	nop	
xmodem_recv():
/home/xmodem.c:82
	block_number++;
 77b:	00 00       	nop	
 77d:	00 00       	nop	
	...

00000780 <.LLST1>:
.LLST1():
 780:	00 00       	nop	
xmodem_recv():
/home/xmodem.c:82
 782:	00 36       	.word	H'0,H'36
/home/xmodem.c:83
	size += r;
 784:	00 00       	nop	
 786:	00 42       	.word	H'0,H'42
 788:	00 01       	.word	H'0,H'1
/home/xmodem.c:84
	buf  += r;
 78a:	50 00       	mulxu.b	r0h,r0
 78c:	00 00       	nop	
 78e:	42 00       	bhi	.0 (0x790)
/home/xmodem.c:85
	serial_send_byte(SERIAL_DEFAULT_DEVICE, XMODEM_ACK);
 790:	00 00       	nop	
 792:	5a 00 04 f3 	jmp	@0x4f3:24
/home/xmodem.c:80
	serial_send_byte(SERIAL_DEFAULT_DEVICE, XMODEM_NAK);
 796:	01 50       	.word	H'1,H'50
 798:	9f 00       	addx	#0x0,r7l
 79a:	00 00       	nop	
 79c:	00 00       	nop	
 79e:	00 00       	nop	
	...

000007a1 <.LLST4>:
.LLST4():
 7a1:	00 00       	nop	
xmodem_recv():
/home/xmodem.c:88
      if (receiving)
 7a3:	00 8c       	.word	H'0,H'8c
 7a5:	00 00       	nop	
 7a7:	00 98       	.word	H'0,H'98
/home/xmodem.c:75
      return -1;
 7a9:	00 01       	.word	H'0,H'1
 7ab:	50 00       	mulxu.b	r0h,r0
/home/xmodem.c:94
}
 7ad:	00 00       	nop	
 7af:	98 00       	addx	#0x0,r0l
 7b1:	00 00       	nop	
 7b3:	b0 00       	subx	#0x0,r0h
 7b5:	04 f3       	orc	#0xf3,ccr
 7b7:	01 50       	.word	H'1,H'50
 7b9:	9f 00       	addx	#0x0,r7l
 7bb:	00 00       	nop	
 7bd:	00 00       	nop	
 7bf:	00 00       	nop	
	...

000007c2 <.LLST0>:
.LLST0():
 7c2:	00 00       	nop	
elf_load():
/home/elf.c:84
{
 7c4:	00 00       	nop	
 7c6:	00 00       	nop	
 7c8:	00 24       	.word	H'0,H'24
 7ca:	00 01       	.word	H'0,H'1
 7cc:	50 00       	mulxu.b	r0h,r0
 7ce:	00 00       	nop	
 7d0:	24 00       	mov.b	@0x0:8,r4h
 7d2:	00 01       	.word	H'0,H'1
elf_check():
/home/elf.c:44
  if (memcmp(header->id.magic, "\x7f" "ELF", 4))
 7d4:	44 00       	bcc	.0 (0x7d6)
 7d6:	01 55       	.word	H'1,H'55
	...

000007e0 <.LLST1>:
.LLST1():
 7e0:	00 00       	nop	
elf_check():
/home/elf.c:44
 7e2:	00 16       	.word	H'0,H'16
 7e4:	00 00       	nop	
 7e6:	00 24       	.word	H'0,H'24
/home/elf.c:47
  if (header->id.class   != 1) return -1; /* ELF32 */
 7e8:	00 02       	.word	H'0,H'2
 7ea:	30 9f       	mov.b	r0h,@0x9f:8
 7ec:	00 00       	nop	
 7ee:	00 24       	.word	H'0,H'24
 7f0:	00 00       	nop	
/home/elf.c:48
  if (header->id.format  != 2) return -1; /* Big endian */
 7f2:	00 8a       	.word	H'0,H'8a
 7f4:	00 02       	.word	H'0,H'2
 7f6:	76 74       	band	#0x7,r4h
 7f8:	00 00       	nop	
 7fa:	00 8a       	.word	H'0,H'8a
/home/elf.c:49
  if (header->id.version != 1) return -1; /* version 1 */
 7fc:	00 00       	nop	
 7fe:	00 91       	.word	H'0,H'91
 800:	00 01       	.word	H'0,H'1
 802:	52 00       	mulxu.w	r0,er0
 804:	00 00       	nop	
/home/elf.c:50
  if (header->type       != 2) return -1; /* Executable file */
 806:	91 00       	addx	#0x0,r1h
 808:	00 01       	.word	H'0,H'1
 80a:	4c 00       	bge	.0 (0x80c)
 80c:	02 76       	stc	sbr,er6
 80e:	74 00       	bor	#0x0,r0h
/home/elf.c:51
  if (header->version    != 1) return -1; /* version 1 */
 810:	00 01       	.word	H'0,H'1
 812:	4c 00       	bge	.0 (0x814)
 814:	00 01       	.word	H'0,H'1
 816:	4e 00       	bgt	.0 (0x818)
 818:	02 91       	.word	H'2,H'91
 81a:	6c 00       	mov.b	@er0+,r0h
/home/elf.c:54
  if ((header->arch != 46) && (header->arch != 47)) return -1;
 81c:	00 00       	nop	
 81e:	00 00       	nop	
 820:	00 00       	nop	
	...

00000823 <.LLST2>:
.LLST2():
 823:	00 00       	nop	
elf_check():
/home/elf.c:54
 825:	00 16       	.word	H'0,H'16
 827:	00 00       	nop	
 829:	00 24       	.word	H'0,H'24
elf_load_program():
/home/elf.c:69
       header->program_header_size * i);
 82b:	00 02       	.word	H'0,H'2
 82d:	30 9f       	mov.b	r0h,@0x9f:8
 82f:	00 00       	nop	
 831:	00 24       	.word	H'0,H'24
 833:	00 00       	nop	
/home/elf.c:68
      ((char *)header + header->program_header_offset +
 835:	01 38       	.word	H'1,H'38
 837:	00 01       	.word	H'0,H'1
 839:	54 00       	rts/l	er0
 83b:	00 00       	nop	
/home/elf.c:67
    phdr = (struct elf_program_header *)
 83d:	00 00       	nop	
/home/elf.c:71
    if (phdr->type != 1) /* ロード可能なセグメントか？ */
 83f:	00 00       	nop	
	...

00000842 <.LLST3>:
.LLST3():
 842:	00 00       	nop	
elf_load_program():
/home/elf.c:71
 844:	00 32       	.word	H'0,H'32
/home/elf.c:74
    memcpy((char *)phdr->physical_addr, (char *)header + phdr->offset,
 846:	00 00       	nop	
 848:	00 38       	.word	H'0,H'38
 84a:	00 01       	.word	H'0,H'1
 84c:	50 00       	mulxu.b	r0h,r0
 84e:	00 00       	nop	
 850:	66 00       	and.w	r0,r0
 852:	00 00       	nop	
 854:	6c 00       	mov.b	@er0+,r0h
 856:	01 50       	.word	H'1,H'50
 858:	00 00       	nop	
 85a:	00 74       	.word	H'0,H'74
 85c:	00 00       	nop	
 85e:	00 8e       	.word	H'0,H'8e
 860:	00 01       	.word	H'0,H'1
 862:	50 00       	mulxu.b	r0h,r0
/home/elf.c:77
	   phdr->memory_size - phdr->file_size);
 864:	00 01       	.word	H'0,H'1
 866:	2e 00       	mov.b	@0x0:8,r6l
 868:	00 01       	.word	H'0,H'1
/home/elf.c:76
    memset((char *)phdr->physical_addr + phdr->file_size, 0,
 86a:	38 00       	mov.b	r0l,@0x0:8
 86c:	01 50       	.word	H'1,H'50
	...

00000876 <.LLST4>:
.LLST4():
 876:	00 00       	nop	
elf_load_program():
/home/elf.c:76
 878:	00 16       	.word	H'0,H'16
 87a:	00 00       	nop	
 87c:	00 24       	.word	H'0,H'24
 87e:	00 02       	.word	H'0,H'2
 880:	31 9f       	mov.b	r1h,@0x9f:8
 882:	00 00       	nop	
 884:	00 24       	.word	H'0,H'24
/home/elf.c:65
  for (i = 0; i < header->program_header_num; i++) {
 886:	00 00       	nop	
 888:	01 10       	.word	H'1,H'10
 88a:	00 02       	.word	H'0,H'2
 88c:	76 77       	band	#0x7,r7h
 88e:	00 00       	nop	
elf_load():
/home/elf.c:93
  return (char *)header->entry_point;
 890:	01 10       	.word	H'1,H'10
 892:	00 00       	nop	
 894:	01 20       	.word	H'1,H'20
 896:	00 01       	.word	H'0,H'1
/home/elf.c:88
    return NULL;
 898:	52 00       	mulxu.w	r0,er0
/home/elf.c:94
}
 89a:	00 01       	.word	H'0,H'1
 89c:	20 00       	mov.b	@0x0:8,r0h
 89e:	00 01       	.word	H'0,H'1
 8a0:	4c 00       	bge	.0 (0x8a2)
 8a2:	02 76       	stc	sbr,er6
 8a4:	77 00       	bld	#0x0,r0h
 8a6:	00 01       	.word	H'0,H'1
 8a8:	4c 00       	bge	.0 (0x8aa)
main():
/home/main.c:60
{
 8aa:	00 01       	.word	H'0,H'1
 8ac:	4e 00       	bgt	.0 (0x8ae)
 8ae:	02 91       	.word	H'2,H'91
 8b0:	6f 00 00 00 	mov.w	@(0x0:16,er0),r0
 8b4:	00 00       	nop	
/home/main.c:68
  INTR_DISABLE; /* 割込み無効にする */
 8b6:	00 00       	nop	
	...

000008b9 <.LLST5>:
.LLST5():
 8b9:	00 00       	nop	
init():
/home/main.c:17
  memcpy(&data_start, &erodata, (long)&edata - (long)&data_start);
 8bb:	00 38       	.word	H'0,H'38
 8bd:	00 00       	nop	
 8bf:	00 3a       	.word	H'0,H'3a
 8c1:	00 09       	.word	H'0,H'9
 8c3:	0c 00       	mov.b	r0h,r0h
 8c5:	1e 84       	subx	r0l,r4h
 8c7:	81 72       	add.b	#0x72,r1h
 8c9:	00 1c       	.word	H'0,H'1c
 8cb:	9f 00       	addx	#0x0,r7l
 8cd:	00 00       	nop	
 8cf:	3a 00       	mov.b	r2l,@0x0:8
 8d1:	00 00       	nop	
 8d3:	3c 00       	mov.b	r4l,@0x0:8
/home/main.c:18
  memset(&bss_start, 0, (long)&ebss - (long)&bss_start);
 8d5:	0a 0c       	inc	r4l
 8d7:	00 1e       	.word	H'0,H'1e
 8d9:	84 81       	add.b	#0x81,r4h
 8db:	76 70       	band	#0x7,r0h
 8dd:	06 1c       	andc	#0x1c,ccr
 8df:	9f 00       	addx	#0x0,r7l
 8e1:	00 00       	nop	
 8e3:	3c 00       	mov.b	r4l,@0x0:8
 8e5:	00 00       	nop	
 8e7:	46 00       	bne	.0 (0x8e9)
 8e9:	02 30       	stmac	macl,er0
 8eb:	9f 00       	addx	#0x0,r7l
/home/main.c:21
  softvec_init();
 8ed:	00 00       	nop	
 8ef:	4c 00       	bge	.0 (0x8f1)
/home/main.c:24
  serial_init(SERIAL_DEFAULT_DEVICE);
 8f1:	00 00       	nop	
 8f3:	59 00       	jmp	@er0
 8f5:	09 0c       	add.w	r0,e4
 8f7:	00 1e       	.word	H'0,H'1e
main():
/home/main.c:72
  puts("kzload (kozos boot loader) started.\n");
 8f9:	84 80       	add.b	#0x80,r4h
 8fb:	72 00       	bclr	#0x0,r0h
 8fd:	1c 9f       	cmp.b	r1l,r7l
	...

00000907 <.LLST6>:
.LLST6():
 907:	00 00       	nop	
main():
/home/main.c:75
    puts("kzload> "); /* プロンプト表示 */
 909:	00 8a       	.word	H'0,H'8a
 90b:	00 00       	nop	
/home/main.c:76
    gets(buf); /* シリアルからのコマンド受信 */
 90d:	00 b8       	.word	H'0,H'b8
 90f:	00 01       	.word	H'0,H'1
 911:	55 00       	bsr	.0 (0x913)
 913:	00 00       	nop	
 915:	b8 00       	subx	#0x0,r0l
/home/main.c:78
    if (!strcmp(buf, "load")) { /* XMODEMでのファイルのダウンロード */
 917:	00 00       	nop	
 919:	d1 00       	xor.b	#0x0,r1h
 91b:	01 52       	.word	H'1,H'52
 91d:	00 00       	nop	
 91f:	00 d2       	.word	H'0,H'd2
 921:	00 00       	nop	
 923:	00 da       	.word	H'0,H'da
 925:	00 06       	.word	H'0,H'6
 927:	76 70       	band	#0x7,r0h
 929:	06 23       	andc	#0x23,ccr
/home/main.c:79
      loadbuf = (char *)(&buffer_start);
 92b:	01 9f       	.word	H'1,H'9f
 92d:	00 00       	nop	
 92f:	00 da       	.word	H'0,H'da
 931:	00 00       	nop	
 933:	00 e4       	.word	H'0,H'e4
 935:	00 03       	.word	H'0,H'3
 937:	72 01       	bclr	#0x0,r1h
/home/main.c:80
      size = xmodem_recv(loadbuf);
 939:	9f 00       	addx	#0x0,r7l
 93b:	00 00       	nop	
 93d:	e4 00       	and.b	#0x0,r4h
 93f:	00 00       	nop	
 941:	fb 00       	mov.b	#0x0,r3l
 943:	01 52       	.word	H'1,H'52
	...

0000094d <.LLST7>:
.LLST7():
 94d:	00 00       	nop	
wait():
/home/main.c:55
  for (i = 0; i < 300000; i++)
 94f:	00 8a       	.word	H'0,H'8a
 951:	00 00       	nop	
 953:	01 06       	.word	H'1,H'6
 955:	00 02       	.word	H'0,H'2
 957:	76 77       	band	#0x7,r7h
 959:	00 00       	nop	
 95b:	01 20       	.word	H'1,H'20
 95d:	00 00       	nop	
 95f:	01 22       	.word	H'1,H'22
main():
/home/main.c:82
      if (size < 0) {
 961:	00 02       	.word	H'0,H'2
 963:	76 77       	band	#0x7,r7h
	...

0000096d <.LLST8>:
.LLST8():
 96d:	00 00       	nop	
main():
/home/main.c:85
	puts("\nXMODEM receive succeeded.\n");
 96f:	00 d2       	.word	H'0,H'd2
 971:	00 00       	nop	
 973:	00 f2       	.word	H'0,H'f2
/home/main.c:87
    } else if (!strcmp(buf, "dump")) { /* メモリの16進ダンプ出力 */
 975:	00 01       	.word	H'0,H'1
 977:	50 00       	mulxu.b	r0h,r0
 979:	00 00       	nop	
 97b:	f2 00       	mov.b	#0x0,r2h
 97d:	00 00       	nop	
 97f:	f8 00       	mov.b	#0x0,r0l
 981:	02 72       	stc	sbr,er2
 983:	7f 00       	.word	H'7f,H'0
 985:	00 00       	nop	
 987:	00 00       	nop	
 989:	00 00       	nop	
	...

0000098c <.LLST9>:
.LLST9():
 98c:	00 00       	nop	
main():
/home/main.c:88
      puts("size: ");
 98e:	00 92       	.word	H'0,H'92
 990:	00 00       	nop	
 992:	00 a0       	.word	H'0,H'a0
/home/main.c:89
      putxval(size, 0);
 994:	00 01       	.word	H'0,H'1
 996:	50 00       	mulxu.b	r0h,r0
 998:	00 00       	nop	
 99a:	a4 00       	cmp.b	#0x0,r4h
 99c:	00 00       	nop	
 99e:	aa 00       	cmp.b	#0x0,r2l
 9a0:	08 76       	add.b	r7h,r6h
/home/main.c:90
      puts("\n");
 9a2:	77 94       	bild	#0x1,r4h
 9a4:	01 70       	.word	H'1,H'70
 9a6:	00 27       	.word	H'0,H'27
 9a8:	9f 00       	addx	#0x0,r7l
 9aa:	00 00       	nop	
/home/main.c:91
      dump(loadbuf, size);
 9ac:	aa 00       	cmp.b	#0x0,r2l
 9ae:	00 00       	nop	
 9b0:	b8 00       	subx	#0x0,r0l
 9b2:	01 50       	.word	H'1,H'50
	...

000009bc <.LLST10>:
.LLST10():
 9bc:	00 00       	nop	
main():
/home/main.c:91
 9be:	00 b8       	.word	H'0,H'b8
 9c0:	00 00       	nop	
dump():
/home/main.c:34
  if (size < 0) {
 9c2:	00 d1       	.word	H'0,H'd1
 9c4:	00 01       	.word	H'0,H'1
/home/main.c:35
    puts("no data.\n");
 9c6:	53 00       	divxu.w	r0,er0
 9c8:	00 00       	nop	
 9ca:	e2 00       	and.b	#0x0,r2h
 9cc:	00 00       	nop	
 9ce:	fb 00       	mov.b	#0x0,r3l
/home/main.c:39
    putxval(buf[i], 2);
 9d0:	01 53       	.word	H'1,H'53
 9d2:	00 00       	nop	
 9d4:	00 fc       	.word	H'0,H'fc
 9d6:	00 00       	nop	
 9d8:	01 06       	.word	H'1,H'6
 9da:	00 08       	.word	H'0,H'8
 9dc:	70 00       	bset	#0x0,r0h
 9de:	76 6f       	band	#0x6,r7l
 9e0:	94 01       	addx	#0x1,r4h
 9e2:	27 9f       	mov.b	@0x9f:8,r7h
	...

000009ec <.LLST11>:
.LLST11():
 9ec:	00 00       	nop	
dump():
/home/main.c:40
    if ((i & 0xf) == 15) {
 9ee:	00 b8       	.word	H'0,H'b8
 9f0:	00 00       	nop	
/home/main.c:41
      puts("\n");
 9f2:	00 d1       	.word	H'0,H'd1
 9f4:	00 06       	.word	H'0,H'6
 9f6:	72 00       	bclr	#0x0,r0h
 9f8:	75 00       	bxor	#0x0,r0h
/home/main.c:43
      if ((i & 0xf) == 7) puts(" ");
 9fa:	1c 9f       	cmp.b	r1l,r7l
 9fc:	00 00       	nop	
 9fe:	00 e2       	.word	H'0,H'e2
 a00:	00 00       	nop	
 a02:	00 e4       	.word	H'0,H'e4
 a04:	00 08       	.word	H'0,H'8
 a06:	72 00       	bclr	#0x0,r0h
 a08:	75 00       	bxor	#0x0,r0h
/home/main.c:44
      puts(" ");
 a0a:	1c 23       	cmp.b	r2h,r3h
 a0c:	01 9f       	.word	H'1,H'9f
 a0e:	00 00       	nop	
 a10:	00 e4       	.word	H'0,H'e4
 a12:	00 00       	nop	
/home/main.c:38
  for (i = 0; i < size; i++) {
 a14:	00 fb       	.word	H'0,H'fb
 a16:	00 06       	.word	H'0,H'6
 a18:	72 00       	bclr	#0x0,r0h
 a1a:	75 00       	bxor	#0x0,r0h
 a1c:	1c 9f       	cmp.b	r1l,r7l
	...

00000a26 <.LLST0>:
.LLST0():
 a26:	00 00       	nop	
main():
/home/main.c:92
    } else if (!strcmp(buf, "run")) { /* ELF形式ファイルの実行 */
 a28:	00 00       	nop	
 a2a:	00 00       	nop	
 a2c:	00 1f       	.word	H'0,H'1f
 a2e:	00 01       	.word	H'0,H'1
 a30:	50 00       	mulxu.b	r0h,r0
 a32:	00 00       	nop	
 a34:	1f 00       	das	r0h
 a36:	00 00       	nop	
 a38:	de 00       	xor.b	#0x0,r6l
 a3a:	01 55       	.word	H'1,H'55
/home/main.c:93
      entry_point = elf_load(loadbuf); /* メモリ上に展開(ロード) */
 a3c:	00 00       	nop	
 a3e:	00 de       	.word	H'0,H'de
 a40:	00 00       	nop	
 a42:	00 e8       	.word	H'0,H'e8
 a44:	00 04       	.word	H'0,H'4
 a46:	f3 01       	mov.b	#0x1,r3h
 a48:	50 9f       	mulxu.b	r1l,e7
	...

00000a52 <.LLST1>:
.LLST1():
 a52:	00 00       	nop	
main():
/home/main.c:95
	puts("run error!\n");
 a54:	00 12       	.word	H'0,H'12
/home/main.c:97
	puts("starting from entry point: ");
 a56:	00 00       	nop	
 a58:	00 1f       	.word	H'0,H'1f
 a5a:	00 01       	.word	H'0,H'1
 a5c:	50 00       	mulxu.b	r0h,r0
 a5e:	00 00       	nop	
/home/main.c:98
	putxval((unsigned long)entry_point, 0);
 a60:	1f 00       	das	r0h
 a62:	00 00       	nop	
 a64:	de 00       	xor.b	#0x0,r6l
 a66:	01 55       	.word	H'1,H'55
/home/main.c:99
	puts("\n");
 a68:	00 00       	nop	
 a6a:	00 de       	.word	H'0,H'de
 a6c:	00 00       	nop	
 a6e:	00 e8       	.word	H'0,H'e8
 a70:	00 04       	.word	H'0,H'4
/home/main.c:101
	f(); /* ここで，ロードしたプログラムに処理を渡す */
 a72:	f3 01       	mov.b	#0x1,r3h
 a74:	50 9f       	mulxu.b	r1l,e7
	...

00000a7e <.LLST2>:
.LLST2():
 a7e:	00 00       	nop	
main():
/home/main.c:105
      puts("unknown.\n");
 a80:	00 12       	.word	H'0,H'12
.LLST2():
 a82:	00 00       	nop	
 a84:	00 1f       	.word	H'0,H'1f
 a86:	00 01       	.word	H'0,H'1
 a88:	50 00       	mulxu.b	r0h,r0
 a8a:	00 00       	nop	
 a8c:	1f 00       	das	r0h
 a8e:	00 00       	nop	
 a90:	de 00       	xor.b	#0x0,r6l
 a92:	01 55       	.word	H'1,H'55
 a94:	00 00       	nop	
 a96:	00 de       	.word	H'0,H'de
 a98:	00 00       	nop	
 a9a:	00 e8       	.word	H'0,H'e8
 a9c:	00 04       	.word	H'0,H'4
 a9e:	f3 01       	mov.b	#0x1,r3h
 aa0:	50 9f       	mulxu.b	r1l,e7
	...

00000aaa <.LLST3>:
.LLST3():
 aaa:	00 00       	nop	
 aac:	00 68       	.word	H'0,H'68
 aae:	00 00       	nop	
 ab0:	00 a1       	.word	H'0,H'a1
 ab2:	00 01       	.word	H'0,H'1
 ab4:	53 00       	divxu.w	r0,er0
 ab6:	00 00       	nop	
 ab8:	c6 00       	or.b	#0x0,r6h
 aba:	00 00       	nop	
 abc:	ce 00       	or.b	#0x0,r6l
 abe:	01 53       	.word	H'1,H'53
	...

00000ac8 <.LLST4>:
.LLST4():
 ac8:	00 00       	nop	
 aca:	00 7c       	.word	H'0,H'7c
 acc:	00 00       	nop	
 ace:	00 b4       	.word	H'0,H'b4
 ad0:	00 01       	.word	H'0,H'1
 ad2:	54 00       	rts/l	er0
 ad4:	00 00       	nop	
 ad6:	00 00       	nop	
 ad8:	00 00       	nop	
	...

Disassembly of section .debug_ranges:

00000000 <.Ldebug_ranges0>:
.Ldebug_ranges0():
   0:	00 00       	nop	
   2:	08 aa       	add.b	r2l,r2l
   4:	00 00       	nop	
   6:	0a 82       	add.l	er0,er2
	...

00000010 <.Ldebug_ranges0>:
  10:	00 00       	nop	
  12:	00 38       	.word	H'0,H'38
  14:	00 00       	nop	
  16:	00 46       	.word	H'0,H'46
  18:	00 00       	nop	
  1a:	00 4c       	.word	H'0,H'4c
  1c:	00 00       	nop	
  1e:	00 66       	.word	H'0,H'66
	...
