
kzload.elf:     file format elf32-h8300


Disassembly of section .vectors:

00000000 <_vectors>:
   0:	00 00       	nop	
   2:	01 00       	.word	H'1,H'0
	...
  20:	00 00       	nop	
  22:	01 60       	.word	H'1,H'60
  24:	00 00       	nop	
  26:	01 0c       	.word	H'1,H'c
  28:	00 00       	nop	
  2a:	01 0c       	.word	H'1,H'c
  2c:	00 00       	nop	
  2e:	01 0c       	.word	H'1,H'c
	...
  90:	00 00       	nop	
  92:	02 08       	stc	ccr,r0l
  94:	00 00       	nop	
  96:	02 08       	stc	ccr,r0l
  98:	00 00       	nop	
  9a:	02 08       	stc	ccr,r0l
  9c:	00 00       	nop	
  9e:	02 08       	stc	ccr,r0l
  a0:	00 00       	nop	
  a2:	02 08       	stc	ccr,r0l
  a4:	00 00       	nop	
  a6:	02 08       	stc	ccr,r0l
  a8:	00 00       	nop	
  aa:	02 08       	stc	ccr,r0l
  ac:	00 00       	nop	
  ae:	02 08       	stc	ccr,r0l
	...
  d0:	00 00       	nop	
  d2:	01 b4       	.word	H'1,H'b4
  d4:	00 00       	nop	
  d6:	01 b4       	.word	H'1,H'b4
  d8:	00 00       	nop	
  da:	01 b4       	.word	H'1,H'b4
  dc:	00 00       	nop	
  de:	01 b4       	.word	H'1,H'b4
  e0:	00 00       	nop	
  e2:	01 b4       	.word	H'1,H'b4
  e4:	00 00       	nop	
  e6:	01 b4       	.word	H'1,H'b4
  e8:	00 00       	nop	
  ea:	01 b4       	.word	H'1,H'b4
  ec:	00 00       	nop	
  ee:	01 b4       	.word	H'1,H'b4
  f0:	00 00       	nop	
  f2:	01 b4       	.word	H'1,H'b4
  f4:	00 00       	nop	
  f6:	01 b4       	.word	H'1,H'b4
  f8:	00 00       	nop	
  fa:	01 b4       	.word	H'1,H'b4
  fc:	00 00       	nop	
  fe:	01 b4       	.word	H'1,H'b4

Disassembly of section .text:

00000100 <_start>:
.Letext0():
 100:	7a 07 00 ff 	mov.l	#0xffff00,er7
 104:	ff 00 
 106:	5e 00 08 aa 	jsr	@0x8aa:24

0000010a <.L11>:
.L11():
 10a:	40 fe       	bra	.-2 (0x10a)

0000010c <_intr_softerr>:
_intr_softerr():
 10c:	01 00 6d f6 	mov.l	er6,@-er7
 110:	01 00 6d f5 	mov.l	er5,@-er7
 114:	01 00 6d f4 	mov.l	er4,@-er7
 118:	01 00 6d f3 	mov.l	er3,@-er7
 11c:	01 00 6d f2 	mov.l	er2,@-er7
 120:	01 00 6d f1 	mov.l	er1,@-er7
 124:	01 00 6d f0 	mov.l	er0,@-er7
 128:	0f f1       	mov.l	er7,er1
 12a:	7a 07 00 ff 	mov.l	#0xffff00,er7
 12e:	ff 00 
 130:	01 00 6d f1 	mov.l	er1,@-er7
 134:	79 00 00 00 	mov.w	#0x0,r0
 138:	5e 00 02 ea 	jsr	@0x2ea:24
 13c:	01 00 6d 71 	mov.l	@er7+,er1
 140:	0f 97       	mov.l	er1,er7
 142:	01 00 6d 70 	mov.l	@er7+,er0
 146:	01 00 6d 71 	mov.l	@er7+,er1
 14a:	01 00 6d 72 	mov.l	@er7+,er2
 14e:	01 00 6d 73 	mov.l	@er7+,er3
 152:	01 00 6d 74 	mov.l	@er7+,er4
 156:	01 00 6d 75 	mov.l	@er7+,er5
 15a:	01 00 6d 76 	mov.l	@er7+,er6
 15e:	56 70       	rte	

00000160 <_intr_syscall>:
_intr_syscall():
 160:	01 00 6d f6 	mov.l	er6,@-er7
 164:	01 00 6d f5 	mov.l	er5,@-er7
 168:	01 00 6d f4 	mov.l	er4,@-er7
 16c:	01 00 6d f3 	mov.l	er3,@-er7
 170:	01 00 6d f2 	mov.l	er2,@-er7
 174:	01 00 6d f1 	mov.l	er1,@-er7
 178:	01 00 6d f0 	mov.l	er0,@-er7
 17c:	0f f1       	mov.l	er7,er1
 17e:	7a 07 00 ff 	mov.l	#0xffff00,er7
 182:	ff 00 
 184:	01 00 6d f1 	mov.l	er1,@-er7
 188:	79 00 00 01 	mov.w	#0x1,r0
 18c:	5e 00 02 ea 	jsr	@0x2ea:24
 190:	01 00 6d 71 	mov.l	@er7+,er1
 194:	0f 97       	mov.l	er1,er7
 196:	01 00 6d 70 	mov.l	@er7+,er0
 19a:	01 00 6d 71 	mov.l	@er7+,er1
 19e:	01 00 6d 72 	mov.l	@er7+,er2
 1a2:	01 00 6d 73 	mov.l	@er7+,er3
 1a6:	01 00 6d 74 	mov.l	@er7+,er4
 1aa:	01 00 6d 75 	mov.l	@er7+,er5
 1ae:	01 00 6d 76 	mov.l	@er7+,er6
 1b2:	56 70       	rte	

000001b4 <_intr_serintr>:
_intr_serintr():
 1b4:	01 00 6d f6 	mov.l	er6,@-er7
 1b8:	01 00 6d f5 	mov.l	er5,@-er7
 1bc:	01 00 6d f4 	mov.l	er4,@-er7
 1c0:	01 00 6d f3 	mov.l	er3,@-er7
 1c4:	01 00 6d f2 	mov.l	er2,@-er7
 1c8:	01 00 6d f1 	mov.l	er1,@-er7
 1cc:	01 00 6d f0 	mov.l	er0,@-er7
 1d0:	0f f1       	mov.l	er7,er1
 1d2:	7a 07 00 ff 	mov.l	#0xffff00,er7
 1d6:	ff 00 
 1d8:	01 00 6d f1 	mov.l	er1,@-er7
 1dc:	79 00 00 02 	mov.w	#0x2,r0
 1e0:	5e 00 02 ea 	jsr	@0x2ea:24
 1e4:	01 00 6d 71 	mov.l	@er7+,er1
 1e8:	0f 97       	mov.l	er1,er7
 1ea:	01 00 6d 70 	mov.l	@er7+,er0
 1ee:	01 00 6d 71 	mov.l	@er7+,er1
 1f2:	01 00 6d 72 	mov.l	@er7+,er2
 1f6:	01 00 6d 73 	mov.l	@er7+,er3
 1fa:	01 00 6d 74 	mov.l	@er7+,er4
 1fe:	01 00 6d 75 	mov.l	@er7+,er5
 202:	01 00 6d 76 	mov.l	@er7+,er6
 206:	56 70       	rte	

00000208 <_intr_timintr>:
_intr_timintr():
 208:	01 00 6d f6 	mov.l	er6,@-er7
 20c:	01 00 6d f5 	mov.l	er5,@-er7
 210:	01 00 6d f4 	mov.l	er4,@-er7
 214:	01 00 6d f3 	mov.l	er3,@-er7
 218:	01 00 6d f2 	mov.l	er2,@-er7
 21c:	01 00 6d f1 	mov.l	er1,@-er7
 220:	01 00 6d f0 	mov.l	er0,@-er7
 224:	0f f1       	mov.l	er7,er1
 226:	7a 07 00 ff 	mov.l	#0xffff00,er7
 22a:	ff 00 
 22c:	01 00 6d f1 	mov.l	er1,@-er7
 230:	79 00 00 03 	mov.w	#0x3,r0
 234:	5e 00 02 ea 	jsr	@0x2ea:24
 238:	01 00 6d 71 	mov.l	@er7+,er1
 23c:	0f 97       	mov.l	er1,er7
 23e:	01 00 6d 70 	mov.l	@er7+,er0
 242:	01 00 6d 71 	mov.l	@er7+,er1
 246:	01 00 6d 72 	mov.l	@er7+,er2
 24a:	01 00 6d 73 	mov.l	@er7+,er3
 24e:	01 00 6d 74 	mov.l	@er7+,er4
 252:	01 00 6d 75 	mov.l	@er7+,er5
 256:	01 00 6d 76 	mov.l	@er7+,er6
 25a:	56 70       	rte	

0000025c <_softvec_init>:
softvec_init():
/home/interrupt.c:7
#include "intr.h"
#include "interrupt.h"

/* ソフトウエア・割込みベクタの初期化 */
int softvec_init(void)
{
 25c:	01 00 6d f6 	mov.l	er6,@-er7
 260:	0f f6       	mov.l	er7,er6

00000262 <.LBB4>:
softvec_setintr():
/home/interrupt.c:17
}

/* ソフトウエア・割込みベクタの設定 */
int softvec_setintr(softvec_type_t type, softvec_handler_t handler)
{
  SOFTVECS[type] = handler;
 262:	18 aa       	sub.b	r2l,r2l
 264:	6a aa 00 ff 	mov.b	r2l,@0xffbf20:32
 268:	bf 20 
 26a:	6a aa 00 ff 	mov.b	r2l,@0xffbf21:32
 26e:	bf 21 
 270:	6a aa 00 ff 	mov.b	r2l,@0xffbf22:32
 274:	bf 22 
 276:	6a aa 00 ff 	mov.b	r2l,@0xffbf23:32
 27a:	bf 23 
 27c:	6a aa 00 ff 	mov.b	r2l,@0xffbf24:32
 280:	bf 24 
 282:	6a aa 00 ff 	mov.b	r2l,@0xffbf25:32
 286:	bf 25 
 288:	6a aa 00 ff 	mov.b	r2l,@0xffbf26:32
 28c:	bf 26 
 28e:	6a aa 00 ff 	mov.b	r2l,@0xffbf27:32
 292:	bf 27 
 294:	6a aa 00 ff 	mov.b	r2l,@0xffbf28:32
 298:	bf 28 
 29a:	6a aa 00 ff 	mov.b	r2l,@0xffbf29:32
 29e:	bf 29 
 2a0:	6a aa 00 ff 	mov.b	r2l,@0xffbf2a:32
 2a4:	bf 2a 
 2a6:	6a aa 00 ff 	mov.b	r2l,@0xffbf2b:32
 2aa:	bf 2b 
 2ac:	6a aa 00 ff 	mov.b	r2l,@0xffbf2c:32
 2b0:	bf 2c 
 2b2:	6a aa 00 ff 	mov.b	r2l,@0xffbf2d:32
 2b6:	bf 2d 
 2b8:	6a aa 00 ff 	mov.b	r2l,@0xffbf2e:32
 2bc:	bf 2e 
 2be:	6a aa 00 ff 	mov.b	r2l,@0xffbf2f:32
 2c2:	bf 2f 

000002c4 <.LM3>:
softvec_init():
/home/interrupt.c:12
}
 2c4:	19 00       	sub.w	r0,r0
 2c6:	01 00 6d 76 	mov.l	@er7+,er6
 2ca:	54 70       	rts	

000002cc <_softvec_setintr>:
softvec_setintr():
/home/interrupt.c:16
{
 2cc:	01 00 6d f6 	mov.l	er6,@-er7
 2d0:	0f f6       	mov.l	er7,er6

000002d2 <.LM5>:
/home/interrupt.c:17
  SOFTVECS[type] = handler;
 2d2:	17 f0       	exts.l	er0
 2d4:	10 30       	shll.l	er0
 2d6:	10 30       	shll.l	er0
 2d8:	01 00 78 80 	mov.l	er1,@(0xffbf20:32,er0)
 2dc:	6b a1 00 ff 
 2e0:	bf 20 

000002e2 <.LM6>:
/home/interrupt.c:19
  return 0;
}
 2e2:	19 00       	sub.w	r0,r0
 2e4:	01 00 6d 76 	mov.l	@er7+,er6
 2e8:	54 70       	rts	

000002ea <_interrupt>:
interrupt():
/home/interrupt.c:26
/*
 * 共通割込みハンドラ．
 * ソフトウエア・割込みベクタを見て，各ハンドラに分岐する．
 */
void interrupt(softvec_type_t type, unsigned long sp)
{
 2ea:	01 00 6d f6 	mov.l	er6,@-er7
 2ee:	0f f6       	mov.l	er7,er6

000002f0 <.LM8>:
/home/interrupt.c:27
  softvec_handler_t handler = SOFTVECS[type];
 2f0:	0d 02       	mov.w	r0,r2
 2f2:	17 f2       	exts.l	er2
 2f4:	10 32       	shll.l	er2
 2f6:	10 32       	shll.l	er2
 2f8:	01 00 78 20 	mov.l	@(0xffbf20:32,er2),er2
 2fc:	6b 22 00 ff 
 300:	bf 20 

00000302 <.LM9>:
/home/interrupt.c:28
  if (handler)
 302:	47 02       	beq	.+2 (0x306)

00000304 <.LM10>:
/home/interrupt.c:29
    handler(type, sp);
 304:	5d 20       	jsr	@er2

00000306 <.L3>:
/home/interrupt.c:30
}
 306:	01 00 6d 76 	mov.l	@er7+,er6
 30a:	54 70       	rts	

0000030c <_memset>:
memset():
/home/lib.c:6
#include "defines.h"
#include "serial.h"
#include "lib.h"

void *memset(void *b, int c, long len)
{
 30c:	01 00 6d f6 	mov.l	er6,@-er7
 310:	0f f6       	mov.l	er7,er6
 312:	01 00 6d f4 	mov.l	er4,@-er7

00000316 <.LM2>:
/home/lib.c:8
  char *p;
  for (p = b; len > 0; len--)
 316:	0f 83       	mov.l	er0,er3
 318:	0a 82       	add.l	er0,er2
 31a:	40 04       	bra	.+4 (0x320)

0000031c <.L3>:
/home/lib.c:9 (discriminator 3)
    *(p++) = c;
 31c:	68 b9       	mov.b	r1l,@er3
 31e:	0b 03       	adds	#1,er3

00000320 <.L2>:
 320:	0f a4       	mov.l	er2,er4
 322:	1a b4       	sub.l	er3,er4

00000324 <.LM4>:
/home/lib.c:8 (discriminator 1)
  for (p = b; len > 0; len--)
 324:	0f c4       	mov.l	er4,er4
 326:	4e f4       	bgt	.-12 (0x31c)

00000328 <.LM5>:
/home/lib.c:11
  return b;
}
 328:	01 00 6d 74 	mov.l	@er7+,er4
 32c:	01 00 6d 76 	mov.l	@er7+,er6
 330:	54 70       	rts	

00000332 <_memcpy>:
memcpy():
/home/lib.c:14

void *memcpy(void *dst, const void *src, long len)
{
 332:	01 00 6d f6 	mov.l	er6,@-er7
 336:	0f f6       	mov.l	er7,er6
 338:	01 00 6d f4 	mov.l	er4,@-er7
 33c:	01 00 6d f5 	mov.l	er5,@-er7

00000340 <.LM7>:
/home/lib.c:17
  char *d = dst;
  const char *s = src;
  for (; len > 0; len--)
 340:	1a b3       	sub.l	er3,er3
 342:	40 0e       	bra	.+14 (0x352)

00000344 <.L6>:
/home/lib.c:18 (discriminator 2)
    *(d++) = *(s++);
 344:	0f 94       	mov.l	er1,er4
 346:	0a b4       	add.l	er3,er4
 348:	68 4d       	mov.b	@er4,r5l
 34a:	0f 84       	mov.l	er0,er4
 34c:	0a b4       	add.l	er3,er4
 34e:	68 cd       	mov.b	r5l,@er4
 350:	0b 03       	adds	#1,er3

00000352 <.L5>:
 352:	0f a4       	mov.l	er2,er4
 354:	1a b4       	sub.l	er3,er4

00000356 <.LM9>:
/home/lib.c:17 (discriminator 1)
  for (; len > 0; len--)
 356:	0f c4       	mov.l	er4,er4
 358:	4e ea       	bgt	.-22 (0x344)

0000035a <.LM10>:
/home/lib.c:20
  return dst;
}
 35a:	01 00 6d 75 	mov.l	@er7+,er5
 35e:	01 00 6d 74 	mov.l	@er7+,er4
 362:	01 00 6d 76 	mov.l	@er7+,er6
 366:	54 70       	rts	

00000368 <_memcmp>:
memcmp():
/home/lib.c:23

int memcmp(const void *b1, const void *b2, long len)
{
 368:	01 00 6d f6 	mov.l	er6,@-er7
 36c:	0f f6       	mov.l	er7,er6
 36e:	01 00 6d f4 	mov.l	er4,@-er7
 372:	0a 82       	add.l	er0,er2

00000374 <.LM12>:
/home/lib.c:25
  const char *p1 = b1, *p2 = b2;
  for (; len > 0; len--) {
 374:	40 14       	bra	.+20 (0x38a)

00000376 <.L11>:
/home/lib.c:26
    if (*p1 != *p2)
 376:	68 0c       	mov.b	@er0,r4l
 378:	68 1b       	mov.b	@er1,r3l
 37a:	1c bc       	cmp.b	r3l,r4l
 37c:	47 08       	beq	.+8 (0x386)

0000037e <.LM14>:
/home/lib.c:27
      return (*p1 > *p2) ? 1 : -1;
 37e:	42 16       	bhi	.+22 (0x396)
 380:	79 00 ff ff 	mov.w	#0xffff,r0
 384:	40 14       	bra	.+20 (0x39a)

00000386 <.L9>:
/home/lib.c:28
    p1++;
 386:	0b 00       	adds	#1,er0

00000388 <.LM16>:
/home/lib.c:29
    p2++;
 388:	0b 01       	adds	#1,er1

0000038a <.L8>:
 38a:	0f a3       	mov.l	er2,er3
 38c:	1a 83       	sub.l	er0,er3

0000038e <.LM17>:
/home/lib.c:25 (discriminator 1)
  for (; len > 0; len--) {
 38e:	0f b3       	mov.l	er3,er3
 390:	4e e4       	bgt	.-28 (0x376)

00000392 <.LM18>:
/home/lib.c:31
  }
  return 0;
 392:	19 00       	sub.w	r0,r0
 394:	40 04       	bra	.+4 (0x39a)

00000396 <.L12>:
/home/lib.c:27
      return (*p1 > *p2) ? 1 : -1;
 396:	79 00 00 01 	mov.w	#0x1,r0

0000039a <.L7>:
/home/lib.c:32
}
 39a:	01 00 6d 74 	mov.l	@er7+,er4
 39e:	01 00 6d 76 	mov.l	@er7+,er6
 3a2:	54 70       	rts	

000003a4 <_strlen>:
strlen():
/home/lib.c:35

int strlen(const char *s)
{
 3a4:	01 00 6d f6 	mov.l	er6,@-er7
 3a8:	0f f6       	mov.l	er7,er6

000003aa <.LM22>:
/home/lib.c:37
  int len;
  for (len = 0; *s; s++, len++)
 3aa:	19 22       	sub.w	r2,r2
 3ac:	40 04       	bra	.+4 (0x3b2)

000003ae <.L15>:
/home/lib.c:37 (discriminator 3)
 3ae:	0b 00       	adds	#1,er0
 3b0:	0b 02       	adds	#1,er2

000003b2 <.L14>:
/home/lib.c:37 (discriminator 1)
 3b2:	68 0b       	mov.b	@er0,r3l
 3b4:	46 f8       	bne	.-8 (0x3ae)

000003b6 <.LM25>:
/home/lib.c:40
    ;
  return len;
}
 3b6:	0d 20       	mov.w	r2,r0
 3b8:	01 00 6d 76 	mov.l	@er7+,er6
 3bc:	54 70       	rts	

000003be <_strcpy>:
strcpy():
/home/lib.c:43

char *strcpy(char *dst, const char *src)
{
 3be:	01 00 6d f6 	mov.l	er6,@-er7
 3c2:	0f f6       	mov.l	er7,er6

000003c4 <.LM27>:
 3c4:	0f 82       	mov.l	er0,er2

000003c6 <.L18>:
/home/lib.c:46
  char *d = dst;
  for (;; dst++, src++) {
    *dst = *src;
 3c6:	68 1b       	mov.b	@er1,r3l
 3c8:	68 ab       	mov.b	r3l,@er2

000003ca <.LM29>:
/home/lib.c:47
    if (!*src) break;
 3ca:	68 1b       	mov.b	@er1,r3l
 3cc:	47 06       	beq	.+6 (0x3d4)

000003ce <.LM30>:
/home/lib.c:45
  for (;; dst++, src++) {
 3ce:	0b 02       	adds	#1,er2
 3d0:	0b 01       	adds	#1,er1

000003d2 <.LM31>:
/home/lib.c:46
    *dst = *src;
 3d2:	40 f2       	bra	.-14 (0x3c6)

000003d4 <.L17>:
/home/lib.c:50
  }
  return d;
}
 3d4:	01 00 6d 76 	mov.l	@er7+,er6
 3d8:	54 70       	rts	

000003da <_strcmp>:
strcmp():
/home/lib.c:53

int strcmp(const char *s1, const char *s2)
{
 3da:	01 00 6d f6 	mov.l	er6,@-er7
 3de:	0f f6       	mov.l	er7,er6

000003e0 <.LM34>:
/home/lib.c:54
  while (*s1 || *s2) {
 3e0:	40 10       	bra	.+16 (0x3f2)

000003e2 <.L23>:
/home/lib.c:55
    if (*s1 != *s2)
 3e2:	1c ba       	cmp.b	r3l,r2l
 3e4:	47 08       	beq	.+8 (0x3ee)

000003e6 <.LM36>:
/home/lib.c:56
      return (*s1 > *s2) ? 1 : -1;
 3e6:	44 20       	bcc	.+32 (0x408)
 3e8:	79 00 00 01 	mov.w	#0x1,r0
 3ec:	40 1e       	bra	.+30 (0x40c)

000003ee <.L21>:
/home/lib.c:57
    s1++;
 3ee:	0b 00       	adds	#1,er0

000003f0 <.LM38>:
/home/lib.c:58
    s2++;
 3f0:	0b 01       	adds	#1,er1

000003f2 <.L20>:
/home/lib.c:54
  while (*s1 || *s2) {
 3f2:	68 0b       	mov.b	@er0,r3l
 3f4:	68 1a       	mov.b	@er1,r2l
 3f6:	0c bb       	mov.b	r3l,r3l
 3f8:	46 e8       	bne	.-24 (0x3e2)

000003fa <.LM40>:
/home/lib.c:54 (discriminator 1)
 3fa:	79 00 00 01 	mov.w	#0x1,r0
 3fe:	0c aa       	mov.b	r2l,r2l
 400:	46 02       	bne	.+2 (0x404)
 402:	19 00       	sub.w	r0,r0

00000404 <.L24>:
 404:	17 90       	neg.w	r0
 406:	40 04       	bra	.+4 (0x40c)

00000408 <.L25>:
/home/lib.c:56
      return (*s1 > *s2) ? 1 : -1;
 408:	79 00 ff ff 	mov.w	#0xffff,r0

0000040c <.L19>:
/home/lib.c:61
  }
  return 0;
}
 40c:	01 00 6d 76 	mov.l	@er7+,er6
 410:	54 70       	rts	

00000412 <_strncmp>:
strncmp():
/home/lib.c:64

int strncmp(const char *s1, const char *s2, int len)
{
 412:	01 00 6d f6 	mov.l	er6,@-er7
 416:	0f f6       	mov.l	er7,er6
 418:	01 00 6d f4 	mov.l	er4,@-er7

0000041c <.LM44>:
/home/lib.c:65
  while ((*s1 || *s2) && (len > 0)) {
 41c:	40 14       	bra	.+20 (0x432)

0000041e <.L32>:
/home/lib.c:66
    if (*s1 != *s2)
 41e:	68 1c       	mov.b	@er1,r4l
 420:	1c bc       	cmp.b	r3l,r4l
 422:	47 08       	beq	.+8 (0x42c)

00000424 <.LM46>:
/home/lib.c:67
      return (*s1 > *s2) ? 1 : -1;
 424:	45 1e       	bcs	.+30 (0x444)
 426:	79 00 ff ff 	mov.w	#0xffff,r0
 42a:	40 2a       	bra	.+42 (0x456)

0000042c <.L28>:
/home/lib.c:68
    s1++;
 42c:	0b 00       	adds	#1,er0

0000042e <.LM48>:
/home/lib.c:69
    s2++;
 42e:	0b 01       	adds	#1,er1

00000430 <.LM49>:
/home/lib.c:70
    len--;
 430:	1b 02       	subs	#1,er2

00000432 <.L27>:
/home/lib.c:65
  while ((*s1 || *s2) && (len > 0)) {
 432:	68 0b       	mov.b	@er0,r3l
 434:	46 06       	bne	.+6 (0x43c)

00000436 <.LM51>:
/home/lib.c:65 (discriminator 2)
 436:	68 1b       	mov.b	@er1,r3l
 438:	46 10       	bne	.+16 (0x44a)
 43a:	40 04       	bra	.+4 (0x440)

0000043c <.L30>:
/home/lib.c:65 (discriminator 3)
 43c:	0d 22       	mov.w	r2,r2
 43e:	4e de       	bgt	.-34 (0x41e)

00000440 <.L35>:
/home/lib.c:72
  }
  return 0;
 440:	19 00       	sub.w	r0,r0
 442:	40 12       	bra	.+18 (0x456)

00000444 <.L34>:
/home/lib.c:67
      return (*s1 > *s2) ? 1 : -1;
 444:	79 00 00 01 	mov.w	#0x1,r0
 448:	40 0c       	bra	.+12 (0x456)

0000044a <.L31>:
/home/lib.c:65
  while ((*s1 || *s2) && (len > 0)) {
 44a:	79 00 00 01 	mov.w	#0x1,r0
 44e:	0d 22       	mov.w	r2,r2
 450:	4e 02       	bgt	.+2 (0x454)
 452:	19 00       	sub.w	r0,r0

00000454 <.L33>:
 454:	17 90       	neg.w	r0

00000456 <.L26>:
/home/lib.c:73
}
 456:	01 00 6d 74 	mov.l	@er7+,er4
 45a:	01 00 6d 76 	mov.l	@er7+,er6
 45e:	54 70       	rts	

00000460 <_putc>:
putc():
/home/lib.c:77

/* １文字送信 */
int putc(unsigned char c)
{
 460:	01 00 6d f6 	mov.l	er6,@-er7
 464:	0f f6       	mov.l	er7,er6
 466:	01 00 6d f4 	mov.l	er4,@-er7
 46a:	0c 8c       	mov.b	r0l,r4l

0000046c <.LM58>:
/home/lib.c:78
  if (c == '\n')
 46c:	a8 0a       	cmp.b	#0xa,r0l
 46e:	46 0a       	bne	.+10 (0x47a)

00000470 <.LM59>:
/home/lib.c:79
    serial_send_byte(SERIAL_DEFAULT_DEVICE, '\r');
 470:	f9 0d       	mov.b	#0xd,r1l
 472:	79 00 00 01 	mov.w	#0x1,r0
 476:	5e 00 05 ec 	jsr	@0x5ec:24

0000047a <.L37>:
/home/lib.c:80
  return serial_send_byte(SERIAL_DEFAULT_DEVICE, c);
 47a:	0c c9       	mov.b	r4l,r1l
 47c:	79 00 00 01 	mov.w	#0x1,r0
 480:	5e 00 05 ec 	jsr	@0x5ec:24

00000484 <.LM61>:
/home/lib.c:81
}
 484:	01 00 6d 74 	mov.l	@er7+,er4
 488:	01 00 6d 76 	mov.l	@er7+,er6
 48c:	54 70       	rts	

0000048e <_getc>:
getc():
/home/lib.c:85

/* １文字受信 */
unsigned char getc(void)
{
 48e:	01 00 6d f6 	mov.l	er6,@-er7
 492:	0f f6       	mov.l	er7,er6
 494:	01 00 6d f4 	mov.l	er4,@-er7

00000498 <.LM63>:
/home/lib.c:86
  unsigned char c = serial_recv_byte(SERIAL_DEFAULT_DEVICE);
 498:	79 00 00 01 	mov.w	#0x1,r0
 49c:	5e 00 06 42 	jsr	@0x642:24

000004a0 <.LVL60>:
 4a0:	0c 8c       	mov.b	r0l,r4l

000004a2 <.LM64>:
/home/lib.c:87
  c = (c == '\r') ? '\n' : c;
 4a2:	a8 0d       	cmp.b	#0xd,r0l
 4a4:	46 02       	bne	.+2 (0x4a8)
 4a6:	fc 0a       	mov.b	#0xa,r4l

000004a8 <.L39>:
/home/lib.c:88 (discriminator 4)
  putc(c); /* エコー・バック */
 4a8:	0c c8       	mov.b	r4l,r0l
 4aa:	5e 00 04 60 	jsr	@0x460:24

000004ae <.LM66>:
/home/lib.c:90
  return c;
}
 4ae:	0c c8       	mov.b	r4l,r0l
 4b0:	01 00 6d 74 	mov.l	@er7+,er4
 4b4:	01 00 6d 76 	mov.l	@er7+,er6
 4b8:	54 70       	rts	

000004ba <_puts>:
puts():
/home/lib.c:94

/* 文字列送信 */
int puts(unsigned char *str)
{
 4ba:	01 00 6d f6 	mov.l	er6,@-er7
 4be:	0f f6       	mov.l	er7,er6
 4c0:	01 00 6d f4 	mov.l	er4,@-er7
 4c4:	0f 84       	mov.l	er0,er4

000004c6 <.LM68>:
/home/lib.c:95
  while (*str)
 4c6:	40 06       	bra	.+6 (0x4ce)

000004c8 <.L42>:
/home/lib.c:96
    putc(*(str++));
 4c8:	0b 04       	adds	#1,er4
 4ca:	5e 00 04 60 	jsr	@0x460:24

000004ce <.L41>:
/home/lib.c:95
  while (*str)
 4ce:	68 48       	mov.b	@er4,r0l
 4d0:	46 f6       	bne	.-10 (0x4c8)

000004d2 <.LM71>:
/home/lib.c:98
  return 0;
}
 4d2:	19 00       	sub.w	r0,r0
 4d4:	01 00 6d 74 	mov.l	@er7+,er4
 4d8:	01 00 6d 76 	mov.l	@er7+,er6
 4dc:	54 70       	rts	

000004de <_gets>:
gets():
/home/lib.c:102

/* 文字列受信 */
int gets(unsigned char *buf)
{
 4de:	01 00 6d f6 	mov.l	er6,@-er7
 4e2:	0f f6       	mov.l	er7,er6
 4e4:	01 00 6d f4 	mov.l	er4,@-er7
 4e8:	01 00 6d f5 	mov.l	er5,@-er7
 4ec:	1b 97       	subs	#4,er7
 4ee:	0f 85       	mov.l	er0,er5

000004f0 <.LM73>:
 4f0:	0f 84       	mov.l	er0,er4

000004f2 <.L45>:
 4f2:	0d 42       	mov.w	r4,r2
 4f4:	19 52       	sub.w	r5,r2

000004f6 <.LM74>:
/home/lib.c:106
  int i = 0;
  unsigned char c;
  do {
    c = getc();
 4f6:	01 00 6f e2 	mov.l	er2,@(0xfff4:16,er6)
 4fa:	ff f4 
 4fc:	5e 00 04 8e 	jsr	@0x48e:24

00000500 <.LM75>:
/home/lib.c:107
    if (c == '\n')
 500:	01 00 6f 62 	mov.l	@(0xfff4:16,er6),er2
 504:	ff f4 
 506:	a8 0a       	cmp.b	#0xa,r0l
 508:	46 02       	bne	.+2 (0x50c)

0000050a <.LM76>:
/home/lib.c:108
      c = '\0';
 50a:	18 88       	sub.b	r0l,r0l

0000050c <.L44>:
/home/lib.c:109
    buf[i++] = c;
 50c:	68 c8       	mov.b	r0l,@er4
 50e:	0b 04       	adds	#1,er4

00000510 <.LM78>:
/home/lib.c:110
  } while (c);
 510:	46 e0       	bne	.-32 (0x4f2)

00000512 <.LM79>:
/home/lib.c:112
  return i - 1;
}
 512:	0d 20       	mov.w	r2,r0
 514:	0b 97       	adds	#4,er7
 516:	01 00 6d 75 	mov.l	@er7+,er5
 51a:	01 00 6d 74 	mov.l	@er7+,er4
 51e:	01 00 6d 76 	mov.l	@er7+,er6
 522:	54 70       	rts	

00000524 <_putxval>:
putxval():
/home/lib.c:116

/* 数値の16進表示 */
int putxval(unsigned long value, int column)
{
 524:	01 00 6d f6 	mov.l	er6,@-er7
 528:	0f f6       	mov.l	er7,er6
 52a:	01 00 6d f4 	mov.l	er4,@-er7
 52e:	7a 37 00 00 	sub.l	#0xc,er7
 532:	00 0c 

00000534 <.LM81>:
/home/lib.c:121
  char buf[9];
  char *p;

  p = buf + sizeof(buf) - 1;
  *(p--) = '\0';
 534:	18 aa       	sub.b	r2l,r2l
 536:	6e ea ff fb 	mov.b	r2l,@(0xfffb:16,er6)

0000053a <.LM82>:
/home/lib.c:123

  if (!value && !column)
 53a:	0f 80       	mov.l	er0,er0
 53c:	46 08       	bne	.+8 (0x546)

0000053e <.LM83>:
/home/lib.c:123 (discriminator 1)
 53e:	0d 11       	mov.w	r1,r1
 540:	46 04       	bne	.+4 (0x546)

00000542 <.LM84>:
/home/lib.c:124
    column++;
 542:	79 01 00 01 	mov.w	#0x1,r1

00000546 <.L48>:
 546:	0f e2       	mov.l	er6,er2
 548:	1b 92       	subs	#4,er2
 54a:	1b 82       	subs	#2,er2

0000054c <.LM85>:
/home/lib.c:127

  while (value || column) {
    *(p--) = "0123456789abcdef"[value & 0xf];
 54c:	7a 04 00 00 	mov.l	#0xb43,er4
 550:	0b 43 
 552:	40 1c       	bra	.+28 (0x570)

00000554 <.L51>:
 554:	1a b3       	sub.l	er3,er3
 556:	0c 8b       	mov.b	r0l,r3l
 558:	eb 0f       	and.b	#0xf,r3l
 55a:	0a c3       	add.l	er4,er3
 55c:	68 3b       	mov.b	@er3,r3l
 55e:	68 ab       	mov.b	r3l,@er2

00000560 <.LM86>:
/home/lib.c:128
    value >>= 4;
 560:	11 30       	shlr.l	er0
 562:	11 30       	shlr.l	er0
 564:	11 30       	shlr.l	er0
 566:	11 30       	shlr.l	er0

00000568 <.LM87>:
/home/lib.c:129
    if (column) column--;
 568:	0d 11       	mov.w	r1,r1
 56a:	47 02       	beq	.+2 (0x56e)

0000056c <.LM88>:
/home/lib.c:129 (discriminator 1)
 56c:	1b 01       	subs	#1,er1

0000056e <.L50>:
 56e:	1b 02       	subs	#1,er2

00000570 <.L49>:
/home/lib.c:126
  while (value || column) {
 570:	0f 80       	mov.l	er0,er0
 572:	46 e0       	bne	.-32 (0x554)

00000574 <.LM90>:
/home/lib.c:126 (discriminator 1)
 574:	0d 11       	mov.w	r1,r1
 576:	46 dc       	bne	.-36 (0x554)

00000578 <.LM91>:
/home/lib.c:132
  }

  puts(p + 1);
 578:	0f a0       	mov.l	er2,er0
 57a:	0b 00       	adds	#1,er0
 57c:	5e 00 04 ba 	jsr	@0x4ba:24

00000580 <.LM92>:
/home/lib.c:135

  return 0;
}
 580:	19 00       	sub.w	r0,r0
 582:	7a 17 00 00 	add.l	#0xc,er7
 586:	00 0c 
 588:	01 00 6d 74 	mov.l	@er7+,er4
 58c:	01 00 6d 76 	mov.l	@er7+,er6
 590:	54 70       	rts	

00000592 <_serial_init>:
serial_init():
/home/serial.c:59
  { H8_3069F_SCI2 }, 
};

/* デバイス初期化 */
int serial_init(int index)
{
 592:	01 00 6d f6 	mov.l	er6,@-er7
 596:	0f f6       	mov.l	er7,er6

00000598 <.LM2>:
/home/serial.c:60
  volatile struct h8_3069f_sci *sci = regs[index].sci;
 598:	17 f0       	exts.l	er0
 59a:	10 30       	shll.l	er0
 59c:	10 30       	shll.l	er0
 59e:	01 00 78 00 	mov.l	@(0xa84:32,er0),er2
 5a2:	6b 22 00 00 
 5a6:	0a 84 

000005a8 <.LM3>:
/home/serial.c:62

  sci->scr = 0;
 5a8:	18 bb       	sub.b	r3l,r3l
 5aa:	6e ab 00 02 	mov.b	r3l,@(0x2:16,er2)

000005ae <.LM4>:
/home/serial.c:63
  sci->smr = 0;
 5ae:	68 ab       	mov.b	r3l,@er2

000005b0 <.LM5>:
/home/serial.c:64
  sci->brr = 64; /* 20MHzのクロックから9600bpsを生成(25MHzの場合は80にする) */
 5b0:	f8 40       	mov.b	#0x40,r0l
 5b2:	6e a8 00 01 	mov.b	r0l,@(0x1:16,er2)

000005b6 <.LM6>:
/home/serial.c:65
  sci->scr = H8_3069F_SCI_SCR_RE | H8_3069F_SCI_SCR_TE; /* 送受信可能 */
 5b6:	f8 30       	mov.b	#0x30,r0l
 5b8:	6e a8 00 02 	mov.b	r0l,@(0x2:16,er2)

000005bc <.LM7>:
/home/serial.c:66
  sci->ssr = 0;
 5bc:	6e ab 00 04 	mov.b	r3l,@(0x4:16,er2)

000005c0 <.LM8>:
/home/serial.c:69

  return 0;
}
 5c0:	19 00       	sub.w	r0,r0
 5c2:	01 00 6d 76 	mov.l	@er7+,er6
 5c6:	54 70       	rts	

000005c8 <_serial_is_send_enable>:
serial_is_send_enable():
/home/serial.c:73

/* 送信可能か？ */
int serial_is_send_enable(int index)
{
 5c8:	01 00 6d f6 	mov.l	er6,@-er7
 5cc:	0f f6       	mov.l	er7,er6

000005ce <.LM10>:
/home/serial.c:74
  volatile struct h8_3069f_sci *sci = regs[index].sci;
 5ce:	17 f0       	exts.l	er0
 5d0:	10 30       	shll.l	er0
 5d2:	10 30       	shll.l	er0
 5d4:	01 00 78 00 	mov.l	@(0xa84:32,er0),er2
 5d8:	6b 22 00 00 
 5dc:	0a 84 

000005de <.LM11>:
/home/serial.c:75
  return (sci->ssr & H8_3069F_SCI_SSR_TDRE);
 5de:	6e 28 00 04 	mov.b	@(0x4:16,er2),r0l
 5e2:	e8 80       	and.b	#0x80,r0l

000005e4 <.LM12>:
/home/serial.c:76
}
 5e4:	17 50       	extu.w	r0
 5e6:	01 00 6d 76 	mov.l	@er7+,er6
 5ea:	54 70       	rts	

000005ec <_serial_send_byte>:
serial_send_byte():
/home/serial.c:80

/* １文字送信 */
int serial_send_byte(int index, unsigned char c)
{
 5ec:	01 00 6d f6 	mov.l	er6,@-er7
 5f0:	0f f6       	mov.l	er7,er6

000005f2 <.LM14>:
/home/serial.c:81
  volatile struct h8_3069f_sci *sci = regs[index].sci;
 5f2:	17 f0       	exts.l	er0
 5f4:	10 30       	shll.l	er0
 5f6:	10 30       	shll.l	er0
 5f8:	01 00 78 00 	mov.l	@(0xa84:32,er0),er2
 5fc:	6b 22 00 00 
 600:	0a 84 

00000602 <.L4>:
serial_is_send_enable():
/home/serial.c:75 (discriminator 1)
  return (sci->ssr & H8_3069F_SCI_SSR_TDRE);
 602:	6e 2b 00 04 	mov.b	@(0x4:16,er2),r3l

00000606 <.LM16>:
serial_send_byte():
/home/serial.c:84

  /* 送信可能になるまで待つ */
  while (!serial_is_send_enable(index))
 606:	4c fa       	bge	.-6 (0x602)

00000608 <.LM17>:
/home/serial.c:86
    ;
  sci->tdr = c;
 608:	6e a9 00 03 	mov.b	r1l,@(0x3:16,er2)

0000060c <.LM18>:
/home/serial.c:87
  sci->ssr &= ~H8_3069F_SCI_SSR_TDRE; /* 送信開始 */
 60c:	6e 2b 00 04 	mov.b	@(0x4:16,er2),r3l
 610:	72 7b       	bclr	#0x7,r3l
 612:	6e ab 00 04 	mov.b	r3l,@(0x4:16,er2)

00000616 <.LM19>:
/home/serial.c:90

  return 0;
}
 616:	19 00       	sub.w	r0,r0
 618:	01 00 6d 76 	mov.l	@er7+,er6
 61c:	54 70       	rts	

0000061e <_serial_is_recv_enable>:
serial_is_recv_enable():
/home/serial.c:94

/* 受信可能か？ */
int serial_is_recv_enable(int index)
{
 61e:	01 00 6d f6 	mov.l	er6,@-er7
 622:	0f f6       	mov.l	er7,er6

00000624 <.LM21>:
/home/serial.c:95
  volatile struct h8_3069f_sci *sci = regs[index].sci;
 624:	17 f0       	exts.l	er0
 626:	10 30       	shll.l	er0
 628:	10 30       	shll.l	er0
 62a:	01 00 78 00 	mov.l	@(0xa84:32,er0),er2
 62e:	6b 22 00 00 
 632:	0a 84 

00000634 <.LM22>:
/home/serial.c:96
  return (sci->ssr & H8_3069F_SCI_SSR_RDRF);
 634:	6e 28 00 04 	mov.b	@(0x4:16,er2),r0l
 638:	e8 40       	and.b	#0x40,r0l

0000063a <.LM23>:
/home/serial.c:97
}
 63a:	17 50       	extu.w	r0
 63c:	01 00 6d 76 	mov.l	@er7+,er6
 640:	54 70       	rts	

00000642 <_serial_recv_byte>:
serial_recv_byte():
/home/serial.c:101

/* １文字受信 */
unsigned char serial_recv_byte(int index)
{
 642:	01 00 6d f6 	mov.l	er6,@-er7
 646:	0f f6       	mov.l	er7,er6

00000648 <.LM25>:
/home/serial.c:102
  volatile struct h8_3069f_sci *sci = regs[index].sci;
 648:	17 f0       	exts.l	er0
 64a:	10 30       	shll.l	er0
 64c:	10 30       	shll.l	er0
 64e:	01 00 78 00 	mov.l	@(0xa84:32,er0),er2
 652:	6b 22 00 00 
 656:	0a 84 

00000658 <.L8>:
serial_is_recv_enable():
/home/serial.c:96 (discriminator 1)
  return (sci->ssr & H8_3069F_SCI_SSR_RDRF);
 658:	6e 2b 00 04 	mov.b	@(0x4:16,er2),r3l

0000065c <.LM27>:
serial_recv_byte():
/home/serial.c:106
  unsigned char c;

  /* 受信文字が来るまで待つ */
  while (!serial_is_recv_enable(index))
 65c:	73 6b       	btst	#0x6,r3l
 65e:	47 f8       	beq	.-8 (0x658)

00000660 <.LM28>:
/home/serial.c:108
    ;
  c = sci->rdr;
 660:	6e 28 00 05 	mov.b	@(0x5:16,er2),r0l

00000664 <.LM29>:
/home/serial.c:109
  sci->ssr &= ~H8_3069F_SCI_SSR_RDRF; /* 受信完了 */
 664:	6e 2b 00 04 	mov.b	@(0x4:16,er2),r3l
 668:	72 6b       	bclr	#0x6,r3l
 66a:	6e ab 00 04 	mov.b	r3l,@(0x4:16,er2)

0000066e <.LM30>:
/home/serial.c:112

  return c;
}
 66e:	01 00 6d 76 	mov.l	@er7+,er6
 672:	54 70       	rts	

00000674 <_xmodem_recv>:
xmodem_recv():
/home/xmodem.c:60

  return i;
}

long xmodem_recv(char *buf)
{
 674:	01 00 6d f6 	mov.l	er6,@-er7
 678:	0f f6       	mov.l	er7,er6
 67a:	01 00 6d f4 	mov.l	er4,@-er7
 67e:	01 00 6d f5 	mov.l	er5,@-er7
 682:	7a 37 00 00 	sub.l	#0x10,er7
 686:	00 10 
 688:	0f 85       	mov.l	er0,er5

0000068a <.LM2>:
/home/xmodem.c:63
  int r, receiving = 0;
  long size = 0;
  unsigned char c, block_number = 1;
 68a:	fa 01       	mov.b	#0x1,r2l
 68c:	6e ea ff f7 	mov.b	r2l,@(0xfff7:16,er6)

00000690 <.LM3>:
/home/xmodem.c:62
  long size = 0;
 690:	1a c4       	sub.l	er4,er4

00000692 <.LM4>:
/home/xmodem.c:61
  int r, receiving = 0;
 692:	19 22       	sub.w	r2,r2
 694:	6f e2 ff f4 	mov.w	r2,@(0xfff4:16,er6)

00000698 <.L2>:
/home/xmodem.c:66

  while (1) {
    if (!receiving)
 698:	6f 62 ff f4 	mov.w	@(0xfff4:16,er6),r2
 69c:	47 1c       	beq	.+28 (0x6ba)

0000069e <.L8>:
/home/xmodem.c:69
      xmodem_wait(); /* 受信開始されるまで送信要求を出す */

    c = serial_recv_byte(SERIAL_DEFAULT_DEVICE);
 69e:	79 00 00 01 	mov.w	#0x1,r0
 6a2:	5e 00 06 42 	jsr	@0x642:24

000006a6 <.LM7>:
/home/xmodem.c:71

    if (c == XMODEM_EOT) { /* 受信終了 */
 6a6:	a8 04       	cmp.b	#0x4,r0l
 6a8:	46 3e       	bne	.+62 (0x6e8)
 6aa:	40 2e       	bra	.+46 (0x6da)

000006ac <.L7>:
xmodem_wait():
/home/xmodem.c:22
    if (++cnt >= 2000000) {
 6ac:	1b 72       	dec.l	#1,er2
 6ae:	46 10       	bne	.+16 (0x6c0)

000006b0 <.LM9>:
/home/xmodem.c:24
      serial_send_byte(SERIAL_DEFAULT_DEVICE, XMODEM_NAK);
 6b0:	f9 15       	mov.b	#0x15,r1l
 6b2:	79 00 00 01 	mov.w	#0x1,r0
 6b6:	5e 00 05 ec 	jsr	@0x5ec:24

000006ba <.L3>:
xmodem_recv():
/home/xmodem.c:61
  int r, receiving = 0;
 6ba:	7a 02 00 1e 	mov.l	#0x1e8480,er2
 6be:	84 80 

000006c0 <.L6>:
xmodem_wait():
/home/xmodem.c:21
  while (!serial_is_recv_enable(SERIAL_DEFAULT_DEVICE)) {
 6c0:	79 00 00 01 	mov.w	#0x1,r0
 6c4:	01 00 6f e2 	mov.l	er2,@(0xfff0:16,er6)
 6c8:	ff f0 
 6ca:	5e 00 06 1e 	jsr	@0x61e:24

000006ce <.LVL9>:
 6ce:	01 00 6f 62 	mov.l	@(0xfff0:16,er6),er2
 6d2:	ff f0 
 6d4:	0d 00       	mov.w	r0,r0
 6d6:	47 d4       	beq	.-44 (0x6ac)
 6d8:	40 c4       	bra	.-60 (0x69e)

000006da <.L4>:
xmodem_recv():
/home/xmodem.c:72
      serial_send_byte(SERIAL_DEFAULT_DEVICE, XMODEM_ACK);
 6da:	f9 06       	mov.b	#0x6,r1l
 6dc:	79 00 00 01 	mov.w	#0x1,r0
 6e0:	5e 00 05 ec 	jsr	@0x5ec:24

000006e4 <.LM13>:
/home/xmodem.c:93
      if (receiving)
	return -1;
    }
  }

  return size;
 6e4:	58 00 00 c4 	bra	.+196 (0x7ac)

000006e8 <.L22>:
/home/xmodem.c:74
    } else if (c == XMODEM_CAN) { /* 受信中断 */
 6e8:	a8 18       	cmp.b	#0x18,r0l
 6ea:	58 70 00 ba 	beq	.+186 (0x7a8)

000006ee <.LM15>:
/home/xmodem.c:77
      receiving++;
 6ee:	6f 62 ff f4 	mov.w	@(0xfff4:16,er6),r2

000006f2 <.LM16>:
/home/xmodem.c:76
    } else if (c == XMODEM_SOH) { /* 受信開始 */
 6f2:	a8 01       	cmp.b	#0x1,r0l
 6f4:	58 60 00 aa 	bne	.+170 (0x7a2)

000006f8 <.LM17>:
/home/xmodem.c:77
      receiving++;
 6f8:	0b 02       	adds	#1,er2
 6fa:	6f e2 ff f4 	mov.w	r2,@(0xfff4:16,er6)

000006fe <.LBB10>:
xmodem_read_block():
/home/xmodem.c:37
  block_num = serial_recv_byte(SERIAL_DEFAULT_DEVICE);
 6fe:	79 00 00 01 	mov.w	#0x1,r0
 702:	5e 00 06 42 	jsr	@0x642:24

00000706 <.LM19>:
/home/xmodem.c:38
  if (block_num != block_number)
 706:	6e 6a ff f7 	mov.b	@(0xfff7:16,er6),r2l
 70a:	1c 8a       	cmp.b	r0l,r2l
 70c:	58 60 00 84 	bne	.+132 (0x794)

00000710 <.LM20>:
/home/xmodem.c:41
  block_num ^= serial_recv_byte(SERIAL_DEFAULT_DEVICE);
 710:	79 00 00 01 	mov.w	#0x1,r0
 714:	5e 00 06 42 	jsr	@0x642:24

00000718 <.LVL18>:
 718:	6e 6a ff f7 	mov.b	@(0xfff7:16,er6),r2l
 71c:	15 a8       	xor.b	r2l,r0l

0000071e <.LM21>:
/home/xmodem.c:42
  if (block_num != 0xff)
 71e:	a8 ff       	cmp.b	#0xff,r0l
 720:	46 72       	bne	.+114 (0x794)
 722:	0f d2       	mov.l	er5,er2
 724:	1a 91       	sub.l	er1,er1
 726:	89 80       	add.b	#0x80,r1l
 728:	0a d1       	add.l	er5,er1

0000072a <.LM22>:
/home/xmodem.c:45
  check_sum = 0;
 72a:	18 bb       	sub.b	r3l,r3l

0000072c <.L12>:
/home/xmodem.c:47
    c = serial_recv_byte(SERIAL_DEFAULT_DEVICE);
 72c:	79 00 00 01 	mov.w	#0x1,r0
 730:	01 00 6f e1 	mov.l	er1,@(0xffe8:16,er6)
 734:	ff e8 
 736:	01 00 6f e2 	mov.l	er2,@(0xfff0:16,er6)
 73a:	ff f0 
 73c:	01 00 6f e3 	mov.l	er3,@(0xffec:16,er6)
 740:	ff ec 
 742:	5e 00 06 42 	jsr	@0x642:24

00000746 <.LM24>:
/home/xmodem.c:48
    *(buf++) = c;
 746:	01 00 6f 62 	mov.l	@(0xfff0:16,er6),er2
 74a:	ff f0 
 74c:	68 a8       	mov.b	r0l,@er2

0000074e <.LM25>:
/home/xmodem.c:49
    check_sum += c;
 74e:	01 00 6f 63 	mov.l	@(0xffec:16,er6),er3
 752:	ff ec 
 754:	08 8b       	add.b	r0l,r3l
 756:	0b 02       	adds	#1,er2

00000758 <.LM26>:
/home/xmodem.c:46
  for (i = 0; i < XMODEM_BLOCK_SIZE; i++) {
 758:	01 00 6f 61 	mov.l	@(0xffe8:16,er6),er1
 75c:	ff e8 
 75e:	1f a1       	cmp.l	er2,er1
 760:	46 ca       	bne	.-54 (0x72c)

00000762 <.LM27>:
/home/xmodem.c:52
  check_sum ^= serial_recv_byte(SERIAL_DEFAULT_DEVICE);
 762:	79 00 00 01 	mov.w	#0x1,r0
 766:	01 00 6f e3 	mov.l	er3,@(0xffec:16,er6)
 76a:	ff ec 
 76c:	5e 00 06 42 	jsr	@0x642:24

00000770 <.LM28>:
/home/xmodem.c:53
  if (check_sum)
 770:	01 00 6f 63 	mov.l	@(0xffec:16,er6),er3
 774:	ff ec 
 776:	1c 8b       	cmp.b	r0l,r3l
 778:	46 1a       	bne	.+26 (0x794)

0000077a <.LM29>:
xmodem_recv():
/home/xmodem.c:82
	block_number++;
 77a:	6e 6a ff f7 	mov.b	@(0xfff7:16,er6),r2l
 77e:	8a 01       	add.b	#0x1,r2l
 780:	6e ea ff f7 	mov.b	r2l,@(0xfff7:16,er6)

00000784 <.LM30>:
/home/xmodem.c:83
	size += r;
 784:	7a 14 00 00 	add.l	#0x80,er4
 788:	00 80 

0000078a <.LM31>:
/home/xmodem.c:84
	buf  += r;
 78a:	7a 15 00 00 	add.l	#0x80,er5
 78e:	00 80 

00000790 <.LM32>:
/home/xmodem.c:85
	serial_send_byte(SERIAL_DEFAULT_DEVICE, XMODEM_ACK);
 790:	f9 06       	mov.b	#0x6,r1l
 792:	40 02       	bra	.+2 (0x796)

00000794 <.L11>:
/home/xmodem.c:80
	serial_send_byte(SERIAL_DEFAULT_DEVICE, XMODEM_NAK);
 794:	f9 15       	mov.b	#0x15,r1l

00000796 <.L23>:
 796:	79 00 00 01 	mov.w	#0x1,r0
 79a:	5e 00 05 ec 	jsr	@0x5ec:24

0000079e <.LVL34>:
 79e:	58 00 fe f6 	bra	.-266 (0x698)

000007a2 <.L10>:
/home/xmodem.c:88
      if (receiving)
 7a2:	0d 22       	mov.w	r2,r2
 7a4:	58 70 ff 12 	beq	.-238 (0x6ba)

000007a8 <.L14>:
/home/xmodem.c:75
      return -1;
 7a8:	1a c4       	sub.l	er4,er4
 7aa:	1b 04       	subs	#1,er4

000007ac <.L1>:
/home/xmodem.c:94
}
 7ac:	0f c0       	mov.l	er4,er0
 7ae:	7a 17 00 00 	add.l	#0x10,er7
 7b2:	00 10 
 7b4:	01 00 6d 75 	mov.l	@er7+,er5
 7b8:	01 00 6d 74 	mov.l	@er7+,er4
 7bc:	01 00 6d 76 	mov.l	@er7+,er6
 7c0:	54 70       	rts	

000007c2 <_elf_load>:
elf_load():
/home/elf.c:84

  return 0;
}

char *elf_load(char *buf)
{
 7c2:	01 00 6d f6 	mov.l	er6,@-er7
 7c6:	0f f6       	mov.l	er7,er6
 7c8:	01 00 6d f4 	mov.l	er4,@-er7
 7cc:	01 00 6d f5 	mov.l	er5,@-er7
 7d0:	1b 97       	subs	#4,er7
 7d2:	0f 85       	mov.l	er0,er5

000007d4 <.LBB6>:
elf_check():
/home/elf.c:44
  if (memcmp(header->id.magic, "\x7f" "ELF", 4))
 7d4:	1a a2       	sub.l	er2,er2
 7d6:	8a 04       	add.b	#0x4,r2l
 7d8:	7a 01 00 00 	mov.l	#0xb54,er1
 7dc:	0b 54 
 7de:	5e 00 03 68 	jsr	@0x368:24

000007e2 <.LVL2>:
 7e2:	0d 03       	mov.w	r0,r3
 7e4:	58 60 00 b0 	bne	.+176 (0x898)

000007e8 <.LM3>:
/home/elf.c:47
  if (header->id.class   != 1) return -1; /* ELF32 */
 7e8:	6e 5a 00 04 	mov.b	@(0x4:16,er5),r2l
 7ec:	aa 01       	cmp.b	#0x1,r2l
 7ee:	58 60 00 a6 	bne	.+166 (0x898)

000007f2 <.LM4>:
/home/elf.c:48
  if (header->id.format  != 2) return -1; /* Big endian */
 7f2:	6e 5a 00 05 	mov.b	@(0x5:16,er5),r2l
 7f6:	aa 02       	cmp.b	#0x2,r2l
 7f8:	58 60 00 9c 	bne	.+156 (0x898)

000007fc <.LM5>:
/home/elf.c:49
  if (header->id.version != 1) return -1; /* version 1 */
 7fc:	6e 5a 00 06 	mov.b	@(0x6:16,er5),r2l
 800:	aa 01       	cmp.b	#0x1,r2l
 802:	58 60 00 92 	bne	.+146 (0x898)

00000806 <.LM6>:
/home/elf.c:50
  if (header->type       != 2) return -1; /* Executable file */
 806:	6f 52 00 10 	mov.w	@(0x10:16,er5),r2
 80a:	1b d2       	dec.w	#2,r2
 80c:	58 60 00 88 	bne	.+136 (0x898)

00000810 <.LM7>:
/home/elf.c:51
  if (header->version    != 1) return -1; /* version 1 */
 810:	01 00 6f 52 	mov.l	@(0x14:16,er5),er2
 814:	00 14 
 816:	1b 72       	dec.l	#1,er2
 818:	58 60 00 7c 	bne	.+124 (0x898)

0000081c <.LM8>:
/home/elf.c:54
  if ((header->arch != 46) && (header->arch != 47)) return -1;
 81c:	6f 52 00 12 	mov.w	@(0x12:16,er5),r2
 820:	79 12 ff d2 	add.w	#0xffd2,r2
 824:	11 92       	shar.w	r2
 826:	47 60       	beq	.+96 (0x888)
 828:	40 6e       	bra	.+110 (0x898)

0000082a <.L5>:
elf_load_program():
/home/elf.c:69
       header->program_header_size * i);
 82a:	6f 54 00 2a 	mov.w	@(0x2a:16,er5),r4
 82e:	01 c0 52 34 	mulxs.w	r3,er4
 832:	17 f4       	exts.l	er4

00000834 <.LM10>:
/home/elf.c:68
      ((char *)header + header->program_header_offset +
 834:	01 00 6f 52 	mov.l	@(0x1c:16,er5),er2
 838:	00 1c 
 83a:	0a a4       	add.l	er2,er4

0000083c <.LM11>:
/home/elf.c:67
    phdr = (struct elf_program_header *)
 83c:	0a d4       	add.l	er5,er4

0000083e <.LM12>:
/home/elf.c:71
    if (phdr->type != 1) /* ロード可能なセグメントか？ */
 83e:	01 00 69 42 	mov.l	@er4,er2
 842:	1b 72       	dec.l	#1,er2
 844:	46 40       	bne	.+64 (0x886)

00000846 <.LM13>:
/home/elf.c:74
    memcpy((char *)phdr->physical_addr, (char *)header + phdr->offset,
 846:	01 00 6f 41 	mov.l	@(0x4:16,er4),er1
 84a:	00 04 
 84c:	01 00 6f 42 	mov.l	@(0x10:16,er4),er2
 850:	00 10 
 852:	0a d1       	add.l	er5,er1
 854:	01 00 6f 40 	mov.l	@(0xc:16,er4),er0
 858:	00 0c 
 85a:	01 00 6f e3 	mov.l	er3,@(0xfff4:16,er6)
 85e:	ff f4 
 860:	5e 00 03 32 	jsr	@0x332:24

00000864 <.LM14>:
/home/elf.c:77
	   phdr->memory_size - phdr->file_size);
 864:	01 00 6f 40 	mov.l	@(0x10:16,er4),er0
 868:	00 10 

0000086a <.LM15>:
/home/elf.c:76
    memset((char *)phdr->physical_addr + phdr->file_size, 0,
 86a:	01 00 6f 42 	mov.l	@(0x14:16,er4),er2
 86e:	00 14 
 870:	01 00 6f 44 	mov.l	@(0xc:16,er4),er4
 874:	00 0c 
 876:	1a 82       	sub.l	er0,er2
 878:	19 11       	sub.w	r1,r1
 87a:	0a c0       	add.l	er4,er0
 87c:	5e 00 03 0c 	jsr	@0x30c:24

00000880 <.LVL7>:
 880:	01 00 6f 63 	mov.l	@(0xfff4:16,er6),er3
 884:	ff f4 

00000886 <.L4>:
/home/elf.c:65
  for (i = 0; i < header->program_header_num; i++) {
 886:	0b 03       	adds	#1,er3

00000888 <.L3>:
 888:	6f 52 00 2c 	mov.w	@(0x2c:16,er5),r2
 88c:	1d 23       	cmp.w	r2,r3
 88e:	4d 9a       	blt	.-102 (0x82a)

00000890 <.LM17>:
elf_load():
/home/elf.c:93
    return NULL;

  if (elf_load_program(header) < 0) /* セグメント単位でのロード */
    return NULL;

  return (char *)header->entry_point;
 890:	01 00 6f 50 	mov.l	@(0x18:16,er5),er0
 894:	00 18 
 896:	40 02       	bra	.+2 (0x89a)

00000898 <.L12>:
/home/elf.c:88
    return NULL;
 898:	1a 80       	sub.l	er0,er0

0000089a <.L1>:
/home/elf.c:94
}
 89a:	0b 97       	adds	#4,er7
 89c:	01 00 6d 75 	mov.l	@er7+,er5
 8a0:	01 00 6d 74 	mov.l	@er7+,er4
 8a4:	01 00 6d 76 	mov.l	@er7+,er6
 8a8:	54 70       	rts	

Disassembly of section .text.startup:

000008aa <_main>:
main():
/home/main.c:60
  for (i = 0; i < 300000; i++)
    ;
}

int main(void)
{
 8aa:	01 00 6d f6 	mov.l	er6,@-er7
 8ae:	0f f6       	mov.l	er7,er6
 8b0:	7a 37 00 00 	sub.l	#0x8,er7
 8b4:	00 08 

000008b6 <.LM2>:
/home/main.c:68
  static unsigned char *loadbuf = NULL;
  char *entry_point;
  void (*f)(void);
  extern int buffer_start; /* リンカ・スクリプトで定義されているバッファ */

  INTR_DISABLE; /* 割込み無効にする */
 8b6:	04 c0       	orc	#0xc0,ccr

000008b8 <.LBB8>:
init():
/home/main.c:17
  memcpy(&data_start, &erodata, (long)&edata - (long)&data_start);
 8b8:	7a 02 00 ff 	mov.l	#0xfffc24,er2
 8bc:	fc 24 
 8be:	7a 32 00 ff 	sub.l	#0xfffc20,er2
 8c2:	fc 20 
 8c4:	7a 01 00 00 	mov.l	#0xb59,er1
 8c8:	0b 59 
 8ca:	7a 00 00 ff 	mov.l	#0xfffc20,er0
 8ce:	fc 20 
 8d0:	5e 00 03 32 	jsr	@0x332:24

000008d4 <.LM4>:
/home/main.c:18
  memset(&bss_start, 0, (long)&ebss - (long)&bss_start);
 8d4:	7a 02 00 ff 	mov.l	#0xfffc38,er2
 8d8:	fc 38 
 8da:	7a 32 00 ff 	sub.l	#0xfffc24,er2
 8de:	fc 24 
 8e0:	19 11       	sub.w	r1,r1
 8e2:	7a 00 00 ff 	mov.l	#0xfffc24,er0
 8e6:	fc 24 
 8e8:	5e 00 03 0c 	jsr	@0x30c:24

000008ec <.LM5>:
/home/main.c:21
  softvec_init();
 8ec:	5e 00 02 5c 	jsr	@0x25c:24

000008f0 <.LM6>:
/home/main.c:24
  serial_init(SERIAL_DEFAULT_DEVICE);
 8f0:	79 00 00 01 	mov.w	#0x1,r0
 8f4:	5e 00 05 92 	jsr	@0x592:24

000008f8 <.LM7>:
main():
/home/main.c:72

  init();

  puts("kzload (kozos boot loader) started.\n");
 8f8:	7a 00 00 00 	mov.l	#0xa90,er0
 8fc:	0a 90 

000008fe <.L17>:
 8fe:	5e 00 04 ba 	jsr	@0x4ba:24

00000902 <.L2>:
/home/main.c:75

  while (1) {
    puts("kzload> "); /* プロンプト表示 */
 902:	7a 00 00 00 	mov.l	#0xab5,er0
 906:	0a b5 
 908:	5e 00 04 ba 	jsr	@0x4ba:24

0000090c <.LM9>:
/home/main.c:76
    gets(buf); /* シリアルからのコマンド受信 */
 90c:	7a 00 00 ff 	mov.l	#0xfffc28,er0
 910:	fc 28 
 912:	5e 00 04 de 	jsr	@0x4de:24

00000916 <.LM10>:
/home/main.c:78

    if (!strcmp(buf, "load")) { /* XMODEMでのファイルのダウンロード */
 916:	7a 01 00 00 	mov.l	#0xabe,er1
 91a:	0a be 
 91c:	7a 00 00 ff 	mov.l	#0xfffc28,er0
 920:	fc 28 
 922:	5e 00 03 da 	jsr	@0x3da:24

00000926 <.LVL7>:
 926:	0d 00       	mov.w	r0,r0
 928:	46 4a       	bne	.+74 (0x974)

0000092a <.LM11>:
/home/main.c:79
      loadbuf = (char *)(&buffer_start);
 92a:	7a 02 00 ff 	mov.l	#0xffdf20,er2
 92e:	df 20 
 930:	01 00 6b a2 	mov.l	er2,@0xfffc24:32
 934:	00 ff fc 24 

00000938 <.LM12>:
/home/main.c:80
      size = xmodem_recv(loadbuf);
 938:	0f a0       	mov.l	er2,er0
 93a:	5e 00 06 74 	jsr	@0x674:24

0000093e <.LVL8>:
 93e:	01 00 6b a0 	mov.l	er0,@0xfffc20:32
 942:	00 ff fc 20 

00000946 <.LBB10>:
wait():
/home/main.c:55
  for (i = 0; i < 300000; i++)
 946:	1a a2       	sub.l	er2,er2
 948:	40 06       	bra	.+6 (0x950)

0000094a <.L5>:
 94a:	01 00 69 62 	mov.l	@er6,er2
 94e:	0b 02       	adds	#1,er2

00000950 <.L18>:
 950:	01 00 69 e2 	mov.l	er2,@er6
 954:	01 00 69 62 	mov.l	@er6,er2
 958:	7a 22 00 04 	cmp.l	#0x493df,er2
 95c:	93 df 
 95e:	4f ea       	ble	.-22 (0x94a)

00000960 <.LM14>:
main():
/home/main.c:82
      wait(); /* 転送アプリが終了し端末アプリに制御が戻るまで待ち合わせる */
      if (size < 0) {
 960:	0f 80       	mov.l	er0,er0
 962:	4c 08       	bge	.+8 (0x96c)

00000964 <.LM15>:
/home/main.c:83
	puts("\nXMODEM receive error!\n");
 964:	7a 00 00 00 	mov.l	#0xac3,er0
 968:	0a c3 
 96a:	40 92       	bra	.-110 (0x8fe)

0000096c <.L6>:
/home/main.c:85
      } else {
	puts("\nXMODEM receive succeeded.\n");
 96c:	7a 00 00 00 	mov.l	#0xadb,er0
 970:	0a db 
 972:	40 8a       	bra	.-118 (0x8fe)

00000974 <.L3>:
/home/main.c:87
      }
    } else if (!strcmp(buf, "dump")) { /* メモリの16進ダンプ出力 */
 974:	7a 01 00 00 	mov.l	#0xaf7,er1
 978:	0a f7 
 97a:	7a 00 00 ff 	mov.l	#0xfffc28,er0
 97e:	fc 28 
 980:	5e 00 03 da 	jsr	@0x3da:24

00000984 <.LVL9>:
 984:	0d 00       	mov.w	r0,r0
 986:	58 60 00 9e 	bne	.+158 (0xa28)

0000098a <.LM18>:
/home/main.c:88
      puts("size: ");
 98a:	7a 00 00 00 	mov.l	#0xafc,er0
 98e:	0a fc 
 990:	5e 00 04 ba 	jsr	@0x4ba:24

00000994 <.LM19>:
/home/main.c:89
      putxval(size, 0);
 994:	19 11       	sub.w	r1,r1
 996:	01 00 6b 20 	mov.l	@0xfffc20:32,er0
 99a:	00 ff fc 20 
 99e:	5e 00 05 24 	jsr	@0x524:24

000009a2 <.LM20>:
/home/main.c:90
      puts("\n");
 9a2:	7a 00 00 00 	mov.l	#0xad9,er0
 9a6:	0a d9 
 9a8:	5e 00 04 ba 	jsr	@0x4ba:24

000009ac <.LM21>:
/home/main.c:91
      dump(loadbuf, size);
 9ac:	01 00 6b 25 	mov.l	@0xfffc20:32,er5
 9b0:	00 ff fc 20 
 9b4:	01 00 6b 22 	mov.l	@0xfffc24:32,er2
 9b8:	00 ff fc 24 
 9bc:	01 00 6f e2 	mov.l	er2,@(0xfffc:16,er6)
 9c0:	ff fc 

000009c2 <.LBB12>:
dump():
/home/main.c:34
  if (size < 0) {
 9c2:	0f d5       	mov.l	er5,er5
 9c4:	4c 52       	bge	.+82 (0xa18)

000009c6 <.LM23>:
/home/main.c:35
    puts("no data.\n");
 9c6:	7a 00 00 00 	mov.l	#0xb03,er0
 9ca:	0b 03 
 9cc:	58 00 ff 2e 	bra	.-210 (0x8fe)

000009d0 <.L13>:
/home/main.c:39
    putxval(buf[i], 2);
 9d0:	79 01 00 02 	mov.w	#0x2,r1
 9d4:	01 00 6f 62 	mov.l	@(0xfffc:16,er6),er2
 9d8:	ff fc 
 9da:	0a c2       	add.l	er4,er2
 9dc:	1a 80       	sub.l	er0,er0
 9de:	68 28       	mov.b	@er2,r0l
 9e0:	5e 00 05 24 	jsr	@0x524:24

000009e4 <.LM25>:
/home/main.c:40
    if ((i & 0xf) == 15) {
 9e4:	1a a2       	sub.l	er2,er2
 9e6:	0c ca       	mov.b	r4l,r2l
 9e8:	ea 0f       	and.b	#0xf,r2l
 9ea:	7a 22 00 00 	cmp.l	#0xf,er2
 9ee:	00 0f 
 9f0:	46 08       	bne	.+8 (0x9fa)

000009f2 <.LM26>:
/home/main.c:41
      puts("\n");
 9f2:	7a 00 00 00 	mov.l	#0xad9,er0
 9f6:	0a d9 
 9f8:	40 16       	bra	.+22 (0xa10)

000009fa <.L10>:
/home/main.c:43
      if ((i & 0xf) == 7) puts(" ");
 9fa:	da 07       	xor.b	#0x7,r2l
 9fc:	0f a2       	mov.l	er2,er2
 9fe:	46 0a       	bne	.+10 (0xa0a)
 a00:	7a 00 00 00 	mov.l	#0xb01,er0
 a04:	0b 01 
 a06:	5e 00 04 ba 	jsr	@0x4ba:24

00000a0a <.L12>:
/home/main.c:44
      puts(" ");
 a0a:	7a 00 00 00 	mov.l	#0xb01,er0
 a0e:	0b 01 

00000a10 <.L19>:
 a10:	5e 00 04 ba 	jsr	@0x4ba:24

00000a14 <.LM29>:
/home/main.c:38
  for (i = 0; i < size; i++) {
 a14:	0b 04       	adds	#1,er4
 a16:	40 02       	bra	.+2 (0xa1a)

00000a18 <.L16>:
 a18:	1a c4       	sub.l	er4,er4

00000a1a <.L9>:
 a1a:	1f c5       	cmp.l	er4,er5
 a1c:	46 b2       	bne	.-78 (0x9d0)

00000a1e <.LM30>:
/home/main.c:47
  puts("\n");
 a1e:	7a 00 00 00 	mov.l	#0xad9,er0
 a22:	0a d9 
 a24:	58 00 fe d6 	bra	.-298 (0x8fe)

00000a28 <.L8>:
main():
/home/main.c:92
    } else if (!strcmp(buf, "run")) { /* ELF形式ファイルの実行 */
 a28:	7a 01 00 00 	mov.l	#0xb0d,er1
 a2c:	0b 0d 
 a2e:	7a 00 00 ff 	mov.l	#0xfffc28,er0
 a32:	fc 28 
 a34:	5e 00 03 da 	jsr	@0x3da:24

00000a38 <.LVL22>:
 a38:	0d 00       	mov.w	r0,r0
 a3a:	46 3c       	bne	.+60 (0xa78)

00000a3c <.LM32>:
/home/main.c:93
      entry_point = elf_load(loadbuf); /* メモリ上に展開(ロード) */
 a3c:	01 00 6b 20 	mov.l	@0xfffc24:32,er0
 a40:	00 ff fc 24 
 a44:	5e 00 07 c2 	jsr	@0x7c2:24

00000a48 <.LVL23>:
 a48:	0f 84       	mov.l	er0,er4

00000a4a <.LM33>:
/home/main.c:94
      if (!entry_point) {
 a4a:	46 0a       	bne	.+10 (0xa56)

00000a4c <.LM34>:
/home/main.c:95
	puts("run error!\n");
 a4c:	7a 00 00 00 	mov.l	#0xb11,er0
 a50:	0b 11 

00000a52 <.LVL25>:
 a52:	58 00 fe a8 	bra	.-344 (0x8fe)

00000a56 <.L15>:
/home/main.c:97
      } else {
	puts("starting from entry point: ");
 a56:	7a 00 00 00 	mov.l	#0xb1d,er0
 a5a:	0b 1d 

00000a5c <.LVL27>:
 a5c:	5e 00 04 ba 	jsr	@0x4ba:24

00000a60 <.LM36>:
/home/main.c:98
	putxval((unsigned long)entry_point, 0);
 a60:	19 11       	sub.w	r1,r1
 a62:	0f c0       	mov.l	er4,er0
 a64:	5e 00 05 24 	jsr	@0x524:24

00000a68 <.LM37>:
/home/main.c:99
	puts("\n");
 a68:	7a 00 00 00 	mov.l	#0xad9,er0
 a6c:	0a d9 
 a6e:	5e 00 04 ba 	jsr	@0x4ba:24

00000a72 <.LM38>:
/home/main.c:101
	f = (void (*)(void))entry_point;
	f(); /* ここで，ロードしたプログラムに処理を渡す */
 a72:	5d 40       	jsr	@er4

00000a74 <.LVL31>:
 a74:	58 00 fe 8a 	bra	.-374 (0x902)

00000a78 <.L14>:
/home/main.c:105
	/* ここには返ってこない */
      }
    } else {
      puts("unknown.\n");
 a78:	7a 00 00 00 	mov.l	#0xb39,er0
 a7c:	0b 39 
 a7e:	58 00 fe 7c 	bra	.-388 (0x8fe)
