
kozos.elf:     file format elf32-h8300


Disassembly of section .text:

00ffc020 <_start>:
_text_start():
  ffc020:	7a 07 00 ff 	mov.l	#0xffff00,er7
  ffc024:	ff 00 
  ffc026:	5e ff d7 b6 	jsr	@0xffd7b6:24

00ffc02a <.L11>:
.L11():
  ffc02a:	40 fe       	bra	.-2 (0xffc02a)

00ffc02c <_dispatch>:
_dispatch():
  ffc02c:	01 00 69 07 	mov.l	@er0,er7
  ffc030:	01 00 6d 70 	mov.l	@er7+,er0
  ffc034:	01 00 6d 71 	mov.l	@er7+,er1
  ffc038:	01 00 6d 72 	mov.l	@er7+,er2
  ffc03c:	01 00 6d 73 	mov.l	@er7+,er3
  ffc040:	01 00 6d 74 	mov.l	@er7+,er4
  ffc044:	01 00 6d 75 	mov.l	@er7+,er5
  ffc048:	01 00 6d 76 	mov.l	@er7+,er6
  ffc04c:	56 70       	rte	

00ffc04e <_start_threads>:
start_threads():
/home/main.c:8
#include "interrupt.h"
#include "lib.h"

/* システム・タスクとユーザ・タスクの起動 */
static int start_threads(int argc, char *argv[])
{
  ffc04e:	01 00 6d f6 	mov.l	er6,@-er7
  ffc052:	0f f6       	mov.l	er7,er6

00ffc054 <.LM2>:
/home/main.c:9
  kz_run(consdrv_main, "consdrv",  1, 0x200, 0, NULL);
  ffc054:	1a c4       	sub.l	er4,er4
  ffc056:	01 00 6d f4 	mov.l	er4,@-er7
  ffc05a:	1b 97       	subs	#4,er7
  ffc05c:	1b 97       	subs	#4,er7
  ffc05e:	6f f4 00 06 	mov.w	r4,@(0x6:16,er7)
  ffc062:	79 05 02 00 	mov.w	#0x200,r5
  ffc066:	6f f5 00 02 	mov.w	r5,@(0x2:16,er7)
  ffc06a:	79 02 00 01 	mov.w	#0x1,r2
  ffc06e:	7a 01 00 ff 	mov.l	#0xffd844,er1
  ffc072:	d8 44 

00ffc074 <.LVL1>:
  ffc074:	7a 00 00 ff 	mov.l	#0xffd50e,er0
  ffc078:	d5 0e 

00ffc07a <.LVL2>:
  ffc07a:	5e ff ce 44 	jsr	@0xffce44:24

00ffc07e <.LM3>:
/home/main.c:10
  kz_run(command_main, "command",  8, 0x200, 0, NULL);
  ffc07e:	01 00 6d f4 	mov.l	er4,@-er7
  ffc082:	1b 97       	subs	#4,er7
  ffc084:	1b 97       	subs	#4,er7
  ffc086:	6f f4 00 06 	mov.w	r4,@(0x6:16,er7)
  ffc08a:	6f f5 00 02 	mov.w	r5,@(0x2:16,er7)
  ffc08e:	79 02 00 08 	mov.w	#0x8,r2
  ffc092:	7a 01 00 ff 	mov.l	#0xffd84c,er1
  ffc096:	d8 4c 
  ffc098:	7a 00 00 ff 	mov.l	#0xffd6b0,er0
  ffc09c:	d6 b0 
  ffc09e:	5e ff ce 44 	jsr	@0xffce44:24

00ffc0a2 <.LM4>:
/home/main.c:12

  kz_chpri(15); /* 優先順位を下げて，アイドルスレッドに移行する */
  ffc0a2:	79 00 00 0f 	mov.w	#0xf,r0
  ffc0a6:	5e ff cf 6a 	jsr	@0xffcf6a:24

00ffc0aa <.LM5>:
/home/main.c:13
  INTR_ENABLE; /* 割込み有効にする */
  ffc0aa:	06 3f       	andc	#0x3f,ccr
  ffc0ac:	7a 17 00 00 	add.l	#0x18,er7
  ffc0b0:	00 18 

00ffc0b2 <.L2>:
/home/main.c:15 (discriminator 1)
  while (1) {
    asm volatile ("sleep"); /* 省電力モードに移行 */
  ffc0b2:	01 80       	sleep	
  ffc0b4:	40 fc       	bra	.-4 (0xffc0b2)

00ffc0b6 <_softvec_init>:
softvec_init():
/home/interrupt.c:7
#include "intr.h"
#include "interrupt.h"

/* ソフトウエア・割込みベクタの初期化 */
int softvec_init(void)
{
  ffc0b6:	01 00 6d f6 	mov.l	er6,@-er7
  ffc0ba:	0f f6       	mov.l	er7,er6

00ffc0bc <.LBB4>:
softvec_setintr():
/home/interrupt.c:17
}

/* ソフトウエア・割込みベクタの設定 */
int softvec_setintr(softvec_type_t type, softvec_handler_t handler)
{
  SOFTVECS[type] = handler;
  ffc0bc:	18 aa       	sub.b	r2l,r2l
  ffc0be:	6a aa 00 ff 	mov.b	r2l,@0xffbf20:32
  ffc0c2:	bf 20 
  ffc0c4:	6a aa 00 ff 	mov.b	r2l,@0xffbf21:32
  ffc0c8:	bf 21 
  ffc0ca:	6a aa 00 ff 	mov.b	r2l,@0xffbf22:32
  ffc0ce:	bf 22 
  ffc0d0:	6a aa 00 ff 	mov.b	r2l,@0xffbf23:32
  ffc0d4:	bf 23 
  ffc0d6:	6a aa 00 ff 	mov.b	r2l,@0xffbf24:32
  ffc0da:	bf 24 
  ffc0dc:	6a aa 00 ff 	mov.b	r2l,@0xffbf25:32
  ffc0e0:	bf 25 
  ffc0e2:	6a aa 00 ff 	mov.b	r2l,@0xffbf26:32
  ffc0e6:	bf 26 
  ffc0e8:	6a aa 00 ff 	mov.b	r2l,@0xffbf27:32
  ffc0ec:	bf 27 
  ffc0ee:	6a aa 00 ff 	mov.b	r2l,@0xffbf28:32
  ffc0f2:	bf 28 
  ffc0f4:	6a aa 00 ff 	mov.b	r2l,@0xffbf29:32
  ffc0f8:	bf 29 
  ffc0fa:	6a aa 00 ff 	mov.b	r2l,@0xffbf2a:32
  ffc0fe:	bf 2a 
  ffc100:	6a aa 00 ff 	mov.b	r2l,@0xffbf2b:32
  ffc104:	bf 2b 
  ffc106:	6a aa 00 ff 	mov.b	r2l,@0xffbf2c:32
  ffc10a:	bf 2c 
  ffc10c:	6a aa 00 ff 	mov.b	r2l,@0xffbf2d:32
  ffc110:	bf 2d 
  ffc112:	6a aa 00 ff 	mov.b	r2l,@0xffbf2e:32
  ffc116:	bf 2e 
  ffc118:	6a aa 00 ff 	mov.b	r2l,@0xffbf2f:32
  ffc11c:	bf 2f 

00ffc11e <.LM3>:
softvec_init():
/home/interrupt.c:12
}
  ffc11e:	19 00       	sub.w	r0,r0
  ffc120:	01 00 6d 76 	mov.l	@er7+,er6
  ffc124:	54 70       	rts	

00ffc126 <_softvec_setintr>:
softvec_setintr():
/home/interrupt.c:16
{
  ffc126:	01 00 6d f6 	mov.l	er6,@-er7
  ffc12a:	0f f6       	mov.l	er7,er6

00ffc12c <.LM5>:
/home/interrupt.c:17
  SOFTVECS[type] = handler;
  ffc12c:	17 f0       	exts.l	er0
  ffc12e:	10 30       	shll.l	er0
  ffc130:	10 30       	shll.l	er0
  ffc132:	01 00 78 80 	mov.l	er1,@(0xffbf20:32,er0)
  ffc136:	6b a1 00 ff 
  ffc13a:	bf 20 

00ffc13c <.LM6>:
/home/interrupt.c:19
  return 0;
}
  ffc13c:	19 00       	sub.w	r0,r0
  ffc13e:	01 00 6d 76 	mov.l	@er7+,er6
  ffc142:	54 70       	rts	

00ffc144 <_interrupt>:
interrupt():
/home/interrupt.c:26
/*
 * 共通割込みハンドラ．
 * ソフトウエア・割込みベクタを見て，各ハンドラに分岐する．
 */
void interrupt(softvec_type_t type, unsigned long sp)
{
  ffc144:	01 00 6d f6 	mov.l	er6,@-er7
  ffc148:	0f f6       	mov.l	er7,er6

00ffc14a <.LM8>:
/home/interrupt.c:27
  softvec_handler_t handler = SOFTVECS[type];
  ffc14a:	0d 02       	mov.w	r0,r2
  ffc14c:	17 f2       	exts.l	er2
  ffc14e:	10 32       	shll.l	er2
  ffc150:	10 32       	shll.l	er2
  ffc152:	01 00 78 20 	mov.l	@(0xffbf20:32,er2),er2
  ffc156:	6b 22 00 ff 
  ffc15a:	bf 20 

00ffc15c <.LM9>:
/home/interrupt.c:28
  if (handler)
  ffc15c:	47 02       	beq	.+2 (0xffc160)

00ffc15e <.LM10>:
/home/interrupt.c:29
    handler(type, sp);
  ffc15e:	5d 20       	jsr	@er2

00ffc160 <.L3>:
/home/interrupt.c:30
}
  ffc160:	01 00 6d 76 	mov.l	@er7+,er6
  ffc164:	54 70       	rts	

00ffc166 <_memset>:
memset():
/home/lib.c:6
#include "defines.h"
#include "serial.h"
#include "lib.h"

void *memset(void *b, int c, long len)
{
  ffc166:	01 00 6d f6 	mov.l	er6,@-er7
  ffc16a:	0f f6       	mov.l	er7,er6
  ffc16c:	01 00 6d f4 	mov.l	er4,@-er7

00ffc170 <.LM2>:
/home/lib.c:8
  char *p;
  for (p = b; len > 0; len--)
  ffc170:	0f 83       	mov.l	er0,er3
  ffc172:	0a 82       	add.l	er0,er2
  ffc174:	40 04       	bra	.+4 (0xffc17a)

00ffc176 <.L3>:
/home/lib.c:9 (discriminator 3)
    *(p++) = c;
  ffc176:	68 b9       	mov.b	r1l,@er3
  ffc178:	0b 03       	adds	#1,er3

00ffc17a <.L2>:
  ffc17a:	0f a4       	mov.l	er2,er4
  ffc17c:	1a b4       	sub.l	er3,er4

00ffc17e <.LM4>:
/home/lib.c:8 (discriminator 1)
  for (p = b; len > 0; len--)
  ffc17e:	0f c4       	mov.l	er4,er4
  ffc180:	4e f4       	bgt	.-12 (0xffc176)

00ffc182 <.LM5>:
/home/lib.c:11
  return b;
}
  ffc182:	01 00 6d 74 	mov.l	@er7+,er4
  ffc186:	01 00 6d 76 	mov.l	@er7+,er6
  ffc18a:	54 70       	rts	

00ffc18c <_memcpy>:
memcpy():
/home/lib.c:14

void *memcpy(void *dst, const void *src, long len)
{
  ffc18c:	01 00 6d f6 	mov.l	er6,@-er7
  ffc190:	0f f6       	mov.l	er7,er6
  ffc192:	01 00 6d f4 	mov.l	er4,@-er7
  ffc196:	01 00 6d f5 	mov.l	er5,@-er7

00ffc19a <.LM7>:
/home/lib.c:17
  char *d = dst;
  const char *s = src;
  for (; len > 0; len--)
  ffc19a:	1a b3       	sub.l	er3,er3
  ffc19c:	40 0e       	bra	.+14 (0xffc1ac)

00ffc19e <.L6>:
/home/lib.c:18 (discriminator 2)
    *(d++) = *(s++);
  ffc19e:	0f 94       	mov.l	er1,er4
  ffc1a0:	0a b4       	add.l	er3,er4
  ffc1a2:	68 4d       	mov.b	@er4,r5l
  ffc1a4:	0f 84       	mov.l	er0,er4
  ffc1a6:	0a b4       	add.l	er3,er4
  ffc1a8:	68 cd       	mov.b	r5l,@er4
  ffc1aa:	0b 03       	adds	#1,er3

00ffc1ac <.L5>:
  ffc1ac:	0f a4       	mov.l	er2,er4
  ffc1ae:	1a b4       	sub.l	er3,er4

00ffc1b0 <.LM9>:
/home/lib.c:17 (discriminator 1)
  for (; len > 0; len--)
  ffc1b0:	0f c4       	mov.l	er4,er4
  ffc1b2:	4e ea       	bgt	.-22 (0xffc19e)

00ffc1b4 <.LM10>:
/home/lib.c:20
  return dst;
}
  ffc1b4:	01 00 6d 75 	mov.l	@er7+,er5
  ffc1b8:	01 00 6d 74 	mov.l	@er7+,er4
  ffc1bc:	01 00 6d 76 	mov.l	@er7+,er6
  ffc1c0:	54 70       	rts	

00ffc1c2 <_memcmp>:
memcmp():
/home/lib.c:23

int memcmp(const void *b1, const void *b2, long len)
{
  ffc1c2:	01 00 6d f6 	mov.l	er6,@-er7
  ffc1c6:	0f f6       	mov.l	er7,er6
  ffc1c8:	01 00 6d f4 	mov.l	er4,@-er7
  ffc1cc:	0a 82       	add.l	er0,er2

00ffc1ce <.LM12>:
/home/lib.c:25
  const char *p1 = b1, *p2 = b2;
  for (; len > 0; len--) {
  ffc1ce:	40 14       	bra	.+20 (0xffc1e4)

00ffc1d0 <.L11>:
/home/lib.c:26
    if (*p1 != *p2)
  ffc1d0:	68 0c       	mov.b	@er0,r4l
  ffc1d2:	68 1b       	mov.b	@er1,r3l
  ffc1d4:	1c bc       	cmp.b	r3l,r4l
  ffc1d6:	47 08       	beq	.+8 (0xffc1e0)

00ffc1d8 <.LM14>:
/home/lib.c:27
      return (*p1 > *p2) ? 1 : -1;
  ffc1d8:	42 16       	bhi	.+22 (0xffc1f0)
  ffc1da:	79 00 ff ff 	mov.w	#0xffff,r0
  ffc1de:	40 14       	bra	.+20 (0xffc1f4)

00ffc1e0 <.L9>:
/home/lib.c:28
    p1++;
  ffc1e0:	0b 00       	adds	#1,er0

00ffc1e2 <.LM16>:
/home/lib.c:29
    p2++;
  ffc1e2:	0b 01       	adds	#1,er1

00ffc1e4 <.L8>:
  ffc1e4:	0f a3       	mov.l	er2,er3
  ffc1e6:	1a 83       	sub.l	er0,er3

00ffc1e8 <.LM17>:
/home/lib.c:25 (discriminator 1)
  for (; len > 0; len--) {
  ffc1e8:	0f b3       	mov.l	er3,er3
  ffc1ea:	4e e4       	bgt	.-28 (0xffc1d0)

00ffc1ec <.LM18>:
/home/lib.c:31
  }
  return 0;
  ffc1ec:	19 00       	sub.w	r0,r0
  ffc1ee:	40 04       	bra	.+4 (0xffc1f4)

00ffc1f0 <.L12>:
/home/lib.c:27
      return (*p1 > *p2) ? 1 : -1;
  ffc1f0:	79 00 00 01 	mov.w	#0x1,r0

00ffc1f4 <.L7>:
/home/lib.c:32
}
  ffc1f4:	01 00 6d 74 	mov.l	@er7+,er4
  ffc1f8:	01 00 6d 76 	mov.l	@er7+,er6
  ffc1fc:	54 70       	rts	

00ffc1fe <_strlen>:
strlen():
/home/lib.c:35

int strlen(const char *s)
{
  ffc1fe:	01 00 6d f6 	mov.l	er6,@-er7
  ffc202:	0f f6       	mov.l	er7,er6

00ffc204 <.LM22>:
/home/lib.c:37
  int len;
  for (len = 0; *s; s++, len++)
  ffc204:	19 22       	sub.w	r2,r2
  ffc206:	40 04       	bra	.+4 (0xffc20c)

00ffc208 <.L15>:
/home/lib.c:37 (discriminator 3)
  ffc208:	0b 00       	adds	#1,er0
  ffc20a:	0b 02       	adds	#1,er2

00ffc20c <.L14>:
/home/lib.c:37 (discriminator 1)
  ffc20c:	68 0b       	mov.b	@er0,r3l
  ffc20e:	46 f8       	bne	.-8 (0xffc208)

00ffc210 <.LM25>:
/home/lib.c:40
    ;
  return len;
}
  ffc210:	0d 20       	mov.w	r2,r0
  ffc212:	01 00 6d 76 	mov.l	@er7+,er6
  ffc216:	54 70       	rts	

00ffc218 <_strcpy>:
strcpy():
/home/lib.c:43

char *strcpy(char *dst, const char *src)
{
  ffc218:	01 00 6d f6 	mov.l	er6,@-er7
  ffc21c:	0f f6       	mov.l	er7,er6

00ffc21e <.LM27>:
  ffc21e:	0f 82       	mov.l	er0,er2

00ffc220 <.L18>:
/home/lib.c:46
  char *d = dst;
  for (;; dst++, src++) {
    *dst = *src;
  ffc220:	68 1b       	mov.b	@er1,r3l
  ffc222:	68 ab       	mov.b	r3l,@er2

00ffc224 <.LM29>:
/home/lib.c:47
    if (!*src) break;
  ffc224:	68 1b       	mov.b	@er1,r3l
  ffc226:	47 06       	beq	.+6 (0xffc22e)

00ffc228 <.LM30>:
/home/lib.c:45
  for (;; dst++, src++) {
  ffc228:	0b 02       	adds	#1,er2
  ffc22a:	0b 01       	adds	#1,er1

00ffc22c <.LM31>:
/home/lib.c:46
    *dst = *src;
  ffc22c:	40 f2       	bra	.-14 (0xffc220)

00ffc22e <.L17>:
/home/lib.c:50
  }
  return d;
}
  ffc22e:	01 00 6d 76 	mov.l	@er7+,er6
  ffc232:	54 70       	rts	

00ffc234 <_strcmp>:
strcmp():
/home/lib.c:53

int strcmp(const char *s1, const char *s2)
{
  ffc234:	01 00 6d f6 	mov.l	er6,@-er7
  ffc238:	0f f6       	mov.l	er7,er6

00ffc23a <.LM34>:
/home/lib.c:54
  while (*s1 || *s2) {
  ffc23a:	40 10       	bra	.+16 (0xffc24c)

00ffc23c <.L23>:
/home/lib.c:55
    if (*s1 != *s2)
  ffc23c:	1c ba       	cmp.b	r3l,r2l
  ffc23e:	47 08       	beq	.+8 (0xffc248)

00ffc240 <.LM36>:
/home/lib.c:56
      return (*s1 > *s2) ? 1 : -1;
  ffc240:	44 20       	bcc	.+32 (0xffc262)
  ffc242:	79 00 00 01 	mov.w	#0x1,r0
  ffc246:	40 1e       	bra	.+30 (0xffc266)

00ffc248 <.L21>:
/home/lib.c:57
    s1++;
  ffc248:	0b 00       	adds	#1,er0

00ffc24a <.LM38>:
/home/lib.c:58
    s2++;
  ffc24a:	0b 01       	adds	#1,er1

00ffc24c <.L20>:
/home/lib.c:54
  while (*s1 || *s2) {
  ffc24c:	68 0b       	mov.b	@er0,r3l
  ffc24e:	68 1a       	mov.b	@er1,r2l
  ffc250:	0c bb       	mov.b	r3l,r3l
  ffc252:	46 e8       	bne	.-24 (0xffc23c)

00ffc254 <.LM40>:
/home/lib.c:54 (discriminator 1)
  ffc254:	79 00 00 01 	mov.w	#0x1,r0
  ffc258:	0c aa       	mov.b	r2l,r2l
  ffc25a:	46 02       	bne	.+2 (0xffc25e)
  ffc25c:	19 00       	sub.w	r0,r0

00ffc25e <.L24>:
  ffc25e:	17 90       	neg.w	r0
  ffc260:	40 04       	bra	.+4 (0xffc266)

00ffc262 <.L25>:
/home/lib.c:56
      return (*s1 > *s2) ? 1 : -1;
  ffc262:	79 00 ff ff 	mov.w	#0xffff,r0

00ffc266 <.L19>:
/home/lib.c:61
  }
  return 0;
}
  ffc266:	01 00 6d 76 	mov.l	@er7+,er6
  ffc26a:	54 70       	rts	

00ffc26c <_strncmp>:
strncmp():
/home/lib.c:64

int strncmp(const char *s1, const char *s2, int len)
{
  ffc26c:	01 00 6d f6 	mov.l	er6,@-er7
  ffc270:	0f f6       	mov.l	er7,er6
  ffc272:	01 00 6d f4 	mov.l	er4,@-er7

00ffc276 <.LM44>:
/home/lib.c:65
  while ((*s1 || *s2) && (len > 0)) {
  ffc276:	40 14       	bra	.+20 (0xffc28c)

00ffc278 <.L32>:
/home/lib.c:66
    if (*s1 != *s2)
  ffc278:	68 1c       	mov.b	@er1,r4l
  ffc27a:	1c bc       	cmp.b	r3l,r4l
  ffc27c:	47 08       	beq	.+8 (0xffc286)

00ffc27e <.LM46>:
/home/lib.c:67
      return (*s1 > *s2) ? 1 : -1;
  ffc27e:	45 1e       	bcs	.+30 (0xffc29e)
  ffc280:	79 00 ff ff 	mov.w	#0xffff,r0
  ffc284:	40 2a       	bra	.+42 (0xffc2b0)

00ffc286 <.L28>:
/home/lib.c:68
    s1++;
  ffc286:	0b 00       	adds	#1,er0

00ffc288 <.LM48>:
/home/lib.c:69
    s2++;
  ffc288:	0b 01       	adds	#1,er1

00ffc28a <.LM49>:
/home/lib.c:70
    len--;
  ffc28a:	1b 02       	subs	#1,er2

00ffc28c <.L27>:
/home/lib.c:65
  while ((*s1 || *s2) && (len > 0)) {
  ffc28c:	68 0b       	mov.b	@er0,r3l
  ffc28e:	46 06       	bne	.+6 (0xffc296)

00ffc290 <.LM51>:
/home/lib.c:65 (discriminator 2)
  ffc290:	68 1b       	mov.b	@er1,r3l
  ffc292:	46 10       	bne	.+16 (0xffc2a4)
  ffc294:	40 04       	bra	.+4 (0xffc29a)

00ffc296 <.L30>:
/home/lib.c:65 (discriminator 3)
  ffc296:	0d 22       	mov.w	r2,r2
  ffc298:	4e de       	bgt	.-34 (0xffc278)

00ffc29a <.L35>:
/home/lib.c:72
  }
  return 0;
  ffc29a:	19 00       	sub.w	r0,r0
  ffc29c:	40 12       	bra	.+18 (0xffc2b0)

00ffc29e <.L34>:
/home/lib.c:67
      return (*s1 > *s2) ? 1 : -1;
  ffc29e:	79 00 00 01 	mov.w	#0x1,r0
  ffc2a2:	40 0c       	bra	.+12 (0xffc2b0)

00ffc2a4 <.L31>:
/home/lib.c:65
  while ((*s1 || *s2) && (len > 0)) {
  ffc2a4:	79 00 00 01 	mov.w	#0x1,r0
  ffc2a8:	0d 22       	mov.w	r2,r2
  ffc2aa:	4e 02       	bgt	.+2 (0xffc2ae)
  ffc2ac:	19 00       	sub.w	r0,r0

00ffc2ae <.L33>:
  ffc2ae:	17 90       	neg.w	r0

00ffc2b0 <.L26>:
/home/lib.c:73
}
  ffc2b0:	01 00 6d 74 	mov.l	@er7+,er4
  ffc2b4:	01 00 6d 76 	mov.l	@er7+,er6
  ffc2b8:	54 70       	rts	

00ffc2ba <_putc>:
putc():
/home/lib.c:77

/* １文字送信 */
int putc(unsigned char c)
{
  ffc2ba:	01 00 6d f6 	mov.l	er6,@-er7
  ffc2be:	0f f6       	mov.l	er7,er6
  ffc2c0:	01 00 6d f4 	mov.l	er4,@-er7
  ffc2c4:	0c 8c       	mov.b	r0l,r4l

00ffc2c6 <.LM58>:
/home/lib.c:78
  if (c == '\n')
  ffc2c6:	a8 0a       	cmp.b	#0xa,r0l
  ffc2c8:	46 0a       	bne	.+10 (0xffc2d4)

00ffc2ca <.LM59>:
/home/lib.c:79
    serial_send_byte(SERIAL_DEFAULT_DEVICE, '\r');
  ffc2ca:	f9 0d       	mov.b	#0xd,r1l
  ffc2cc:	79 00 00 01 	mov.w	#0x1,r0
  ffc2d0:	5e ff c4 46 	jsr	@0xffc446:24

00ffc2d4 <.L37>:
/home/lib.c:80
  return serial_send_byte(SERIAL_DEFAULT_DEVICE, c);
  ffc2d4:	0c c9       	mov.b	r4l,r1l
  ffc2d6:	79 00 00 01 	mov.w	#0x1,r0
  ffc2da:	5e ff c4 46 	jsr	@0xffc446:24

00ffc2de <.LM61>:
/home/lib.c:81
}
  ffc2de:	01 00 6d 74 	mov.l	@er7+,er4
  ffc2e2:	01 00 6d 76 	mov.l	@er7+,er6
  ffc2e6:	54 70       	rts	

00ffc2e8 <_getc>:
getc():
/home/lib.c:85

/* １文字受信 */
unsigned char getc(void)
{
  ffc2e8:	01 00 6d f6 	mov.l	er6,@-er7
  ffc2ec:	0f f6       	mov.l	er7,er6
  ffc2ee:	01 00 6d f4 	mov.l	er4,@-er7

00ffc2f2 <.LM63>:
/home/lib.c:86
  unsigned char c = serial_recv_byte(SERIAL_DEFAULT_DEVICE);
  ffc2f2:	79 00 00 01 	mov.w	#0x1,r0
  ffc2f6:	5e ff c4 9c 	jsr	@0xffc49c:24

00ffc2fa <.LVL60>:
  ffc2fa:	0c 8c       	mov.b	r0l,r4l

00ffc2fc <.LM64>:
/home/lib.c:87
  c = (c == '\r') ? '\n' : c;
  ffc2fc:	a8 0d       	cmp.b	#0xd,r0l
  ffc2fe:	46 02       	bne	.+2 (0xffc302)
  ffc300:	fc 0a       	mov.b	#0xa,r4l

00ffc302 <.L39>:
/home/lib.c:88 (discriminator 4)
  putc(c); /* エコー・バック */
  ffc302:	0c c8       	mov.b	r4l,r0l
  ffc304:	5e ff c2 ba 	jsr	@0xffc2ba:24

00ffc308 <.LM66>:
/home/lib.c:90
  return c;
}
  ffc308:	0c c8       	mov.b	r4l,r0l
  ffc30a:	01 00 6d 74 	mov.l	@er7+,er4
  ffc30e:	01 00 6d 76 	mov.l	@er7+,er6
  ffc312:	54 70       	rts	

00ffc314 <_puts>:
puts():
/home/lib.c:94

/* 文字列送信 */
int puts(unsigned char *str)
{
  ffc314:	01 00 6d f6 	mov.l	er6,@-er7
  ffc318:	0f f6       	mov.l	er7,er6
  ffc31a:	01 00 6d f4 	mov.l	er4,@-er7
  ffc31e:	0f 84       	mov.l	er0,er4

00ffc320 <.LM68>:
/home/lib.c:95
  while (*str)
  ffc320:	40 06       	bra	.+6 (0xffc328)

00ffc322 <.L42>:
/home/lib.c:96
    putc(*(str++));
  ffc322:	0b 04       	adds	#1,er4
  ffc324:	5e ff c2 ba 	jsr	@0xffc2ba:24

00ffc328 <.L41>:
/home/lib.c:95
  while (*str)
  ffc328:	68 48       	mov.b	@er4,r0l
  ffc32a:	46 f6       	bne	.-10 (0xffc322)

00ffc32c <.LM71>:
/home/lib.c:98
  return 0;
}
  ffc32c:	19 00       	sub.w	r0,r0
  ffc32e:	01 00 6d 74 	mov.l	@er7+,er4
  ffc332:	01 00 6d 76 	mov.l	@er7+,er6
  ffc336:	54 70       	rts	

00ffc338 <_gets>:
gets():
/home/lib.c:102

/* 文字列受信 */
int gets(unsigned char *buf)
{
  ffc338:	01 00 6d f6 	mov.l	er6,@-er7
  ffc33c:	0f f6       	mov.l	er7,er6
  ffc33e:	01 00 6d f4 	mov.l	er4,@-er7
  ffc342:	01 00 6d f5 	mov.l	er5,@-er7
  ffc346:	1b 97       	subs	#4,er7
  ffc348:	0f 85       	mov.l	er0,er5

00ffc34a <.LM73>:
  ffc34a:	0f 84       	mov.l	er0,er4

00ffc34c <.L45>:
  ffc34c:	0d 42       	mov.w	r4,r2
  ffc34e:	19 52       	sub.w	r5,r2

00ffc350 <.LM74>:
/home/lib.c:106
  int i = 0;
  unsigned char c;
  do {
    c = getc();
  ffc350:	01 00 6f e2 	mov.l	er2,@(0xfff4:16,er6)
  ffc354:	ff f4 
  ffc356:	5e ff c2 e8 	jsr	@0xffc2e8:24

00ffc35a <.LM75>:
/home/lib.c:107
    if (c == '\n')
  ffc35a:	01 00 6f 62 	mov.l	@(0xfff4:16,er6),er2
  ffc35e:	ff f4 
  ffc360:	a8 0a       	cmp.b	#0xa,r0l
  ffc362:	46 02       	bne	.+2 (0xffc366)

00ffc364 <.LM76>:
/home/lib.c:108
      c = '\0';
  ffc364:	18 88       	sub.b	r0l,r0l

00ffc366 <.L44>:
/home/lib.c:109
    buf[i++] = c;
  ffc366:	68 c8       	mov.b	r0l,@er4
  ffc368:	0b 04       	adds	#1,er4

00ffc36a <.LM78>:
/home/lib.c:110
  } while (c);
  ffc36a:	46 e0       	bne	.-32 (0xffc34c)

00ffc36c <.LM79>:
/home/lib.c:112
  return i - 1;
}
  ffc36c:	0d 20       	mov.w	r2,r0
  ffc36e:	0b 97       	adds	#4,er7
  ffc370:	01 00 6d 75 	mov.l	@er7+,er5
  ffc374:	01 00 6d 74 	mov.l	@er7+,er4
  ffc378:	01 00 6d 76 	mov.l	@er7+,er6
  ffc37c:	54 70       	rts	

00ffc37e <_putxval>:
putxval():
/home/lib.c:116

/* 数値の16進表示 */
int putxval(unsigned long value, int column)
{
  ffc37e:	01 00 6d f6 	mov.l	er6,@-er7
  ffc382:	0f f6       	mov.l	er7,er6
  ffc384:	01 00 6d f4 	mov.l	er4,@-er7
  ffc388:	7a 37 00 00 	sub.l	#0xc,er7
  ffc38c:	00 0c 

00ffc38e <.LM81>:
/home/lib.c:121
  char buf[9];
  char *p;

  p = buf + sizeof(buf) - 1;
  *(p--) = '\0';
  ffc38e:	18 aa       	sub.b	r2l,r2l
  ffc390:	6e ea ff fb 	mov.b	r2l,@(0xfffb:16,er6)

00ffc394 <.LM82>:
/home/lib.c:123

  if (!value && !column)
  ffc394:	0f 80       	mov.l	er0,er0
  ffc396:	46 08       	bne	.+8 (0xffc3a0)

00ffc398 <.LM83>:
/home/lib.c:123 (discriminator 1)
  ffc398:	0d 11       	mov.w	r1,r1
  ffc39a:	46 04       	bne	.+4 (0xffc3a0)

00ffc39c <.LM84>:
/home/lib.c:124
    column++;
  ffc39c:	79 01 00 01 	mov.w	#0x1,r1

00ffc3a0 <.L48>:
  ffc3a0:	0f e2       	mov.l	er6,er2
  ffc3a2:	1b 92       	subs	#4,er2
  ffc3a4:	1b 82       	subs	#2,er2

00ffc3a6 <.LM85>:
/home/lib.c:127

  while (value || column) {
    *(p--) = "0123456789abcdef"[value & 0xf];
  ffc3a6:	7a 04 00 ff 	mov.l	#0xffd86e,er4
  ffc3aa:	d8 6e 
  ffc3ac:	40 1c       	bra	.+28 (0xffc3ca)

00ffc3ae <.L51>:
  ffc3ae:	1a b3       	sub.l	er3,er3
  ffc3b0:	0c 8b       	mov.b	r0l,r3l
  ffc3b2:	eb 0f       	and.b	#0xf,r3l
  ffc3b4:	0a c3       	add.l	er4,er3
  ffc3b6:	68 3b       	mov.b	@er3,r3l
  ffc3b8:	68 ab       	mov.b	r3l,@er2

00ffc3ba <.LM86>:
/home/lib.c:128
    value >>= 4;
  ffc3ba:	11 30       	shlr.l	er0
  ffc3bc:	11 30       	shlr.l	er0
  ffc3be:	11 30       	shlr.l	er0
  ffc3c0:	11 30       	shlr.l	er0

00ffc3c2 <.LM87>:
/home/lib.c:129
    if (column) column--;
  ffc3c2:	0d 11       	mov.w	r1,r1
  ffc3c4:	47 02       	beq	.+2 (0xffc3c8)

00ffc3c6 <.LM88>:
/home/lib.c:129 (discriminator 1)
  ffc3c6:	1b 01       	subs	#1,er1

00ffc3c8 <.L50>:
  ffc3c8:	1b 02       	subs	#1,er2

00ffc3ca <.L49>:
/home/lib.c:126
  while (value || column) {
  ffc3ca:	0f 80       	mov.l	er0,er0
  ffc3cc:	46 e0       	bne	.-32 (0xffc3ae)

00ffc3ce <.LM90>:
/home/lib.c:126 (discriminator 1)
  ffc3ce:	0d 11       	mov.w	r1,r1
  ffc3d0:	46 dc       	bne	.-36 (0xffc3ae)

00ffc3d2 <.LM91>:
/home/lib.c:132
  }

  puts(p + 1);
  ffc3d2:	0f a0       	mov.l	er2,er0
  ffc3d4:	0b 00       	adds	#1,er0
  ffc3d6:	5e ff c3 14 	jsr	@0xffc314:24

00ffc3da <.LM92>:
/home/lib.c:135

  return 0;
}
  ffc3da:	19 00       	sub.w	r0,r0
  ffc3dc:	7a 17 00 00 	add.l	#0xc,er7
  ffc3e0:	00 0c 
  ffc3e2:	01 00 6d 74 	mov.l	@er7+,er4
  ffc3e6:	01 00 6d 76 	mov.l	@er7+,er6
  ffc3ea:	54 70       	rts	

00ffc3ec <_serial_init>:
serial_init():
/home/serial.c:59
  { H8_3069F_SCI2 }, 
};

/* デバイス初期化 */
int serial_init(int index)
{
  ffc3ec:	01 00 6d f6 	mov.l	er6,@-er7
  ffc3f0:	0f f6       	mov.l	er7,er6

00ffc3f2 <.LM2>:
/home/serial.c:60
  volatile struct h8_3069f_sci *sci = regs[index].sci;
  ffc3f2:	17 f0       	exts.l	er0
  ffc3f4:	10 30       	shll.l	er0
  ffc3f6:	10 30       	shll.l	er0
  ffc3f8:	01 00 78 00 	mov.l	@(0xffd800:32,er0),er2
  ffc3fc:	6b 22 00 ff 
  ffc400:	d8 00 

00ffc402 <.LM3>:
/home/serial.c:62

  sci->scr = 0;
  ffc402:	18 bb       	sub.b	r3l,r3l
  ffc404:	6e ab 00 02 	mov.b	r3l,@(0x2:16,er2)

00ffc408 <.LM4>:
/home/serial.c:63
  sci->smr = 0;
  ffc408:	68 ab       	mov.b	r3l,@er2

00ffc40a <.LM5>:
/home/serial.c:64
  sci->brr = 64; /* 20MHzのクロックから9600bpsを生成(25MHzの場合は80にする) */
  ffc40a:	f8 40       	mov.b	#0x40,r0l
  ffc40c:	6e a8 00 01 	mov.b	r0l,@(0x1:16,er2)

00ffc410 <.LM6>:
/home/serial.c:65
  sci->scr = H8_3069F_SCI_SCR_RE | H8_3069F_SCI_SCR_TE; /* 送受信可能 */
  ffc410:	f8 30       	mov.b	#0x30,r0l
  ffc412:	6e a8 00 02 	mov.b	r0l,@(0x2:16,er2)

00ffc416 <.LM7>:
/home/serial.c:66
  sci->ssr = 0;
  ffc416:	6e ab 00 04 	mov.b	r3l,@(0x4:16,er2)

00ffc41a <.LM8>:
/home/serial.c:69

  return 0;
}
  ffc41a:	19 00       	sub.w	r0,r0
  ffc41c:	01 00 6d 76 	mov.l	@er7+,er6
  ffc420:	54 70       	rts	

00ffc422 <_serial_is_send_enable>:
serial_is_send_enable():
/home/serial.c:73

/* 送信可能か？ */
int serial_is_send_enable(int index)
{
  ffc422:	01 00 6d f6 	mov.l	er6,@-er7
  ffc426:	0f f6       	mov.l	er7,er6

00ffc428 <.LM10>:
/home/serial.c:74
  volatile struct h8_3069f_sci *sci = regs[index].sci;
  ffc428:	17 f0       	exts.l	er0
  ffc42a:	10 30       	shll.l	er0
  ffc42c:	10 30       	shll.l	er0
  ffc42e:	01 00 78 00 	mov.l	@(0xffd800:32,er0),er2
  ffc432:	6b 22 00 ff 
  ffc436:	d8 00 

00ffc438 <.LM11>:
/home/serial.c:75
  return (sci->ssr & H8_3069F_SCI_SSR_TDRE);
  ffc438:	6e 28 00 04 	mov.b	@(0x4:16,er2),r0l
  ffc43c:	e8 80       	and.b	#0x80,r0l

00ffc43e <.LM12>:
/home/serial.c:76
}
  ffc43e:	17 50       	extu.w	r0
  ffc440:	01 00 6d 76 	mov.l	@er7+,er6
  ffc444:	54 70       	rts	

00ffc446 <_serial_send_byte>:
serial_send_byte():
/home/serial.c:80

/* １文字送信 */
int serial_send_byte(int index, unsigned char c)
{
  ffc446:	01 00 6d f6 	mov.l	er6,@-er7
  ffc44a:	0f f6       	mov.l	er7,er6

00ffc44c <.LM14>:
/home/serial.c:81
  volatile struct h8_3069f_sci *sci = regs[index].sci;
  ffc44c:	17 f0       	exts.l	er0
  ffc44e:	10 30       	shll.l	er0
  ffc450:	10 30       	shll.l	er0
  ffc452:	01 00 78 00 	mov.l	@(0xffd800:32,er0),er2
  ffc456:	6b 22 00 ff 
  ffc45a:	d8 00 

00ffc45c <.L4>:
serial_is_send_enable():
/home/serial.c:75 (discriminator 1)
  return (sci->ssr & H8_3069F_SCI_SSR_TDRE);
  ffc45c:	6e 2b 00 04 	mov.b	@(0x4:16,er2),r3l

00ffc460 <.LM16>:
serial_send_byte():
/home/serial.c:84

  /* 送信可能になるまで待つ */
  while (!serial_is_send_enable(index))
  ffc460:	4c fa       	bge	.-6 (0xffc45c)

00ffc462 <.LM17>:
/home/serial.c:86
    ;
  sci->tdr = c;
  ffc462:	6e a9 00 03 	mov.b	r1l,@(0x3:16,er2)

00ffc466 <.LM18>:
/home/serial.c:87
  sci->ssr &= ~H8_3069F_SCI_SSR_TDRE; /* 送信開始 */
  ffc466:	6e 2b 00 04 	mov.b	@(0x4:16,er2),r3l
  ffc46a:	72 7b       	bclr	#0x7,r3l
  ffc46c:	6e ab 00 04 	mov.b	r3l,@(0x4:16,er2)

00ffc470 <.LM19>:
/home/serial.c:90

  return 0;
}
  ffc470:	19 00       	sub.w	r0,r0
  ffc472:	01 00 6d 76 	mov.l	@er7+,er6
  ffc476:	54 70       	rts	

00ffc478 <_serial_is_recv_enable>:
serial_is_recv_enable():
/home/serial.c:94

/* 受信可能か？ */
int serial_is_recv_enable(int index)
{
  ffc478:	01 00 6d f6 	mov.l	er6,@-er7
  ffc47c:	0f f6       	mov.l	er7,er6

00ffc47e <.LM21>:
/home/serial.c:95
  volatile struct h8_3069f_sci *sci = regs[index].sci;
  ffc47e:	17 f0       	exts.l	er0
  ffc480:	10 30       	shll.l	er0
  ffc482:	10 30       	shll.l	er0
  ffc484:	01 00 78 00 	mov.l	@(0xffd800:32,er0),er2
  ffc488:	6b 22 00 ff 
  ffc48c:	d8 00 

00ffc48e <.LM22>:
/home/serial.c:96
  return (sci->ssr & H8_3069F_SCI_SSR_RDRF);
  ffc48e:	6e 28 00 04 	mov.b	@(0x4:16,er2),r0l
  ffc492:	e8 40       	and.b	#0x40,r0l

00ffc494 <.LM23>:
/home/serial.c:97
}
  ffc494:	17 50       	extu.w	r0
  ffc496:	01 00 6d 76 	mov.l	@er7+,er6
  ffc49a:	54 70       	rts	

00ffc49c <_serial_recv_byte>:
serial_recv_byte():
/home/serial.c:101

/* １文字受信 */
unsigned char serial_recv_byte(int index)
{
  ffc49c:	01 00 6d f6 	mov.l	er6,@-er7
  ffc4a0:	0f f6       	mov.l	er7,er6

00ffc4a2 <.LM25>:
/home/serial.c:102
  volatile struct h8_3069f_sci *sci = regs[index].sci;
  ffc4a2:	17 f0       	exts.l	er0
  ffc4a4:	10 30       	shll.l	er0
  ffc4a6:	10 30       	shll.l	er0
  ffc4a8:	01 00 78 00 	mov.l	@(0xffd800:32,er0),er2
  ffc4ac:	6b 22 00 ff 
  ffc4b0:	d8 00 

00ffc4b2 <.L8>:
serial_is_recv_enable():
/home/serial.c:96 (discriminator 1)
  return (sci->ssr & H8_3069F_SCI_SSR_RDRF);
  ffc4b2:	6e 2b 00 04 	mov.b	@(0x4:16,er2),r3l

00ffc4b6 <.LM27>:
serial_recv_byte():
/home/serial.c:106
  unsigned char c;

  /* 受信文字が来るまで待つ */
  while (!serial_is_recv_enable(index))
  ffc4b6:	73 6b       	btst	#0x6,r3l
  ffc4b8:	47 f8       	beq	.-8 (0xffc4b2)

00ffc4ba <.LM28>:
/home/serial.c:108
    ;
  c = sci->rdr;
  ffc4ba:	6e 28 00 05 	mov.b	@(0x5:16,er2),r0l

00ffc4be <.LM29>:
/home/serial.c:109
  sci->ssr &= ~H8_3069F_SCI_SSR_RDRF; /* 受信完了 */
  ffc4be:	6e 2b 00 04 	mov.b	@(0x4:16,er2),r3l
  ffc4c2:	72 6b       	bclr	#0x6,r3l
  ffc4c4:	6e ab 00 04 	mov.b	r3l,@(0x4:16,er2)

00ffc4c8 <.LM30>:
/home/serial.c:112

  return c;
}
  ffc4c8:	01 00 6d 76 	mov.l	@er7+,er6
  ffc4cc:	54 70       	rts	

00ffc4ce <_serial_intr_is_send_enable>:
serial_intr_is_send_enable():
/home/serial.c:116

/* 送信割込み有効か？ */
int serial_intr_is_send_enable(int index)
{
  ffc4ce:	01 00 6d f6 	mov.l	er6,@-er7
  ffc4d2:	0f f6       	mov.l	er7,er6

00ffc4d4 <.LM32>:
/home/serial.c:117
  volatile struct h8_3069f_sci *sci = regs[index].sci;
  ffc4d4:	17 f0       	exts.l	er0
  ffc4d6:	10 30       	shll.l	er0
  ffc4d8:	10 30       	shll.l	er0
  ffc4da:	01 00 78 00 	mov.l	@(0xffd800:32,er0),er2
  ffc4de:	6b 22 00 ff 
  ffc4e2:	d8 00 

00ffc4e4 <.LM33>:
/home/serial.c:118
  return (sci->scr & H8_3069F_SCI_SCR_TIE) ? 1 : 0;
  ffc4e4:	6e 28 00 02 	mov.b	@(0x2:16,er2),r0l

00ffc4e8 <.LM34>:
/home/serial.c:119
}
  ffc4e8:	77 78       	bld	#0x7,r0l
  ffc4ea:	01 f0 65 00 	xor.l	er0,er0
  ffc4ee:	12 30       	rotxl.l	er0
  ffc4f0:	01 00 6d 76 	mov.l	@er7+,er6
  ffc4f4:	54 70       	rts	

00ffc4f6 <_serial_intr_send_enable>:
serial_intr_send_enable():
/home/serial.c:123

/* 送信割込み有効化 */
void serial_intr_send_enable(int index)
{
  ffc4f6:	01 00 6d f6 	mov.l	er6,@-er7
  ffc4fa:	0f f6       	mov.l	er7,er6

00ffc4fc <.LM36>:
/home/serial.c:124
  volatile struct h8_3069f_sci *sci = regs[index].sci;
  ffc4fc:	17 f0       	exts.l	er0
  ffc4fe:	10 30       	shll.l	er0
  ffc500:	10 30       	shll.l	er0
  ffc502:	01 00 78 00 	mov.l	@(0xffd800:32,er0),er3
  ffc506:	6b 23 00 ff 
  ffc50a:	d8 00 

00ffc50c <.LM37>:
/home/serial.c:125
  sci->scr |= H8_3069F_SCI_SCR_TIE;
  ffc50c:	6e 3a 00 02 	mov.b	@(0x2:16,er3),r2l
  ffc510:	70 7a       	bset	#0x7,r2l
  ffc512:	6e ba 00 02 	mov.b	r2l,@(0x2:16,er3)

00ffc516 <.LM38>:
/home/serial.c:126
}
  ffc516:	01 00 6d 76 	mov.l	@er7+,er6
  ffc51a:	54 70       	rts	

00ffc51c <_serial_intr_send_disable>:
serial_intr_send_disable():
/home/serial.c:130

/* 送信割込み無効化 */
void serial_intr_send_disable(int index)
{
  ffc51c:	01 00 6d f6 	mov.l	er6,@-er7
  ffc520:	0f f6       	mov.l	er7,er6

00ffc522 <.LM40>:
/home/serial.c:131
  volatile struct h8_3069f_sci *sci = regs[index].sci;
  ffc522:	17 f0       	exts.l	er0
  ffc524:	10 30       	shll.l	er0
  ffc526:	10 30       	shll.l	er0
  ffc528:	01 00 78 00 	mov.l	@(0xffd800:32,er0),er3
  ffc52c:	6b 23 00 ff 
  ffc530:	d8 00 

00ffc532 <.LM41>:
/home/serial.c:132
  sci->scr &= ~H8_3069F_SCI_SCR_TIE;
  ffc532:	6e 3a 00 02 	mov.b	@(0x2:16,er3),r2l
  ffc536:	72 7a       	bclr	#0x7,r2l
  ffc538:	6e ba 00 02 	mov.b	r2l,@(0x2:16,er3)

00ffc53c <.LM42>:
/home/serial.c:133
}
  ffc53c:	01 00 6d 76 	mov.l	@er7+,er6
  ffc540:	54 70       	rts	

00ffc542 <_serial_intr_is_recv_enable>:
serial_intr_is_recv_enable():
/home/serial.c:137

/* 受信割込み有効か？ */
int serial_intr_is_recv_enable(int index)
{
  ffc542:	01 00 6d f6 	mov.l	er6,@-er7
  ffc546:	0f f6       	mov.l	er7,er6

00ffc548 <.LM44>:
/home/serial.c:138
  volatile struct h8_3069f_sci *sci = regs[index].sci;
  ffc548:	17 f0       	exts.l	er0
  ffc54a:	10 30       	shll.l	er0
  ffc54c:	10 30       	shll.l	er0
  ffc54e:	01 00 78 00 	mov.l	@(0xffd800:32,er0),er2
  ffc552:	6b 22 00 ff 
  ffc556:	d8 00 

00ffc558 <.LM45>:
/home/serial.c:139
  return (sci->scr & H8_3069F_SCI_SCR_RIE) ? 1 : 0;
  ffc558:	6e 28 00 02 	mov.b	@(0x2:16,er2),r0l

00ffc55c <.LM46>:
/home/serial.c:140
}
  ffc55c:	77 68       	bld	#0x6,r0l
  ffc55e:	01 f0 65 00 	xor.l	er0,er0
  ffc562:	12 30       	rotxl.l	er0
  ffc564:	01 00 6d 76 	mov.l	@er7+,er6
  ffc568:	54 70       	rts	

00ffc56a <_serial_intr_recv_enable>:
serial_intr_recv_enable():
/home/serial.c:144

/* 受信割込み有効化 */
void serial_intr_recv_enable(int index)
{
  ffc56a:	01 00 6d f6 	mov.l	er6,@-er7
  ffc56e:	0f f6       	mov.l	er7,er6

00ffc570 <.LM48>:
/home/serial.c:145
  volatile struct h8_3069f_sci *sci = regs[index].sci;
  ffc570:	17 f0       	exts.l	er0
  ffc572:	10 30       	shll.l	er0
  ffc574:	10 30       	shll.l	er0
  ffc576:	01 00 78 00 	mov.l	@(0xffd800:32,er0),er3
  ffc57a:	6b 23 00 ff 
  ffc57e:	d8 00 

00ffc580 <.LM49>:
/home/serial.c:146
  sci->scr |= H8_3069F_SCI_SCR_RIE;
  ffc580:	6e 3a 00 02 	mov.b	@(0x2:16,er3),r2l
  ffc584:	70 6a       	bset	#0x6,r2l
  ffc586:	6e ba 00 02 	mov.b	r2l,@(0x2:16,er3)

00ffc58a <.LM50>:
/home/serial.c:147
}
  ffc58a:	01 00 6d 76 	mov.l	@er7+,er6
  ffc58e:	54 70       	rts	

00ffc590 <_serial_intr_recv_disable>:
serial_intr_recv_disable():
/home/serial.c:151

/* 受信割込み無効化 */
void serial_intr_recv_disable(int index)
{
  ffc590:	01 00 6d f6 	mov.l	er6,@-er7
  ffc594:	0f f6       	mov.l	er7,er6

00ffc596 <.LM52>:
/home/serial.c:152
  volatile struct h8_3069f_sci *sci = regs[index].sci;
  ffc596:	17 f0       	exts.l	er0
  ffc598:	10 30       	shll.l	er0
  ffc59a:	10 30       	shll.l	er0
  ffc59c:	01 00 78 00 	mov.l	@(0xffd800:32,er0),er3
  ffc5a0:	6b 23 00 ff 
  ffc5a4:	d8 00 

00ffc5a6 <.LM53>:
/home/serial.c:153
  sci->scr &= ~H8_3069F_SCI_SCR_RIE;
  ffc5a6:	6e 3a 00 02 	mov.b	@(0x2:16,er3),r2l
  ffc5aa:	72 6a       	bclr	#0x6,r2l
  ffc5ac:	6e ba 00 02 	mov.b	r2l,@(0x2:16,er3)

00ffc5b0 <.LM54>:
/home/serial.c:154
}
  ffc5b0:	01 00 6d 76 	mov.l	@er7+,er6
  ffc5b4:	54 70       	rts	

00ffc5b6 <_timer_start>:
timer_start():
/home/timer.c:57
  { H8_3069F_TMR23 }, 
};

/* タイマ開始 */
int timer_start(int index, int msec)
{
  ffc5b6:	01 00 6d f6 	mov.l	er6,@-er7
  ffc5ba:	0f f6       	mov.l	er7,er6

00ffc5bc <.LM2>:
/home/timer.c:58
  volatile struct h8_3069f_tmr *tmr = regs[index].tmr;
  ffc5bc:	17 f0       	exts.l	er0
  ffc5be:	10 30       	shll.l	er0
  ffc5c0:	10 30       	shll.l	er0
  ffc5c2:	01 00 78 00 	mov.l	@(0xffd80c:32,er0),er2
  ffc5c6:	6b 22 00 ff 
  ffc5ca:	d8 0c 

00ffc5cc <.LM3>:
/home/timer.c:61
  int count;

  tmr->tcr0 = H8_3069F_TMR_TCR_OVF | H8_3069F_TMR_TCR_CCLR_CLRCMFA;
  ffc5cc:	fb 0c       	mov.b	#0xc,r3l
  ffc5ce:	68 ab       	mov.b	r3l,@er2

00ffc5d0 <.LM4>:
/home/timer.c:62
  tmr->tcr1 = H8_3069F_TMR_TCR_CLK8192 | H8_3069F_TMR_TCR_CCLR_DISCLR;
  ffc5d0:	fb 03       	mov.b	#0x3,r3l
  ffc5d2:	6e ab 00 01 	mov.b	r3l,@(0x1:16,er2)

00ffc5d6 <.LM5>:
/home/timer.c:64

  tmr->tcsr0 = 0;
  ffc5d6:	18 bb       	sub.b	r3l,r3l
  ffc5d8:	6e ab 00 02 	mov.b	r3l,@(0x2:16,er2)

00ffc5dc <.LM6>:
/home/timer.c:65
  tmr->tcsr1 = 0;
  ffc5dc:	6e ab 00 03 	mov.b	r3l,@(0x3:16,er2)

00ffc5e0 <.LM7>:
/home/timer.c:69

  count = msec / 105; /* 20MHz: (msec * 20000000 / 8192 / 256 / 1000) */

  tmr->tcnt = 0;
  ffc5e0:	19 33       	sub.w	r3,r3
  ffc5e2:	6f a3 00 08 	mov.w	r3,@(0x8:16,er2)

00ffc5e6 <.LM8>:
/home/timer.c:67
  count = msec / 105; /* 20MHz: (msec * 20000000 / 8192 / 256 / 1000) */
  ffc5e6:	17 f1       	exts.l	er1
  ffc5e8:	79 03 00 69 	mov.w	#0x69,r3
  ffc5ec:	01 d0 53 31 	divxs.w	r3,er1

00ffc5f0 <.LM9>:
/home/timer.c:70
  tmr->tcora0 = count;
  ffc5f0:	6e a9 00 04 	mov.b	r1l,@(0x4:16,er2)

00ffc5f4 <.LM10>:
/home/timer.c:71
  tmr->tcr0 |= H8_3069F_TMR_TCR_CMIEA; /* 割込み有効化 */
  ffc5f4:	7d 20 70 60 	bset	#0x6,@er2

00ffc5f8 <.LM11>:
/home/timer.c:74

  return 0;
}
  ffc5f8:	19 00       	sub.w	r0,r0
  ffc5fa:	01 00 6d 76 	mov.l	@er7+,er6
  ffc5fe:	54 70       	rts	

00ffc600 <_timer_is_expired>:
timer_is_expired():
/home/timer.c:78

/* タイマ満了したか？ */
int timer_is_expired(int index)
{
  ffc600:	01 00 6d f6 	mov.l	er6,@-er7
  ffc604:	0f f6       	mov.l	er7,er6

00ffc606 <.LM13>:
/home/timer.c:79
  volatile struct h8_3069f_tmr *tmr = regs[index].tmr;
  ffc606:	17 f0       	exts.l	er0
  ffc608:	10 30       	shll.l	er0
  ffc60a:	10 30       	shll.l	er0
  ffc60c:	01 00 78 00 	mov.l	@(0xffd80c:32,er0),er2
  ffc610:	6b 22 00 ff 
  ffc614:	d8 0c 

00ffc616 <.LM14>:
/home/timer.c:80
  return (tmr->tcsr0 & H8_3069F_TMR_TCSR_CMFA) ? 1 : 0;
  ffc616:	6e 28 00 02 	mov.b	@(0x2:16,er2),r0l

00ffc61a <.LM15>:
/home/timer.c:81
}
  ffc61a:	77 68       	bld	#0x6,r0l
  ffc61c:	01 f0 65 00 	xor.l	er0,er0
  ffc620:	12 30       	rotxl.l	er0
  ffc622:	01 00 6d 76 	mov.l	@er7+,er6
  ffc626:	54 70       	rts	

00ffc628 <_timer_expire>:
timer_expire():
/home/timer.c:85

/* タイマ満了処理 */
int timer_expire(int index)
{
  ffc628:	01 00 6d f6 	mov.l	er6,@-er7
  ffc62c:	0f f6       	mov.l	er7,er6

00ffc62e <.LM17>:
/home/timer.c:86
  volatile struct h8_3069f_tmr *tmr = regs[index].tmr;
  ffc62e:	17 f0       	exts.l	er0
  ffc630:	10 30       	shll.l	er0
  ffc632:	10 30       	shll.l	er0
  ffc634:	01 00 78 00 	mov.l	@(0xffd80c:32,er0),er3
  ffc638:	6b 23 00 ff 
  ffc63c:	d8 0c 

00ffc63e <.LM18>:
/home/timer.c:88

  tmr->tcsr0 &= ~H8_3069F_TMR_TCSR_CMFA;
  ffc63e:	6e 3a 00 02 	mov.b	@(0x2:16,er3),r2l
  ffc642:	72 6a       	bclr	#0x6,r2l
  ffc644:	6e ba 00 02 	mov.b	r2l,@(0x2:16,er3)

00ffc648 <.LM19>:
/home/timer.c:91

  return 0;
}
  ffc648:	19 00       	sub.w	r0,r0
  ffc64a:	01 00 6d 76 	mov.l	@er7+,er6
  ffc64e:	54 70       	rts	

00ffc650 <_timer_cancel>:
timer_cancel():
/home/timer.c:95

/* タイマキャンセル */
int timer_cancel(int index)
{
  ffc650:	01 00 6d f6 	mov.l	er6,@-er7
  ffc654:	0f f6       	mov.l	er7,er6
  ffc656:	01 00 6d f4 	mov.l	er4,@-er7

00ffc65a <.LM21>:
/home/timer.c:96
  volatile struct h8_3069f_tmr *tmr = regs[index].tmr;
  ffc65a:	0d 02       	mov.w	r0,r2
  ffc65c:	17 f2       	exts.l	er2
  ffc65e:	10 32       	shll.l	er2
  ffc660:	10 32       	shll.l	er2
  ffc662:	01 00 78 20 	mov.l	@(0xffd80c:32,er2),er4
  ffc666:	6b 24 00 ff 
  ffc66a:	d8 0c 

00ffc66c <.LM22>:
/home/timer.c:98

  timer_expire(index);
  ffc66c:	5e ff c6 28 	jsr	@0xffc628:24

00ffc670 <.LM23>:
/home/timer.c:100

  tmr->tcr0 = 0;
  ffc670:	18 aa       	sub.b	r2l,r2l
  ffc672:	68 ca       	mov.b	r2l,@er4

00ffc674 <.LM24>:
/home/timer.c:101
  tmr->tcr1 = 0;
  ffc674:	6e ca 00 01 	mov.b	r2l,@(0x1:16,er4)

00ffc678 <.LM25>:
/home/timer.c:103

  tmr->tcr0 &= ~H8_3069F_TMR_TCR_CMIEA; /* 割込み無効化 */
  ffc678:	68 4a       	mov.b	@er4,r2l
  ffc67a:	72 6a       	bclr	#0x6,r2l
  ffc67c:	68 ca       	mov.b	r2l,@er4

00ffc67e <.LM26>:
/home/timer.c:106

  return 0;
}
  ffc67e:	19 00       	sub.w	r0,r0
  ffc680:	01 00 6d 74 	mov.l	@er7+,er4
  ffc684:	01 00 6d 76 	mov.l	@er7+,er6
  ffc688:	54 70       	rts	

00ffc68a <_getcurrent>:
getcurrent():
/home/kozos.c:84

void dispatch(kz_context *context);

/* カレント・スレッドをレディー・キューから抜き出す */
static int getcurrent(void)
{
  ffc68a:	01 00 6d f6 	mov.l	er6,@-er7
  ffc68e:	0f f6       	mov.l	er7,er6

00ffc690 <.LM2>:
/home/kozos.c:85
  if (current == NULL) {
  ffc690:	01 00 6b 23 	mov.l	@0xffdad8:32,er3
  ffc694:	00 ff da d8 
  ffc698:	47 3e       	beq	.+62 (0xffc6d8)

00ffc69a <.LM3>:
/home/kozos.c:88
    return -1;
  }
  if (!(current->flags & KZ_THREAD_FLAG_READY)) {
  ffc69a:	01 00 6f 30 	mov.l	@(0x1c:16,er3),er0
  ffc69e:	00 1c 
  ffc6a0:	73 08       	btst	#0x0,r0l
  ffc6a2:	47 3a       	beq	.+58 (0xffc6de)

00ffc6a4 <.LM4>:
/home/kozos.c:94
    /* すでに無い場合は無視 */
    return 1;
  }

  /* カレント・スレッドは必ず先頭にあるはずなので，先頭から抜き出す */
  readyque[current->priority].head = current->next;
  ffc6a4:	6f 32 00 14 	mov.w	@(0x14:16,er3),r2
  ffc6a8:	01 00 69 31 	mov.l	@er3,er1
  ffc6ac:	17 f2       	exts.l	er2
  ffc6ae:	10 32       	shll.l	er2
  ffc6b0:	10 32       	shll.l	er2
  ffc6b2:	10 32       	shll.l	er2
  ffc6b4:	7a 12 00 ff 	add.l	#0xffdadc,er2
  ffc6b8:	da dc 
  ffc6ba:	01 00 69 a1 	mov.l	er1,@er2

00ffc6be <.LM5>:
/home/kozos.c:95
  if (readyque[current->priority].head == NULL) {
  ffc6be:	46 06       	bne	.+6 (0xffc6c6)

00ffc6c0 <.LM6>:
/home/kozos.c:96
    readyque[current->priority].tail = NULL;
  ffc6c0:	01 00 6f a1 	mov.l	er1,@(0x4:16,er2)
  ffc6c4:	00 04 

00ffc6c6 <.L3>:
/home/kozos.c:98
  }
  current->flags &= ~KZ_THREAD_FLAG_READY;
  ffc6c6:	e8 fe       	and.b	#0xfe,r0l
  ffc6c8:	01 00 6f b0 	mov.l	er0,@(0x1c:16,er3)
  ffc6cc:	00 1c 

00ffc6ce <.LM8>:
/home/kozos.c:99
  current->next = NULL;
  ffc6ce:	1a a2       	sub.l	er2,er2
  ffc6d0:	01 00 69 b2 	mov.l	er2,@er3

00ffc6d4 <.LM9>:
/home/kozos.c:101

  return 0;
  ffc6d4:	19 00       	sub.w	r0,r0
  ffc6d6:	40 0a       	bra	.+10 (0xffc6e2)

00ffc6d8 <.L4>:
/home/kozos.c:86
    return -1;
  ffc6d8:	79 00 ff ff 	mov.w	#0xffff,r0
  ffc6dc:	40 04       	bra	.+4 (0xffc6e2)

00ffc6de <.L5>:
/home/kozos.c:90
    return 1;
  ffc6de:	79 00 00 01 	mov.w	#0x1,r0

00ffc6e2 <.L1>:
/home/kozos.c:102
}
  ffc6e2:	01 00 6d 76 	mov.l	@er7+,er6
  ffc6e6:	54 70       	rts	

00ffc6e8 <_putcurrent>:
putcurrent():
/home/kozos.c:106

/* カレント・スレッドをレディー・キューに繋げる */
static int putcurrent(void)
{
  ffc6e8:	01 00 6d f6 	mov.l	er6,@-er7
  ffc6ec:	0f f6       	mov.l	er7,er6
  ffc6ee:	01 00 6d f4 	mov.l	er4,@-er7
  ffc6f2:	01 00 6d f5 	mov.l	er5,@-er7

00ffc6f6 <.LM14>:
/home/kozos.c:107
  if (current == NULL) {
  ffc6f6:	01 00 6b 22 	mov.l	@0xffdad8:32,er2
  ffc6fa:	00 ff da d8 
  ffc6fe:	47 50       	beq	.+80 (0xffc750)

00ffc700 <.LM15>:
/home/kozos.c:110
    return -1;
  }
  if (current->flags & KZ_THREAD_FLAG_READY) {
  ffc700:	01 00 6f 24 	mov.l	@(0x1c:16,er2),er4
  ffc704:	00 1c 
  ffc706:	73 0c       	btst	#0x0,r4l
  ffc708:	46 4c       	bne	.+76 (0xffc756)

00ffc70a <.LM16>:
/home/kozos.c:116
    /* すでに有る場合は無視 */
    return 1;
  }

  /* レディー・キューの末尾に接続する */
  if (readyque[current->priority].tail) {
  ffc70a:	6f 23 00 14 	mov.w	@(0x14:16,er2),r3
  ffc70e:	7a 05 00 ff 	mov.l	#0xffdadc,er5
  ffc712:	da dc 
  ffc714:	17 f3       	exts.l	er3
  ffc716:	0f b1       	mov.l	er3,er1
  ffc718:	10 31       	shll.l	er1
  ffc71a:	10 31       	shll.l	er1
  ffc71c:	10 31       	shll.l	er1
  ffc71e:	0a d1       	add.l	er5,er1
  ffc720:	01 00 6f 10 	mov.l	@(0x4:16,er1),er0
  ffc724:	00 04 
  ffc726:	47 06       	beq	.+6 (0xffc72e)

00ffc728 <.LM17>:
/home/kozos.c:117
    readyque[current->priority].tail->next = current;
  ffc728:	01 00 69 82 	mov.l	er2,@er0
  ffc72c:	40 04       	bra	.+4 (0xffc732)

00ffc72e <.L8>:
/home/kozos.c:119
  } else {
    readyque[current->priority].head = current;
  ffc72e:	01 00 69 92 	mov.l	er2,@er1

00ffc732 <.L9>:
/home/kozos.c:121
  }
  readyque[current->priority].tail = current;
  ffc732:	0f b0       	mov.l	er3,er0
  ffc734:	10 30       	shll.l	er0
  ffc736:	10 30       	shll.l	er0
  ffc738:	10 30       	shll.l	er0
  ffc73a:	0a d0       	add.l	er5,er0
  ffc73c:	01 00 6f 82 	mov.l	er2,@(0x4:16,er0)
  ffc740:	00 04 

00ffc742 <.LM20>:
/home/kozos.c:122
  current->flags |= KZ_THREAD_FLAG_READY;
  ffc742:	0f c3       	mov.l	er4,er3
  ffc744:	cb 01       	or.b	#0x1,r3l
  ffc746:	01 00 6f a3 	mov.l	er3,@(0x1c:16,er2)
  ffc74a:	00 1c 

00ffc74c <.LM21>:
/home/kozos.c:124

  return 0;
  ffc74c:	19 00       	sub.w	r0,r0
  ffc74e:	40 0a       	bra	.+10 (0xffc75a)

00ffc750 <.L10>:
/home/kozos.c:108
    return -1;
  ffc750:	79 00 ff ff 	mov.w	#0xffff,r0
  ffc754:	40 04       	bra	.+4 (0xffc75a)

00ffc756 <.L11>:
/home/kozos.c:112
    return 1;
  ffc756:	79 00 00 01 	mov.w	#0x1,r0

00ffc75a <.L6>:
/home/kozos.c:125
}
  ffc75a:	01 00 6d 75 	mov.l	@er7+,er5
  ffc75e:	01 00 6d 74 	mov.l	@er7+,er4
  ffc762:	01 00 6d 76 	mov.l	@er7+,er6
  ffc766:	54 70       	rts	

00ffc768 <_thread_exit>:
thread_exit():
/home/kozos.c:212
  return (kz_thread_id_t)current;
}

/* システム・コールの処理(kz_exit():スレッドの終了) */
static int thread_exit(void)
{
  ffc768:	01 00 6d f6 	mov.l	er6,@-er7
  ffc76c:	0f f6       	mov.l	er7,er6

00ffc76e <.LM26>:
/home/kozos.c:217
  /*
   * 本来ならスタックも解放して再利用できるようにすべきだが省略．
   * このため，スレッドを頻繁に生成・消去するようなことは現状でできない．
   */
  puts(current->name);
  ffc76e:	01 00 6b 20 	mov.l	@0xffdad8:32,er0
  ffc772:	00 ff da d8 
  ffc776:	0b 90       	adds	#4,er0
  ffc778:	5e ff c3 14 	jsr	@0xffc314:24

00ffc77c <.LM27>:
/home/kozos.c:218
  puts(" EXIT.\n");
  ffc77c:	7a 00 00 ff 	mov.l	#0xffd87f,er0
  ffc780:	d8 7f 
  ffc782:	5e ff c3 14 	jsr	@0xffc314:24

00ffc786 <.LM28>:
/home/kozos.c:219
  memset(current, 0, sizeof(*current));
  ffc786:	1a a2       	sub.l	er2,er2
  ffc788:	8a 40       	add.b	#0x40,r2l
  ffc78a:	19 11       	sub.w	r1,r1
  ffc78c:	01 00 6b 20 	mov.l	@0xffdad8:32,er0
  ffc790:	00 ff da d8 
  ffc794:	5e ff c1 66 	jsr	@0xffc166:24

00ffc798 <.LM29>:
/home/kozos.c:221
  return 0;
}
  ffc798:	19 00       	sub.w	r0,r0
  ffc79a:	01 00 6d 76 	mov.l	@er7+,er6
  ffc79e:	54 70       	rts	

00ffc7a0 <_softerr_intr>:
softerr_intr():
/home/kozos.c:496
{
  syscall_proc(current->syscall.type, current->syscall.param);
}

static void softerr_intr(void)
{
  ffc7a0:	01 00 6d f6 	mov.l	er6,@-er7
  ffc7a4:	0f f6       	mov.l	er7,er6

00ffc7a6 <.LM31>:
/home/kozos.c:497
  puts(current->name);
  ffc7a6:	01 00 6b 20 	mov.l	@0xffdad8:32,er0
  ffc7aa:	00 ff da d8 
  ffc7ae:	0b 90       	adds	#4,er0
  ffc7b0:	5e ff c3 14 	jsr	@0xffc314:24

00ffc7b4 <.LM32>:
/home/kozos.c:498
  puts(" DOWN.\n");
  ffc7b4:	7a 00 00 ff 	mov.l	#0xffd887,er0
  ffc7b8:	d8 87 
  ffc7ba:	5e ff c3 14 	jsr	@0xffc314:24

00ffc7be <.LM33>:
/home/kozos.c:499
  getcurrent(); /* レディーキューから外す */
  ffc7be:	5e ff c6 8a 	jsr	@0xffc68a:24

00ffc7c2 <.LM34>:
/home/kozos.c:500
  thread_exit(); /* スレッド終了する */
  ffc7c2:	5e ff c7 68 	jsr	@0xffc768:24

00ffc7c6 <.LM35>:
/home/kozos.c:501
}
  ffc7c6:	01 00 6d 76 	mov.l	@er7+,er6
  ffc7ca:	54 70       	rts	

00ffc7cc <_recvmsg>:
recvmsg():
/home/kozos.c:306
{
  ffc7cc:	01 00 6d f6 	mov.l	er6,@-er7
  ffc7d0:	0f f6       	mov.l	er7,er6
  ffc7d2:	01 00 6d f4 	mov.l	er4,@-er7

00ffc7d6 <.LM37>:
/home/kozos.c:311
  mp = mboxp->head;
  ffc7d6:	01 00 6f 02 	mov.l	@(0x4:16,er0),er2
  ffc7da:	00 04 

00ffc7dc <.LM38>:
/home/kozos.c:312
  mboxp->head = mp->next;
  ffc7dc:	01 00 69 23 	mov.l	@er2,er3
  ffc7e0:	01 00 6f 83 	mov.l	er3,@(0x4:16,er0)
  ffc7e4:	00 04 

00ffc7e6 <.LM39>:
/home/kozos.c:313
  if (mboxp->head == NULL)
  ffc7e6:	46 06       	bne	.+6 (0xffc7ee)

00ffc7e8 <.LM40>:
/home/kozos.c:314
    mboxp->tail = NULL;
  ffc7e8:	01 00 6f 83 	mov.l	er3,@(0x8:16,er0)
  ffc7ec:	00 08 

00ffc7ee <.L15>:
/home/kozos.c:315
  mp->next = NULL;
  ffc7ee:	1a b3       	sub.l	er3,er3
  ffc7f0:	01 00 69 a3 	mov.l	er3,@er2

00ffc7f4 <.LM42>:
/home/kozos.c:318
  p = mboxp->receiver->syscall.param;
  ffc7f4:	01 00 69 03 	mov.l	@er0,er3
  ffc7f8:	01 00 6f 33 	mov.l	@(0x30:16,er3),er3
  ffc7fc:	00 30 

00ffc7fe <.LM43>:
/home/kozos.c:319
  p->un.recv.ret = (kz_thread_id_t)mp->sender;
  ffc7fe:	01 00 6f 21 	mov.l	@(0x4:16,er2),er1
  ffc802:	00 04 
  ffc804:	01 00 6f b1 	mov.l	er1,@(0xc:16,er3)
  ffc808:	00 0c 

00ffc80a <.LM44>:
/home/kozos.c:320
  if (p->un.recv.sizep)
  ffc80a:	01 00 6f 31 	mov.l	@(0x4:16,er3),er1
  ffc80e:	00 04 
  ffc810:	47 06       	beq	.+6 (0xffc818)

00ffc812 <.LM45>:
/home/kozos.c:321
    *(p->un.recv.sizep) = mp->param.size;
  ffc812:	6f 24 00 08 	mov.w	@(0x8:16,er2),r4
  ffc816:	69 94       	mov.w	r4,@er1

00ffc818 <.L16>:
/home/kozos.c:322
  if (p->un.recv.pp)
  ffc818:	01 00 6f 33 	mov.l	@(0x8:16,er3),er3
  ffc81c:	00 08 
  ffc81e:	47 0a       	beq	.+10 (0xffc82a)

00ffc820 <.LM47>:
/home/kozos.c:323
    *(p->un.recv.pp) = mp->param.p;
  ffc820:	01 00 6f 21 	mov.l	@(0xc:16,er2),er1
  ffc824:	00 0c 
  ffc826:	01 00 69 b1 	mov.l	er1,@er3

00ffc82a <.L17>:
/home/kozos.c:326
  mboxp->receiver = NULL;
  ffc82a:	1a b3       	sub.l	er3,er3
  ffc82c:	01 00 69 83 	mov.l	er3,@er0

00ffc830 <.LM49>:
/home/kozos.c:329
  kzmem_free(mp);
  ffc830:	0f a0       	mov.l	er2,er0
  ffc832:	5e ff d2 a0 	jsr	@0xffd2a0:24

00ffc836 <.LM50>:
/home/kozos.c:330
}
  ffc836:	01 00 6d 74 	mov.l	@er7+,er4
  ffc83a:	01 00 6d 76 	mov.l	@er7+,er6
  ffc83e:	54 70       	rts	

00ffc840 <_thread_run>:
thread_run():
/home/kozos.c:143
{
  ffc840:	01 00 6d f6 	mov.l	er6,@-er7
  ffc844:	0f f6       	mov.l	er7,er6
  ffc846:	01 00 6d f4 	mov.l	er4,@-er7
  ffc84a:	01 00 6d f5 	mov.l	er5,@-er7
  ffc84e:	7a 37 00 00 	sub.l	#0x14,er7
  ffc852:	00 14 
  ffc854:	01 00 6f e0 	mov.l	er0,@(0xffec:16,er6)
  ffc858:	ff ec 
  ffc85a:	01 00 6f e1 	mov.l	er1,@(0xffe8:16,er6)
  ffc85e:	ff e8 
  ffc860:	6f e2 ff f6 	mov.w	r2,@(0xfff6:16,er6)

00ffc864 <.LM52>:
  ffc864:	1a 80       	sub.l	er0,er0

00ffc866 <.LM53>:
/home/kozos.c:151
  for (i = 0; i < THREAD_NUM; i++) {
  ffc866:	19 22       	sub.w	r2,r2

00ffc868 <.L26>:
/home/kozos.c:153
    if (!thp->init.func) /* 見つかった */
  ffc868:	01 00 78 00 	mov.l	@(0xffd978:32,er0),er3
  ffc86c:	6b 23 00 ff 
  ffc870:	d9 78 
  ffc872:	58 70 00 7e 	beq	.+126 (0xffc8f4)

00ffc876 <.LM55>:
/home/kozos.c:151 (discriminator 2)
  for (i = 0; i < THREAD_NUM; i++) {
  ffc876:	0b 02       	adds	#1,er2
  ffc878:	7a 10 00 00 	add.l	#0x40,er0
  ffc87c:	00 40 
  ffc87e:	79 22 00 06 	cmp.w	#0x6,r2
  ffc882:	46 e4       	bne	.-28 (0xffc868)

00ffc884 <.LM56>:
/home/kozos.c:157
    return -1;
  ffc884:	1a c4       	sub.l	er4,er4
  ffc886:	1b 04       	subs	#1,er4
  ffc888:	58 00 01 2a 	bra	.+298 (0xffc9b6)

00ffc88c <.L31>:
/home/kozos.c:185 (discriminator 2)
  *(--sp) = (uint32)thread_init | ((uint32)(priority ? 0 : 0xc0) << 24);
  ffc88c:	79 4a c0 00 	or.w	#0xc000,e2

00ffc890 <.L28>:
/home/kozos.c:185 (discriminator 4)
  ffc890:	01 00 6f d2 	mov.l	er2,@(0xfff8:16,er5)
  ffc894:	ff f8 

00ffc896 <.LM59>:
/home/kozos.c:187
  *(--sp) = 0; /* ER6 */
  ffc896:	1a a2       	sub.l	er2,er2
  ffc898:	01 00 6f d2 	mov.l	er2,@(0xfff4:16,er5)
  ffc89c:	ff f4 

00ffc89e <.LM60>:
/home/kozos.c:188
  *(--sp) = 0; /* ER5 */
  ffc89e:	01 00 6f d2 	mov.l	er2,@(0xfff0:16,er5)
  ffc8a2:	ff f0 

00ffc8a4 <.LM61>:
/home/kozos.c:189
  *(--sp) = 0; /* ER4 */
  ffc8a4:	01 00 6f d2 	mov.l	er2,@(0xffec:16,er5)
  ffc8a8:	ff ec 

00ffc8aa <.LM62>:
/home/kozos.c:190
  *(--sp) = 0; /* ER3 */
  ffc8aa:	01 00 6f d2 	mov.l	er2,@(0xffe8:16,er5)
  ffc8ae:	ff e8 

00ffc8b0 <.LM63>:
/home/kozos.c:191
  *(--sp) = 0; /* ER2 */
  ffc8b0:	01 00 6f d2 	mov.l	er2,@(0xffe4:16,er5)
  ffc8b4:	ff e4 

00ffc8b6 <.LM64>:
/home/kozos.c:192
  *(--sp) = 0; /* ER1 */
  ffc8b6:	01 00 6f d2 	mov.l	er2,@(0xffe0:16,er5)
  ffc8ba:	ff e0 

00ffc8bc <.LM65>:
/home/kozos.c:195
  *(--sp) = (uint32)thp;  /* ER0 */
  ffc8bc:	01 00 6f d4 	mov.l	er4,@(0xffdc:16,er5)
  ffc8c0:	ff dc 

00ffc8c2 <.LM66>:
/home/kozos.c:198
  thp->context.sp = (uint32)sp;
  ffc8c2:	01 00 6f 62 	mov.l	@(0xfff0:16,er6),er2
  ffc8c6:	ff f0 
  ffc8c8:	fb 06       	mov.b	#0x6,r3l

00ffc8ca <.Llt4>:
  ffc8ca:	10 32       	shll.l	er2
  ffc8cc:	8b ff       	add.b	#0xff,r3l
  ffc8ce:	46 fa       	bne	.-6 (0xffc8ca)

00ffc8d0 <.LM67>:
/home/kozos.c:195
  *(--sp) = (uint32)thp;  /* ER0 */
  ffc8d0:	7a 35 00 00 	sub.l	#0x24,er5
  ffc8d4:	00 24 

00ffc8d6 <.LM68>:
/home/kozos.c:198
  thp->context.sp = (uint32)sp;
  ffc8d6:	01 00 78 a0 	mov.l	er5,@(0xffd98c:32,er2)
  ffc8da:	6b a5 00 ff 
  ffc8de:	d9 8c 

00ffc8e0 <.LM69>:
/home/kozos.c:201
  putcurrent();
  ffc8e0:	5e ff c6 e8 	jsr	@0xffc6e8:24

00ffc8e4 <.LM70>:
/home/kozos.c:204
  current = thp;
  ffc8e4:	01 00 6b a4 	mov.l	er4,@0xffdad8:32
  ffc8e8:	00 ff da d8 

00ffc8ec <.LM71>:
/home/kozos.c:205
  putcurrent();
  ffc8ec:	5e ff c6 e8 	jsr	@0xffc6e8:24

00ffc8f0 <.LM72>:
/home/kozos.c:207
  return (kz_thread_id_t)current;
  ffc8f0:	58 00 00 c2 	bra	.+194 (0xffc9b6)

00ffc8f4 <.L25>:
  ffc8f4:	17 f2       	exts.l	er2
  ffc8f6:	01 00 6f e2 	mov.l	er2,@(0xfff0:16,er6)
  ffc8fa:	ff f0 
  ffc8fc:	0f a5       	mov.l	er2,er5
  ffc8fe:	fa 06       	mov.b	#0x6,r2l

00ffc900 <.Llt5>:
  ffc900:	10 35       	shll.l	er5
  ffc902:	8a ff       	add.b	#0xff,r2l
  ffc904:	46 fa       	bne	.-6 (0xffc900)

00ffc906 <.LM73>:
/home/kozos.c:152
    thp = &threads[i];
  ffc906:	0f d4       	mov.l	er5,er4
  ffc908:	7a 14 00 ff 	add.l	#0xffd958,er4
  ffc90c:	d9 58 

00ffc90e <.LM74>:
/home/kozos.c:159
  memset(thp, 0, sizeof(*thp));
  ffc90e:	1a a2       	sub.l	er2,er2
  ffc910:	8a 40       	add.b	#0x40,r2l
  ffc912:	19 11       	sub.w	r1,r1
  ffc914:	0f c0       	mov.l	er4,er0
  ffc916:	01 00 6f e3 	mov.l	er3,@(0xffe4:16,er6)
  ffc91a:	ff e4 
  ffc91c:	5e ff c1 66 	jsr	@0xffc166:24

00ffc920 <.LM75>:
/home/kozos.c:162
  strcpy(thp->name, name);
  ffc920:	01 00 6f 61 	mov.l	@(0xffe8:16,er6),er1
  ffc924:	ff e8 
  ffc926:	0f d0       	mov.l	er5,er0
  ffc928:	7a 10 00 ff 	add.l	#0xffd95c,er0
  ffc92c:	d9 5c 
  ffc92e:	5e ff c2 18 	jsr	@0xffc218:24

00ffc932 <.LM76>:
/home/kozos.c:163
  thp->next     = NULL;
  ffc932:	01 00 6f 63 	mov.l	@(0xffe4:16,er6),er3
  ffc936:	ff e4 
  ffc938:	01 00 69 c3 	mov.l	er3,@er4

00ffc93c <.LM77>:
/home/kozos.c:164
  thp->priority = priority;
  ffc93c:	6f 62 ff f6 	mov.w	@(0xfff6:16,er6),r2
  ffc940:	6f c2 00 14 	mov.w	r2,@(0x14:16,er4)

00ffc944 <.LM78>:
/home/kozos.c:165
  thp->flags    = 0;
  ffc944:	01 00 6f c3 	mov.l	er3,@(0x1c:16,er4)
  ffc948:	00 1c 

00ffc94a <.LM79>:
/home/kozos.c:167
  thp->init.func = func;
  ffc94a:	01 00 6f 63 	mov.l	@(0xffec:16,er6),er3
  ffc94e:	ff ec 
  ffc950:	01 00 6f c3 	mov.l	er3,@(0x20:16,er4)
  ffc954:	00 20 

00ffc956 <.LM80>:
/home/kozos.c:168
  thp->init.argc = argc;
  ffc956:	6f 62 00 0e 	mov.w	@(0xe:16,er6),r2
  ffc95a:	6f c2 00 24 	mov.w	r2,@(0x24:16,er4)

00ffc95e <.LM81>:
/home/kozos.c:169
  thp->init.argv = argv;
  ffc95e:	01 00 6f 62 	mov.l	@(0x10:16,er6),er2
  ffc962:	00 10 
  ffc964:	01 00 6f c2 	mov.l	er2,@(0x28:16,er4)
  ffc968:	00 28 

00ffc96a <.LM82>:
/home/kozos.c:172
  memset(thread_stack, 0, stacksize);
  ffc96a:	6f 65 00 0a 	mov.w	@(0xa:16,er6),r5
  ffc96e:	17 f5       	exts.l	er5
  ffc970:	0f d2       	mov.l	er5,er2
  ffc972:	19 11       	sub.w	r1,r1
  ffc974:	01 00 6b 20 	mov.l	@0xffd908:32,er0
  ffc978:	00 ff d9 08 
  ffc97c:	5e ff c1 66 	jsr	@0xffc166:24

00ffc980 <.LM83>:
/home/kozos.c:173
  thread_stack += stacksize;
  ffc980:	01 00 6b 22 	mov.l	@0xffd908:32,er2
  ffc984:	00 ff d9 08 
  ffc988:	0a a5       	add.l	er2,er5
  ffc98a:	01 00 6b a5 	mov.l	er5,@0xffd908:32
  ffc98e:	00 ff d9 08 

00ffc992 <.LM84>:
/home/kozos.c:175
  thp->stack = thread_stack; /* スタックを設定 */
  ffc992:	01 00 6f c5 	mov.l	er5,@(0x18:16,er4)
  ffc996:	00 18 

00ffc998 <.LM85>:
/home/kozos.c:179
  *(--sp) = (uint32)thread_end;
  ffc998:	7a 02 00 ff 	mov.l	#0xffc9cc,er2
  ffc99c:	c9 cc 
  ffc99e:	01 00 6f d2 	mov.l	er2,@(0xfffc:16,er5)
  ffc9a2:	ff fc 
  ffc9a4:	7a 02 00 ff 	mov.l	#0xffc9dc,er2
  ffc9a8:	c9 dc 

00ffc9aa <.LM86>:
/home/kozos.c:185
  *(--sp) = (uint32)thread_init | ((uint32)(priority ? 0 : 0xc0) << 24);
  ffc9aa:	6f 63 ff f6 	mov.w	@(0xfff6:16,er6),r3
  ffc9ae:	58 60 fe de 	bne	.-290 (0xffc890)
  ffc9b2:	58 00 fe d6 	bra	.-298 (0xffc88c)

00ffc9b6 <.L24>:
/home/kozos.c:208
}
  ffc9b6:	0f c0       	mov.l	er4,er0
  ffc9b8:	7a 17 00 00 	add.l	#0x14,er7
  ffc9bc:	00 14 
  ffc9be:	01 00 6d 75 	mov.l	@er7+,er5
  ffc9c2:	01 00 6d 74 	mov.l	@er7+,er4
  ffc9c6:	01 00 6d 76 	mov.l	@er7+,er6
  ffc9ca:	54 70       	rts	

00ffc9cc <_thread_end>:
thread_end():
/home/kozos.c:128
{
  ffc9cc:	01 00 6d f6 	mov.l	er6,@-er7
  ffc9d0:	0f f6       	mov.l	er7,er6

00ffc9d2 <.LM89>:
/home/kozos.c:129
  kz_exit();
  ffc9d2:	5e ff ce 9c 	jsr	@0xffce9c:24

00ffc9d6 <.LM90>:
/home/kozos.c:130
}
  ffc9d6:	01 00 6d 76 	mov.l	@er7+,er6
  ffc9da:	54 70       	rts	

00ffc9dc <_thread_init>:
thread_init():
/home/kozos.c:134
{
  ffc9dc:	01 00 6d f6 	mov.l	er6,@-er7
  ffc9e0:	0f f6       	mov.l	er7,er6

00ffc9e2 <.LM92>:
/home/kozos.c:136
  thp->init.func(thp->init.argc, thp->init.argv);
  ffc9e2:	01 00 6f 02 	mov.l	@(0x20:16,er0),er2
  ffc9e6:	00 20 
  ffc9e8:	01 00 6f 01 	mov.l	@(0x28:16,er0),er1
  ffc9ec:	00 28 
  ffc9ee:	6f 00 00 24 	mov.w	@(0x24:16,er0),r0
  ffc9f2:	5d 20       	jsr	@er2

00ffc9f4 <.LBB14>:
thread_end():
/home/kozos.c:129
  kz_exit();
  ffc9f4:	5e ff ce 9c 	jsr	@0xffce9c:24

00ffc9f8 <.LM94>:
thread_init():
/home/kozos.c:138
}
  ffc9f8:	01 00 6d 76 	mov.l	@er7+,er6
  ffc9fc:	54 70       	rts	

00ffc9fe <_kz_start>:
kz_start():
/home/kozos.c:532
  /* ここには返ってこない */
}

void kz_start(kz_func_t func, char *name, int priority, int stacksize,
	      int argc, char *argv[])
{
  ffc9fe:	01 00 6d f6 	mov.l	er6,@-er7
  ffca02:	0f f6       	mov.l	er7,er6
  ffca04:	01 00 6d f4 	mov.l	er4,@-er7
  ffca08:	01 00 6d f5 	mov.l	er5,@-er7
  ffca0c:	1b 97       	subs	#4,er7
  ffca0e:	0f 84       	mov.l	er0,er4
  ffca10:	0f 95       	mov.l	er1,er5
  ffca12:	0d 23       	mov.w	r2,r3

00ffca14 <.LM96>:
/home/kozos.c:533
  kzmem_init(); /* 動的メモリの初期化 */
  ffca14:	01 00 6f e3 	mov.l	er3,@(0xfff4:16,er6)
  ffca18:	ff f4 
  ffca1a:	5e ff d1 7c 	jsr	@0xffd17c:24

00ffca1e <.LM97>:
/home/kozos.c:539

  /*
   * 以降で呼び出すスレッド関連のライブラリ関数の内部で current を
   * 見ている場合があるので，current を NULL に初期化しておく．
   */
  current = NULL;
  ffca1e:	1a a2       	sub.l	er2,er2
  ffca20:	01 00 6b a2 	mov.l	er2,@0xffdad8:32
  ffca24:	00 ff da d8 

00ffca28 <.LM98>:
/home/kozos.c:541

  memset(readyque, 0, sizeof(readyque));
  ffca28:	1a a2       	sub.l	er2,er2
  ffca2a:	8a 80       	add.b	#0x80,r2l
  ffca2c:	19 11       	sub.w	r1,r1
  ffca2e:	7a 00 00 ff 	mov.l	#0xffdadc,er0
  ffca32:	da dc 
  ffca34:	5e ff c1 66 	jsr	@0xffc166:24

00ffca38 <.LM99>:
/home/kozos.c:542
  memset(threads,  0, sizeof(threads));
  ffca38:	7a 02 00 00 	mov.l	#0x180,er2
  ffca3c:	01 80 
  ffca3e:	19 11       	sub.w	r1,r1
  ffca40:	7a 00 00 ff 	mov.l	#0xffd958,er0
  ffca44:	d9 58 
  ffca46:	5e ff c1 66 	jsr	@0xffc166:24

00ffca4a <.LM100>:
/home/kozos.c:543
  memset(handlers, 0, sizeof(handlers));
  ffca4a:	1a a2       	sub.l	er2,er2
  ffca4c:	8a 10       	add.b	#0x10,r2l
  ffca4e:	19 11       	sub.w	r1,r1
  ffca50:	7a 00 00 ff 	mov.l	#0xffd948,er0
  ffca54:	d9 48 
  ffca56:	5e ff c1 66 	jsr	@0xffc166:24

00ffca5a <.LM101>:
/home/kozos.c:544
  memset(msgboxes, 0, sizeof(msgboxes));
  ffca5a:	1a a2       	sub.l	er2,er2
  ffca5c:	8a 20       	add.b	#0x20,r2l
  ffca5e:	19 11       	sub.w	r1,r1
  ffca60:	7a 00 00 ff 	mov.l	#0xffd928,er0
  ffca64:	d9 28 
  ffca66:	5e ff c1 66 	jsr	@0xffc166:24

00ffca6a <.LBB20>:
thread_setintr():
/home/kozos.c:383
  softvec_setintr(type, thread_intr);
  ffca6a:	7a 01 00 ff 	mov.l	#0xffcdac,er1
  ffca6e:	cd ac 
  ffca70:	79 00 00 01 	mov.w	#0x1,r0
  ffca74:	5e ff c1 26 	jsr	@0xffc126:24

00ffca78 <.LM103>:
/home/kozos.c:385
  handlers[type] = handler; /* OS側から呼び出す割込みハンドラを登録 */
  ffca78:	7a 02 00 ff 	mov.l	#0xffcd72,er2
  ffca7c:	cd 72 
  ffca7e:	01 00 6b a2 	mov.l	er2,@0xffd94c:32
  ffca82:	00 ff d9 4c 

00ffca86 <.LM104>:
/home/kozos.c:386
  putcurrent();
  ffca86:	5e ff c6 e8 	jsr	@0xffc6e8:24

00ffca8a <.LBB22>:
/home/kozos.c:383
  softvec_setintr(type, thread_intr);
  ffca8a:	7a 01 00 ff 	mov.l	#0xffcdac,er1
  ffca8e:	cd ac 
  ffca90:	19 00       	sub.w	r0,r0
  ffca92:	5e ff c1 26 	jsr	@0xffc126:24

00ffca96 <.LM106>:
/home/kozos.c:385
  handlers[type] = handler; /* OS側から呼び出す割込みハンドラを登録 */
  ffca96:	7a 02 00 ff 	mov.l	#0xffc7a0,er2
  ffca9a:	c7 a0 
  ffca9c:	01 00 6b a2 	mov.l	er2,@0xffd948:32
  ffcaa0:	00 ff d9 48 

00ffcaa4 <.LM107>:
/home/kozos.c:386
  putcurrent();
  ffcaa4:	5e ff c6 e8 	jsr	@0xffc6e8:24

00ffcaa8 <.LM108>:
kz_start():
/home/kozos.c:551
  /* 割込みハンドラの登録 */
  thread_setintr(SOFTVEC_TYPE_SYSCALL, syscall_intr); /* システム・コール */
  thread_setintr(SOFTVEC_TYPE_SOFTERR, softerr_intr); /* ダウン要因発生 */

  /* システム・コール発行不可なので直接関数を呼び出してスレッド作成する */
  current = (kz_thread *)thread_run(func, name, priority, stacksize,
  ffcaa8:	01 00 6f 62 	mov.l	@(0x10:16,er6),er2
  ffcaac:	00 10 
  ffcaae:	01 00 6d f2 	mov.l	er2,@-er7
  ffcab2:	1b 97       	subs	#4,er7
  ffcab4:	1b 97       	subs	#4,er7
  ffcab6:	6f 62 00 0e 	mov.w	@(0xe:16,er6),r2
  ffcaba:	6f f2 00 06 	mov.w	r2,@(0x6:16,er7)
  ffcabe:	6f 62 00 0a 	mov.w	@(0xa:16,er6),r2
  ffcac2:	6f f2 00 02 	mov.w	r2,@(0x2:16,er7)
  ffcac6:	01 00 6f 63 	mov.l	@(0xfff4:16,er6),er3
  ffcaca:	ff f4 
  ffcacc:	0d 32       	mov.w	r3,r2
  ffcace:	0f d1       	mov.l	er5,er1
  ffcad0:	0f c0       	mov.l	er4,er0
  ffcad2:	5e ff c8 40 	jsr	@0xffc840:24

00ffcad6 <.LVL54>:
  ffcad6:	01 00 6b a0 	mov.l	er0,@0xffdad8:32
  ffcada:	00 ff da d8 

00ffcade <.LM109>:
/home/kozos.c:555
				    argc, argv);

  /* 最初のスレッドを起動 */
  dispatch(&current->context);
  ffcade:	7a 10 00 00 	add.l	#0x34,er0
  ffcae2:	00 34 
  ffcae4:	5e ff c0 2c 	jsr	@0xffc02c:24

00ffcae8 <.LM110>:
/home/kozos.c:558

  /* ここには返ってこない */
}
  ffcae8:	7a 17 00 00 	add.l	#0x10,er7
  ffcaec:	00 10 
  ffcaee:	01 00 6d 75 	mov.l	@er7+,er5
  ffcaf2:	01 00 6d 74 	mov.l	@er7+,er4
  ffcaf6:	01 00 6d 76 	mov.l	@er7+,er6
  ffcafa:	54 70       	rts	

00ffcafc <_kz_sysdown>:
kz_sysdown():
/home/kozos.c:561

void kz_sysdown(void)
{
  ffcafc:	01 00 6d f6 	mov.l	er6,@-er7
  ffcb00:	0f f6       	mov.l	er7,er6

00ffcb02 <.LM112>:
/home/kozos.c:562
  puts("system error!\n");
  ffcb02:	7a 00 00 ff 	mov.l	#0xffd88f,er0
  ffcb06:	d8 8f 
  ffcb08:	5e ff c3 14 	jsr	@0xffc314:24

00ffcb0c <.L36>:
  ffcb0c:	40 fe       	bra	.-2 (0xffcb0c)

00ffcb0e <_call_functions>:
call_functions():
/home/kozos.c:392
{
  ffcb0e:	01 00 6d f6 	mov.l	er6,@-er7
  ffcb12:	0f f6       	mov.l	er7,er6
  ffcb14:	01 00 6d f4 	mov.l	er4,@-er7
  ffcb18:	01 00 6d f5 	mov.l	er5,@-er7
  ffcb1c:	7a 37 00 00 	sub.l	#0xc,er7
  ffcb20:	00 0c 
  ffcb22:	0f 94       	mov.l	er1,er4

00ffcb24 <.LM114>:
/home/kozos.c:394
  switch (type) {
  ffcb24:	79 20 00 0b 	cmp.w	#0xb,r0
  ffcb28:	58 20 02 32 	bhi	.+562 (0xffcd5e)
  ffcb2c:	17 70       	extu.l	er0
  ffcb2e:	10 30       	shll.l	er0
  ffcb30:	10 30       	shll.l	er0
  ffcb32:	01 00 78 00 	mov.l	@(0xffd814:32,er0),er2
  ffcb36:	6b 22 00 ff 
  ffcb3a:	d8 14 
  ffcb3c:	59 20       	jmp	@er2

00ffcb3e <.L39>:
/home/kozos.c:396
    p->un.run.ret = thread_run(p->un.run.func, p->un.run.name,
  ffcb3e:	01 00 6f 12 	mov.l	@(0x10:16,er1),er2
  ffcb42:	00 10 
  ffcb44:	01 00 6d f2 	mov.l	er2,@-er7
  ffcb48:	1b 97       	subs	#4,er7
  ffcb4a:	1b 97       	subs	#4,er7
  ffcb4c:	6f 12 00 0c 	mov.w	@(0xc:16,er1),r2
  ffcb50:	6f f2 00 06 	mov.w	r2,@(0x6:16,er7)
  ffcb54:	6f 12 00 0a 	mov.w	@(0xa:16,er1),r2
  ffcb58:	6f f2 00 02 	mov.w	r2,@(0x2:16,er7)
  ffcb5c:	6f 12 00 08 	mov.w	@(0x8:16,er1),r2
  ffcb60:	01 00 6f 11 	mov.l	@(0x4:16,er1),er1
  ffcb64:	00 04 
  ffcb66:	01 00 69 40 	mov.l	@er4,er0
  ffcb6a:	5e ff c8 40 	jsr	@0xffc840:24

00ffcb6e <.LVL62>:
  ffcb6e:	01 00 6f c0 	mov.l	er0,@(0x14:16,er4)
  ffcb72:	00 14 

00ffcb74 <.LM116>:
/home/kozos.c:399
    break;
  ffcb74:	7a 17 00 00 	add.l	#0xc,er7
  ffcb78:	00 0c 
  ffcb7a:	58 00 01 e0 	bra	.+480 (0xffcd5e)

00ffcb7e <.L41>:
/home/kozos.c:402
    thread_exit();
  ffcb7e:	5e ff c7 68 	jsr	@0xffc768:24

00ffcb82 <.LM118>:
/home/kozos.c:403
    break;
  ffcb82:	58 00 01 d8 	bra	.+472 (0xffcd5e)

00ffcb86 <.L42>:
thread_wait():
/home/kozos.c:226
  putcurrent();
  ffcb86:	5e ff c6 e8 	jsr	@0xffc6e8:24

00ffcb8a <.L43>:
call_functions():
/home/kozos.c:408
    p->un.sleep.ret = thread_sleep();
  ffcb8a:	19 22       	sub.w	r2,r2
  ffcb8c:	69 c2       	mov.w	r2,@er4

00ffcb8e <.LM121>:
/home/kozos.c:409
    break;
  ffcb8e:	58 00 01 cc 	bra	.+460 (0xffcd5e)

00ffcb92 <.L44>:
/home/kozos.c:411
    p->un.wakeup.ret = thread_wakeup(p->un.wakeup.id);
  ffcb92:	01 00 69 15 	mov.l	@er1,er5

00ffcb96 <.LBB46>:
thread_wakeup():
/home/kozos.c:240
  putcurrent();
  ffcb96:	5e ff c6 e8 	jsr	@0xffc6e8:24

00ffcb9a <.LM124>:
/home/kozos.c:243
  current = (kz_thread *)id;
  ffcb9a:	01 00 6b a5 	mov.l	er5,@0xffdad8:32
  ffcb9e:	00 ff da d8 
  ffcba2:	40 54       	bra	.+84 (0xffcbf8)

00ffcba4 <.L45>:
thread_getid():
/home/kozos.c:252
  putcurrent();
  ffcba4:	5e ff c6 e8 	jsr	@0xffc6e8:24

00ffcba8 <.LM126>:
call_functions():
/home/kozos.c:414
    p->un.getid.ret = thread_getid();
  ffcba8:	01 00 6b 22 	mov.l	@0xffdad8:32,er2
  ffcbac:	00 ff da d8 
  ffcbb0:	01 00 69 c2 	mov.l	er2,@er4

00ffcbb4 <.LM127>:
/home/kozos.c:415
    break;
  ffcbb4:	58 00 01 a6 	bra	.+422 (0xffcd5e)

00ffcbb8 <.L46>:
/home/kozos.c:417
    p->un.chpri.ret = thread_chpri(p->un.chpri.priority);
  ffcbb8:	69 13       	mov.w	@er1,r3

00ffcbba <.LBB50>:
thread_chpri():
/home/kozos.c:259
  int old = current->priority;
  ffcbba:	01 00 6b 22 	mov.l	@0xffdad8:32,er2
  ffcbbe:	00 ff da d8 
  ffcbc2:	6f 25 00 14 	mov.w	@(0x14:16,er2),r5

00ffcbc6 <.LM130>:
/home/kozos.c:260
  if (priority >= 0)
  ffcbc6:	0d 33       	mov.w	r3,r3
  ffcbc8:	4d 04       	blt	.+4 (0xffcbce)

00ffcbca <.LM131>:
/home/kozos.c:261
    current->priority = priority; /* 優先度変更 */
  ffcbca:	6f a3 00 14 	mov.w	r3,@(0x14:16,er2)

00ffcbce <.L52>:
/home/kozos.c:262
  putcurrent(); /* 新しい優先度のレディー・キューに繋ぎ直す */
  ffcbce:	5e ff c6 e8 	jsr	@0xffc6e8:24

00ffcbd2 <.LM133>:
call_functions():
/home/kozos.c:417
    p->un.chpri.ret = thread_chpri(p->un.chpri.priority);
  ffcbd2:	6f c5 00 02 	mov.w	r5,@(0x2:16,er4)

00ffcbd6 <.LM134>:
/home/kozos.c:418
    break;
  ffcbd6:	58 00 01 84 	bra	.+388 (0xffcd5e)

00ffcbda <.L47>:
/home/kozos.c:420
    p->un.kmalloc.ret = thread_kmalloc(p->un.kmalloc.size);
  ffcbda:	69 15       	mov.w	@er1,r5

00ffcbdc <.LBB52>:
thread_kmalloc():
/home/kozos.c:269
  putcurrent();
  ffcbdc:	5e ff c6 e8 	jsr	@0xffc6e8:24

00ffcbe0 <.LM137>:
/home/kozos.c:270
  return kzmem_alloc(size);
  ffcbe0:	0d 50       	mov.w	r5,r0
  ffcbe2:	5e ff d2 24 	jsr	@0xffd224:24

00ffcbe6 <.LM138>:
call_functions():
/home/kozos.c:420
    p->un.kmalloc.ret = thread_kmalloc(p->un.kmalloc.size);
  ffcbe6:	01 00 6f c0 	mov.l	er0,@(0x4:16,er4)
  ffcbea:	00 04 

00ffcbec <.LM139>:
/home/kozos.c:421
    break;
  ffcbec:	58 00 01 6e 	bra	.+366 (0xffcd5e)

00ffcbf0 <.L48>:
thread_kmfree():
/home/kozos.c:276
  kzmem_free(p);
  ffcbf0:	01 00 69 10 	mov.l	@er1,er0
  ffcbf4:	5e ff d2 a0 	jsr	@0xffd2a0:24

00ffcbf8 <.L64>:
/home/kozos.c:277
  putcurrent();
  ffcbf8:	5e ff c6 e8 	jsr	@0xffc6e8:24

00ffcbfc <.LM142>:
call_functions():
/home/kozos.c:423
    p->un.kmfree.ret = thread_kmfree(p->un.kmfree.p);
  ffcbfc:	19 22       	sub.w	r2,r2
  ffcbfe:	6f c2 00 04 	mov.w	r2,@(0x4:16,er4)

00ffcc02 <.LM143>:
/home/kozos.c:424
    break;
  ffcc02:	58 00 01 58 	bra	.+344 (0xffcd5e)

00ffcc06 <.L49>:
/home/kozos.c:426
    p->un.send.ret = thread_send(p->un.send.id,
  ffcc06:	01 00 6f 12 	mov.l	@(0x4:16,er1),er2
  ffcc0a:	00 04 
  ffcc0c:	6f 13 00 02 	mov.w	@(0x2:16,er1),r3
  ffcc10:	6f e3 ff f6 	mov.w	r3,@(0xfff6:16,er6)
  ffcc14:	69 15       	mov.w	@er1,r5

00ffcc16 <.LBB56>:
thread_send():
/home/kozos.c:337
  putcurrent();
  ffcc16:	01 00 6f e2 	mov.l	er2,@(0xfff0:16,er6)
  ffcc1a:	ff f0 
  ffcc1c:	5e ff c6 e8 	jsr	@0xffc6e8:24

00ffcc20 <.LM146>:
/home/kozos.c:338
  sendmsg(mboxp, current, size, p); /* メッセージの送信処理 */
  ffcc20:	01 00 6b 23 	mov.l	@0xffdad8:32,er3
  ffcc24:	00 ff da d8 

00ffcc28 <.LBB58>:
sendmsg():
/home/kozos.c:287
  mp = (kz_msgbuf *)kzmem_alloc(sizeof(*mp));
  ffcc28:	79 00 00 10 	mov.w	#0x10,r0
  ffcc2c:	01 00 6f e3 	mov.l	er3,@(0xffec:16,er6)
  ffcc30:	ff ec 
  ffcc32:	5e ff d2 24 	jsr	@0xffd224:24

00ffcc36 <.LM148>:
/home/kozos.c:288
  if (mp == NULL)
  ffcc36:	01 00 6f 62 	mov.l	@(0xfff0:16,er6),er2
  ffcc3a:	ff f0 
  ffcc3c:	01 00 6f 63 	mov.l	@(0xffec:16,er6),er3
  ffcc40:	ff ec 
  ffcc42:	0f 80       	mov.l	er0,er0
  ffcc44:	46 04       	bne	.+4 (0xffcc4a)

00ffcc46 <.L57>:
/home/kozos.c:289
    kz_sysdown();
  ffcc46:	5e ff ca fc 	jsr	@0xffcafc:24

00ffcc4a <.L53>:
/home/kozos.c:290
  mp->next       = NULL;
  ffcc4a:	1a 91       	sub.l	er1,er1
  ffcc4c:	01 00 69 81 	mov.l	er1,@er0

00ffcc50 <.LM151>:
/home/kozos.c:291
  mp->sender     = thp;
  ffcc50:	01 00 6f 83 	mov.l	er3,@(0x4:16,er0)
  ffcc54:	00 04 

00ffcc56 <.LM152>:
/home/kozos.c:292
  mp->param.size = size;
  ffcc56:	6f 63 ff f6 	mov.w	@(0xfff6:16,er6),r3
  ffcc5a:	6f 83 00 08 	mov.w	r3,@(0x8:16,er0)

00ffcc5e <.LM153>:
/home/kozos.c:293
  mp->param.p    = p;
  ffcc5e:	01 00 6f 82 	mov.l	er2,@(0xc:16,er0)
  ffcc62:	00 0c 

00ffcc64 <.LM154>:
/home/kozos.c:296
  if (mboxp->tail) {
  ffcc64:	7a 03 00 ff 	mov.l	#0xffd928,er3
  ffcc68:	d9 28 
  ffcc6a:	0d 52       	mov.w	r5,r2
  ffcc6c:	17 72       	extu.l	er2
  ffcc6e:	0f a1       	mov.l	er2,er1
  ffcc70:	10 31       	shll.l	er1
  ffcc72:	10 31       	shll.l	er1
  ffcc74:	10 31       	shll.l	er1
  ffcc76:	10 31       	shll.l	er1
  ffcc78:	0a b1       	add.l	er3,er1
  ffcc7a:	01 00 6f 15 	mov.l	@(0x8:16,er1),er5
  ffcc7e:	00 08 
  ffcc80:	47 06       	beq	.+6 (0xffcc88)

00ffcc82 <.LM155>:
/home/kozos.c:297
    mboxp->tail->next = mp;
  ffcc82:	01 00 69 d0 	mov.l	er0,@er5
  ffcc86:	40 06       	bra	.+6 (0xffcc8e)

00ffcc88 <.L54>:
/home/kozos.c:299
    mboxp->head = mp;
  ffcc88:	01 00 6f 90 	mov.l	er0,@(0x4:16,er1)
  ffcc8c:	00 04 

00ffcc8e <.L55>:
/home/kozos.c:301
  mboxp->tail = mp;
  ffcc8e:	10 32       	shll.l	er2
  ffcc90:	10 32       	shll.l	er2
  ffcc92:	10 32       	shll.l	er2
  ffcc94:	10 32       	shll.l	er2
  ffcc96:	0a a3       	add.l	er2,er3
  ffcc98:	01 00 6f b0 	mov.l	er0,@(0x8:16,er3)
  ffcc9c:	00 08 

00ffcc9e <.LM158>:
thread_send():
/home/kozos.c:341
  if (mboxp->receiver) {
  ffcc9e:	01 00 69 33 	mov.l	@er3,er3
  ffcca2:	47 18       	beq	.+24 (0xffccbc)

00ffcca4 <.LM159>:
/home/kozos.c:342
    current = mboxp->receiver; /* 受信待ちスレッド */
  ffcca4:	01 00 6b a3 	mov.l	er3,@0xffdad8:32
  ffcca8:	00 ff da d8 

00ffccac <.LM160>:
/home/kozos.c:343
    recvmsg(mboxp); /* メッセージの受信処理 */
  ffccac:	0f a0       	mov.l	er2,er0
  ffccae:	7a 10 00 ff 	add.l	#0xffd928,er0
  ffccb2:	d9 28 
  ffccb4:	5e ff c7 cc 	jsr	@0xffc7cc:24

00ffccb8 <.LM161>:
/home/kozos.c:344
    putcurrent(); /* 受信により動作可能になったので，ブロック解除する */
  ffccb8:	5e ff c6 e8 	jsr	@0xffc6e8:24

00ffccbc <.L56>:
call_functions():
/home/kozos.c:426
    p->un.send.ret = thread_send(p->un.send.id,
  ffccbc:	6f 62 ff f6 	mov.w	@(0xfff6:16,er6),r2
  ffccc0:	58 00 00 96 	bra	.+150 (0xffcd5a)

00ffccc4 <.L50>:
/home/kozos.c:430
    p->un.recv.ret = thread_recv(p->un.recv.id,
  ffccc4:	69 10       	mov.w	@er1,r0

00ffccc6 <.LBB60>:
thread_recv():
/home/kozos.c:355
  if (mboxp->receiver) /* 他のスレッドがすでに受信待ちしている */
  ffccc6:	17 70       	extu.l	er0
  ffccc8:	10 30       	shll.l	er0
  ffccca:	10 30       	shll.l	er0
  ffcccc:	10 30       	shll.l	er0
  ffccce:	10 30       	shll.l	er0
  ffccd0:	0f 82       	mov.l	er0,er2
  ffccd2:	7a 12 00 ff 	add.l	#0xffd928,er2
  ffccd6:	d9 28 
  ffccd8:	01 00 69 23 	mov.l	@er2,er3
  ffccdc:	58 60 ff 66 	bne	.-154 (0xffcc46)

00ffcce0 <.LM165>:
/home/kozos.c:358
  mboxp->receiver = current; /* 受信待ちスレッドに設定 */
  ffcce0:	01 00 6b 23 	mov.l	@0xffdad8:32,er3
  ffcce4:	00 ff da d8 
  ffcce8:	01 00 69 a3 	mov.l	er3,@er2

00ffccec <.LM166>:
/home/kozos.c:360
  if (mboxp->head == NULL) {
  ffccec:	01 00 6f 22 	mov.l	@(0x4:16,er2),er2
  ffccf0:	00 04 
  ffccf2:	47 24       	beq	.+36 (0xffcd18)

00ffccf4 <.LM167>:
/home/kozos.c:368
  recvmsg(mboxp); /* メッセージの受信処理 */
  ffccf4:	7a 10 00 ff 	add.l	#0xffd928,er0
  ffccf8:	d9 28 
  ffccfa:	5e ff c7 cc 	jsr	@0xffc7cc:24

00ffccfe <.LM168>:
/home/kozos.c:369
  putcurrent(); /* メッセージを受信できたので，レディー状態にする */
  ffccfe:	5e ff c6 e8 	jsr	@0xffc6e8:24

00ffcd02 <.LM169>:
/home/kozos.c:371
  return current->syscall.param->un.recv.ret;
  ffcd02:	01 00 6b 22 	mov.l	@0xffdad8:32,er2
  ffcd06:	00 ff da d8 
  ffcd0a:	01 00 6f 22 	mov.l	@(0x30:16,er2),er2
  ffcd0e:	00 30 
  ffcd10:	01 00 6f 22 	mov.l	@(0xc:16,er2),er2
  ffcd14:	00 0c 
  ffcd16:	40 04       	bra	.+4 (0xffcd1c)

00ffcd18 <.L59>:
/home/kozos.c:365
    return -1;
  ffcd18:	1a a2       	sub.l	er2,er2
  ffcd1a:	1b 02       	subs	#1,er2

00ffcd1c <.L58>:
call_functions():
/home/kozos.c:430
    p->un.recv.ret = thread_recv(p->un.recv.id,
  ffcd1c:	01 00 6f c2 	mov.l	er2,@(0xc:16,er4)
  ffcd20:	00 0c 

00ffcd22 <.LM172>:
/home/kozos.c:432
    break;
  ffcd22:	40 3a       	bra	.+58 (0xffcd5e)

00ffcd24 <.L51>:
/home/kozos.c:434
    p->un.setintr.ret = thread_setintr(p->un.setintr.type,
  ffcd24:	01 00 6f 12 	mov.l	@(0x4:16,er1),er2
  ffcd28:	00 04 
  ffcd2a:	69 15       	mov.w	@er1,r5

00ffcd2c <.LBB62>:
thread_setintr():
/home/kozos.c:383
  softvec_setintr(type, thread_intr);
  ffcd2c:	7a 01 00 ff 	mov.l	#0xffcdac,er1
  ffcd30:	cd ac 
  ffcd32:	0d 50       	mov.w	r5,r0
  ffcd34:	01 00 6f e2 	mov.l	er2,@(0xfff0:16,er6)
  ffcd38:	ff f0 
  ffcd3a:	5e ff c1 26 	jsr	@0xffc126:24

00ffcd3e <.LM175>:
/home/kozos.c:385
  handlers[type] = handler; /* OS側から呼び出す割込みハンドラを登録 */
  ffcd3e:	17 f5       	exts.l	er5
  ffcd40:	10 35       	shll.l	er5
  ffcd42:	10 35       	shll.l	er5
  ffcd44:	01 00 6f 62 	mov.l	@(0xfff0:16,er6),er2
  ffcd48:	ff f0 
  ffcd4a:	01 00 78 d0 	mov.l	er2,@(0xffd948:32,er5)
  ffcd4e:	6b a2 00 ff 
  ffcd52:	d9 48 

00ffcd54 <.LM176>:
/home/kozos.c:386
  putcurrent();
  ffcd54:	5e ff c6 e8 	jsr	@0xffc6e8:24

00ffcd58 <.LM177>:
call_functions():
/home/kozos.c:434
    p->un.setintr.ret = thread_setintr(p->un.setintr.type,
  ffcd58:	19 22       	sub.w	r2,r2

00ffcd5a <.L63>:
  ffcd5a:	6f c2 00 08 	mov.w	r2,@(0x8:16,er4)

00ffcd5e <.L37>:
/home/kozos.c:440
}
  ffcd5e:	7a 17 00 00 	add.l	#0xc,er7
  ffcd62:	00 0c 
  ffcd64:	01 00 6d 75 	mov.l	@er7+,er5
  ffcd68:	01 00 6d 74 	mov.l	@er7+,er4
  ffcd6c:	01 00 6d 76 	mov.l	@er7+,er6
  ffcd70:	54 70       	rts	

00ffcd72 <_syscall_intr>:
syscall_intr():
/home/kozos.c:491
{
  ffcd72:	01 00 6d f6 	mov.l	er6,@-er7
  ffcd76:	0f f6       	mov.l	er7,er6
  ffcd78:	01 00 6d f4 	mov.l	er4,@-er7
  ffcd7c:	01 00 6d f5 	mov.l	er5,@-er7

00ffcd80 <.LM180>:
/home/kozos.c:492
  syscall_proc(current->syscall.type, current->syscall.param);
  ffcd80:	01 00 6b 22 	mov.l	@0xffdad8:32,er2
  ffcd84:	00 ff da d8 
  ffcd88:	01 00 6f 25 	mov.l	@(0x30:16,er2),er5
  ffcd8c:	00 30 
  ffcd8e:	6f 24 00 2c 	mov.w	@(0x2c:16,er2),r4

00ffcd92 <.LBB66>:
syscall_proc():
/home/kozos.c:451
  getcurrent();
  ffcd92:	5e ff c6 8a 	jsr	@0xffc68a:24

00ffcd96 <.LM182>:
/home/kozos.c:452
  call_functions(type, p);
  ffcd96:	0f d1       	mov.l	er5,er1
  ffcd98:	0d 40       	mov.w	r4,r0
  ffcd9a:	5e ff cb 0e 	jsr	@0xffcb0e:24

00ffcd9e <.LM183>:
syscall_intr():
/home/kozos.c:493
}
  ffcd9e:	01 00 6d 75 	mov.l	@er7+,er5
  ffcda2:	01 00 6d 74 	mov.l	@er7+,er4
  ffcda6:	01 00 6d 76 	mov.l	@er7+,er6
  ffcdaa:	54 70       	rts	

00ffcdac <_thread_intr>:
thread_intr():
/home/kozos.c:505
{
  ffcdac:	01 00 6d f6 	mov.l	er6,@-er7
  ffcdb0:	0f f6       	mov.l	er7,er6

00ffcdb2 <.LM185>:
/home/kozos.c:507
  current->context.sp = sp;
  ffcdb2:	01 00 6b 22 	mov.l	@0xffdad8:32,er2
  ffcdb6:	00 ff da d8 
  ffcdba:	01 00 6f a1 	mov.l	er1,@(0x34:16,er2)
  ffcdbe:	00 34 

00ffcdc0 <.LM186>:
/home/kozos.c:517
  if (handlers[type])
  ffcdc0:	17 f0       	exts.l	er0
  ffcdc2:	10 30       	shll.l	er0
  ffcdc4:	10 30       	shll.l	er0
  ffcdc6:	01 00 78 00 	mov.l	@(0xffd948:32,er0),er2
  ffcdca:	6b 22 00 ff 
  ffcdce:	d9 48 
  ffcdd0:	47 02       	beq	.+2 (0xffcdd4)

00ffcdd2 <.LM187>:
/home/kozos.c:518
    handlers[type]();
  ffcdd2:	5d 20       	jsr	@er2

00ffcdd4 <.L67>:
  ffcdd4:	7a 02 00 ff 	mov.l	#0xffdadc,er2
  ffcdd8:	da dc 

00ffcdda <.LM188>:
/home/kozos.c:505
{
  ffcdda:	79 03 00 10 	mov.w	#0x10,r3

00ffcdde <.L69>:
schedule():
/home/kozos.c:481
    if (readyque[i].head) /* 見つかった */
  ffcdde:	01 00 69 20 	mov.l	@er2,er0
  ffcde2:	46 0e       	bne	.+14 (0xffcdf2)
  ffcde4:	1b 03       	subs	#1,er3
  ffcde6:	0b 92       	adds	#4,er2
  ffcde8:	0b 92       	adds	#4,er2

00ffcdea <.LM190>:
/home/kozos.c:480
  for (i = 0; i < PRIORITY_NUM; i++) {
  ffcdea:	0d 33       	mov.w	r3,r3
  ffcdec:	46 f0       	bne	.-16 (0xffcdde)

00ffcdee <.LM191>:
/home/kozos.c:485
    kz_sysdown();
  ffcdee:	5e ff ca fc 	jsr	@0xffcafc:24

00ffcdf2 <.L68>:
/home/kozos.c:487
  current = readyque[i].head; /* カレント・スレッドに設定する */
  ffcdf2:	01 00 6b a0 	mov.l	er0,@0xffdad8:32
  ffcdf6:	00 ff da d8 

00ffcdfa <.LM193>:
thread_intr():
/home/kozos.c:526
  dispatch(&current->context);
  ffcdfa:	7a 10 00 00 	add.l	#0x34,er0
  ffcdfe:	00 34 
  ffce00:	5e ff c0 2c 	jsr	@0xffc02c:24

00ffce04 <.LM194>:
/home/kozos.c:528
}
  ffce04:	01 00 6d 76 	mov.l	@er7+,er6
  ffce08:	54 70       	rts	

00ffce0a <_kz_syscall>:
kz_syscall():
/home/kozos.c:569
    ;
}

/* システム・コール呼び出し用ライブラリ関数 */
void kz_syscall(kz_syscall_type_t type, kz_syscall_param_t *param)
{
  ffce0a:	01 00 6d f6 	mov.l	er6,@-er7
  ffce0e:	0f f6       	mov.l	er7,er6

00ffce10 <.LM196>:
/home/kozos.c:570
  current->syscall.type  = type;
  ffce10:	01 00 6b 22 	mov.l	@0xffdad8:32,er2
  ffce14:	00 ff da d8 
  ffce18:	6f a0 00 2c 	mov.w	r0,@(0x2c:16,er2)

00ffce1c <.LM197>:
/home/kozos.c:571
  current->syscall.param = param;
  ffce1c:	01 00 6f a1 	mov.l	er1,@(0x30:16,er2)
  ffce20:	00 30 

00ffce22 <.LM198>:
/home/kozos.c:572
  asm volatile ("trapa #0"); /* トラップ割込み発行 */
  ffce22:	57 00       	trapa	#0x0

00ffce24 <.LM199>:
/home/kozos.c:573
}
  ffce24:	01 00 6d 76 	mov.l	@er7+,er6
  ffce28:	54 70       	rts	

00ffce2a <_kz_srvcall>:
kz_srvcall():
/home/kozos.c:577

/* サービス・コール呼び出し用ライブラリ関数 */
void kz_srvcall(kz_syscall_type_t type, kz_syscall_param_t *param)
{
  ffce2a:	01 00 6d f6 	mov.l	er6,@-er7
  ffce2e:	0f f6       	mov.l	er7,er6

00ffce30 <.LBB74>:
srvcall_proc():
/home/kozos.c:467
  current = NULL;
  ffce30:	1a a2       	sub.l	er2,er2
  ffce32:	01 00 6b a2 	mov.l	er2,@0xffdad8:32
  ffce36:	00 ff da d8 

00ffce3a <.LM202>:
/home/kozos.c:468
  call_functions(type, p);
  ffce3a:	5e ff cb 0e 	jsr	@0xffcb0e:24

00ffce3e <.LM203>:
kz_srvcall():
/home/kozos.c:579
  srvcall_proc(type, param);
}
  ffce3e:	01 00 6d 76 	mov.l	@er7+,er6
  ffce42:	54 70       	rts	

00ffce44 <_kz_run>:
kz_run():
/home/syscall.c:10

/* システム・コール */

kz_thread_id_t kz_run(kz_func_t func, char *name, int priority, int stacksize,
		      int argc, char *argv[])
{
  ffce44:	01 00 6d f6 	mov.l	er6,@-er7
  ffce48:	0f f6       	mov.l	er7,er6
  ffce4a:	7a 37 00 00 	sub.l	#0x18,er7
  ffce4e:	00 18 

00ffce50 <.LM2>:
/home/syscall.c:12
  kz_syscall_param_t param;
  param.un.run.func = func;
  ffce50:	01 00 6f e0 	mov.l	er0,@(0xffe8:16,er6)
  ffce54:	ff e8 

00ffce56 <.LM3>:
/home/syscall.c:13
  param.un.run.name = name;
  ffce56:	01 00 6f e1 	mov.l	er1,@(0xffec:16,er6)
  ffce5a:	ff ec 

00ffce5c <.LM4>:
/home/syscall.c:14
  param.un.run.priority = priority;
  ffce5c:	6f e2 ff f0 	mov.w	r2,@(0xfff0:16,er6)

00ffce60 <.LM5>:
/home/syscall.c:15
  param.un.run.stacksize = stacksize;
  ffce60:	6f 62 00 0a 	mov.w	@(0xa:16,er6),r2
  ffce64:	6f e2 ff f2 	mov.w	r2,@(0xfff2:16,er6)

00ffce68 <.LM6>:
/home/syscall.c:16
  param.un.run.argc = argc;
  ffce68:	6f 62 00 0e 	mov.w	@(0xe:16,er6),r2
  ffce6c:	6f e2 ff f4 	mov.w	r2,@(0xfff4:16,er6)

00ffce70 <.LM7>:
/home/syscall.c:17
  param.un.run.argv = argv;
  ffce70:	01 00 6f 62 	mov.l	@(0x10:16,er6),er2
  ffce74:	00 10 
  ffce76:	01 00 6f e2 	mov.l	er2,@(0xfff8:16,er6)
  ffce7a:	ff f8 

00ffce7c <.LM8>:
/home/syscall.c:18
  kz_syscall(KZ_SYSCALL_TYPE_RUN, &param);
  ffce7c:	0f e1       	mov.l	er6,er1
  ffce7e:	7a 31 00 00 	sub.l	#0x18,er1
  ffce82:	00 18 
  ffce84:	19 00       	sub.w	r0,r0
  ffce86:	5e ff ce 0a 	jsr	@0xffce0a:24

00ffce8a <.LM9>:
/home/syscall.c:20
  return param.un.run.ret;
}
  ffce8a:	01 00 6f 60 	mov.l	@(0xfffc:16,er6),er0
  ffce8e:	ff fc 
  ffce90:	7a 17 00 00 	add.l	#0x18,er7
  ffce94:	00 18 
  ffce96:	01 00 6d 76 	mov.l	@er7+,er6
  ffce9a:	54 70       	rts	

00ffce9c <_kz_exit>:
kz_exit():
/home/syscall.c:23

void kz_exit(void)
{
  ffce9c:	01 00 6d f6 	mov.l	er6,@-er7
  ffcea0:	0f f6       	mov.l	er7,er6

00ffcea2 <.LM11>:
/home/syscall.c:24
  kz_syscall(KZ_SYSCALL_TYPE_EXIT, NULL);
  ffcea2:	1a 91       	sub.l	er1,er1
  ffcea4:	79 00 00 01 	mov.w	#0x1,r0
  ffcea8:	5e ff ce 0a 	jsr	@0xffce0a:24

00ffceac <.LM12>:
/home/syscall.c:25
}
  ffceac:	01 00 6d 76 	mov.l	@er7+,er6
  ffceb0:	54 70       	rts	

00ffceb2 <_kz_wait>:
kz_wait():
/home/syscall.c:28

int kz_wait(void)
{
  ffceb2:	01 00 6d f6 	mov.l	er6,@-er7
  ffceb6:	0f f6       	mov.l	er7,er6
  ffceb8:	7a 37 00 00 	sub.l	#0x18,er7
  ffcebc:	00 18 

00ffcebe <.LM14>:
/home/syscall.c:30
  kz_syscall_param_t param;
  kz_syscall(KZ_SYSCALL_TYPE_WAIT, &param);
  ffcebe:	0f e1       	mov.l	er6,er1
  ffcec0:	7a 31 00 00 	sub.l	#0x18,er1
  ffcec4:	00 18 
  ffcec6:	79 00 00 02 	mov.w	#0x2,r0
  ffceca:	5e ff ce 0a 	jsr	@0xffce0a:24

00ffcece <.LM15>:
/home/syscall.c:32
  return param.un.wait.ret;
}
  ffcece:	6f 60 ff e8 	mov.w	@(0xffe8:16,er6),r0
  ffced2:	7a 17 00 00 	add.l	#0x18,er7
  ffced6:	00 18 
  ffced8:	01 00 6d 76 	mov.l	@er7+,er6
  ffcedc:	54 70       	rts	

00ffcede <_kz_sleep>:
kz_sleep():
/home/syscall.c:35

int kz_sleep(void)
{
  ffcede:	01 00 6d f6 	mov.l	er6,@-er7
  ffcee2:	0f f6       	mov.l	er7,er6
  ffcee4:	7a 37 00 00 	sub.l	#0x18,er7
  ffcee8:	00 18 

00ffceea <.LM17>:
/home/syscall.c:37
  kz_syscall_param_t param;
  kz_syscall(KZ_SYSCALL_TYPE_SLEEP, &param);
  ffceea:	0f e1       	mov.l	er6,er1
  ffceec:	7a 31 00 00 	sub.l	#0x18,er1
  ffcef0:	00 18 
  ffcef2:	79 00 00 03 	mov.w	#0x3,r0
  ffcef6:	5e ff ce 0a 	jsr	@0xffce0a:24

00ffcefa <.LM18>:
/home/syscall.c:39
  return param.un.sleep.ret;
}
  ffcefa:	6f 60 ff e8 	mov.w	@(0xffe8:16,er6),r0
  ffcefe:	7a 17 00 00 	add.l	#0x18,er7
  ffcf02:	00 18 
  ffcf04:	01 00 6d 76 	mov.l	@er7+,er6
  ffcf08:	54 70       	rts	

00ffcf0a <_kz_wakeup>:
kz_wakeup():
/home/syscall.c:42

int kz_wakeup(kz_thread_id_t id)
{
  ffcf0a:	01 00 6d f6 	mov.l	er6,@-er7
  ffcf0e:	0f f6       	mov.l	er7,er6
  ffcf10:	7a 37 00 00 	sub.l	#0x18,er7
  ffcf14:	00 18 

00ffcf16 <.LM20>:
/home/syscall.c:44
  kz_syscall_param_t param;
  param.un.wakeup.id = id;
  ffcf16:	01 00 6f e0 	mov.l	er0,@(0xffe8:16,er6)
  ffcf1a:	ff e8 

00ffcf1c <.LM21>:
/home/syscall.c:45
  kz_syscall(KZ_SYSCALL_TYPE_WAKEUP, &param);
  ffcf1c:	0f e1       	mov.l	er6,er1
  ffcf1e:	7a 31 00 00 	sub.l	#0x18,er1
  ffcf22:	00 18 
  ffcf24:	79 00 00 04 	mov.w	#0x4,r0
  ffcf28:	5e ff ce 0a 	jsr	@0xffce0a:24

00ffcf2c <.LM22>:
/home/syscall.c:47
  return param.un.wakeup.ret;
}
  ffcf2c:	6f 60 ff ec 	mov.w	@(0xffec:16,er6),r0
  ffcf30:	7a 17 00 00 	add.l	#0x18,er7
  ffcf34:	00 18 
  ffcf36:	01 00 6d 76 	mov.l	@er7+,er6
  ffcf3a:	54 70       	rts	

00ffcf3c <_kz_getid>:
kz_getid():
/home/syscall.c:50

kz_thread_id_t kz_getid(void)
{
  ffcf3c:	01 00 6d f6 	mov.l	er6,@-er7
  ffcf40:	0f f6       	mov.l	er7,er6
  ffcf42:	7a 37 00 00 	sub.l	#0x18,er7
  ffcf46:	00 18 

00ffcf48 <.LM24>:
/home/syscall.c:52
  kz_syscall_param_t param;
  kz_syscall(KZ_SYSCALL_TYPE_GETID, &param);
  ffcf48:	0f e1       	mov.l	er6,er1
  ffcf4a:	7a 31 00 00 	sub.l	#0x18,er1
  ffcf4e:	00 18 
  ffcf50:	79 00 00 05 	mov.w	#0x5,r0
  ffcf54:	5e ff ce 0a 	jsr	@0xffce0a:24

00ffcf58 <.LM25>:
/home/syscall.c:54
  return param.un.getid.ret;
}
  ffcf58:	01 00 6f 60 	mov.l	@(0xffe8:16,er6),er0
  ffcf5c:	ff e8 
  ffcf5e:	7a 17 00 00 	add.l	#0x18,er7
  ffcf62:	00 18 
  ffcf64:	01 00 6d 76 	mov.l	@er7+,er6
  ffcf68:	54 70       	rts	

00ffcf6a <_kz_chpri>:
kz_chpri():
/home/syscall.c:57

int kz_chpri(int priority)
{
  ffcf6a:	01 00 6d f6 	mov.l	er6,@-er7
  ffcf6e:	0f f6       	mov.l	er7,er6
  ffcf70:	7a 37 00 00 	sub.l	#0x18,er7
  ffcf74:	00 18 

00ffcf76 <.LM27>:
/home/syscall.c:59
  kz_syscall_param_t param;
  param.un.chpri.priority = priority;
  ffcf76:	6f e0 ff e8 	mov.w	r0,@(0xffe8:16,er6)

00ffcf7a <.LM28>:
/home/syscall.c:60
  kz_syscall(KZ_SYSCALL_TYPE_CHPRI, &param);
  ffcf7a:	0f e1       	mov.l	er6,er1
  ffcf7c:	7a 31 00 00 	sub.l	#0x18,er1
  ffcf80:	00 18 
  ffcf82:	79 00 00 06 	mov.w	#0x6,r0
  ffcf86:	5e ff ce 0a 	jsr	@0xffce0a:24

00ffcf8a <.LM29>:
/home/syscall.c:62
  return param.un.chpri.ret;
}
  ffcf8a:	6f 60 ff ea 	mov.w	@(0xffea:16,er6),r0
  ffcf8e:	7a 17 00 00 	add.l	#0x18,er7
  ffcf92:	00 18 
  ffcf94:	01 00 6d 76 	mov.l	@er7+,er6
  ffcf98:	54 70       	rts	

00ffcf9a <_kz_kmalloc>:
kz_kmalloc():
/home/syscall.c:65

void *kz_kmalloc(int size)
{
  ffcf9a:	01 00 6d f6 	mov.l	er6,@-er7
  ffcf9e:	0f f6       	mov.l	er7,er6
  ffcfa0:	7a 37 00 00 	sub.l	#0x18,er7
  ffcfa4:	00 18 

00ffcfa6 <.LM31>:
/home/syscall.c:67
  kz_syscall_param_t param;
  param.un.kmalloc.size = size;
  ffcfa6:	6f e0 ff e8 	mov.w	r0,@(0xffe8:16,er6)

00ffcfaa <.LM32>:
/home/syscall.c:68
  kz_syscall(KZ_SYSCALL_TYPE_KMALLOC, &param);
  ffcfaa:	0f e1       	mov.l	er6,er1
  ffcfac:	7a 31 00 00 	sub.l	#0x18,er1
  ffcfb0:	00 18 
  ffcfb2:	79 00 00 07 	mov.w	#0x7,r0
  ffcfb6:	5e ff ce 0a 	jsr	@0xffce0a:24

00ffcfba <.LM33>:
/home/syscall.c:70
  return param.un.kmalloc.ret;
}
  ffcfba:	01 00 6f 60 	mov.l	@(0xffec:16,er6),er0
  ffcfbe:	ff ec 
  ffcfc0:	7a 17 00 00 	add.l	#0x18,er7
  ffcfc4:	00 18 
  ffcfc6:	01 00 6d 76 	mov.l	@er7+,er6
  ffcfca:	54 70       	rts	

00ffcfcc <_kz_kmfree>:
kz_kmfree():
/home/syscall.c:73

int kz_kmfree(void *p)
{
  ffcfcc:	01 00 6d f6 	mov.l	er6,@-er7
  ffcfd0:	0f f6       	mov.l	er7,er6
  ffcfd2:	7a 37 00 00 	sub.l	#0x18,er7
  ffcfd6:	00 18 

00ffcfd8 <.LM35>:
/home/syscall.c:75
  kz_syscall_param_t param;
  param.un.kmfree.p = p;
  ffcfd8:	01 00 6f e0 	mov.l	er0,@(0xffe8:16,er6)
  ffcfdc:	ff e8 

00ffcfde <.LM36>:
/home/syscall.c:76
  kz_syscall(KZ_SYSCALL_TYPE_KMFREE, &param);
  ffcfde:	0f e1       	mov.l	er6,er1
  ffcfe0:	7a 31 00 00 	sub.l	#0x18,er1
  ffcfe4:	00 18 
  ffcfe6:	79 00 00 08 	mov.w	#0x8,r0
  ffcfea:	5e ff ce 0a 	jsr	@0xffce0a:24

00ffcfee <.LM37>:
/home/syscall.c:78
  return param.un.kmfree.ret;
}
  ffcfee:	6f 60 ff ec 	mov.w	@(0xffec:16,er6),r0
  ffcff2:	7a 17 00 00 	add.l	#0x18,er7
  ffcff6:	00 18 
  ffcff8:	01 00 6d 76 	mov.l	@er7+,er6
  ffcffc:	54 70       	rts	

00ffcffe <_kz_send>:
kz_send():
/home/syscall.c:81

int kz_send(kz_msgbox_id_t id, int size, char *p)
{
  ffcffe:	01 00 6d f6 	mov.l	er6,@-er7
  ffd002:	0f f6       	mov.l	er7,er6
  ffd004:	7a 37 00 00 	sub.l	#0x18,er7
  ffd008:	00 18 

00ffd00a <.LM39>:
/home/syscall.c:83
  kz_syscall_param_t param;
  param.un.send.id = id;
  ffd00a:	6f e0 ff e8 	mov.w	r0,@(0xffe8:16,er6)

00ffd00e <.LM40>:
/home/syscall.c:84
  param.un.send.size = size;
  ffd00e:	6f e1 ff ea 	mov.w	r1,@(0xffea:16,er6)

00ffd012 <.LM41>:
/home/syscall.c:85
  param.un.send.p = p;
  ffd012:	01 00 6f e2 	mov.l	er2,@(0xffec:16,er6)
  ffd016:	ff ec 

00ffd018 <.LM42>:
/home/syscall.c:86
  kz_syscall(KZ_SYSCALL_TYPE_SEND, &param);
  ffd018:	0f e1       	mov.l	er6,er1
  ffd01a:	7a 31 00 00 	sub.l	#0x18,er1
  ffd01e:	00 18 
  ffd020:	79 00 00 09 	mov.w	#0x9,r0
  ffd024:	5e ff ce 0a 	jsr	@0xffce0a:24

00ffd028 <.LM43>:
/home/syscall.c:88
  return param.un.send.ret;
}
  ffd028:	6f 60 ff f0 	mov.w	@(0xfff0:16,er6),r0
  ffd02c:	7a 17 00 00 	add.l	#0x18,er7
  ffd030:	00 18 
  ffd032:	01 00 6d 76 	mov.l	@er7+,er6
  ffd036:	54 70       	rts	

00ffd038 <_kz_recv>:
kz_recv():
/home/syscall.c:91

kz_thread_id_t kz_recv(kz_msgbox_id_t id, int *sizep, char **pp)
{
  ffd038:	01 00 6d f6 	mov.l	er6,@-er7
  ffd03c:	0f f6       	mov.l	er7,er6
  ffd03e:	7a 37 00 00 	sub.l	#0x18,er7
  ffd042:	00 18 

00ffd044 <.LM45>:
/home/syscall.c:93
  kz_syscall_param_t param;
  param.un.recv.id = id;
  ffd044:	6f e0 ff e8 	mov.w	r0,@(0xffe8:16,er6)

00ffd048 <.LM46>:
/home/syscall.c:94
  param.un.recv.sizep = sizep;
  ffd048:	01 00 6f e1 	mov.l	er1,@(0xffec:16,er6)
  ffd04c:	ff ec 

00ffd04e <.LM47>:
/home/syscall.c:95
  param.un.recv.pp = pp;
  ffd04e:	01 00 6f e2 	mov.l	er2,@(0xfff0:16,er6)
  ffd052:	ff f0 

00ffd054 <.LM48>:
/home/syscall.c:96
  kz_syscall(KZ_SYSCALL_TYPE_RECV, &param);
  ffd054:	0f e1       	mov.l	er6,er1
  ffd056:	7a 31 00 00 	sub.l	#0x18,er1
  ffd05a:	00 18 
  ffd05c:	79 00 00 0a 	mov.w	#0xa,r0
  ffd060:	5e ff ce 0a 	jsr	@0xffce0a:24

00ffd064 <.LM49>:
/home/syscall.c:98
  return param.un.recv.ret;
}
  ffd064:	01 00 6f 60 	mov.l	@(0xfff4:16,er6),er0
  ffd068:	ff f4 
  ffd06a:	7a 17 00 00 	add.l	#0x18,er7
  ffd06e:	00 18 
  ffd070:	01 00 6d 76 	mov.l	@er7+,er6
  ffd074:	54 70       	rts	

00ffd076 <_kz_setintr>:
kz_setintr():
/home/syscall.c:101

int kz_setintr(softvec_type_t type, kz_handler_t handler)
{
  ffd076:	01 00 6d f6 	mov.l	er6,@-er7
  ffd07a:	0f f6       	mov.l	er7,er6
  ffd07c:	7a 37 00 00 	sub.l	#0x18,er7
  ffd080:	00 18 

00ffd082 <.LM51>:
/home/syscall.c:103
  kz_syscall_param_t param;
  param.un.setintr.type = type;
  ffd082:	6f e0 ff e8 	mov.w	r0,@(0xffe8:16,er6)

00ffd086 <.LM52>:
/home/syscall.c:104
  param.un.setintr.handler = handler;
  ffd086:	01 00 6f e1 	mov.l	er1,@(0xffec:16,er6)
  ffd08a:	ff ec 

00ffd08c <.LM53>:
/home/syscall.c:105
  kz_syscall(KZ_SYSCALL_TYPE_SETINTR, &param);
  ffd08c:	0f e1       	mov.l	er6,er1
  ffd08e:	7a 31 00 00 	sub.l	#0x18,er1
  ffd092:	00 18 
  ffd094:	79 00 00 0b 	mov.w	#0xb,r0
  ffd098:	5e ff ce 0a 	jsr	@0xffce0a:24

00ffd09c <.LM54>:
/home/syscall.c:107
  return param.un.setintr.ret;
}
  ffd09c:	6f 60 ff f0 	mov.w	@(0xfff0:16,er6),r0
  ffd0a0:	7a 17 00 00 	add.l	#0x18,er7
  ffd0a4:	00 18 
  ffd0a6:	01 00 6d 76 	mov.l	@er7+,er6
  ffd0aa:	54 70       	rts	

00ffd0ac <_kx_wakeup>:
kx_wakeup():
/home/syscall.c:112

/* サービス・コール */

int kx_wakeup(kz_thread_id_t id)
{
  ffd0ac:	01 00 6d f6 	mov.l	er6,@-er7
  ffd0b0:	0f f6       	mov.l	er7,er6
  ffd0b2:	7a 37 00 00 	sub.l	#0x18,er7
  ffd0b6:	00 18 

00ffd0b8 <.LM56>:
/home/syscall.c:114
  kz_syscall_param_t param;
  param.un.wakeup.id = id;
  ffd0b8:	01 00 6f e0 	mov.l	er0,@(0xffe8:16,er6)
  ffd0bc:	ff e8 

00ffd0be <.LM57>:
/home/syscall.c:115
  kz_srvcall(KZ_SYSCALL_TYPE_WAKEUP, &param);
  ffd0be:	0f e1       	mov.l	er6,er1
  ffd0c0:	7a 31 00 00 	sub.l	#0x18,er1
  ffd0c4:	00 18 
  ffd0c6:	79 00 00 04 	mov.w	#0x4,r0
  ffd0ca:	5e ff ce 2a 	jsr	@0xffce2a:24

00ffd0ce <.LM58>:
/home/syscall.c:117
  return param.un.wakeup.ret;
}
  ffd0ce:	6f 60 ff ec 	mov.w	@(0xffec:16,er6),r0
  ffd0d2:	7a 17 00 00 	add.l	#0x18,er7
  ffd0d6:	00 18 
  ffd0d8:	01 00 6d 76 	mov.l	@er7+,er6
  ffd0dc:	54 70       	rts	

00ffd0de <_kx_kmalloc>:
kx_kmalloc():
/home/syscall.c:120

void *kx_kmalloc(int size)
{
  ffd0de:	01 00 6d f6 	mov.l	er6,@-er7
  ffd0e2:	0f f6       	mov.l	er7,er6
  ffd0e4:	7a 37 00 00 	sub.l	#0x18,er7
  ffd0e8:	00 18 

00ffd0ea <.LM60>:
/home/syscall.c:122
  kz_syscall_param_t param;
  param.un.kmalloc.size = size;
  ffd0ea:	6f e0 ff e8 	mov.w	r0,@(0xffe8:16,er6)

00ffd0ee <.LM61>:
/home/syscall.c:123
  kz_srvcall(KZ_SYSCALL_TYPE_KMALLOC, &param);
  ffd0ee:	0f e1       	mov.l	er6,er1
  ffd0f0:	7a 31 00 00 	sub.l	#0x18,er1
  ffd0f4:	00 18 
  ffd0f6:	79 00 00 07 	mov.w	#0x7,r0
  ffd0fa:	5e ff ce 2a 	jsr	@0xffce2a:24

00ffd0fe <.LM62>:
/home/syscall.c:125
  return param.un.kmalloc.ret;
}
  ffd0fe:	01 00 6f 60 	mov.l	@(0xffec:16,er6),er0
  ffd102:	ff ec 
  ffd104:	7a 17 00 00 	add.l	#0x18,er7
  ffd108:	00 18 
  ffd10a:	01 00 6d 76 	mov.l	@er7+,er6
  ffd10e:	54 70       	rts	

00ffd110 <_kx_kmfree>:
kx_kmfree():
/home/syscall.c:128

int kx_kmfree(void *p)
{
  ffd110:	01 00 6d f6 	mov.l	er6,@-er7
  ffd114:	0f f6       	mov.l	er7,er6
  ffd116:	7a 37 00 00 	sub.l	#0x18,er7
  ffd11a:	00 18 

00ffd11c <.LM64>:
/home/syscall.c:130
  kz_syscall_param_t param;
  param.un.kmfree.p = p;
  ffd11c:	01 00 6f e0 	mov.l	er0,@(0xffe8:16,er6)
  ffd120:	ff e8 

00ffd122 <.LM65>:
/home/syscall.c:131
  kz_srvcall(KZ_SYSCALL_TYPE_KMFREE, &param);
  ffd122:	0f e1       	mov.l	er6,er1
  ffd124:	7a 31 00 00 	sub.l	#0x18,er1
  ffd128:	00 18 
  ffd12a:	79 00 00 08 	mov.w	#0x8,r0
  ffd12e:	5e ff ce 2a 	jsr	@0xffce2a:24

00ffd132 <.LM66>:
/home/syscall.c:133
  return param.un.kmfree.ret;
}
  ffd132:	6f 60 ff ec 	mov.w	@(0xffec:16,er6),r0
  ffd136:	7a 17 00 00 	add.l	#0x18,er7
  ffd13a:	00 18 
  ffd13c:	01 00 6d 76 	mov.l	@er7+,er6
  ffd140:	54 70       	rts	

00ffd142 <_kx_send>:
kx_send():
/home/syscall.c:136

int kx_send(kz_msgbox_id_t id, int size, char *p)
{
  ffd142:	01 00 6d f6 	mov.l	er6,@-er7
  ffd146:	0f f6       	mov.l	er7,er6
  ffd148:	7a 37 00 00 	sub.l	#0x18,er7
  ffd14c:	00 18 

00ffd14e <.LM68>:
/home/syscall.c:138
  kz_syscall_param_t param;
  param.un.send.id = id;
  ffd14e:	6f e0 ff e8 	mov.w	r0,@(0xffe8:16,er6)

00ffd152 <.LM69>:
/home/syscall.c:139
  param.un.send.size = size;
  ffd152:	6f e1 ff ea 	mov.w	r1,@(0xffea:16,er6)

00ffd156 <.LM70>:
/home/syscall.c:140
  param.un.send.p = p;
  ffd156:	01 00 6f e2 	mov.l	er2,@(0xffec:16,er6)
  ffd15a:	ff ec 

00ffd15c <.LM71>:
/home/syscall.c:141
  kz_srvcall(KZ_SYSCALL_TYPE_SEND, &param);
  ffd15c:	0f e1       	mov.l	er6,er1
  ffd15e:	7a 31 00 00 	sub.l	#0x18,er1
  ffd162:	00 18 
  ffd164:	79 00 00 09 	mov.w	#0x9,r0
  ffd168:	5e ff ce 2a 	jsr	@0xffce2a:24

00ffd16c <.LM72>:
/home/syscall.c:143
  return param.un.send.ret;
}
  ffd16c:	6f 60 ff f0 	mov.w	@(0xfff0:16,er6),r0
  ffd170:	7a 17 00 00 	add.l	#0x18,er7
  ffd174:	00 18 
  ffd176:	01 00 6d 76 	mov.l	@er7+,er6
  ffd17a:	54 70       	rts	

00ffd17c <_kzmem_init>:
kzmem_init():
/home/memory.c:56
  return 0;
}

/* 動的メモリの初期化 */
int kzmem_init(void)
{
  ffd17c:	01 00 6d f6 	mov.l	er6,@-er7
  ffd180:	0f f6       	mov.l	er7,er6
  ffd182:	01 00 6d f4 	mov.l	er4,@-er7
  ffd186:	01 00 6d f5 	mov.l	er5,@-er7
  ffd18a:	7a 37 00 00 	sub.l	#0x8,er7
  ffd18e:	00 08 
  ffd190:	7a 04 00 ff 	mov.l	#0xffd910,er4
  ffd194:	d9 10 
  ffd196:	7a 03 00 ff 	mov.l	#0xffd912,er3
  ffd19a:	d9 12 

00ffd19c <.LM2>:
/home/memory.c:58
  int i;
  for (i = 0; i < MEMORY_AREA_NUM; i++) {
  ffd19c:	40 6a       	bra	.+106 (0xffd208)

00ffd19e <.L5>:
kzmem_init_pool():
/home/memory.c:38 (discriminator 3)
  mp = (kzmem_block *)area;
  ffd19e:	01 00 6b 25 	mov.l	@0xffd90c:32,er5
  ffd1a2:	00 ff d9 0c 
  ffd1a6:	0f c0       	mov.l	er4,er0
  ffd1a8:	0b 90       	adds	#4,er0

00ffd1aa <.LM4>:
/home/memory.c:42
  for (i = 0; i < p->num; i++) {
  ffd1aa:	19 11       	sub.w	r1,r1
  ffd1ac:	6f e1 ff f6 	mov.w	r1,@(0xfff6:16,er6)
  ffd1b0:	40 44       	bra	.+68 (0xffd1f6)

00ffd1b2 <.L4>:
/home/memory.c:43
    *mpp = mp;
  ffd1b2:	01 00 69 85 	mov.l	er5,@er0

00ffd1b6 <.LM6>:
/home/memory.c:44
    memset(mp, 0, sizeof(*mp));
  ffd1b6:	1a a2       	sub.l	er2,er2
  ffd1b8:	8a 08       	add.b	#0x8,r2l
  ffd1ba:	19 11       	sub.w	r1,r1
  ffd1bc:	0f d0       	mov.l	er5,er0
  ffd1be:	01 00 6f e3 	mov.l	er3,@(0xfff0:16,er6)
  ffd1c2:	ff f0 
  ffd1c4:	5e ff c1 66 	jsr	@0xffc166:24

00ffd1c8 <.LM7>:
/home/memory.c:45
    mp->size = p->size;
  ffd1c8:	69 42       	mov.w	@er4,r2
  ffd1ca:	6f d2 00 04 	mov.w	r2,@(0x4:16,er5)

00ffd1ce <.LM8>:
/home/memory.c:46
    mpp = &(mp->next);
  ffd1ce:	0f d0       	mov.l	er5,er0

00ffd1d0 <.LM9>:
/home/memory.c:47
    mp = (kzmem_block *)((char *)mp + p->size);
  ffd1d0:	17 f2       	exts.l	er2
  ffd1d2:	0a a5       	add.l	er2,er5

00ffd1d4 <.LM10>:
/home/memory.c:48
    area += p->size;
  ffd1d4:	01 00 6b 21 	mov.l	@0xffd90c:32,er1
  ffd1d8:	00 ff d9 0c 
  ffd1dc:	0a 92       	add.l	er1,er2
  ffd1de:	01 00 6b a2 	mov.l	er2,@0xffd90c:32
  ffd1e2:	00 ff d9 0c 

00ffd1e6 <.LM11>:
/home/memory.c:42
  for (i = 0; i < p->num; i++) {
  ffd1e6:	6f 62 ff f6 	mov.w	@(0xfff6:16,er6),r2
  ffd1ea:	0b 02       	adds	#1,er2
  ffd1ec:	6f e2 ff f6 	mov.w	r2,@(0xfff6:16,er6)
  ffd1f0:	01 00 6f 63 	mov.l	@(0xfff0:16,er6),er3
  ffd1f4:	ff f0 

00ffd1f6 <.L3>:
  ffd1f6:	69 32       	mov.w	@er3,r2
  ffd1f8:	6f 61 ff f6 	mov.w	@(0xfff6:16,er6),r1
  ffd1fc:	1d 21       	cmp.w	r2,r1
  ffd1fe:	4d b2       	blt	.-78 (0xffd1b2)
  ffd200:	0b 94       	adds	#4,er4
  ffd202:	0b 94       	adds	#4,er4
  ffd204:	0b 93       	adds	#4,er3
  ffd206:	0b 93       	adds	#4,er3

00ffd208 <.L2>:
kzmem_init():
/home/memory.c:58 (discriminator 1)
  for (i = 0; i < MEMORY_AREA_NUM; i++) {
  ffd208:	7a 24 00 ff 	cmp.l	#0xffd928,er4
  ffd20c:	d9 28 
  ffd20e:	46 8e       	bne	.-114 (0xffd19e)

00ffd210 <.LM13>:
/home/memory.c:62
    kzmem_init_pool(&pool[i]); /* 各メモリ・プールを初期化する */
  }
  return 0;
}
  ffd210:	19 00       	sub.w	r0,r0
  ffd212:	0b 97       	adds	#4,er7
  ffd214:	0b 97       	adds	#4,er7
  ffd216:	01 00 6d 75 	mov.l	@er7+,er5
  ffd21a:	01 00 6d 74 	mov.l	@er7+,er4
  ffd21e:	01 00 6d 76 	mov.l	@er7+,er6
  ffd222:	54 70       	rts	

00ffd224 <_kzmem_alloc>:
kzmem_alloc():
/home/memory.c:66

/* 動的メモリの獲得 */
void *kzmem_alloc(int size)
{
  ffd224:	01 00 6d f6 	mov.l	er6,@-er7
  ffd228:	0f f6       	mov.l	er7,er6

00ffd22a <.LM15>:
/home/memory.c:73
  kzmem_block *mp;
  kzmem_pool *p;

  for (i = 0; i < MEMORY_AREA_NUM; i++) {
    p = &pool[i];
    if (size <= p->size - sizeof(kzmem_block)) {
  ffd22a:	17 f0       	exts.l	er0
  ffd22c:	7a 02 00 ff 	mov.l	#0xffd910,er2
  ffd230:	d9 10 
  ffd232:	69 21       	mov.w	@er2,r1
  ffd234:	17 f1       	exts.l	er1
  ffd236:	1b 91       	subs	#4,er1
  ffd238:	1b 91       	subs	#4,er1
  ffd23a:	0f a3       	mov.l	er2,er3
  ffd23c:	1f 90       	cmp.l	er1,er0
  ffd23e:	43 26       	bls	.+38 (0xffd266)
  ffd240:	6b 22 00 ff 	mov.w	@0xffd918:32,r2
  ffd244:	d9 18 
  ffd246:	17 f2       	exts.l	er2
  ffd248:	1b 92       	subs	#4,er2
  ffd24a:	1b 92       	subs	#4,er2
  ffd24c:	1f a0       	cmp.l	er2,er0
  ffd24e:	43 1a       	bls	.+26 (0xffd26a)
  ffd250:	6b 22 00 ff 	mov.w	@0xffd920:32,r2
  ffd254:	d9 20 
  ffd256:	17 f2       	exts.l	er2
  ffd258:	1b 92       	subs	#4,er2
  ffd25a:	1b 92       	subs	#4,er2
  ffd25c:	1f a0       	cmp.l	er2,er0
  ffd25e:	42 20       	bhi	.+32 (0xffd280)

00ffd260 <.LM16>:
/home/memory.c:71
  for (i = 0; i < MEMORY_AREA_NUM; i++) {
  ffd260:	79 02 00 02 	mov.w	#0x2,r2
  ffd264:	40 08       	bra	.+8 (0xffd26e)

00ffd266 <.L11>:
  ffd266:	19 22       	sub.w	r2,r2
  ffd268:	40 04       	bra	.+4 (0xffd26e)

00ffd26a <.L12>:
  ffd26a:	79 02 00 01 	mov.w	#0x1,r2

00ffd26e <.L7>:
/home/memory.c:74
      if (p->free == NULL) { /* 解放済み領域が無い(メモリ・ブロック不足) */
  ffd26e:	17 f2       	exts.l	er2
  ffd270:	10 32       	shll.l	er2
  ffd272:	10 32       	shll.l	er2
  ffd274:	10 32       	shll.l	er2
  ffd276:	0a b2       	add.l	er3,er2
  ffd278:	0b 92       	adds	#4,er2
  ffd27a:	01 00 69 20 	mov.l	@er2,er0
  ffd27e:	46 08       	bne	.+8 (0xffd288)

00ffd280 <.L8>:
/home/memory.c:75
	kz_sysdown();
  ffd280:	5e ff ca fc 	jsr	@0xffcafc:24

00ffd284 <.LM19>:
/home/memory.c:76
	return NULL;
  ffd284:	1a 80       	sub.l	er0,er0
  ffd286:	40 12       	bra	.+18 (0xffd29a)

00ffd288 <.L9>:
/home/memory.c:80
      }
      /* 解放済みリンクリストから領域を取得する */
      mp = p->free;
      p->free = p->free->next;
  ffd288:	01 00 69 03 	mov.l	@er0,er3
  ffd28c:	01 00 69 a3 	mov.l	er3,@er2

00ffd290 <.LM21>:
/home/memory.c:81
      mp->next = NULL;
  ffd290:	1a a2       	sub.l	er2,er2
  ffd292:	01 00 69 82 	mov.l	er2,@er0

00ffd296 <.LM22>:
/home/memory.c:87

      /*
       * 実際に利用可能な領域は，メモリ・ブロック構造体の直後の領域に
       * なるので，直後のアドレスを返す．
       */
      return mp + 1;
  ffd296:	0b 90       	adds	#4,er0
  ffd298:	0b 90       	adds	#4,er0

00ffd29a <.L6>:
/home/memory.c:94
  }

  /* 指定されたサイズの領域を格納できるメモリ・プールが無い */
  kz_sysdown();
  return NULL;
}
  ffd29a:	01 00 6d 76 	mov.l	@er7+,er6
  ffd29e:	54 70       	rts	

00ffd2a0 <_kzmem_free>:
kzmem_free():
/home/memory.c:98

/* メモリの解放 */
void kzmem_free(void *mem)
{
  ffd2a0:	01 00 6d f6 	mov.l	er6,@-er7
  ffd2a4:	0f f6       	mov.l	er7,er6
  ffd2a6:	01 00 6d f4 	mov.l	er4,@-er7

00ffd2aa <.LM25>:
/home/memory.c:108
  /* 領域の直前にある(はずの)メモリ・ブロック構造体を取得 */
  mp = ((kzmem_block *)mem - 1);

  for (i = 0; i < MEMORY_AREA_NUM; i++) {
    p = &pool[i];
    if (mp->size == p->size) {
  ffd2aa:	6f 03 ff fc 	mov.w	@(0xfffc:16,er0),r3
  ffd2ae:	7a 02 00 ff 	mov.l	#0xffd910,er2
  ffd2b2:	d9 10 
  ffd2b4:	69 24       	mov.w	@er2,r4
  ffd2b6:	0f a1       	mov.l	er2,er1
  ffd2b8:	1d 43       	cmp.w	r4,r3
  ffd2ba:	47 1a       	beq	.+26 (0xffd2d6)
  ffd2bc:	6b 22 00 ff 	mov.w	@0xffd918:32,r2
  ffd2c0:	d9 18 
  ffd2c2:	1d 23       	cmp.w	r2,r3
  ffd2c4:	47 14       	beq	.+20 (0xffd2da)
  ffd2c6:	6b 22 00 ff 	mov.w	@0xffd920:32,r2
  ffd2ca:	d9 20 
  ffd2cc:	1d 23       	cmp.w	r2,r3
  ffd2ce:	47 10       	beq	.+16 (0xffd2e0)

00ffd2d0 <.LM26>:
/home/memory.c:116
      p->free = mp;
      return;
    }
  }

  kz_sysdown();
  ffd2d0:	5e ff ca fc 	jsr	@0xffcafc:24

00ffd2d4 <.LVL30>:
  ffd2d4:	40 2c       	bra	.+44 (0xffd302)

00ffd2d6 <.L16>:
/home/memory.c:106
  for (i = 0; i < MEMORY_AREA_NUM; i++) {
  ffd2d6:	19 22       	sub.w	r2,r2
  ffd2d8:	40 0a       	bra	.+10 (0xffd2e4)

00ffd2da <.L17>:
  ffd2da:	79 02 00 01 	mov.w	#0x1,r2
  ffd2de:	40 04       	bra	.+4 (0xffd2e4)

00ffd2e0 <.L18>:
  ffd2e0:	79 02 00 02 	mov.w	#0x2,r2

00ffd2e4 <.L14>:
/home/memory.c:110
      mp->next = p->free;
  ffd2e4:	17 f2       	exts.l	er2
  ffd2e6:	10 32       	shll.l	er2
  ffd2e8:	10 32       	shll.l	er2
  ffd2ea:	10 32       	shll.l	er2
  ffd2ec:	0a 92       	add.l	er1,er2
  ffd2ee:	0b 92       	adds	#4,er2
  ffd2f0:	01 00 69 23 	mov.l	@er2,er3
  ffd2f4:	01 00 6f 83 	mov.l	er3,@(0xfff8:16,er0)
  ffd2f8:	ff f8 

00ffd2fa <.LM29>:
/home/memory.c:104
  mp = ((kzmem_block *)mem - 1);
  ffd2fa:	1b 90       	subs	#4,er0
  ffd2fc:	1b 90       	subs	#4,er0

00ffd2fe <.LM30>:
/home/memory.c:111
      p->free = mp;
  ffd2fe:	01 00 69 a0 	mov.l	er0,@er2

00ffd302 <.L13>:
/home/memory.c:117
}
  ffd302:	01 00 6d 74 	mov.l	@er7+,er4
  ffd306:	01 00 6d 76 	mov.l	@er7+,er6
  ffd30a:	54 70       	rts	

00ffd30c <_send_char>:
send_char():
/home/consdrv.c:32
 * 場合は排他のため割込み禁止状態で呼ぶこと．
 */

/* 送信バッファの先頭１文字を送信する */
static void send_char(struct consreg *cons)
{
  ffd30c:	01 00 6d f6 	mov.l	er6,@-er7
  ffd310:	0f f6       	mov.l	er7,er6
  ffd312:	01 00 6d f4 	mov.l	er4,@-er7
  ffd316:	0f 84       	mov.l	er0,er4

00ffd318 <.LM2>:
/home/consdrv.c:34
  int i;
  serial_send_byte(cons->index, cons->send_buf[0]);
  ffd318:	01 00 6f 02 	mov.l	@(0x8:16,er0),er2
  ffd31c:	00 08 
  ffd31e:	68 29       	mov.b	@er2,r1l
  ffd320:	6f 00 00 04 	mov.w	@(0x4:16,er0),r0
  ffd324:	5e ff c4 46 	jsr	@0xffc446:24

00ffd328 <.LM3>:
/home/consdrv.c:35
  cons->send_len--;
  ffd328:	6f 42 00 10 	mov.w	@(0x10:16,er4),r2
  ffd32c:	1b 02       	subs	#1,er2
  ffd32e:	6f c2 00 10 	mov.w	r2,@(0x10:16,er4)

00ffd332 <.LM4>:
/home/consdrv.c:37
  /* 先頭文字を送信したので，１文字ぶんずらす */
  for (i = 0; i < cons->send_len; i++)
  ffd332:	1a a2       	sub.l	er2,er2
  ffd334:	40 16       	bra	.+22 (0xffd34c)

00ffd336 <.L3>:
/home/consdrv.c:38 (discriminator 3)
    cons->send_buf[i] = cons->send_buf[i + 1];
  ffd336:	01 00 6f 43 	mov.l	@(0x8:16,er4),er3
  ffd33a:	00 08 
  ffd33c:	0f a0       	mov.l	er2,er0
  ffd33e:	0b 00       	adds	#1,er0
  ffd340:	0f b1       	mov.l	er3,er1
  ffd342:	0a 81       	add.l	er0,er1
  ffd344:	68 19       	mov.b	@er1,r1l
  ffd346:	0a b2       	add.l	er3,er2
  ffd348:	68 a9       	mov.b	r1l,@er2
  ffd34a:	0f 82       	mov.l	er0,er2

00ffd34c <.L2>:
/home/consdrv.c:37 (discriminator 1)
  for (i = 0; i < cons->send_len; i++)
  ffd34c:	6f 43 00 10 	mov.w	@(0x10:16,er4),r3
  ffd350:	1d 23       	cmp.w	r2,r3
  ffd352:	4e e2       	bgt	.-30 (0xffd336)

00ffd354 <.LM7>:
/home/consdrv.c:39
}
  ffd354:	01 00 6d 74 	mov.l	@er7+,er4
  ffd358:	01 00 6d 76 	mov.l	@er7+,er6
  ffd35c:	54 70       	rts	

00ffd35e <_send_string>:
send_string():
/home/consdrv.c:43

/* 文字列を送信バッファに書き込み送信開始する */
static void send_string(struct consreg *cons, char *str, int len)
{
  ffd35e:	01 00 6d f6 	mov.l	er6,@-er7
  ffd362:	0f f6       	mov.l	er7,er6
  ffd364:	01 00 6d f4 	mov.l	er4,@-er7
  ffd368:	01 00 6d f5 	mov.l	er5,@-er7
  ffd36c:	1b 97       	subs	#4,er7
  ffd36e:	0f 84       	mov.l	er0,er4

00ffd370 <.LM9>:
/home/consdrv.c:45
  int i;
  for (i = 0; i < len; i++) { /* 文字列を送信バッファにコピー */
  ffd370:	19 00       	sub.w	r0,r0
  ffd372:	40 40       	bra	.+64 (0xffd3b4)

00ffd374 <.L7>:
/home/consdrv.c:46
    if (str[i] == '\n') /* \n→\r\nに変換 */
  ffd374:	68 1d       	mov.b	@er1,r5l
  ffd376:	ad 0a       	cmp.b	#0xa,r5l
  ffd378:	46 16       	bne	.+22 (0xffd390)

00ffd37a <.LM11>:
/home/consdrv.c:47
      cons->send_buf[cons->send_len++] = '\r';
  ffd37a:	0d 35       	mov.w	r3,r5
  ffd37c:	0b 05       	adds	#1,er5
  ffd37e:	6f c5 00 10 	mov.w	r5,@(0x10:16,er4)
  ffd382:	17 f3       	exts.l	er3
  ffd384:	01 00 6f 45 	mov.l	@(0x8:16,er4),er5
  ffd388:	00 08 
  ffd38a:	0a d3       	add.l	er5,er3
  ffd38c:	fd 0d       	mov.b	#0xd,r5l
  ffd38e:	68 bd       	mov.b	r5l,@er3

00ffd390 <.L6>:
/home/consdrv.c:48 (discriminator 2)
    cons->send_buf[cons->send_len++] = str[i];
  ffd390:	6f 43 00 10 	mov.w	@(0x10:16,er4),r3
  ffd394:	0d 35       	mov.w	r3,r5
  ffd396:	0b 05       	adds	#1,er5
  ffd398:	6f c5 00 10 	mov.w	r5,@(0x10:16,er4)
  ffd39c:	6c 1d       	mov.b	@er1+,r5l
  ffd39e:	6e ed ff f7 	mov.b	r5l,@(0xfff7:16,er6)
  ffd3a2:	17 f3       	exts.l	er3
  ffd3a4:	01 00 6f 45 	mov.l	@(0x8:16,er4),er5
  ffd3a8:	00 08 
  ffd3aa:	0a d3       	add.l	er5,er3
  ffd3ac:	6e 6d ff f7 	mov.b	@(0xfff7:16,er6),r5l
  ffd3b0:	68 bd       	mov.b	r5l,@er3

00ffd3b2 <.LM13>:
/home/consdrv.c:45
  for (i = 0; i < len; i++) { /* 文字列を送信バッファにコピー */
  ffd3b2:	0b 00       	adds	#1,er0

00ffd3b4 <.L5>:
  ffd3b4:	6f 43 00 10 	mov.w	@(0x10:16,er4),r3

00ffd3b8 <.LM14>:
/home/consdrv.c:45 (discriminator 1)
  ffd3b8:	1d 20       	cmp.w	r2,r0
  ffd3ba:	4d b8       	blt	.-72 (0xffd374)

00ffd3bc <.LM15>:
/home/consdrv.c:55
  /*
   * 送信割込み無効ならば，送信開始されていないので送信開始する．
   * 送信割込み有効ならば送信開始されており，送信割込みの延長で
   * 送信バッファ内のデータが順次送信されるので，何もしなくてよい．
   */
  if (cons->send_len && !serial_intr_is_send_enable(cons->index)) {
  ffd3bc:	0d 33       	mov.w	r3,r3
  ffd3be:	47 1a       	beq	.+26 (0xffd3da)

00ffd3c0 <.LM16>:
/home/consdrv.c:55 (discriminator 1)
  ffd3c0:	6f 40 00 04 	mov.w	@(0x4:16,er4),r0
  ffd3c4:	5e ff c4 ce 	jsr	@0xffc4ce:24

00ffd3c8 <.LVL14>:
  ffd3c8:	0d 00       	mov.w	r0,r0
  ffd3ca:	46 0e       	bne	.+14 (0xffd3da)

00ffd3cc <.LBB4>:
/home/consdrv.c:56
    serial_intr_send_enable(cons->index); /* 送信割込み有効化 */
  ffd3cc:	6f 40 00 04 	mov.w	@(0x4:16,er4),r0
  ffd3d0:	5e ff c4 f6 	jsr	@0xffc4f6:24

00ffd3d4 <.LM18>:
/home/consdrv.c:57
    send_char(cons); /* 送信開始 */
  ffd3d4:	0f c0       	mov.l	er4,er0
  ffd3d6:	5e ff d3 0c 	jsr	@0xffd30c:24

00ffd3da <.L4>:
/home/consdrv.c:59
  }
}
  ffd3da:	0b 97       	adds	#4,er7
  ffd3dc:	01 00 6d 75 	mov.l	@er7+,er5
  ffd3e0:	01 00 6d 74 	mov.l	@er7+,er4
  ffd3e4:	01 00 6d 76 	mov.l	@er7+,er6
  ffd3e8:	54 70       	rts	

00ffd3ea <_consdrv_intr>:
consdrv_intr():
/home/consdrv.c:116
  return 0;
}

/* 割込みハンドラ */
static void consdrv_intr(void)
{
  ffd3ea:	01 00 6d f6 	mov.l	er6,@-er7
  ffd3ee:	0f f6       	mov.l	er7,er6
  ffd3f0:	01 00 6d f4 	mov.l	er4,@-er7
  ffd3f4:	01 00 6d f5 	mov.l	er5,@-er7
  ffd3f8:	1b 97       	subs	#4,er7

00ffd3fa <.LM21>:
/home/consdrv.c:122
  int i;
  struct consreg *cons;

  for (i = 0; i < CONSDRV_DEVICE_NUM; i++) {
    cons = &consreg[i];
    if (cons->id) {
  ffd3fa:	7a 04 00 ff 	mov.l	#0xffdb5c,er4
  ffd3fe:	db 5c 
  ffd400:	01 00 69 42 	mov.l	@er4,er2
  ffd404:	58 70 00 f6 	beq	.+246 (0xffd4fe)

00ffd408 <.LM22>:
/home/consdrv.c:123
      if (serial_is_send_enable(cons->index) ||
  ffd408:	6b 20 00 ff 	mov.w	@0xffdb60:32,r0
  ffd40c:	db 60 
  ffd40e:	5e ff c4 22 	jsr	@0xffc422:24

00ffd412 <.LVL20>:
  ffd412:	0d 00       	mov.w	r0,r0
  ffd414:	47 12       	beq	.+18 (0xffd428)

00ffd416 <.L17>:
consdrv_intrproc():
/home/consdrv.c:76
  if (serial_is_recv_enable(cons->index)) { /* 受信割込み */
  ffd416:	6b 20 00 ff 	mov.w	@0xffdb60:32,r0
  ffd41a:	db 60 
  ffd41c:	5e ff c4 78 	jsr	@0xffc478:24

00ffd420 <.LVL22>:
  ffd420:	0d 00       	mov.w	r0,r0
  ffd422:	58 70 00 a6 	beq	.+166 (0xffd4cc)
  ffd426:	40 12       	bra	.+18 (0xffd43a)

00ffd428 <.L14>:
consdrv_intr():
/home/consdrv.c:124 (discriminator 1)
	  serial_is_recv_enable(cons->index))
  ffd428:	6b 20 00 ff 	mov.w	@0xffdb60:32,r0
  ffd42c:	db 60 
  ffd42e:	5e ff c4 78 	jsr	@0xffc478:24

00ffd432 <.LM25>:
/home/consdrv.c:123
      if (serial_is_send_enable(cons->index) ||
  ffd432:	0d 00       	mov.w	r0,r0
  ffd434:	46 e0       	bne	.-32 (0xffd416)
  ffd436:	58 00 00 c4 	bra	.+196 (0xffd4fe)

00ffd43a <.L15>:
consdrv_intrproc():
/home/consdrv.c:77
    c = serial_recv_byte(cons->index);
  ffd43a:	6b 20 00 ff 	mov.w	@0xffdb60:32,r0
  ffd43e:	db 60 
  ffd440:	5e ff c4 9c 	jsr	@0xffc49c:24

00ffd444 <.LM27>:
/home/consdrv.c:78
    if (c == '\r') /* 改行コード変換(\r→\n) */
  ffd444:	a8 0d       	cmp.b	#0xd,r0l
  ffd446:	47 06       	beq	.+6 (0xffd44e)

00ffd448 <.LM28>:
/home/consdrv.c:77
    c = serial_recv_byte(cons->index);
  ffd448:	6e e8 ff f7 	mov.b	r0l,@(0xfff7:16,er6)
  ffd44c:	40 06       	bra	.+6 (0xffd454)

00ffd44e <.L20>:
/home/consdrv.c:79
      c = '\n';
  ffd44e:	fa 0a       	mov.b	#0xa,r2l
  ffd450:	6e ea ff f7 	mov.b	r2l,@(0xfff7:16,er6)

00ffd454 <.L21>:
/home/consdrv.c:81
    send_string(cons, &c, 1); /* エコーバック処理 */
  ffd454:	79 02 00 01 	mov.w	#0x1,r2
  ffd458:	0f e1       	mov.l	er6,er1
  ffd45a:	7a 31 00 00 	sub.l	#0x9,er1
  ffd45e:	00 09 
  ffd460:	7a 00 00 ff 	mov.l	#0xffdb5c,er0
  ffd464:	db 5c 
  ffd466:	5e ff d3 5e 	jsr	@0xffd35e:24

00ffd46a <.LM31>:
/home/consdrv.c:83
    if (cons->id) {
  ffd46a:	01 00 69 42 	mov.l	@er4,er2
  ffd46e:	47 5c       	beq	.+92 (0xffd4cc)

00ffd470 <.LM32>:
/home/consdrv.c:84
      if (c != '\n') {
  ffd470:	6e 68 ff f7 	mov.b	@(0xfff7:16,er6),r0l
  ffd474:	a8 0a       	cmp.b	#0xa,r0l
  ffd476:	47 20       	beq	.+32 (0xffd498)

00ffd478 <.LM33>:
/home/consdrv.c:86
	cons->recv_buf[cons->recv_len++] = c;
  ffd478:	6b 22 00 ff 	mov.w	@0xffdb6e:32,r2
  ffd47c:	db 6e 
  ffd47e:	0d 23       	mov.w	r2,r3
  ffd480:	0b 03       	adds	#1,er3
  ffd482:	6b a3 00 ff 	mov.w	r3,@0xffdb6e:32
  ffd486:	db 6e 
  ffd488:	17 f2       	exts.l	er2
  ffd48a:	01 00 6b 23 	mov.l	@0xffdb68:32,er3
  ffd48e:	00 ff db 68 
  ffd492:	0a b2       	add.l	er3,er2
  ffd494:	68 a8       	mov.b	r0l,@er2
  ffd496:	40 34       	bra	.+52 (0xffd4cc)

00ffd498 <.L22>:
/home/consdrv.c:93
	p = kx_kmalloc(CONS_BUFFER_SIZE);
  ffd498:	79 00 00 18 	mov.w	#0x18,r0
  ffd49c:	5e ff d0 de 	jsr	@0xffd0de:24

00ffd4a0 <.LVL28>:
  ffd4a0:	0f 85       	mov.l	er0,er5

00ffd4a2 <.LM35>:
/home/consdrv.c:94
	memcpy(p, cons->recv_buf, cons->recv_len);
  ffd4a2:	6b 22 00 ff 	mov.w	@0xffdb6e:32,r2
  ffd4a6:	db 6e 
  ffd4a8:	17 f2       	exts.l	er2
  ffd4aa:	01 00 6b 21 	mov.l	@0xffdb68:32,er1
  ffd4ae:	00 ff db 68 
  ffd4b2:	5e ff c1 8c 	jsr	@0xffc18c:24

00ffd4b6 <.LM36>:
/home/consdrv.c:95
	kx_send(MSGBOX_ID_CONSINPUT, cons->recv_len, p);
  ffd4b6:	0f d2       	mov.l	er5,er2
  ffd4b8:	6b 21 00 ff 	mov.w	@0xffdb6e:32,r1
  ffd4bc:	db 6e 
  ffd4be:	19 00       	sub.w	r0,r0
  ffd4c0:	5e ff d1 42 	jsr	@0xffd142:24

00ffd4c4 <.LM37>:
/home/consdrv.c:96
	cons->recv_len = 0;
  ffd4c4:	19 22       	sub.w	r2,r2
  ffd4c6:	6b a2 00 ff 	mov.w	r2,@0xffdb6e:32
  ffd4ca:	db 6e 

00ffd4cc <.L19>:
/home/consdrv.c:101
  if (serial_is_send_enable(cons->index)) { /* 送信割込み */
  ffd4cc:	6b 20 00 ff 	mov.w	@0xffdb60:32,r0
  ffd4d0:	db 60 
  ffd4d2:	5e ff c4 22 	jsr	@0xffc422:24

00ffd4d6 <.LVL33>:
  ffd4d6:	0d 00       	mov.w	r0,r0
  ffd4d8:	47 24       	beq	.+36 (0xffd4fe)

00ffd4da <.LM39>:
/home/consdrv.c:102
    if (!cons->id || !cons->send_len) {
  ffd4da:	01 00 69 42 	mov.l	@er4,er2
  ffd4de:	47 08       	beq	.+8 (0xffd4e8)
  ffd4e0:	6b 22 00 ff 	mov.w	@0xffdb6c:32,r2
  ffd4e4:	db 6c 
  ffd4e6:	46 0c       	bne	.+12 (0xffd4f4)

00ffd4e8 <.L24>:
/home/consdrv.c:104
      serial_intr_send_disable(cons->index);
  ffd4e8:	6b 20 00 ff 	mov.w	@0xffdb60:32,r0
  ffd4ec:	db 60 
  ffd4ee:	5e ff c5 1c 	jsr	@0xffc51c:24

00ffd4f2 <.LVL34>:
  ffd4f2:	40 0a       	bra	.+10 (0xffd4fe)

00ffd4f4 <.L25>:
/home/consdrv.c:107
      send_char(cons);
  ffd4f4:	7a 00 00 ff 	mov.l	#0xffdb5c,er0
  ffd4f8:	db 5c 
  ffd4fa:	5e ff d3 0c 	jsr	@0xffd30c:24

00ffd4fe <.L11>:
consdrv_intr():
/home/consdrv.c:129
	/* 割込みがあるならば，割込み処理を呼び出す */
	consdrv_intrproc(cons);
    }
  }
}
  ffd4fe:	0b 97       	adds	#4,er7
  ffd500:	01 00 6d 75 	mov.l	@er7+,er5
  ffd504:	01 00 6d 74 	mov.l	@er7+,er4
  ffd508:	01 00 6d 76 	mov.l	@er7+,er6
  ffd50c:	54 70       	rts	

00ffd50e <_consdrv_main>:
consdrv_main():
/home/consdrv.c:171

  return 0;
}

int consdrv_main(int argc, char *argv[])
{
  ffd50e:	01 00 6d f6 	mov.l	er6,@-er7
  ffd512:	0f f6       	mov.l	er7,er6
  ffd514:	7a 37 00 00 	sub.l	#0xc,er7
  ffd518:	00 0c 

00ffd51a <.LBB16>:
consdrv_init():
/home/consdrv.c:133
  memset(consreg, 0, sizeof(consreg));
  ffd51a:	1a a2       	sub.l	er2,er2
  ffd51c:	8a 20       	add.b	#0x20,r2l
  ffd51e:	19 11       	sub.w	r1,r1
  ffd520:	7a 00 00 ff 	mov.l	#0xffdb5c,er0
  ffd524:	db 5c 
  ffd526:	5e ff c1 66 	jsr	@0xffc166:24

00ffd52a <.LM45>:
consdrv_main():
/home/consdrv.c:177
  int size, index;
  kz_thread_id_t id;
  char *p;

  consdrv_init();
  kz_setintr(SOFTVEC_TYPE_SERINTR, consdrv_intr); /* 割込みハンドラ設定 */
  ffd52a:	7a 01 00 ff 	mov.l	#0xffd3ea,er1
  ffd52e:	d3 ea 
  ffd530:	79 00 00 02 	mov.w	#0x2,r0
  ffd534:	5e ff d0 76 	jsr	@0xffd076:24

00ffd538 <.L39>:
/home/consdrv.c:180 (discriminator 1)

  while (1) {
    id = kz_recv(MSGBOX_ID_CONSOUTPUT, &size, &p);
  ffd538:	0f e2       	mov.l	er6,er2
  ffd53a:	0f e1       	mov.l	er6,er1
  ffd53c:	1b 81       	subs	#2,er1
  ffd53e:	79 00 00 01 	mov.w	#0x1,r0
  ffd542:	5e ff d0 38 	jsr	@0xffd038:24

00ffd546 <.LM47>:
/home/consdrv.c:181
    index = p[0] - '0';
  ffd546:	01 00 69 61 	mov.l	@er6,er1
  ffd54a:	68 1c       	mov.b	@er1,r4l
  ffd54c:	17 54       	extu.w	r4
  ffd54e:	79 14 ff d0 	add.w	#0xffd0,r4

00ffd552 <.LBB18>:
consdrv_command():
/home/consdrv.c:141
  switch (command[0]) {
  ffd552:	6e 1a 00 01 	mov.b	@(0x1:16,er1),r2l
  ffd556:	aa 75       	cmp.b	#0x75,r2l
  ffd558:	47 08       	beq	.+8 (0xffd562)
  ffd55a:	aa 77       	cmp.b	#0x77,r2l
  ffd55c:	47 72       	beq	.+114 (0xffd5d0)
  ffd55e:	58 00 00 90 	bra	.+144 (0xffd5f2)

00ffd562 <.L37>:
/home/consdrv.c:143
    cons->id = id;
  ffd562:	17 f4       	exts.l	er4
  ffd564:	fa 05       	mov.b	#0x5,r2l

00ffd566 <.Llt1>:
  ffd566:	10 34       	shll.l	er4
  ffd568:	8a ff       	add.b	#0xff,r2l
  ffd56a:	46 fa       	bne	.-6 (0xffd566)
  ffd56c:	0f c5       	mov.l	er4,er5
  ffd56e:	7a 15 00 ff 	add.l	#0xffdb5c,er5
  ffd572:	db 5c 
  ffd574:	01 00 69 d0 	mov.l	er0,@er5

00ffd578 <.LM50>:
/home/consdrv.c:144
    cons->index = command[1] - '0';
  ffd578:	0f d2       	mov.l	er5,er2
  ffd57a:	0b 92       	adds	#4,er2
  ffd57c:	6e 1b 00 02 	mov.b	@(0x2:16,er1),r3l
  ffd580:	17 53       	extu.w	r3
  ffd582:	79 13 ff d0 	add.w	#0xffd0,r3
  ffd586:	69 a3       	mov.w	r3,@er2

00ffd588 <.LM51>:
/home/consdrv.c:145
    cons->send_buf = kz_kmalloc(CONS_BUFFER_SIZE);
  ffd588:	79 00 00 18 	mov.w	#0x18,r0
  ffd58c:	01 00 6f e2 	mov.l	er2,@(0xfff8:16,er6)
  ffd590:	ff f8 
  ffd592:	5e ff cf 9a 	jsr	@0xffcf9a:24

00ffd596 <.LVL46>:
  ffd596:	01 00 6f d0 	mov.l	er0,@(0x8:16,er5)
  ffd59a:	00 08 

00ffd59c <.LM52>:
/home/consdrv.c:146
    cons->recv_buf = kz_kmalloc(CONS_BUFFER_SIZE);
  ffd59c:	79 00 00 18 	mov.w	#0x18,r0
  ffd5a0:	5e ff cf 9a 	jsr	@0xffcf9a:24

00ffd5a4 <.LVL47>:
  ffd5a4:	01 00 6f d0 	mov.l	er0,@(0xc:16,er5)
  ffd5a8:	00 0c 

00ffd5aa <.LM53>:
/home/consdrv.c:147
    cons->send_len = 0;
  ffd5aa:	7a 14 00 ff 	add.l	#0xffdb6c,er4
  ffd5ae:	db 6c 
  ffd5b0:	1a b3       	sub.l	er3,er3
  ffd5b2:	01 00 69 c3 	mov.l	er3,@er4

00ffd5b6 <.LM54>:
/home/consdrv.c:149
    serial_init(cons->index);
  ffd5b6:	01 00 6f 62 	mov.l	@(0xfff8:16,er6),er2
  ffd5ba:	ff f8 
  ffd5bc:	69 20       	mov.w	@er2,r0
  ffd5be:	5e ff c3 ec 	jsr	@0xffc3ec:24

00ffd5c2 <.LM55>:
/home/consdrv.c:150
    serial_intr_recv_enable(cons->index); /* 受信割込み有効化(受信開始) */
  ffd5c2:	01 00 6f 62 	mov.l	@(0xfff8:16,er6),er2
  ffd5c6:	ff f8 
  ffd5c8:	69 20       	mov.w	@er2,r0
  ffd5ca:	5e ff c5 6a 	jsr	@0xffc56a:24

00ffd5ce <.LVL49>:
  ffd5ce:	40 22       	bra	.+34 (0xffd5f2)

00ffd5d0 <.L38>:
consdrv_main():
/home/consdrv.c:182
    consdrv_command(&consreg[index], id, index, size - 1, p + 1);
  ffd5d0:	6f 62 ff fe 	mov.w	@(0xfffe:16,er6),r2

00ffd5d4 <.LM57>:
consdrv_command():
/home/consdrv.c:158
    INTR_DISABLE;
  ffd5d4:	04 c0       	orc	#0xc0,ccr

00ffd5d6 <.LM58>:
consdrv_main():
/home/consdrv.c:182
    consdrv_command(&consreg[index], id, index, size - 1, p + 1);
  ffd5d6:	17 f4       	exts.l	er4
  ffd5d8:	0f c0       	mov.l	er4,er0
  ffd5da:	fb 05       	mov.b	#0x5,r3l

00ffd5dc <.Llt2>:
  ffd5dc:	10 30       	shll.l	er0
  ffd5de:	8b ff       	add.b	#0xff,r3l
  ffd5e0:	46 fa       	bne	.-6 (0xffd5dc)

00ffd5e2 <.LM59>:
consdrv_command():
/home/consdrv.c:159
    send_string(cons, command + 1, size - 1); /* 文字列の送信 */
  ffd5e2:	1b 82       	subs	#2,er2
  ffd5e4:	0b 81       	adds	#2,er1
  ffd5e6:	7a 10 00 ff 	add.l	#0xffdb5c,er0
  ffd5ea:	db 5c 
  ffd5ec:	5e ff d3 5e 	jsr	@0xffd35e:24

00ffd5f0 <.LM60>:
/home/consdrv.c:160
    INTR_ENABLE;
  ffd5f0:	06 3f       	andc	#0x3f,ccr

00ffd5f2 <.L36>:
consdrv_main():
/home/consdrv.c:183
    kz_kmfree(p);
  ffd5f2:	01 00 69 60 	mov.l	@er6,er0
  ffd5f6:	5e ff cf cc 	jsr	@0xffcfcc:24

00ffd5fa <.LVL55>:
  ffd5fa:	58 00 ff 3a 	bra	.-198 (0xffd538)

00ffd5fe <_send_write>:
send_write():
/home/command.c:24
  kz_send(MSGBOX_ID_CONSOUTPUT, 3, p);
}

/* コンソールへの文字列出力をコンソール・ドライバに依頼する */
static void send_write(char *str)
{
  ffd5fe:	01 00 6d f6 	mov.l	er6,@-er7
  ffd602:	0f f6       	mov.l	er7,er6
  ffd604:	01 00 6d f4 	mov.l	er4,@-er7
  ffd608:	01 00 6d f5 	mov.l	er5,@-er7
  ffd60c:	7a 37 00 00 	sub.l	#0x8,er7
  ffd610:	00 08 

00ffd612 <.LM2>:
/home/command.c:27
  char *p;
  int len;
  len = strlen(str);
  ffd612:	01 00 6f e0 	mov.l	er0,@(0xfff4:16,er6)
  ffd616:	ff f4 
  ffd618:	5e ff c1 fe 	jsr	@0xffc1fe:24

00ffd61c <.LVL1>:
  ffd61c:	0d 02       	mov.w	r0,r2

00ffd61e <.LM3>:
/home/command.c:28
  p = kz_kmalloc(len + 2);
  ffd61e:	0d 05       	mov.w	r0,r5
  ffd620:	0b 85       	adds	#2,er5
  ffd622:	0d 50       	mov.w	r5,r0
  ffd624:	01 00 6f e2 	mov.l	er2,@(0xfff0:16,er6)
  ffd628:	ff f0 
  ffd62a:	5e ff cf 9a 	jsr	@0xffcf9a:24

00ffd62e <.LVL4>:
  ffd62e:	0f 84       	mov.l	er0,er4

00ffd630 <.LM4>:
/home/command.c:29
  p[0] = '0';
  ffd630:	fb 30       	mov.b	#0x30,r3l
  ffd632:	68 8b       	mov.b	r3l,@er0

00ffd634 <.LM5>:
/home/command.c:30
  p[1] = CONSDRV_CMD_WRITE;
  ffd634:	fb 77       	mov.b	#0x77,r3l
  ffd636:	6e 8b 00 01 	mov.b	r3l,@(0x1:16,er0)

00ffd63a <.LM6>:
/home/command.c:31
  memcpy(&p[2], str, len);
  ffd63a:	01 00 6f 62 	mov.l	@(0xfff0:16,er6),er2
  ffd63e:	ff f0 
  ffd640:	17 f2       	exts.l	er2
  ffd642:	01 00 6f 61 	mov.l	@(0xfff4:16,er6),er1
  ffd646:	ff f4 
  ffd648:	0b 80       	adds	#2,er0
  ffd64a:	5e ff c1 8c 	jsr	@0xffc18c:24

00ffd64e <.LM7>:
/home/command.c:32
  kz_send(MSGBOX_ID_CONSOUTPUT, len + 2, p);
  ffd64e:	0f c2       	mov.l	er4,er2
  ffd650:	0d 51       	mov.w	r5,r1
  ffd652:	79 00 00 01 	mov.w	#0x1,r0
  ffd656:	5e ff cf fe 	jsr	@0xffcffe:24

00ffd65a <.LM8>:
/home/command.c:33
}
  ffd65a:	0b 97       	adds	#4,er7
  ffd65c:	0b 97       	adds	#4,er7
  ffd65e:	01 00 6d 75 	mov.l	@er7+,er5
  ffd662:	01 00 6d 74 	mov.l	@er7+,er4
  ffd666:	01 00 6d 76 	mov.l	@er7+,er6
  ffd66a:	54 70       	rts	

00ffd66c <_timer_intr>:
timer_intr():
/home/command.c:36

void timer_intr(softvec_type_t type, unsigned long sp)
{
  ffd66c:	01 00 6d f6 	mov.l	er6,@-er7
  ffd670:	0f f6       	mov.l	er7,er6

00ffd672 <.LM10>:
/home/command.c:37
  if (timer_is_expired(0)) {
  ffd672:	19 00       	sub.w	r0,r0
  ffd674:	5e ff c6 00 	jsr	@0xffc600:24

00ffd678 <.LVL13>:
  ffd678:	0d 00       	mov.w	r0,r0
  ffd67a:	47 10       	beq	.+16 (0xffd68c)

00ffd67c <.LM11>:
/home/command.c:38
    puts("timer expired 0.\n");
  ffd67c:	7a 00 00 ff 	mov.l	#0xffd89e,er0
  ffd680:	d8 9e 
  ffd682:	5e ff c3 14 	jsr	@0xffc314:24

00ffd686 <.LM12>:
/home/command.c:39
    timer_expire(0);
  ffd686:	19 00       	sub.w	r0,r0
  ffd688:	5e ff c6 28 	jsr	@0xffc628:24

00ffd68c <.L3>:
/home/command.c:41
  }
  if (timer_is_expired(1)) {
  ffd68c:	79 00 00 01 	mov.w	#0x1,r0
  ffd690:	5e ff c6 00 	jsr	@0xffc600:24

00ffd694 <.LVL16>:
  ffd694:	0d 00       	mov.w	r0,r0
  ffd696:	47 12       	beq	.+18 (0xffd6aa)

00ffd698 <.LBB4>:
/home/command.c:42
    puts("timer expired 1.\n");
  ffd698:	7a 00 00 ff 	mov.l	#0xffd8b0,er0
  ffd69c:	d8 b0 
  ffd69e:	5e ff c3 14 	jsr	@0xffc314:24

00ffd6a2 <.LM15>:
/home/command.c:43
    timer_cancel(1);
  ffd6a2:	79 00 00 01 	mov.w	#0x1,r0
  ffd6a6:	5e ff c6 50 	jsr	@0xffc650:24

00ffd6aa <.L2>:
/home/command.c:45
  }
}
  ffd6aa:	01 00 6d 76 	mov.l	@er7+,er6
  ffd6ae:	54 70       	rts	

00ffd6b0 <_command_main>:
command_main():
/home/command.c:48

int command_main(int argc, char *argv[])
{
  ffd6b0:	01 00 6d f6 	mov.l	er6,@-er7
  ffd6b4:	0f f6       	mov.l	er7,er6
  ffd6b6:	7a 37 00 00 	sub.l	#0x8,er7
  ffd6ba:	00 08 

00ffd6bc <.LBB8>:
send_use():
/home/command.c:15
  p = kz_kmalloc(3);
  ffd6bc:	79 00 00 03 	mov.w	#0x3,r0
  ffd6c0:	5e ff cf 9a 	jsr	@0xffcf9a:24

00ffd6c4 <.LVL23>:
  ffd6c4:	0f 82       	mov.l	er0,er2

00ffd6c6 <.LM19>:
/home/command.c:16
  p[0] = '0';
  ffd6c6:	fb 30       	mov.b	#0x30,r3l
  ffd6c8:	68 8b       	mov.b	r3l,@er0

00ffd6ca <.LM20>:
/home/command.c:17
  p[1] = CONSDRV_CMD_USE;
  ffd6ca:	fb 75       	mov.b	#0x75,r3l
  ffd6cc:	6e 8b 00 01 	mov.b	r3l,@(0x1:16,er0)

00ffd6d0 <.LM21>:
/home/command.c:18
  p[2] = '0' + index;
  ffd6d0:	fb 31       	mov.b	#0x31,r3l
  ffd6d2:	6e 8b 00 02 	mov.b	r3l,@(0x2:16,er0)

00ffd6d6 <.LM22>:
/home/command.c:19
  kz_send(MSGBOX_ID_CONSOUTPUT, 3, p);
  ffd6d6:	79 01 00 03 	mov.w	#0x3,r1
  ffd6da:	79 00 00 01 	mov.w	#0x1,r0
  ffd6de:	5e ff cf fe 	jsr	@0xffcffe:24

00ffd6e2 <.L16>:
command_main():
/home/command.c:55
  int size;

  send_use(SERIAL_DEFAULT_DEVICE);

  while (1) {
    send_write("command> "); /* プロンプト表示 */
  ffd6e2:	7a 00 00 ff 	mov.l	#0xffd8c2,er0
  ffd6e6:	d8 c2 
  ffd6e8:	5e ff d5 fe 	jsr	@0xffd5fe:24

00ffd6ec <.LM24>:
/home/command.c:58

    /* コンソールからの受信文字列を受け取る */
    kz_recv(MSGBOX_ID_CONSINPUT, &size, &p);
  ffd6ec:	0f e2       	mov.l	er6,er2
  ffd6ee:	0f e1       	mov.l	er6,er1
  ffd6f0:	1b 81       	subs	#2,er1
  ffd6f2:	19 00       	sub.w	r0,r0
  ffd6f4:	5e ff d0 38 	jsr	@0xffd038:24

00ffd6f8 <.LM25>:
/home/command.c:59
    p[size] = '\0';
  ffd6f8:	6f 62 ff fe 	mov.w	@(0xfffe:16,er6),r2
  ffd6fc:	0d 23       	mov.w	r2,r3
  ffd6fe:	17 f3       	exts.l	er3
  ffd700:	01 00 69 62 	mov.l	@er6,er2
  ffd704:	0a b2       	add.l	er3,er2
  ffd706:	18 bb       	sub.b	r3l,r3l
  ffd708:	68 ab       	mov.b	r3l,@er2

00ffd70a <.LM26>:
/home/command.c:61

    if (!strncmp(p, "echo", 4)) { /* echoコマンド */
  ffd70a:	79 02 00 04 	mov.w	#0x4,r2
  ffd70e:	7a 01 00 ff 	mov.l	#0xffd8cc,er1
  ffd712:	d8 cc 
  ffd714:	01 00 69 60 	mov.l	@er6,er0
  ffd718:	5e ff c2 6c 	jsr	@0xffc26c:24

00ffd71c <.LVL29>:
  ffd71c:	01 00 69 63 	mov.l	@er6,er3
  ffd720:	0d 00       	mov.w	r0,r0
  ffd722:	46 10       	bne	.+16 (0xffd734)

00ffd724 <.LM27>:
/home/command.c:62
      send_write(p + 4); /* echoに続く文字列を出力する */
  ffd724:	0f b0       	mov.l	er3,er0
  ffd726:	0b 90       	adds	#4,er0
  ffd728:	5e ff d5 fe 	jsr	@0xffd5fe:24

00ffd72c <.LM28>:
/home/command.c:63
      send_write("\n");
  ffd72c:	7a 00 00 ff 	mov.l	#0xffd867,er0
  ffd730:	d8 67 
  ffd732:	40 72       	bra	.+114 (0xffd7a6)

00ffd734 <.L12>:
/home/command.c:64
    } else if (!strncmp(p, "timer", 5)) { /* タイマ起動コマンド */
  ffd734:	79 02 00 05 	mov.w	#0x5,r2
  ffd738:	7a 01 00 ff 	mov.l	#0xffd8d1,er1
  ffd73c:	d8 d1 
  ffd73e:	0f b0       	mov.l	er3,er0
  ffd740:	5e ff c2 6c 	jsr	@0xffc26c:24

00ffd744 <.LVL31>:
  ffd744:	0d 00       	mov.w	r0,r0
  ffd746:	46 30       	bne	.+48 (0xffd778)

00ffd748 <.LM30>:
/home/command.c:65
      softvec_setintr(SOFTVEC_TYPE_TIMINTR, timer_intr);
  ffd748:	7a 01 00 ff 	mov.l	#0xffd66c,er1
  ffd74c:	d6 6c 
  ffd74e:	79 00 00 03 	mov.w	#0x3,r0
  ffd752:	5e ff c1 26 	jsr	@0xffc126:24

00ffd756 <.LM31>:
/home/command.c:66
      puts("start timer.\n");
  ffd756:	7a 00 00 ff 	mov.l	#0xffd8d7,er0
  ffd75a:	d8 d7 
  ffd75c:	5e ff c3 14 	jsr	@0xffc314:24

00ffd760 <.LM32>:
/home/command.c:67
      timer_start(0, 3000);
  ffd760:	79 01 0b b8 	mov.w	#0xbb8,r1
  ffd764:	19 00       	sub.w	r0,r0
  ffd766:	5e ff c5 b6 	jsr	@0xffc5b6:24

00ffd76a <.LM33>:
/home/command.c:68
      timer_start(1, 4500);
  ffd76a:	79 01 11 94 	mov.w	#0x1194,r1
  ffd76e:	79 00 00 01 	mov.w	#0x1,r0
  ffd772:	5e ff c5 b6 	jsr	@0xffc5b6:24

00ffd776 <.LVL35>:
  ffd776:	40 32       	bra	.+50 (0xffd7aa)

00ffd778 <.L14>:
/home/command.c:69
    } else if (!strncmp(p, "cancel", 6)) { /* タイマキャンセル */
  ffd778:	79 02 00 06 	mov.w	#0x6,r2
  ffd77c:	7a 01 00 ff 	mov.l	#0xffd8e5,er1
  ffd780:	d8 e5 
  ffd782:	01 00 69 60 	mov.l	@er6,er0
  ffd786:	5e ff c2 6c 	jsr	@0xffc26c:24

00ffd78a <.LVL36>:
  ffd78a:	0d 00       	mov.w	r0,r0
  ffd78c:	46 12       	bne	.+18 (0xffd7a0)

00ffd78e <.LM35>:
/home/command.c:70
      puts("cancel timer.\n");
  ffd78e:	7a 00 00 ff 	mov.l	#0xffd8ec,er0
  ffd792:	d8 ec 
  ffd794:	5e ff c3 14 	jsr	@0xffc314:24

00ffd798 <.LM36>:
/home/command.c:71
      timer_cancel(0);
  ffd798:	19 00       	sub.w	r0,r0
  ffd79a:	5e ff c6 50 	jsr	@0xffc650:24

00ffd79e <.LVL38>:
  ffd79e:	40 0a       	bra	.+10 (0xffd7aa)

00ffd7a0 <.L15>:
/home/command.c:73
    } else {
      send_write("unknown.\n");
  ffd7a0:	7a 00 00 ff 	mov.l	#0xffd8fb,er0
  ffd7a4:	d8 fb 

00ffd7a6 <.L17>:
  ffd7a6:	5e ff d5 fe 	jsr	@0xffd5fe:24

00ffd7aa <.L13>:
/home/command.c:76
    }

    kz_kmfree(p);
  ffd7aa:	01 00 69 60 	mov.l	@er6,er0
  ffd7ae:	5e ff cf cc 	jsr	@0xffcfcc:24

00ffd7b2 <.LM39>:
/home/command.c:55
    send_write("command> "); /* プロンプト表示 */
  ffd7b2:	58 00 ff 2c 	bra	.-212 (0xffd6e2)

Disassembly of section .text.startup:

00ffd7b6 <_main>:
main():
/home/main.c:22

  return 0;
}

int main(void)
{
  ffd7b6:	01 00 6d f6 	mov.l	er6,@-er7
  ffd7ba:	0f f6       	mov.l	er7,er6

00ffd7bc <.LM8>:
/home/main.c:23
  INTR_DISABLE; /* 割込み無効にする */
  ffd7bc:	04 c0       	orc	#0xc0,ccr

00ffd7be <.LM9>:
/home/main.c:25

  puts("kozos boot succeed!\n");
  ffd7be:	7a 00 00 ff 	mov.l	#0xffd854,er0
  ffd7c2:	d8 54 
  ffd7c4:	5e ff c3 14 	jsr	@0xffc314:24

00ffd7c8 <.LM10>:
/home/main.c:28

  /* OSの動作開始 */
  kz_start(start_threads, "idle", 0, 0x100, 0, NULL);
  ffd7c8:	1a a2       	sub.l	er2,er2
  ffd7ca:	01 00 6d f2 	mov.l	er2,@-er7
  ffd7ce:	1b 97       	subs	#4,er7
  ffd7d0:	1b 97       	subs	#4,er7
  ffd7d2:	6f f2 00 06 	mov.w	r2,@(0x6:16,er7)
  ffd7d6:	79 02 01 00 	mov.w	#0x100,r2
  ffd7da:	6f f2 00 02 	mov.w	r2,@(0x2:16,er7)
  ffd7de:	19 22       	sub.w	r2,r2
  ffd7e0:	7a 01 00 ff 	mov.l	#0xffd869,er1
  ffd7e4:	d8 69 
  ffd7e6:	7a 00 00 ff 	mov.l	#0xffc04e,er0
  ffd7ea:	c0 4e 
  ffd7ec:	5e ff c9 fe 	jsr	@0xffc9fe:24

00ffd7f0 <.LVL7>:
  ffd7f0:	7a 17 00 00 	add.l	#0xc,er7
  ffd7f4:	00 0c 

00ffd7f6 <.LM11>:
/home/main.c:32
  /* ここには戻ってこない */

  return 0;
}
  ffd7f6:	19 00       	sub.w	r0,r0
  ffd7f8:	01 00 6d 76 	mov.l	@er7+,er6
  ffd7fc:	54 70       	rts	
