
kozos.elf:     file format elf32-h8300


Disassembly of section .text:

00ffc020 <_start>:
_text_start():
  ffc020:	7a 07 00 ff 	mov.l	#0xffff00,er7
  ffc024:	ff 00 
  ffc026:	5e ff d7 b6 	jsr	@0xffd7b6:24

00ffc02a <.L11>:
.L11():
  ffc02a:	40 fe       	bra	.-2 (0xffc02a)

00ffc02c <_dispatch>:
_dispatch():
  ffc02c:	01 00 69 07 	mov.l	@er0,er7
  ffc030:	01 00 6d 70 	mov.l	@er7+,er0
  ffc034:	01 00 6d 71 	mov.l	@er7+,er1
  ffc038:	01 00 6d 72 	mov.l	@er7+,er2
  ffc03c:	01 00 6d 73 	mov.l	@er7+,er3
  ffc040:	01 00 6d 74 	mov.l	@er7+,er4
  ffc044:	01 00 6d 75 	mov.l	@er7+,er5
  ffc048:	01 00 6d 76 	mov.l	@er7+,er6
  ffc04c:	56 70       	rte	

00ffc04e <_start_threads>:
start_threads():
/home/main.c:8
#include "interrupt.h"
#include "lib.h"

/* システム・タスクとユーザ・タスクの起動 */
static int start_threads(int argc, char *argv[])
{
  ffc04e:	01 00 6d f6 	mov.l	er6,@-er7
  ffc052:	0f f6       	mov.l	er7,er6

00ffc054 <.LM2>:
/home/main.c:9
  kz_run(consdrv_main, "consdrv",  1, 0x200, 0, NULL);
  ffc054:	1a c4       	sub.l	er4,er4
  ffc056:	01 00 6d f4 	mov.l	er4,@-er7
  ffc05a:	1b 97       	subs	#4,er7
  ffc05c:	1b 97       	subs	#4,er7
  ffc05e:	6f f4 00 06 	mov.w	r4,@(0x6:16,er7)
  ffc062:	79 05 02 00 	mov.w	#0x200,r5
  ffc066:	6f f5 00 02 	mov.w	r5,@(0x2:16,er7)
  ffc06a:	79 02 00 01 	mov.w	#0x1,r2
  ffc06e:	7a 01 00 ff 	mov.l	#0xffd844,er1
  ffc072:	d8 44 

00ffc074 <.LVL1>:
  ffc074:	7a 00 00 ff 	mov.l	#0xffd50e,er0
  ffc078:	d5 0e 

00ffc07a <.LVL2>:
  ffc07a:	5e ff ce 44 	jsr	@0xffce44:24

00ffc07e <.LM3>:
/home/main.c:10
  kz_run(command_main, "command",  8, 0x200, 0, NULL);
  ffc07e:	01 00 6d f4 	mov.l	er4,@-er7
  ffc082:	1b 97       	subs	#4,er7
  ffc084:	1b 97       	subs	#4,er7
  ffc086:	6f f4 00 06 	mov.w	r4,@(0x6:16,er7)
  ffc08a:	6f f5 00 02 	mov.w	r5,@(0x2:16,er7)
  ffc08e:	79 02 00 08 	mov.w	#0x8,r2
  ffc092:	7a 01 00 ff 	mov.l	#0xffd84c,er1
  ffc096:	d8 4c 
  ffc098:	7a 00 00 ff 	mov.l	#0xffd6b0,er0
  ffc09c:	d6 b0 
  ffc09e:	5e ff ce 44 	jsr	@0xffce44:24

00ffc0a2 <.LM4>:
/home/main.c:12

  kz_chpri(15); /* 優先順位を下げて，アイドルスレッドに移行する */
  ffc0a2:	79 00 00 0f 	mov.w	#0xf,r0
  ffc0a6:	5e ff cf 6a 	jsr	@0xffcf6a:24

00ffc0aa <.LM5>:
/home/main.c:13
  INTR_ENABLE; /* 割込み有効にする */
  ffc0aa:	06 3f       	andc	#0x3f,ccr
  ffc0ac:	7a 17 00 00 	add.l	#0x18,er7
  ffc0b0:	00 18 

00ffc0b2 <.L2>:
/home/main.c:15 (discriminator 1)
  while (1) {
    asm volatile ("sleep"); /* 省電力モードに移行 */
  ffc0b2:	01 80       	sleep	
  ffc0b4:	40 fc       	bra	.-4 (0xffc0b2)

00ffc0b6 <_softvec_init>:
softvec_init():
/home/interrupt.c:7
#include "intr.h"
#include "interrupt.h"

/* ソフトウエア・割込みベクタの初期化 */
int softvec_init(void)
{
  ffc0b6:	01 00 6d f6 	mov.l	er6,@-er7
  ffc0ba:	0f f6       	mov.l	er7,er6

00ffc0bc <.LBB4>:
softvec_setintr():
/home/interrupt.c:17
}

/* ソフトウエア・割込みベクタの設定 */
int softvec_setintr(softvec_type_t type, softvec_handler_t handler)
{
  SOFTVECS[type] = handler;
  ffc0bc:	18 aa       	sub.b	r2l,r2l
  ffc0be:	6a aa 00 ff 	mov.b	r2l,@0xffbf20:32
  ffc0c2:	bf 20 
  ffc0c4:	6a aa 00 ff 	mov.b	r2l,@0xffbf21:32
  ffc0c8:	bf 21 
  ffc0ca:	6a aa 00 ff 	mov.b	r2l,@0xffbf22:32
  ffc0ce:	bf 22 
  ffc0d0:	6a aa 00 ff 	mov.b	r2l,@0xffbf23:32
  ffc0d4:	bf 23 
  ffc0d6:	6a aa 00 ff 	mov.b	r2l,@0xffbf24:32
  ffc0da:	bf 24 
  ffc0dc:	6a aa 00 ff 	mov.b	r2l,@0xffbf25:32
  ffc0e0:	bf 25 
  ffc0e2:	6a aa 00 ff 	mov.b	r2l,@0xffbf26:32
  ffc0e6:	bf 26 
  ffc0e8:	6a aa 00 ff 	mov.b	r2l,@0xffbf27:32
  ffc0ec:	bf 27 
  ffc0ee:	6a aa 00 ff 	mov.b	r2l,@0xffbf28:32
  ffc0f2:	bf 28 
  ffc0f4:	6a aa 00 ff 	mov.b	r2l,@0xffbf29:32
  ffc0f8:	bf 29 
  ffc0fa:	6a aa 00 ff 	mov.b	r2l,@0xffbf2a:32
  ffc0fe:	bf 2a 
  ffc100:	6a aa 00 ff 	mov.b	r2l,@0xffbf2b:32
  ffc104:	bf 2b 
  ffc106:	6a aa 00 ff 	mov.b	r2l,@0xffbf2c:32
  ffc10a:	bf 2c 
  ffc10c:	6a aa 00 ff 	mov.b	r2l,@0xffbf2d:32
  ffc110:	bf 2d 
  ffc112:	6a aa 00 ff 	mov.b	r2l,@0xffbf2e:32
  ffc116:	bf 2e 
  ffc118:	6a aa 00 ff 	mov.b	r2l,@0xffbf2f:32
  ffc11c:	bf 2f 

00ffc11e <.LM3>:
softvec_init():
/home/interrupt.c:12
}
  ffc11e:	19 00       	sub.w	r0,r0
  ffc120:	01 00 6d 76 	mov.l	@er7+,er6
  ffc124:	54 70       	rts	

00ffc126 <_softvec_setintr>:
softvec_setintr():
/home/interrupt.c:16
{
  ffc126:	01 00 6d f6 	mov.l	er6,@-er7
  ffc12a:	0f f6       	mov.l	er7,er6

00ffc12c <.LM5>:
/home/interrupt.c:17
  SOFTVECS[type] = handler;
  ffc12c:	17 f0       	exts.l	er0
  ffc12e:	10 30       	shll.l	er0
  ffc130:	10 30       	shll.l	er0
  ffc132:	01 00 78 80 	mov.l	er1,@(0xffbf20:32,er0)
  ffc136:	6b a1 00 ff 
  ffc13a:	bf 20 

00ffc13c <.LM6>:
/home/interrupt.c:19
  return 0;
}
  ffc13c:	19 00       	sub.w	r0,r0
  ffc13e:	01 00 6d 76 	mov.l	@er7+,er6
  ffc142:	54 70       	rts	

00ffc144 <_interrupt>:
interrupt():
/home/interrupt.c:26
/*
 * 共通割込みハンドラ．
 * ソフトウエア・割込みベクタを見て，各ハンドラに分岐する．
 */
void interrupt(softvec_type_t type, unsigned long sp)
{
  ffc144:	01 00 6d f6 	mov.l	er6,@-er7
  ffc148:	0f f6       	mov.l	er7,er6

00ffc14a <.LM8>:
/home/interrupt.c:27
  softvec_handler_t handler = SOFTVECS[type];
  ffc14a:	0d 02       	mov.w	r0,r2
  ffc14c:	17 f2       	exts.l	er2
  ffc14e:	10 32       	shll.l	er2
  ffc150:	10 32       	shll.l	er2
  ffc152:	01 00 78 20 	mov.l	@(0xffbf20:32,er2),er2
  ffc156:	6b 22 00 ff 
  ffc15a:	bf 20 

00ffc15c <.LM9>:
/home/interrupt.c:28
  if (handler)
  ffc15c:	47 02       	beq	.+2 (0xffc160)

00ffc15e <.LM10>:
/home/interrupt.c:29
    handler(type, sp);
  ffc15e:	5d 20       	jsr	@er2

00ffc160 <.L3>:
/home/interrupt.c:30
}
  ffc160:	01 00 6d 76 	mov.l	@er7+,er6
  ffc164:	54 70       	rts	

00ffc166 <_memset>:
memset():
/home/lib.c:6
#include "defines.h"
#include "serial.h"
#include "lib.h"

void *memset(void *b, int c, long len)
{
  ffc166:	01 00 6d f6 	mov.l	er6,@-er7
  ffc16a:	0f f6       	mov.l	er7,er6
  ffc16c:	01 00 6d f4 	mov.l	er4,@-er7

00ffc170 <.LM2>:
/home/lib.c:8
  char *p;
  for (p = b; len > 0; len--)
  ffc170:	0f 83       	mov.l	er0,er3
  ffc172:	0a 82       	add.l	er0,er2
  ffc174:	40 04       	bra	.+4 (0xffc17a)

00ffc176 <.L3>:
/home/lib.c:9 (discriminator 3)
    *(p++) = c;
  ffc176:	68 b9       	mov.b	r1l,@er3
  ffc178:	0b 03       	adds	#1,er3

00ffc17a <.L2>:
  ffc17a:	0f a4       	mov.l	er2,er4
  ffc17c:	1a b4       	sub.l	er3,er4

00ffc17e <.LM4>:
/home/lib.c:8 (discriminator 1)
  for (p = b; len > 0; len--)
  ffc17e:	0f c4       	mov.l	er4,er4
  ffc180:	4e f4       	bgt	.-12 (0xffc176)

00ffc182 <.LM5>:
/home/lib.c:11
  return b;
}
  ffc182:	01 00 6d 74 	mov.l	@er7+,er4
  ffc186:	01 00 6d 76 	mov.l	@er7+,er6
  ffc18a:	54 70       	rts	

00ffc18c <_memcpy>:
memcpy():
/home/lib.c:14

void *memcpy(void *dst, const void *src, long len)
{
  ffc18c:	01 00 6d f6 	mov.l	er6,@-er7
  ffc190:	0f f6       	mov.l	er7,er6
  ffc192:	01 00 6d f4 	mov.l	er4,@-er7
  ffc196:	01 00 6d f5 	mov.l	er5,@-er7

00ffc19a <.LM7>:
/home/lib.c:17
  char *d = dst;
  const char *s = src;
  for (; len > 0; len--)
  ffc19a:	1a b3       	sub.l	er3,er3
  ffc19c:	40 0e       	bra	.+14 (0xffc1ac)

00ffc19e <.L6>:
/home/lib.c:18 (discriminator 2)
    *(d++) = *(s++);
  ffc19e:	0f 94       	mov.l	er1,er4
  ffc1a0:	0a b4       	add.l	er3,er4
  ffc1a2:	68 4d       	mov.b	@er4,r5l
  ffc1a4:	0f 84       	mov.l	er0,er4
  ffc1a6:	0a b4       	add.l	er3,er4
  ffc1a8:	68 cd       	mov.b	r5l,@er4
  ffc1aa:	0b 03       	adds	#1,er3

00ffc1ac <.L5>:
  ffc1ac:	0f a4       	mov.l	er2,er4
  ffc1ae:	1a b4       	sub.l	er3,er4

00ffc1b0 <.LM9>:
/home/lib.c:17 (discriminator 1)
  for (; len > 0; len--)
  ffc1b0:	0f c4       	mov.l	er4,er4
  ffc1b2:	4e ea       	bgt	.-22 (0xffc19e)

00ffc1b4 <.LM10>:
/home/lib.c:20
  return dst;
}
  ffc1b4:	01 00 6d 75 	mov.l	@er7+,er5
  ffc1b8:	01 00 6d 74 	mov.l	@er7+,er4
  ffc1bc:	01 00 6d 76 	mov.l	@er7+,er6
  ffc1c0:	54 70       	rts	

00ffc1c2 <_memcmp>:
memcmp():
/home/lib.c:23

int memcmp(const void *b1, const void *b2, long len)
{
  ffc1c2:	01 00 6d f6 	mov.l	er6,@-er7
  ffc1c6:	0f f6       	mov.l	er7,er6
  ffc1c8:	01 00 6d f4 	mov.l	er4,@-er7
  ffc1cc:	0a 82       	add.l	er0,er2

00ffc1ce <.LM12>:
/home/lib.c:25
  const char *p1 = b1, *p2 = b2;
  for (; len > 0; len--) {
  ffc1ce:	40 14       	bra	.+20 (0xffc1e4)

00ffc1d0 <.L11>:
/home/lib.c:26
    if (*p1 != *p2)
  ffc1d0:	68 0c       	mov.b	@er0,r4l
  ffc1d2:	68 1b       	mov.b	@er1,r3l
  ffc1d4:	1c bc       	cmp.b	r3l,r4l
  ffc1d6:	47 08       	beq	.+8 (0xffc1e0)

00ffc1d8 <.LM14>:
/home/lib.c:27
      return (*p1 > *p2) ? 1 : -1;
  ffc1d8:	42 16       	bhi	.+22 (0xffc1f0)
  ffc1da:	79 00 ff ff 	mov.w	#0xffff,r0
  ffc1de:	40 14       	bra	.+20 (0xffc1f4)

00ffc1e0 <.L9>:
/home/lib.c:28
    p1++;
  ffc1e0:	0b 00       	adds	#1,er0

00ffc1e2 <.LM16>:
/home/lib.c:29
    p2++;
  ffc1e2:	0b 01       	adds	#1,er1

00ffc1e4 <.L8>:
  ffc1e4:	0f a3       	mov.l	er2,er3
  ffc1e6:	1a 83       	sub.l	er0,er3

00ffc1e8 <.LM17>:
/home/lib.c:25 (discriminator 1)
  for (; len > 0; len--) {
  ffc1e8:	0f b3       	mov.l	er3,er3
  ffc1ea:	4e e4       	bgt	.-28 (0xffc1d0)

00ffc1ec <.LM18>:
/home/lib.c:31
  }
  return 0;
  ffc1ec:	19 00       	sub.w	r0,r0
  ffc1ee:	40 04       	bra	.+4 (0xffc1f4)

00ffc1f0 <.L12>:
/home/lib.c:27
      return (*p1 > *p2) ? 1 : -1;
  ffc1f0:	79 00 00 01 	mov.w	#0x1,r0

00ffc1f4 <.L7>:
/home/lib.c:32
}
  ffc1f4:	01 00 6d 74 	mov.l	@er7+,er4
  ffc1f8:	01 00 6d 76 	mov.l	@er7+,er6
  ffc1fc:	54 70       	rts	

00ffc1fe <_strlen>:
strlen():
/home/lib.c:35

int strlen(const char *s)
{
  ffc1fe:	01 00 6d f6 	mov.l	er6,@-er7
  ffc202:	0f f6       	mov.l	er7,er6

00ffc204 <.LM22>:
/home/lib.c:37
  int len;
  for (len = 0; *s; s++, len++)
  ffc204:	19 22       	sub.w	r2,r2
  ffc206:	40 04       	bra	.+4 (0xffc20c)

00ffc208 <.L15>:
/home/lib.c:37 (discriminator 3)
  ffc208:	0b 00       	adds	#1,er0
  ffc20a:	0b 02       	adds	#1,er2

00ffc20c <.L14>:
/home/lib.c:37 (discriminator 1)
  ffc20c:	68 0b       	mov.b	@er0,r3l
  ffc20e:	46 f8       	bne	.-8 (0xffc208)

00ffc210 <.LM25>:
/home/lib.c:40
    ;
  return len;
}
  ffc210:	0d 20       	mov.w	r2,r0
  ffc212:	01 00 6d 76 	mov.l	@er7+,er6
  ffc216:	54 70       	rts	

00ffc218 <_strcpy>:
strcpy():
/home/lib.c:43

char *strcpy(char *dst, const char *src)
{
  ffc218:	01 00 6d f6 	mov.l	er6,@-er7
  ffc21c:	0f f6       	mov.l	er7,er6

00ffc21e <.LM27>:
  ffc21e:	0f 82       	mov.l	er0,er2

00ffc220 <.L18>:
/home/lib.c:46
  char *d = dst;
  for (;; dst++, src++) {
    *dst = *src;
  ffc220:	68 1b       	mov.b	@er1,r3l
  ffc222:	68 ab       	mov.b	r3l,@er2

00ffc224 <.LM29>:
/home/lib.c:47
    if (!*src) break;
  ffc224:	68 1b       	mov.b	@er1,r3l
  ffc226:	47 06       	beq	.+6 (0xffc22e)

00ffc228 <.LM30>:
/home/lib.c:45
  for (;; dst++, src++) {
  ffc228:	0b 02       	adds	#1,er2
  ffc22a:	0b 01       	adds	#1,er1

00ffc22c <.LM31>:
/home/lib.c:46
    *dst = *src;
  ffc22c:	40 f2       	bra	.-14 (0xffc220)

00ffc22e <.L17>:
/home/lib.c:50
  }
  return d;
}
  ffc22e:	01 00 6d 76 	mov.l	@er7+,er6
  ffc232:	54 70       	rts	

00ffc234 <_strcmp>:
strcmp():
/home/lib.c:53

int strcmp(const char *s1, const char *s2)
{
  ffc234:	01 00 6d f6 	mov.l	er6,@-er7
  ffc238:	0f f6       	mov.l	er7,er6

00ffc23a <.LM34>:
/home/lib.c:54
  while (*s1 || *s2) {
  ffc23a:	40 10       	bra	.+16 (0xffc24c)

00ffc23c <.L23>:
/home/lib.c:55
    if (*s1 != *s2)
  ffc23c:	1c ba       	cmp.b	r3l,r2l
  ffc23e:	47 08       	beq	.+8 (0xffc248)

00ffc240 <.LM36>:
/home/lib.c:56
      return (*s1 > *s2) ? 1 : -1;
  ffc240:	44 20       	bcc	.+32 (0xffc262)
  ffc242:	79 00 00 01 	mov.w	#0x1,r0
  ffc246:	40 1e       	bra	.+30 (0xffc266)

00ffc248 <.L21>:
/home/lib.c:57
    s1++;
  ffc248:	0b 00       	adds	#1,er0

00ffc24a <.LM38>:
/home/lib.c:58
    s2++;
  ffc24a:	0b 01       	adds	#1,er1

00ffc24c <.L20>:
/home/lib.c:54
  while (*s1 || *s2) {
  ffc24c:	68 0b       	mov.b	@er0,r3l
  ffc24e:	68 1a       	mov.b	@er1,r2l
  ffc250:	0c bb       	mov.b	r3l,r3l
  ffc252:	46 e8       	bne	.-24 (0xffc23c)

00ffc254 <.LM40>:
/home/lib.c:54 (discriminator 1)
  ffc254:	79 00 00 01 	mov.w	#0x1,r0
  ffc258:	0c aa       	mov.b	r2l,r2l
  ffc25a:	46 02       	bne	.+2 (0xffc25e)
  ffc25c:	19 00       	sub.w	r0,r0

00ffc25e <.L24>:
  ffc25e:	17 90       	neg.w	r0
  ffc260:	40 04       	bra	.+4 (0xffc266)

00ffc262 <.L25>:
/home/lib.c:56
      return (*s1 > *s2) ? 1 : -1;
  ffc262:	79 00 ff ff 	mov.w	#0xffff,r0

00ffc266 <.L19>:
/home/lib.c:61
  }
  return 0;
}
  ffc266:	01 00 6d 76 	mov.l	@er7+,er6
  ffc26a:	54 70       	rts	

00ffc26c <_strncmp>:
strncmp():
/home/lib.c:64

int strncmp(const char *s1, const char *s2, int len)
{
  ffc26c:	01 00 6d f6 	mov.l	er6,@-er7
  ffc270:	0f f6       	mov.l	er7,er6
  ffc272:	01 00 6d f4 	mov.l	er4,@-er7

00ffc276 <.LM44>:
/home/lib.c:65
  while ((*s1 || *s2) && (len > 0)) {
  ffc276:	40 14       	bra	.+20 (0xffc28c)

00ffc278 <.L32>:
/home/lib.c:66
    if (*s1 != *s2)
  ffc278:	68 1c       	mov.b	@er1,r4l
  ffc27a:	1c bc       	cmp.b	r3l,r4l
  ffc27c:	47 08       	beq	.+8 (0xffc286)

00ffc27e <.LM46>:
/home/lib.c:67
      return (*s1 > *s2) ? 1 : -1;
  ffc27e:	45 1e       	bcs	.+30 (0xffc29e)
  ffc280:	79 00 ff ff 	mov.w	#0xffff,r0
  ffc284:	40 2a       	bra	.+42 (0xffc2b0)

00ffc286 <.L28>:
/home/lib.c:68
    s1++;
  ffc286:	0b 00       	adds	#1,er0

00ffc288 <.LM48>:
/home/lib.c:69
    s2++;
  ffc288:	0b 01       	adds	#1,er1

00ffc28a <.LM49>:
/home/lib.c:70
    len--;
  ffc28a:	1b 02       	subs	#1,er2

00ffc28c <.L27>:
/home/lib.c:65
  while ((*s1 || *s2) && (len > 0)) {
  ffc28c:	68 0b       	mov.b	@er0,r3l
  ffc28e:	46 06       	bne	.+6 (0xffc296)

00ffc290 <.LM51>:
/home/lib.c:65 (discriminator 2)
  ffc290:	68 1b       	mov.b	@er1,r3l
  ffc292:	46 10       	bne	.+16 (0xffc2a4)
  ffc294:	40 04       	bra	.+4 (0xffc29a)

00ffc296 <.L30>:
/home/lib.c:65 (discriminator 3)
  ffc296:	0d 22       	mov.w	r2,r2
  ffc298:	4e de       	bgt	.-34 (0xffc278)

00ffc29a <.L35>:
/home/lib.c:72
  }
  return 0;
  ffc29a:	19 00       	sub.w	r0,r0
  ffc29c:	40 12       	bra	.+18 (0xffc2b0)

00ffc29e <.L34>:
/home/lib.c:67
      return (*s1 > *s2) ? 1 : -1;
  ffc29e:	79 00 00 01 	mov.w	#0x1,r0
  ffc2a2:	40 0c       	bra	.+12 (0xffc2b0)

00ffc2a4 <.L31>:
/home/lib.c:65
  while ((*s1 || *s2) && (len > 0)) {
  ffc2a4:	79 00 00 01 	mov.w	#0x1,r0
  ffc2a8:	0d 22       	mov.w	r2,r2
  ffc2aa:	4e 02       	bgt	.+2 (0xffc2ae)
  ffc2ac:	19 00       	sub.w	r0,r0

00ffc2ae <.L33>:
  ffc2ae:	17 90       	neg.w	r0

00ffc2b0 <.L26>:
/home/lib.c:73
}
  ffc2b0:	01 00 6d 74 	mov.l	@er7+,er4
  ffc2b4:	01 00 6d 76 	mov.l	@er7+,er6
  ffc2b8:	54 70       	rts	

00ffc2ba <_putc>:
putc():
/home/lib.c:77

/* １文字送信 */
int putc(unsigned char c)
{
  ffc2ba:	01 00 6d f6 	mov.l	er6,@-er7
  ffc2be:	0f f6       	mov.l	er7,er6
  ffc2c0:	01 00 6d f4 	mov.l	er4,@-er7
  ffc2c4:	0c 8c       	mov.b	r0l,r4l

00ffc2c6 <.LM58>:
/home/lib.c:78
  if (c == '\n')
  ffc2c6:	a8 0a       	cmp.b	#0xa,r0l
  ffc2c8:	46 0a       	bne	.+10 (0xffc2d4)

00ffc2ca <.LM59>:
/home/lib.c:79
    serial_send_byte(SERIAL_DEFAULT_DEVICE, '\r');
  ffc2ca:	f9 0d       	mov.b	#0xd,r1l
  ffc2cc:	79 00 00 01 	mov.w	#0x1,r0
  ffc2d0:	5e ff c4 46 	jsr	@0xffc446:24

00ffc2d4 <.L37>:
/home/lib.c:80
  return serial_send_byte(SERIAL_DEFAULT_DEVICE, c);
  ffc2d4:	0c c9       	mov.b	r4l,r1l
  ffc2d6:	79 00 00 01 	mov.w	#0x1,r0
  ffc2da:	5e ff c4 46 	jsr	@0xffc446:24

00ffc2de <.LM61>:
/home/lib.c:81
}
  ffc2de:	01 00 6d 74 	mov.l	@er7+,er4
  ffc2e2:	01 00 6d 76 	mov.l	@er7+,er6
  ffc2e6:	54 70       	rts	

00ffc2e8 <_getc>:
getc():
/home/lib.c:85

/* １文字受信 */
unsigned char getc(void)
{
  ffc2e8:	01 00 6d f6 	mov.l	er6,@-er7
  ffc2ec:	0f f6       	mov.l	er7,er6
  ffc2ee:	01 00 6d f4 	mov.l	er4,@-er7

00ffc2f2 <.LM63>:
/home/lib.c:86
  unsigned char c = serial_recv_byte(SERIAL_DEFAULT_DEVICE);
  ffc2f2:	79 00 00 01 	mov.w	#0x1,r0
  ffc2f6:	5e ff c4 9c 	jsr	@0xffc49c:24

00ffc2fa <.LVL60>:
  ffc2fa:	0c 8c       	mov.b	r0l,r4l

00ffc2fc <.LM64>:
/home/lib.c:87
  c = (c == '\r') ? '\n' : c;
  ffc2fc:	a8 0d       	cmp.b	#0xd,r0l
  ffc2fe:	46 02       	bne	.+2 (0xffc302)
  ffc300:	fc 0a       	mov.b	#0xa,r4l

00ffc302 <.L39>:
/home/lib.c:88 (discriminator 4)
  putc(c); /* エコー・バック */
  ffc302:	0c c8       	mov.b	r4l,r0l
  ffc304:	5e ff c2 ba 	jsr	@0xffc2ba:24

00ffc308 <.LM66>:
/home/lib.c:90
  return c;
}
  ffc308:	0c c8       	mov.b	r4l,r0l
  ffc30a:	01 00 6d 74 	mov.l	@er7+,er4
  ffc30e:	01 00 6d 76 	mov.l	@er7+,er6
  ffc312:	54 70       	rts	

00ffc314 <_puts>:
puts():
/home/lib.c:94

/* 文字列送信 */
int puts(unsigned char *str)
{
  ffc314:	01 00 6d f6 	mov.l	er6,@-er7
  ffc318:	0f f6       	mov.l	er7,er6
  ffc31a:	01 00 6d f4 	mov.l	er4,@-er7
  ffc31e:	0f 84       	mov.l	er0,er4

00ffc320 <.LM68>:
/home/lib.c:95
  while (*str)
  ffc320:	40 06       	bra	.+6 (0xffc328)

00ffc322 <.L42>:
/home/lib.c:96
    putc(*(str++));
  ffc322:	0b 04       	adds	#1,er4
  ffc324:	5e ff c2 ba 	jsr	@0xffc2ba:24

00ffc328 <.L41>:
/home/lib.c:95
  while (*str)
  ffc328:	68 48       	mov.b	@er4,r0l
  ffc32a:	46 f6       	bne	.-10 (0xffc322)

00ffc32c <.LM71>:
/home/lib.c:98
  return 0;
}
  ffc32c:	19 00       	sub.w	r0,r0
  ffc32e:	01 00 6d 74 	mov.l	@er7+,er4
  ffc332:	01 00 6d 76 	mov.l	@er7+,er6
  ffc336:	54 70       	rts	

00ffc338 <_gets>:
gets():
/home/lib.c:102

/* 文字列受信 */
int gets(unsigned char *buf)
{
  ffc338:	01 00 6d f6 	mov.l	er6,@-er7
  ffc33c:	0f f6       	mov.l	er7,er6
  ffc33e:	01 00 6d f4 	mov.l	er4,@-er7
  ffc342:	01 00 6d f5 	mov.l	er5,@-er7
  ffc346:	1b 97       	subs	#4,er7
  ffc348:	0f 85       	mov.l	er0,er5

00ffc34a <.LM73>:
  ffc34a:	0f 84       	mov.l	er0,er4

00ffc34c <.L45>:
  ffc34c:	0d 42       	mov.w	r4,r2
  ffc34e:	19 52       	sub.w	r5,r2

00ffc350 <.LM74>:
/home/lib.c:106
  int i = 0;
  unsigned char c;
  do {
    c = getc();
  ffc350:	01 00 6f e2 	mov.l	er2,@(0xfff4:16,er6)
  ffc354:	ff f4 
  ffc356:	5e ff c2 e8 	jsr	@0xffc2e8:24

00ffc35a <.LM75>:
/home/lib.c:107
    if (c == '\n')
  ffc35a:	01 00 6f 62 	mov.l	@(0xfff4:16,er6),er2
  ffc35e:	ff f4 
  ffc360:	a8 0a       	cmp.b	#0xa,r0l
  ffc362:	46 02       	bne	.+2 (0xffc366)

00ffc364 <.LM76>:
/home/lib.c:108
      c = '\0';
  ffc364:	18 88       	sub.b	r0l,r0l

00ffc366 <.L44>:
/home/lib.c:109
    buf[i++] = c;
  ffc366:	68 c8       	mov.b	r0l,@er4
  ffc368:	0b 04       	adds	#1,er4

00ffc36a <.LM78>:
/home/lib.c:110
  } while (c);
  ffc36a:	46 e0       	bne	.-32 (0xffc34c)

00ffc36c <.LM79>:
/home/lib.c:112
  return i - 1;
}
  ffc36c:	0d 20       	mov.w	r2,r0
  ffc36e:	0b 97       	adds	#4,er7
  ffc370:	01 00 6d 75 	mov.l	@er7+,er5
  ffc374:	01 00 6d 74 	mov.l	@er7+,er4
  ffc378:	01 00 6d 76 	mov.l	@er7+,er6
  ffc37c:	54 70       	rts	

00ffc37e <_putxval>:
putxval():
/home/lib.c:116

/* 数値の16進表示 */
int putxval(unsigned long value, int column)
{
  ffc37e:	01 00 6d f6 	mov.l	er6,@-er7
  ffc382:	0f f6       	mov.l	er7,er6
  ffc384:	01 00 6d f4 	mov.l	er4,@-er7
  ffc388:	7a 37 00 00 	sub.l	#0xc,er7
  ffc38c:	00 0c 

00ffc38e <.LM81>:
/home/lib.c:121
  char buf[9];
  char *p;

  p = buf + sizeof(buf) - 1;
  *(p--) = '\0';
  ffc38e:	18 aa       	sub.b	r2l,r2l
  ffc390:	6e ea ff fb 	mov.b	r2l,@(0xfffb:16,er6)

00ffc394 <.LM82>:
/home/lib.c:123

  if (!value && !column)
  ffc394:	0f 80       	mov.l	er0,er0
  ffc396:	46 08       	bne	.+8 (0xffc3a0)

00ffc398 <.LM83>:
/home/lib.c:123 (discriminator 1)
  ffc398:	0d 11       	mov.w	r1,r1
  ffc39a:	46 04       	bne	.+4 (0xffc3a0)

00ffc39c <.LM84>:
/home/lib.c:124
    column++;
  ffc39c:	79 01 00 01 	mov.w	#0x1,r1

00ffc3a0 <.L48>:
  ffc3a0:	0f e2       	mov.l	er6,er2
  ffc3a2:	1b 92       	subs	#4,er2
  ffc3a4:	1b 82       	subs	#2,er2

00ffc3a6 <.LM85>:
/home/lib.c:127

  while (value || column) {
    *(p--) = "0123456789abcdef"[value & 0xf];
  ffc3a6:	7a 04 00 ff 	mov.l	#0xffd86e,er4
  ffc3aa:	d8 6e 
  ffc3ac:	40 1c       	bra	.+28 (0xffc3ca)

00ffc3ae <.L51>:
  ffc3ae:	1a b3       	sub.l	er3,er3
  ffc3b0:	0c 8b       	mov.b	r0l,r3l
  ffc3b2:	eb 0f       	and.b	#0xf,r3l
  ffc3b4:	0a c3       	add.l	er4,er3
  ffc3b6:	68 3b       	mov.b	@er3,r3l
  ffc3b8:	68 ab       	mov.b	r3l,@er2

00ffc3ba <.LM86>:
/home/lib.c:128
    value >>= 4;
  ffc3ba:	11 30       	shlr.l	er0
  ffc3bc:	11 30       	shlr.l	er0
  ffc3be:	11 30       	shlr.l	er0
  ffc3c0:	11 30       	shlr.l	er0

00ffc3c2 <.LM87>:
/home/lib.c:129
    if (column) column--;
  ffc3c2:	0d 11       	mov.w	r1,r1
  ffc3c4:	47 02       	beq	.+2 (0xffc3c8)

00ffc3c6 <.LM88>:
/home/lib.c:129 (discriminator 1)
  ffc3c6:	1b 01       	subs	#1,er1

00ffc3c8 <.L50>:
  ffc3c8:	1b 02       	subs	#1,er2

00ffc3ca <.L49>:
/home/lib.c:126
  while (value || column) {
  ffc3ca:	0f 80       	mov.l	er0,er0
  ffc3cc:	46 e0       	bne	.-32 (0xffc3ae)

00ffc3ce <.LM90>:
/home/lib.c:126 (discriminator 1)
  ffc3ce:	0d 11       	mov.w	r1,r1
  ffc3d0:	46 dc       	bne	.-36 (0xffc3ae)

00ffc3d2 <.LM91>:
/home/lib.c:132
  }

  puts(p + 1);
  ffc3d2:	0f a0       	mov.l	er2,er0
  ffc3d4:	0b 00       	adds	#1,er0
  ffc3d6:	5e ff c3 14 	jsr	@0xffc314:24

00ffc3da <.LM92>:
/home/lib.c:135

  return 0;
}
  ffc3da:	19 00       	sub.w	r0,r0
  ffc3dc:	7a 17 00 00 	add.l	#0xc,er7
  ffc3e0:	00 0c 
  ffc3e2:	01 00 6d 74 	mov.l	@er7+,er4
  ffc3e6:	01 00 6d 76 	mov.l	@er7+,er6
  ffc3ea:	54 70       	rts	

00ffc3ec <_serial_init>:
serial_init():
/home/serial.c:59
  { H8_3069F_SCI2 }, 
};

/* デバイス初期化 */
int serial_init(int index)
{
  ffc3ec:	01 00 6d f6 	mov.l	er6,@-er7
  ffc3f0:	0f f6       	mov.l	er7,er6

00ffc3f2 <.LM2>:
/home/serial.c:60
  volatile struct h8_3069f_sci *sci = regs[index].sci;
  ffc3f2:	17 f0       	exts.l	er0
  ffc3f4:	10 30       	shll.l	er0
  ffc3f6:	10 30       	shll.l	er0
  ffc3f8:	01 00 78 00 	mov.l	@(0xffd800:32,er0),er2
  ffc3fc:	6b 22 00 ff 
  ffc400:	d8 00 

00ffc402 <.LM3>:
/home/serial.c:62

  sci->scr = 0;
  ffc402:	18 bb       	sub.b	r3l,r3l
  ffc404:	6e ab 00 02 	mov.b	r3l,@(0x2:16,er2)

00ffc408 <.LM4>:
/home/serial.c:63
  sci->smr = 0;
  ffc408:	68 ab       	mov.b	r3l,@er2

00ffc40a <.LM5>:
/home/serial.c:64
  sci->brr = 64; /* 20MHzのクロックから9600bpsを生成(25MHzの場合は80にする) */
  ffc40a:	f8 40       	mov.b	#0x40,r0l
  ffc40c:	6e a8 00 01 	mov.b	r0l,@(0x1:16,er2)

00ffc410 <.LM6>:
/home/serial.c:65
  sci->scr = H8_3069F_SCI_SCR_RE | H8_3069F_SCI_SCR_TE; /* 送受信可能 */
  ffc410:	f8 30       	mov.b	#0x30,r0l
  ffc412:	6e a8 00 02 	mov.b	r0l,@(0x2:16,er2)

00ffc416 <.LM7>:
/home/serial.c:66
  sci->ssr = 0;
  ffc416:	6e ab 00 04 	mov.b	r3l,@(0x4:16,er2)

00ffc41a <.LM8>:
/home/serial.c:69

  return 0;
}
  ffc41a:	19 00       	sub.w	r0,r0
  ffc41c:	01 00 6d 76 	mov.l	@er7+,er6
  ffc420:	54 70       	rts	

00ffc422 <_serial_is_send_enable>:
serial_is_send_enable():
/home/serial.c:73

/* 送信可能か？ */
int serial_is_send_enable(int index)
{
  ffc422:	01 00 6d f6 	mov.l	er6,@-er7
  ffc426:	0f f6       	mov.l	er7,er6

00ffc428 <.LM10>:
/home/serial.c:74
  volatile struct h8_3069f_sci *sci = regs[index].sci;
  ffc428:	17 f0       	exts.l	er0
  ffc42a:	10 30       	shll.l	er0
  ffc42c:	10 30       	shll.l	er0
  ffc42e:	01 00 78 00 	mov.l	@(0xffd800:32,er0),er2
  ffc432:	6b 22 00 ff 
  ffc436:	d8 00 

00ffc438 <.LM11>:
/home/serial.c:75
  return (sci->ssr & H8_3069F_SCI_SSR_TDRE);
  ffc438:	6e 28 00 04 	mov.b	@(0x4:16,er2),r0l
  ffc43c:	e8 80       	and.b	#0x80,r0l

00ffc43e <.LM12>:
/home/serial.c:76
}
  ffc43e:	17 50       	extu.w	r0
  ffc440:	01 00 6d 76 	mov.l	@er7+,er6
  ffc444:	54 70       	rts	

00ffc446 <_serial_send_byte>:
serial_send_byte():
/home/serial.c:80

/* １文字送信 */
int serial_send_byte(int index, unsigned char c)
{
  ffc446:	01 00 6d f6 	mov.l	er6,@-er7
  ffc44a:	0f f6       	mov.l	er7,er6

00ffc44c <.LM14>:
/home/serial.c:81
  volatile struct h8_3069f_sci *sci = regs[index].sci;
  ffc44c:	17 f0       	exts.l	er0
  ffc44e:	10 30       	shll.l	er0
  ffc450:	10 30       	shll.l	er0
  ffc452:	01 00 78 00 	mov.l	@(0xffd800:32,er0),er2
  ffc456:	6b 22 00 ff 
  ffc45a:	d8 00 

00ffc45c <.L4>:
serial_is_send_enable():
/home/serial.c:75 (discriminator 1)
  return (sci->ssr & H8_3069F_SCI_SSR_TDRE);
  ffc45c:	6e 2b 00 04 	mov.b	@(0x4:16,er2),r3l

00ffc460 <.LM16>:
serial_send_byte():
/home/serial.c:84

  /* 送信可能になるまで待つ */
  while (!serial_is_send_enable(index))
  ffc460:	4c fa       	bge	.-6 (0xffc45c)

00ffc462 <.LM17>:
/home/serial.c:86
    ;
  sci->tdr = c;
  ffc462:	6e a9 00 03 	mov.b	r1l,@(0x3:16,er2)

00ffc466 <.LM18>:
/home/serial.c:87
  sci->ssr &= ~H8_3069F_SCI_SSR_TDRE; /* 送信開始 */
  ffc466:	6e 2b 00 04 	mov.b	@(0x4:16,er2),r3l
  ffc46a:	72 7b       	bclr	#0x7,r3l
  ffc46c:	6e ab 00 04 	mov.b	r3l,@(0x4:16,er2)

00ffc470 <.LM19>:
/home/serial.c:90

  return 0;
}
  ffc470:	19 00       	sub.w	r0,r0
  ffc472:	01 00 6d 76 	mov.l	@er7+,er6
  ffc476:	54 70       	rts	

00ffc478 <_serial_is_recv_enable>:
serial_is_recv_enable():
/home/serial.c:94

/* 受信可能か？ */
int serial_is_recv_enable(int index)
{
  ffc478:	01 00 6d f6 	mov.l	er6,@-er7
  ffc47c:	0f f6       	mov.l	er7,er6

00ffc47e <.LM21>:
/home/serial.c:95
  volatile struct h8_3069f_sci *sci = regs[index].sci;
  ffc47e:	17 f0       	exts.l	er0
  ffc480:	10 30       	shll.l	er0
  ffc482:	10 30       	shll.l	er0
  ffc484:	01 00 78 00 	mov.l	@(0xffd800:32,er0),er2
  ffc488:	6b 22 00 ff 
  ffc48c:	d8 00 

00ffc48e <.LM22>:
/home/serial.c:96
  return (sci->ssr & H8_3069F_SCI_SSR_RDRF);
  ffc48e:	6e 28 00 04 	mov.b	@(0x4:16,er2),r0l
  ffc492:	e8 40       	and.b	#0x40,r0l

00ffc494 <.LM23>:
/home/serial.c:97
}
  ffc494:	17 50       	extu.w	r0
  ffc496:	01 00 6d 76 	mov.l	@er7+,er6
  ffc49a:	54 70       	rts	

00ffc49c <_serial_recv_byte>:
serial_recv_byte():
/home/serial.c:101

/* １文字受信 */
unsigned char serial_recv_byte(int index)
{
  ffc49c:	01 00 6d f6 	mov.l	er6,@-er7
  ffc4a0:	0f f6       	mov.l	er7,er6

00ffc4a2 <.LM25>:
/home/serial.c:102
  volatile struct h8_3069f_sci *sci = regs[index].sci;
  ffc4a2:	17 f0       	exts.l	er0
  ffc4a4:	10 30       	shll.l	er0
  ffc4a6:	10 30       	shll.l	er0
  ffc4a8:	01 00 78 00 	mov.l	@(0xffd800:32,er0),er2
  ffc4ac:	6b 22 00 ff 
  ffc4b0:	d8 00 

00ffc4b2 <.L8>:
serial_is_recv_enable():
/home/serial.c:96 (discriminator 1)
  return (sci->ssr & H8_3069F_SCI_SSR_RDRF);
  ffc4b2:	6e 2b 00 04 	mov.b	@(0x4:16,er2),r3l

00ffc4b6 <.LM27>:
serial_recv_byte():
/home/serial.c:106
  unsigned char c;

  /* 受信文字が来るまで待つ */
  while (!serial_is_recv_enable(index))
  ffc4b6:	73 6b       	btst	#0x6,r3l
  ffc4b8:	47 f8       	beq	.-8 (0xffc4b2)

00ffc4ba <.LM28>:
/home/serial.c:108
    ;
  c = sci->rdr;
  ffc4ba:	6e 28 00 05 	mov.b	@(0x5:16,er2),r0l

00ffc4be <.LM29>:
/home/serial.c:109
  sci->ssr &= ~H8_3069F_SCI_SSR_RDRF; /* 受信完了 */
  ffc4be:	6e 2b 00 04 	mov.b	@(0x4:16,er2),r3l
  ffc4c2:	72 6b       	bclr	#0x6,r3l
  ffc4c4:	6e ab 00 04 	mov.b	r3l,@(0x4:16,er2)

00ffc4c8 <.LM30>:
/home/serial.c:112

  return c;
}
  ffc4c8:	01 00 6d 76 	mov.l	@er7+,er6
  ffc4cc:	54 70       	rts	

00ffc4ce <_serial_intr_is_send_enable>:
serial_intr_is_send_enable():
/home/serial.c:116

/* 送信割込み有効か？ */
int serial_intr_is_send_enable(int index)
{
  ffc4ce:	01 00 6d f6 	mov.l	er6,@-er7
  ffc4d2:	0f f6       	mov.l	er7,er6

00ffc4d4 <.LM32>:
/home/serial.c:117
  volatile struct h8_3069f_sci *sci = regs[index].sci;
  ffc4d4:	17 f0       	exts.l	er0
  ffc4d6:	10 30       	shll.l	er0
  ffc4d8:	10 30       	shll.l	er0
  ffc4da:	01 00 78 00 	mov.l	@(0xffd800:32,er0),er2
  ffc4de:	6b 22 00 ff 
  ffc4e2:	d8 00 

00ffc4e4 <.LM33>:
/home/serial.c:118
  return (sci->scr & H8_3069F_SCI_SCR_TIE) ? 1 : 0;
  ffc4e4:	6e 28 00 02 	mov.b	@(0x2:16,er2),r0l

00ffc4e8 <.LM34>:
/home/serial.c:119
}
  ffc4e8:	77 78       	bld	#0x7,r0l
  ffc4ea:	01 f0 65 00 	xor.l	er0,er0
  ffc4ee:	12 30       	rotxl.l	er0
  ffc4f0:	01 00 6d 76 	mov.l	@er7+,er6
  ffc4f4:	54 70       	rts	

00ffc4f6 <_serial_intr_send_enable>:
serial_intr_send_enable():
/home/serial.c:123

/* 送信割込み有効化 */
void serial_intr_send_enable(int index)
{
  ffc4f6:	01 00 6d f6 	mov.l	er6,@-er7
  ffc4fa:	0f f6       	mov.l	er7,er6

00ffc4fc <.LM36>:
/home/serial.c:124
  volatile struct h8_3069f_sci *sci = regs[index].sci;
  ffc4fc:	17 f0       	exts.l	er0
  ffc4fe:	10 30       	shll.l	er0
  ffc500:	10 30       	shll.l	er0
  ffc502:	01 00 78 00 	mov.l	@(0xffd800:32,er0),er3
  ffc506:	6b 23 00 ff 
  ffc50a:	d8 00 

00ffc50c <.LM37>:
/home/serial.c:125
  sci->scr |= H8_3069F_SCI_SCR_TIE;
  ffc50c:	6e 3a 00 02 	mov.b	@(0x2:16,er3),r2l
  ffc510:	70 7a       	bset	#0x7,r2l
  ffc512:	6e ba 00 02 	mov.b	r2l,@(0x2:16,er3)

00ffc516 <.LM38>:
/home/serial.c:126
}
  ffc516:	01 00 6d 76 	mov.l	@er7+,er6
  ffc51a:	54 70       	rts	

00ffc51c <_serial_intr_send_disable>:
serial_intr_send_disable():
/home/serial.c:130

/* 送信割込み無効化 */
void serial_intr_send_disable(int index)
{
  ffc51c:	01 00 6d f6 	mov.l	er6,@-er7
  ffc520:	0f f6       	mov.l	er7,er6

00ffc522 <.LM40>:
/home/serial.c:131
  volatile struct h8_3069f_sci *sci = regs[index].sci;
  ffc522:	17 f0       	exts.l	er0
  ffc524:	10 30       	shll.l	er0
  ffc526:	10 30       	shll.l	er0
  ffc528:	01 00 78 00 	mov.l	@(0xffd800:32,er0),er3
  ffc52c:	6b 23 00 ff 
  ffc530:	d8 00 

00ffc532 <.LM41>:
/home/serial.c:132
  sci->scr &= ~H8_3069F_SCI_SCR_TIE;
  ffc532:	6e 3a 00 02 	mov.b	@(0x2:16,er3),r2l
  ffc536:	72 7a       	bclr	#0x7,r2l
  ffc538:	6e ba 00 02 	mov.b	r2l,@(0x2:16,er3)

00ffc53c <.LM42>:
/home/serial.c:133
}
  ffc53c:	01 00 6d 76 	mov.l	@er7+,er6
  ffc540:	54 70       	rts	

00ffc542 <_serial_intr_is_recv_enable>:
serial_intr_is_recv_enable():
/home/serial.c:137

/* 受信割込み有効か？ */
int serial_intr_is_recv_enable(int index)
{
  ffc542:	01 00 6d f6 	mov.l	er6,@-er7
  ffc546:	0f f6       	mov.l	er7,er6

00ffc548 <.LM44>:
/home/serial.c:138
  volatile struct h8_3069f_sci *sci = regs[index].sci;
  ffc548:	17 f0       	exts.l	er0
  ffc54a:	10 30       	shll.l	er0
  ffc54c:	10 30       	shll.l	er0
  ffc54e:	01 00 78 00 	mov.l	@(0xffd800:32,er0),er2
  ffc552:	6b 22 00 ff 
  ffc556:	d8 00 

00ffc558 <.LM45>:
/home/serial.c:139
  return (sci->scr & H8_3069F_SCI_SCR_RIE) ? 1 : 0;
  ffc558:	6e 28 00 02 	mov.b	@(0x2:16,er2),r0l

00ffc55c <.LM46>:
/home/serial.c:140
}
  ffc55c:	77 68       	bld	#0x6,r0l
  ffc55e:	01 f0 65 00 	xor.l	er0,er0
  ffc562:	12 30       	rotxl.l	er0
  ffc564:	01 00 6d 76 	mov.l	@er7+,er6
  ffc568:	54 70       	rts	

00ffc56a <_serial_intr_recv_enable>:
serial_intr_recv_enable():
/home/serial.c:144

/* 受信割込み有効化 */
void serial_intr_recv_enable(int index)
{
  ffc56a:	01 00 6d f6 	mov.l	er6,@-er7
  ffc56e:	0f f6       	mov.l	er7,er6

00ffc570 <.LM48>:
/home/serial.c:145
  volatile struct h8_3069f_sci *sci = regs[index].sci;
  ffc570:	17 f0       	exts.l	er0
  ffc572:	10 30       	shll.l	er0
  ffc574:	10 30       	shll.l	er0
  ffc576:	01 00 78 00 	mov.l	@(0xffd800:32,er0),er3
  ffc57a:	6b 23 00 ff 
  ffc57e:	d8 00 

00ffc580 <.LM49>:
/home/serial.c:146
  sci->scr |= H8_3069F_SCI_SCR_RIE;
  ffc580:	6e 3a 00 02 	mov.b	@(0x2:16,er3),r2l
  ffc584:	70 6a       	bset	#0x6,r2l
  ffc586:	6e ba 00 02 	mov.b	r2l,@(0x2:16,er3)

00ffc58a <.LM50>:
/home/serial.c:147
}
  ffc58a:	01 00 6d 76 	mov.l	@er7+,er6
  ffc58e:	54 70       	rts	

00ffc590 <_serial_intr_recv_disable>:
serial_intr_recv_disable():
/home/serial.c:151

/* 受信割込み無効化 */
void serial_intr_recv_disable(int index)
{
  ffc590:	01 00 6d f6 	mov.l	er6,@-er7
  ffc594:	0f f6       	mov.l	er7,er6

00ffc596 <.LM52>:
/home/serial.c:152
  volatile struct h8_3069f_sci *sci = regs[index].sci;
  ffc596:	17 f0       	exts.l	er0
  ffc598:	10 30       	shll.l	er0
  ffc59a:	10 30       	shll.l	er0
  ffc59c:	01 00 78 00 	mov.l	@(0xffd800:32,er0),er3
  ffc5a0:	6b 23 00 ff 
  ffc5a4:	d8 00 

00ffc5a6 <.LM53>:
/home/serial.c:153
  sci->scr &= ~H8_3069F_SCI_SCR_RIE;
  ffc5a6:	6e 3a 00 02 	mov.b	@(0x2:16,er3),r2l
  ffc5aa:	72 6a       	bclr	#0x6,r2l
  ffc5ac:	6e ba 00 02 	mov.b	r2l,@(0x2:16,er3)

00ffc5b0 <.LM54>:
/home/serial.c:154
}
  ffc5b0:	01 00 6d 76 	mov.l	@er7+,er6
  ffc5b4:	54 70       	rts	

00ffc5b6 <_timer_start>:
timer_start():
/home/timer.c:57
  { H8_3069F_TMR23 }, 
};

/* タイマ開始 */
int timer_start(int index, int msec)
{
  ffc5b6:	01 00 6d f6 	mov.l	er6,@-er7
  ffc5ba:	0f f6       	mov.l	er7,er6

00ffc5bc <.LM2>:
/home/timer.c:58
  volatile struct h8_3069f_tmr *tmr = regs[index].tmr;
  ffc5bc:	17 f0       	exts.l	er0
  ffc5be:	10 30       	shll.l	er0
  ffc5c0:	10 30       	shll.l	er0
  ffc5c2:	01 00 78 00 	mov.l	@(0xffd80c:32,er0),er2
  ffc5c6:	6b 22 00 ff 
  ffc5ca:	d8 0c 

00ffc5cc <.LM3>:
/home/timer.c:61
  int count;

  tmr->tcr0 = H8_3069F_TMR_TCR_OVF | H8_3069F_TMR_TCR_CCLR_CLRCMFA;
  ffc5cc:	fb 0c       	mov.b	#0xc,r3l
  ffc5ce:	68 ab       	mov.b	r3l,@er2

00ffc5d0 <.LM4>:
/home/timer.c:62
  tmr->tcr1 = H8_3069F_TMR_TCR_CLK8192 | H8_3069F_TMR_TCR_CCLR_DISCLR;
  ffc5d0:	fb 03       	mov.b	#0x3,r3l
  ffc5d2:	6e ab 00 01 	mov.b	r3l,@(0x1:16,er2)

00ffc5d6 <.LM5>:
/home/timer.c:64

  tmr->tcsr0 = 0;
  ffc5d6:	18 bb       	sub.b	r3l,r3l
  ffc5d8:	6e ab 00 02 	mov.b	r3l,@(0x2:16,er2)

00ffc5dc <.LM6>:
/home/timer.c:65
  tmr->tcsr1 = 0;
  ffc5dc:	6e ab 00 03 	mov.b	r3l,@(0x3:16,er2)

00ffc5e0 <.LM7>:
/home/timer.c:69

  count = msec / 105; /* 20MHz: (msec * 20000000 / 8192 / 256 / 1000) */

  tmr->tcnt = 0;
  ffc5e0:	19 33       	sub.w	r3,r3
  ffc5e2:	6f a3 00 08 	mov.w	r3,@(0x8:16,er2)

00ffc5e6 <.LM8>:
/home/timer.c:67
  count = msec / 105; /* 20MHz: (msec * 20000000 / 8192 / 256 / 1000) */
  ffc5e6:	17 f1       	exts.l	er1
  ffc5e8:	79 03 00 69 	mov.w	#0x69,r3
  ffc5ec:	01 d0 53 31 	divxs.w	r3,er1

00ffc5f0 <.LM9>:
/home/timer.c:70
  tmr->tcora0 = count;
  ffc5f0:	6e a9 00 04 	mov.b	r1l,@(0x4:16,er2)

00ffc5f4 <.LM10>:
/home/timer.c:71
  tmr->tcr0 |= H8_3069F_TMR_TCR_CMIEA; /* 割込み有効化 */
  ffc5f4:	7d 20 70 60 	bset	#0x6,@er2

00ffc5f8 <.LM11>:
/home/timer.c:74

  return 0;
}
  ffc5f8:	19 00       	sub.w	r0,r0
  ffc5fa:	01 00 6d 76 	mov.l	@er7+,er6
  ffc5fe:	54 70       	rts	

00ffc600 <_timer_is_expired>:
timer_is_expired():
/home/timer.c:78

/* タイマ満了したか？ */
int timer_is_expired(int index)
{
  ffc600:	01 00 6d f6 	mov.l	er6,@-er7
  ffc604:	0f f6       	mov.l	er7,er6

00ffc606 <.LM13>:
/home/timer.c:79
  volatile struct h8_3069f_tmr *tmr = regs[index].tmr;
  ffc606:	17 f0       	exts.l	er0
  ffc608:	10 30       	shll.l	er0
  ffc60a:	10 30       	shll.l	er0
  ffc60c:	01 00 78 00 	mov.l	@(0xffd80c:32,er0),er2
  ffc610:	6b 22 00 ff 
  ffc614:	d8 0c 

00ffc616 <.LM14>:
/home/timer.c:80
  return (tmr->tcsr0 & H8_3069F_TMR_TCSR_CMFA) ? 1 : 0;
  ffc616:	6e 28 00 02 	mov.b	@(0x2:16,er2),r0l

00ffc61a <.LM15>:
/home/timer.c:81
}
  ffc61a:	77 68       	bld	#0x6,r0l
  ffc61c:	01 f0 65 00 	xor.l	er0,er0
  ffc620:	12 30       	rotxl.l	er0
  ffc622:	01 00 6d 76 	mov.l	@er7+,er6
  ffc626:	54 70       	rts	

00ffc628 <_timer_expire>:
timer_expire():
/home/timer.c:85

/* タイマ満了処理 */
int timer_expire(int index)
{
  ffc628:	01 00 6d f6 	mov.l	er6,@-er7
  ffc62c:	0f f6       	mov.l	er7,er6

00ffc62e <.LM17>:
/home/timer.c:86
  volatile struct h8_3069f_tmr *tmr = regs[index].tmr;
  ffc62e:	17 f0       	exts.l	er0
  ffc630:	10 30       	shll.l	er0
  ffc632:	10 30       	shll.l	er0
  ffc634:	01 00 78 00 	mov.l	@(0xffd80c:32,er0),er3
  ffc638:	6b 23 00 ff 
  ffc63c:	d8 0c 

00ffc63e <.LM18>:
/home/timer.c:88

  tmr->tcsr0 &= ~H8_3069F_TMR_TCSR_CMFA;
  ffc63e:	6e 3a 00 02 	mov.b	@(0x2:16,er3),r2l
  ffc642:	72 6a       	bclr	#0x6,r2l
  ffc644:	6e ba 00 02 	mov.b	r2l,@(0x2:16,er3)

00ffc648 <.LM19>:
/home/timer.c:91

  return 0;
}
  ffc648:	19 00       	sub.w	r0,r0
  ffc64a:	01 00 6d 76 	mov.l	@er7+,er6
  ffc64e:	54 70       	rts	

00ffc650 <_timer_cancel>:
timer_cancel():
/home/timer.c:95

/* タイマキャンセル */
int timer_cancel(int index)
{
  ffc650:	01 00 6d f6 	mov.l	er6,@-er7
  ffc654:	0f f6       	mov.l	er7,er6
  ffc656:	01 00 6d f4 	mov.l	er4,@-er7

00ffc65a <.LM21>:
/home/timer.c:96
  volatile struct h8_3069f_tmr *tmr = regs[index].tmr;
  ffc65a:	0d 02       	mov.w	r0,r2
  ffc65c:	17 f2       	exts.l	er2
  ffc65e:	10 32       	shll.l	er2
  ffc660:	10 32       	shll.l	er2
  ffc662:	01 00 78 20 	mov.l	@(0xffd80c:32,er2),er4
  ffc666:	6b 24 00 ff 
  ffc66a:	d8 0c 

00ffc66c <.LM22>:
/home/timer.c:98

  timer_expire(index);
  ffc66c:	5e ff c6 28 	jsr	@0xffc628:24

00ffc670 <.LM23>:
/home/timer.c:100

  tmr->tcr0 = 0;
  ffc670:	18 aa       	sub.b	r2l,r2l
  ffc672:	68 ca       	mov.b	r2l,@er4

00ffc674 <.LM24>:
/home/timer.c:101
  tmr->tcr1 = 0;
  ffc674:	6e ca 00 01 	mov.b	r2l,@(0x1:16,er4)

00ffc678 <.LM25>:
/home/timer.c:103

  tmr->tcr0 &= ~H8_3069F_TMR_TCR_CMIEA; /* 割込み無効化 */
  ffc678:	68 4a       	mov.b	@er4,r2l
  ffc67a:	72 6a       	bclr	#0x6,r2l
  ffc67c:	68 ca       	mov.b	r2l,@er4

00ffc67e <.LM26>:
/home/timer.c:106

  return 0;
}
  ffc67e:	19 00       	sub.w	r0,r0
  ffc680:	01 00 6d 74 	mov.l	@er7+,er4
  ffc684:	01 00 6d 76 	mov.l	@er7+,er6
  ffc688:	54 70       	rts	

00ffc68a <_getcurrent>:
getcurrent():
/home/kozos.c:84

void dispatch(kz_context *context);

/* カレント・スレッドをレディー・キューから抜き出す */
static int getcurrent(void)
{
  ffc68a:	01 00 6d f6 	mov.l	er6,@-er7
  ffc68e:	0f f6       	mov.l	er7,er6

00ffc690 <.LM2>:
/home/kozos.c:85
  if (current == NULL) {
  ffc690:	01 00 6b 23 	mov.l	@0xffdad8:32,er3
  ffc694:	00 ff da d8 
  ffc698:	47 3e       	beq	.+62 (0xffc6d8)

00ffc69a <.LM3>:
/home/kozos.c:88
    return -1;
  }
  if (!(current->flags & KZ_THREAD_FLAG_READY)) {
  ffc69a:	01 00 6f 30 	mov.l	@(0x1c:16,er3),er0
  ffc69e:	00 1c 
  ffc6a0:	73 08       	btst	#0x0,r0l
  ffc6a2:	47 3a       	beq	.+58 (0xffc6de)

00ffc6a4 <.LM4>:
/home/kozos.c:94
    /* すでに無い場合は無視 */
    return 1;
  }

  /* カレント・スレッドは必ず先頭にあるはずなので，先頭から抜き出す */
  readyque[current->priority].head = current->next;
  ffc6a4:	6f 32 00 14 	mov.w	@(0x14:16,er3),r2
  ffc6a8:	01 00 69 31 	mov.l	@er3,er1
  ffc6ac:	17 f2       	exts.l	er2
  ffc6ae:	10 32       	shll.l	er2
  ffc6b0:	10 32       	shll.l	er2
  ffc6b2:	10 32       	shll.l	er2
  ffc6b4:	7a 12 00 ff 	add.l	#0xffdadc,er2
  ffc6b8:	da dc 
  ffc6ba:	01 00 69 a1 	mov.l	er1,@er2

00ffc6be <.LM5>:
/home/kozos.c:95
  if (readyque[current->priority].head == NULL) {
  ffc6be:	46 06       	bne	.+6 (0xffc6c6)

00ffc6c0 <.LM6>:
/home/kozos.c:96
    readyque[current->priority].tail = NULL;
  ffc6c0:	01 00 6f a1 	mov.l	er1,@(0x4:16,er2)
  ffc6c4:	00 04 

00ffc6c6 <.L3>:
/home/kozos.c:98
  }
  current->flags &= ~KZ_THREAD_FLAG_READY;
  ffc6c6:	e8 fe       	and.b	#0xfe,r0l
  ffc6c8:	01 00 6f b0 	mov.l	er0,@(0x1c:16,er3)
  ffc6cc:	00 1c 

00ffc6ce <.LM8>:
/home/kozos.c:99
  current->next = NULL;
  ffc6ce:	1a a2       	sub.l	er2,er2
  ffc6d0:	01 00 69 b2 	mov.l	er2,@er3

00ffc6d4 <.LM9>:
/home/kozos.c:101

  return 0;
  ffc6d4:	19 00       	sub.w	r0,r0
  ffc6d6:	40 0a       	bra	.+10 (0xffc6e2)

00ffc6d8 <.L4>:
/home/kozos.c:86
    return -1;
  ffc6d8:	79 00 ff ff 	mov.w	#0xffff,r0
  ffc6dc:	40 04       	bra	.+4 (0xffc6e2)

00ffc6de <.L5>:
/home/kozos.c:90
    return 1;
  ffc6de:	79 00 00 01 	mov.w	#0x1,r0

00ffc6e2 <.L1>:
/home/kozos.c:102
}
  ffc6e2:	01 00 6d 76 	mov.l	@er7+,er6
  ffc6e6:	54 70       	rts	

00ffc6e8 <_putcurrent>:
putcurrent():
/home/kozos.c:106

/* カレント・スレッドをレディー・キューに繋げる */
static int putcurrent(void)
{
  ffc6e8:	01 00 6d f6 	mov.l	er6,@-er7
  ffc6ec:	0f f6       	mov.l	er7,er6
  ffc6ee:	01 00 6d f4 	mov.l	er4,@-er7
  ffc6f2:	01 00 6d f5 	mov.l	er5,@-er7

00ffc6f6 <.LM14>:
/home/kozos.c:107
  if (current == NULL) {
  ffc6f6:	01 00 6b 22 	mov.l	@0xffdad8:32,er2
  ffc6fa:	00 ff da d8 
  ffc6fe:	47 50       	beq	.+80 (0xffc750)

00ffc700 <.LM15>:
/home/kozos.c:110
    return -1;
  }
  if (current->flags & KZ_THREAD_FLAG_READY) {
  ffc700:	01 00 6f 24 	mov.l	@(0x1c:16,er2),er4
  ffc704:	00 1c 
  ffc706:	73 0c       	btst	#0x0,r4l
  ffc708:	46 4c       	bne	.+76 (0xffc756)

00ffc70a <.LM16>:
/home/kozos.c:116
    /* すでに有る場合は無視 */
    return 1;
  }

  /* レディー・キューの末尾に接続する */
  if (readyque[current->priority].tail) {
  ffc70a:	6f 23 00 14 	mov.w	@(0x14:16,er2),r3
  ffc70e:	7a 05 00 ff 	mov.l	#0xffdadc,er5
  ffc712:	da dc 
  ffc714:	17 f3       	exts.l	er3
  ffc716:	0f b1       	mov.l	er3,er1
  ffc718:	10 31       	shll.l	er1
  ffc71a:	10 31       	shll.l	er1
  ffc71c:	10 31       	shll.l	er1
  ffc71e:	0a d1       	add.l	er5,er1
  ffc720:	01 00 6f 10 	mov.l	@(0x4:16,er1),er0
  ffc724:	00 04 
  ffc726:	47 06       	beq	.+6 (0xffc72e)

00ffc728 <.LM17>:
/home/kozos.c:117
    readyque[current->priority].tail->next = current;
  ffc728:	01 00 69 82 	mov.l	er2,@er0
  ffc72c:	40 04       	bra	.+4 (0xffc732)

00ffc72e <.L8>:
/home/kozos.c:119
  } else {
    readyque[current->priority].head = current;
  ffc72e:	01 00 69 92 	mov.l	er2,@er1

00ffc732 <.L9>:
/home/kozos.c:121
  }
  readyque[current->priority].tail = current;
  ffc732:	0f b0       	mov.l	er3,er0
  ffc734:	10 30       	shll.l	er0
  ffc736:	10 30       	shll.l	er0
  ffc738:	10 30       	shll.l	er0
  ffc73a:	0a d0       	add.l	er5,er0
  ffc73c:	01 00 6f 82 	mov.l	er2,@(0x4:16,er0)
  ffc740:	00 04 

00ffc742 <.LM20>:
/home/kozos.c:122
  current->flags |= KZ_THREAD_FLAG_READY;
  ffc742:	0f c3       	mov.l	er4,er3
  ffc744:	cb 01       	or.b	#0x1,r3l
  ffc746:	01 00 6f a3 	mov.l	er3,@(0x1c:16,er2)
  ffc74a:	00 1c 

00ffc74c <.LM21>:
/home/kozos.c:124

  return 0;
  ffc74c:	19 00       	sub.w	r0,r0
  ffc74e:	40 0a       	bra	.+10 (0xffc75a)

00ffc750 <.L10>:
/home/kozos.c:108
    return -1;
  ffc750:	79 00 ff ff 	mov.w	#0xffff,r0
  ffc754:	40 04       	bra	.+4 (0xffc75a)

00ffc756 <.L11>:
/home/kozos.c:112
    return 1;
  ffc756:	79 00 00 01 	mov.w	#0x1,r0

00ffc75a <.L6>:
/home/kozos.c:125
}
  ffc75a:	01 00 6d 75 	mov.l	@er7+,er5
  ffc75e:	01 00 6d 74 	mov.l	@er7+,er4
  ffc762:	01 00 6d 76 	mov.l	@er7+,er6
  ffc766:	54 70       	rts	

00ffc768 <_thread_exit>:
thread_exit():
/home/kozos.c:212
  return (kz_thread_id_t)current;
}

/* システム・コールの処理(kz_exit():スレッドの終了) */
static int thread_exit(void)
{
  ffc768:	01 00 6d f6 	mov.l	er6,@-er7
  ffc76c:	0f f6       	mov.l	er7,er6

00ffc76e <.LM26>:
/home/kozos.c:217
  /*
   * 本来ならスタックも解放して再利用できるようにすべきだが省略．
   * このため，スレッドを頻繁に生成・消去するようなことは現状でできない．
   */
  puts(current->name);
  ffc76e:	01 00 6b 20 	mov.l	@0xffdad8:32,er0
  ffc772:	00 ff da d8 
  ffc776:	0b 90       	adds	#4,er0
  ffc778:	5e ff c3 14 	jsr	@0xffc314:24

00ffc77c <.LM27>:
/home/kozos.c:218
  puts(" EXIT.\n");
  ffc77c:	7a 00 00 ff 	mov.l	#0xffd87f,er0
  ffc780:	d8 7f 
  ffc782:	5e ff c3 14 	jsr	@0xffc314:24

00ffc786 <.LM28>:
/home/kozos.c:219
  memset(current, 0, sizeof(*current));
  ffc786:	1a a2       	sub.l	er2,er2
  ffc788:	8a 40       	add.b	#0x40,r2l
  ffc78a:	19 11       	sub.w	r1,r1
  ffc78c:	01 00 6b 20 	mov.l	@0xffdad8:32,er0
  ffc790:	00 ff da d8 
  ffc794:	5e ff c1 66 	jsr	@0xffc166:24

00ffc798 <.LM29>:
/home/kozos.c:221
  return 0;
}
  ffc798:	19 00       	sub.w	r0,r0
  ffc79a:	01 00 6d 76 	mov.l	@er7+,er6
  ffc79e:	54 70       	rts	

00ffc7a0 <_softerr_intr>:
softerr_intr():
/home/kozos.c:496
{
  syscall_proc(current->syscall.type, current->syscall.param);
}

static void softerr_intr(void)
{
  ffc7a0:	01 00 6d f6 	mov.l	er6,@-er7
  ffc7a4:	0f f6       	mov.l	er7,er6

00ffc7a6 <.LM31>:
/home/kozos.c:497
  puts(current->name);
  ffc7a6:	01 00 6b 20 	mov.l	@0xffdad8:32,er0
  ffc7aa:	00 ff da d8 
  ffc7ae:	0b 90       	adds	#4,er0
  ffc7b0:	5e ff c3 14 	jsr	@0xffc314:24

00ffc7b4 <.LM32>:
/home/kozos.c:498
  puts(" DOWN.\n");
  ffc7b4:	7a 00 00 ff 	mov.l	#0xffd887,er0
  ffc7b8:	d8 87 
  ffc7ba:	5e ff c3 14 	jsr	@0xffc314:24

00ffc7be <.LM33>:
/home/kozos.c:499
  getcurrent(); /* レディーキューから外す */
  ffc7be:	5e ff c6 8a 	jsr	@0xffc68a:24

00ffc7c2 <.LM34>:
/home/kozos.c:500
  thread_exit(); /* スレッド終了する */
  ffc7c2:	5e ff c7 68 	jsr	@0xffc768:24

00ffc7c6 <.LM35>:
/home/kozos.c:501
}
  ffc7c6:	01 00 6d 76 	mov.l	@er7+,er6
  ffc7ca:	54 70       	rts	

00ffc7cc <_recvmsg>:
recvmsg():
/home/kozos.c:306
{
  ffc7cc:	01 00 6d f6 	mov.l	er6,@-er7
  ffc7d0:	0f f6       	mov.l	er7,er6
  ffc7d2:	01 00 6d f4 	mov.l	er4,@-er7

00ffc7d6 <.LM37>:
/home/kozos.c:311
  mp = mboxp->head;
  ffc7d6:	01 00 6f 02 	mov.l	@(0x4:16,er0),er2
  ffc7da:	00 04 

00ffc7dc <.LM38>:
/home/kozos.c:312
  mboxp->head = mp->next;
  ffc7dc:	01 00 69 23 	mov.l	@er2,er3
  ffc7e0:	01 00 6f 83 	mov.l	er3,@(0x4:16,er0)
  ffc7e4:	00 04 

00ffc7e6 <.LM39>:
/home/kozos.c:313
  if (mboxp->head == NULL)
  ffc7e6:	46 06       	bne	.+6 (0xffc7ee)

00ffc7e8 <.LM40>:
/home/kozos.c:314
    mboxp->tail = NULL;
  ffc7e8:	01 00 6f 83 	mov.l	er3,@(0x8:16,er0)
  ffc7ec:	00 08 

00ffc7ee <.L15>:
/home/kozos.c:315
  mp->next = NULL;
  ffc7ee:	1a b3       	sub.l	er3,er3
  ffc7f0:	01 00 69 a3 	mov.l	er3,@er2

00ffc7f4 <.LM42>:
/home/kozos.c:318
  p = mboxp->receiver->syscall.param;
  ffc7f4:	01 00 69 03 	mov.l	@er0,er3
  ffc7f8:	01 00 6f 33 	mov.l	@(0x30:16,er3),er3
  ffc7fc:	00 30 

00ffc7fe <.LM43>:
/home/kozos.c:319
  p->un.recv.ret = (kz_thread_id_t)mp->sender;
  ffc7fe:	01 00 6f 21 	mov.l	@(0x4:16,er2),er1
  ffc802:	00 04 
  ffc804:	01 00 6f b1 	mov.l	er1,@(0xc:16,er3)
  ffc808:	00 0c 

00ffc80a <.LM44>:
/home/kozos.c:320
  if (p->un.recv.sizep)
  ffc80a:	01 00 6f 31 	mov.l	@(0x4:16,er3),er1
  ffc80e:	00 04 
  ffc810:	47 06       	beq	.+6 (0xffc818)

00ffc812 <.LM45>:
/home/kozos.c:321
    *(p->un.recv.sizep) = mp->param.size;
  ffc812:	6f 24 00 08 	mov.w	@(0x8:16,er2),r4
  ffc816:	69 94       	mov.w	r4,@er1

00ffc818 <.L16>:
/home/kozos.c:322
  if (p->un.recv.pp)
  ffc818:	01 00 6f 33 	mov.l	@(0x8:16,er3),er3
  ffc81c:	00 08 
  ffc81e:	47 0a       	beq	.+10 (0xffc82a)

00ffc820 <.LM47>:
/home/kozos.c:323
    *(p->un.recv.pp) = mp->param.p;
  ffc820:	01 00 6f 21 	mov.l	@(0xc:16,er2),er1
  ffc824:	00 0c 
  ffc826:	01 00 69 b1 	mov.l	er1,@er3

00ffc82a <.L17>:
/home/kozos.c:326
  mboxp->receiver = NULL;
  ffc82a:	1a b3       	sub.l	er3,er3
  ffc82c:	01 00 69 83 	mov.l	er3,@er0

00ffc830 <.LM49>:
/home/kozos.c:329
  kzmem_free(mp);
  ffc830:	0f a0       	mov.l	er2,er0
  ffc832:	5e ff d2 a0 	jsr	@0xffd2a0:24

00ffc836 <.LM50>:
/home/kozos.c:330
}
  ffc836:	01 00 6d 74 	mov.l	@er7+,er4
  ffc83a:	01 00 6d 76 	mov.l	@er7+,er6
  ffc83e:	54 70       	rts	

00ffc840 <_thread_run>:
thread_run():
/home/kozos.c:143
{
  ffc840:	01 00 6d f6 	mov.l	er6,@-er7
  ffc844:	0f f6       	mov.l	er7,er6
  ffc846:	01 00 6d f4 	mov.l	er4,@-er7
  ffc84a:	01 00 6d f5 	mov.l	er5,@-er7
  ffc84e:	7a 37 00 00 	sub.l	#0x14,er7
  ffc852:	00 14 
  ffc854:	01 00 6f e0 	mov.l	er0,@(0xffec:16,er6)
  ffc858:	ff ec 
  ffc85a:	01 00 6f e1 	mov.l	er1,@(0xffe8:16,er6)
  ffc85e:	ff e8 
  ffc860:	6f e2 ff f6 	mov.w	r2,@(0xfff6:16,er6)

00ffc864 <.LM52>:
  ffc864:	1a 80       	sub.l	er0,er0

00ffc866 <.LM53>:
/home/kozos.c:151
  for (i = 0; i < THREAD_NUM; i++) {
  ffc866:	19 22       	sub.w	r2,r2

00ffc868 <.L26>:
/home/kozos.c:153
    if (!thp->init.func) /* 見つかった */
  ffc868:	01 00 78 00 	mov.l	@(0xffd978:32,er0),er3
  ffc86c:	6b 23 00 ff 
  ffc870:	d9 78 
  ffc872:	58 70 00 7e 	beq	.+126 (0xffc8f4)

00ffc876 <.LM55>:
/home/kozos.c:151 (discriminator 2)
  for (i = 0; i < THREAD_NUM; i++) {
  ffc876:	0b 02       	adds	#1,er2
  ffc878:	7a 10 00 00 	add.l	#0x40,er0
  ffc87c:	00 40 
  ffc87e:	79 22 00 06 	cmp.w	#0x6,r2
  ffc882:	46 e4       	bne	.-28 (0xffc868)

00ffc884 <.LM56>:
/home/kozos.c:157
    return -1;
  ffc884:	1a c4       	sub.l	er4,er4
  ffc886:	1b 04       	subs	#1,er4
  ffc888:	58 00 01 2a 	bra	.+298 (0xffc9b6)

00ffc88c <.L31>:
/home/kozos.c:185 (discriminator 2)
  *(--sp) = (uint32)thread_init | ((uint32)(priority ? 0 : 0xc0) << 24);
  ffc88c:	79 4a c0 00 	or.w	#0xc000,e2

00ffc890 <.L28>:
/home/kozos.c:185 (discriminator 4)
  ffc890:	01 00 6f d2 	mov.l	er2,@(0xfff8:16,er5)
  ffc894:	ff f8 

00ffc896 <.LM59>:
/home/kozos.c:187
  *(--sp) = 0; /* ER6 */
  ffc896:	1a a2       	sub.l	er2,er2
  ffc898:	01 00 6f d2 	mov.l	er2,@(0xfff4:16,er5)
  ffc89c:	ff f4 

00ffc89e <.LM60>:
/home/kozos.c:188
  *(--sp) = 0; /* ER5 */
  ffc89e:	01 00 6f d2 	mov.l	er2,@(0xfff0:16,er5)
  ffc8a2:	ff f0 

00ffc8a4 <.LM61>:
/home/kozos.c:189
  *(--sp) = 0; /* ER4 */
  ffc8a4:	01 00 6f d2 	mov.l	er2,@(0xffec:16,er5)
  ffc8a8:	ff ec 

00ffc8aa <.LM62>:
/home/kozos.c:190
  *(--sp) = 0; /* ER3 */
  ffc8aa:	01 00 6f d2 	mov.l	er2,@(0xffe8:16,er5)
  ffc8ae:	ff e8 

00ffc8b0 <.LM63>:
/home/kozos.c:191
  *(--sp) = 0; /* ER2 */
  ffc8b0:	01 00 6f d2 	mov.l	er2,@(0xffe4:16,er5)
  ffc8b4:	ff e4 

00ffc8b6 <.LM64>:
/home/kozos.c:192
  *(--sp) = 0; /* ER1 */
  ffc8b6:	01 00 6f d2 	mov.l	er2,@(0xffe0:16,er5)
  ffc8ba:	ff e0 

00ffc8bc <.LM65>:
/home/kozos.c:195
  *(--sp) = (uint32)thp;  /* ER0 */
  ffc8bc:	01 00 6f d4 	mov.l	er4,@(0xffdc:16,er5)
  ffc8c0:	ff dc 

00ffc8c2 <.LM66>:
/home/kozos.c:198
  thp->context.sp = (uint32)sp;
  ffc8c2:	01 00 6f 62 	mov.l	@(0xfff0:16,er6),er2
  ffc8c6:	ff f0 
  ffc8c8:	fb 06       	mov.b	#0x6,r3l

00ffc8ca <.Llt4>:
  ffc8ca:	10 32       	shll.l	er2
  ffc8cc:	8b ff       	add.b	#0xff,r3l
  ffc8ce:	46 fa       	bne	.-6 (0xffc8ca)

00ffc8d0 <.LM67>:
/home/kozos.c:195
  *(--sp) = (uint32)thp;  /* ER0 */
  ffc8d0:	7a 35 00 00 	sub.l	#0x24,er5
  ffc8d4:	00 24 

00ffc8d6 <.LM68>:
/home/kozos.c:198
  thp->context.sp = (uint32)sp;
  ffc8d6:	01 00 78 a0 	mov.l	er5,@(0xffd98c:32,er2)
  ffc8da:	6b a5 00 ff 
  ffc8de:	d9 8c 

00ffc8e0 <.LM69>:
/home/kozos.c:201
  putcurrent();
  ffc8e0:	5e ff c6 e8 	jsr	@0xffc6e8:24

00ffc8e4 <.LM70>:
/home/kozos.c:204
  current = thp;
  ffc8e4:	01 00 6b a4 	mov.l	er4,@0xffdad8:32
  ffc8e8:	00 ff da d8 

00ffc8ec <.LM71>:
/home/kozos.c:205
  putcurrent();
  ffc8ec:	5e ff c6 e8 	jsr	@0xffc6e8:24

00ffc8f0 <.LM72>:
/home/kozos.c:207
  return (kz_thread_id_t)current;
  ffc8f0:	58 00 00 c2 	bra	.+194 (0xffc9b6)

00ffc8f4 <.L25>:
  ffc8f4:	17 f2       	exts.l	er2
  ffc8f6:	01 00 6f e2 	mov.l	er2,@(0xfff0:16,er6)
  ffc8fa:	ff f0 
  ffc8fc:	0f a5       	mov.l	er2,er5
  ffc8fe:	fa 06       	mov.b	#0x6,r2l

00ffc900 <.Llt5>:
  ffc900:	10 35       	shll.l	er5
  ffc902:	8a ff       	add.b	#0xff,r2l
  ffc904:	46 fa       	bne	.-6 (0xffc900)

00ffc906 <.LM73>:
/home/kozos.c:152
    thp = &threads[i];
  ffc906:	0f d4       	mov.l	er5,er4
  ffc908:	7a 14 00 ff 	add.l	#0xffd958,er4
  ffc90c:	d9 58 

00ffc90e <.LM74>:
/home/kozos.c:159
  memset(thp, 0, sizeof(*thp));
  ffc90e:	1a a2       	sub.l	er2,er2
  ffc910:	8a 40       	add.b	#0x40,r2l
  ffc912:	19 11       	sub.w	r1,r1
  ffc914:	0f c0       	mov.l	er4,er0
  ffc916:	01 00 6f e3 	mov.l	er3,@(0xffe4:16,er6)
  ffc91a:	ff e4 
  ffc91c:	5e ff c1 66 	jsr	@0xffc166:24

00ffc920 <.LM75>:
/home/kozos.c:162
  strcpy(thp->name, name);
  ffc920:	01 00 6f 61 	mov.l	@(0xffe8:16,er6),er1
  ffc924:	ff e8 
  ffc926:	0f d0       	mov.l	er5,er0
  ffc928:	7a 10 00 ff 	add.l	#0xffd95c,er0
  ffc92c:	d9 5c 
  ffc92e:	5e ff c2 18 	jsr	@0xffc218:24

00ffc932 <.LM76>:
/home/kozos.c:163
  thp->next     = NULL;
  ffc932:	01 00 6f 63 	mov.l	@(0xffe4:16,er6),er3
  ffc936:	ff e4 
  ffc938:	01 00 69 c3 	mov.l	er3,@er4

00ffc93c <.LM77>:
/home/kozos.c:164
  thp->priority = priority;
  ffc93c:	6f 62 ff f6 	mov.w	@(0xfff6:16,er6),r2
  ffc940:	6f c2 00 14 	mov.w	r2,@(0x14:16,er4)

00ffc944 <.LM78>:
/home/kozos.c:165
  thp->flags    = 0;
  ffc944:	01 00 6f c3 	mov.l	er3,@(0x1c:16,er4)
  ffc948:	00 1c 

00ffc94a <.LM79>:
/home/kozos.c:167
  thp->init.func = func;
  ffc94a:	01 00 6f 63 	mov.l	@(0xffec:16,er6),er3
  ffc94e:	ff ec 
  ffc950:	01 00 6f c3 	mov.l	er3,@(0x20:16,er4)
  ffc954:	00 20 

00ffc956 <.LM80>:
/home/kozos.c:168
  thp->init.argc = argc;
  ffc956:	6f 62 00 0e 	mov.w	@(0xe:16,er6),r2
  ffc95a:	6f c2 00 24 	mov.w	r2,@(0x24:16,er4)

00ffc95e <.LM81>:
/home/kozos.c:169
  thp->init.argv = argv;
  ffc95e:	01 00 6f 62 	mov.l	@(0x10:16,er6),er2
  ffc962:	00 10 
  ffc964:	01 00 6f c2 	mov.l	er2,@(0x28:16,er4)
  ffc968:	00 28 

00ffc96a <.LM82>:
/home/kozos.c:172
  memset(thread_stack, 0, stacksize);
  ffc96a:	6f 65 00 0a 	mov.w	@(0xa:16,er6),r5
  ffc96e:	17 f5       	exts.l	er5
  ffc970:	0f d2       	mov.l	er5,er2
  ffc972:	19 11       	sub.w	r1,r1
  ffc974:	01 00 6b 20 	mov.l	@0xffd908:32,er0
  ffc978:	00 ff d9 08 
  ffc97c:	5e ff c1 66 	jsr	@0xffc166:24

00ffc980 <.LM83>:
/home/kozos.c:173
  thread_stack += stacksize;
  ffc980:	01 00 6b 22 	mov.l	@0xffd908:32,er2
  ffc984:	00 ff d9 08 
  ffc988:	0a a5       	add.l	er2,er5
  ffc98a:	01 00 6b a5 	mov.l	er5,@0xffd908:32
  ffc98e:	00 ff d9 08 

00ffc992 <.LM84>:
/home/kozos.c:175
  thp->stack = thread_stack; /* スタックを設定 */
  ffc992:	01 00 6f c5 	mov.l	er5,@(0x18:16,er4)
  ffc996:	00 18 

00ffc998 <.LM85>:
/home/kozos.c:179
  *(--sp) = (uint32)thread_end;
  ffc998:	7a 02 00 ff 	mov.l	#0xffc9cc,er2
  ffc99c:	c9 cc 
  ffc99e:	01 00 6f d2 	mov.l	er2,@(0xfffc:16,er5)
  ffc9a2:	ff fc 
  ffc9a4:	7a 02 00 ff 	mov.l	#0xffc9dc,er2
  ffc9a8:	c9 dc 

00ffc9aa <.LM86>:
/home/kozos.c:185
  *(--sp) = (uint32)thread_init | ((uint32)(priority ? 0 : 0xc0) << 24);
  ffc9aa:	6f 63 ff f6 	mov.w	@(0xfff6:16,er6),r3
  ffc9ae:	58 60 fe de 	bne	.-290 (0xffc890)
  ffc9b2:	58 00 fe d6 	bra	.-298 (0xffc88c)

00ffc9b6 <.L24>:
/home/kozos.c:208
}
  ffc9b6:	0f c0       	mov.l	er4,er0
  ffc9b8:	7a 17 00 00 	add.l	#0x14,er7
  ffc9bc:	00 14 
  ffc9be:	01 00 6d 75 	mov.l	@er7+,er5
  ffc9c2:	01 00 6d 74 	mov.l	@er7+,er4
  ffc9c6:	01 00 6d 76 	mov.l	@er7+,er6
  ffc9ca:	54 70       	rts	

00ffc9cc <_thread_end>:
thread_end():
/home/kozos.c:128
{
  ffc9cc:	01 00 6d f6 	mov.l	er6,@-er7
  ffc9d0:	0f f6       	mov.l	er7,er6

00ffc9d2 <.LM89>:
/home/kozos.c:129
  kz_exit();
  ffc9d2:	5e ff ce 9c 	jsr	@0xffce9c:24

00ffc9d6 <.LM90>:
/home/kozos.c:130
}
  ffc9d6:	01 00 6d 76 	mov.l	@er7+,er6
  ffc9da:	54 70       	rts	

00ffc9dc <_thread_init>:
thread_init():
/home/kozos.c:134
{
  ffc9dc:	01 00 6d f6 	mov.l	er6,@-er7
  ffc9e0:	0f f6       	mov.l	er7,er6

00ffc9e2 <.LM92>:
/home/kozos.c:136
  thp->init.func(thp->init.argc, thp->init.argv);
  ffc9e2:	01 00 6f 02 	mov.l	@(0x20:16,er0),er2
  ffc9e6:	00 20 
  ffc9e8:	01 00 6f 01 	mov.l	@(0x28:16,er0),er1
  ffc9ec:	00 28 
  ffc9ee:	6f 00 00 24 	mov.w	@(0x24:16,er0),r0
  ffc9f2:	5d 20       	jsr	@er2

00ffc9f4 <.LBB14>:
thread_end():
/home/kozos.c:129
  kz_exit();
  ffc9f4:	5e ff ce 9c 	jsr	@0xffce9c:24

00ffc9f8 <.LM94>:
thread_init():
/home/kozos.c:138
}
  ffc9f8:	01 00 6d 76 	mov.l	@er7+,er6
  ffc9fc:	54 70       	rts	

00ffc9fe <_kz_start>:
kz_start():
/home/kozos.c:532
  /* ここには返ってこない */
}

void kz_start(kz_func_t func, char *name, int priority, int stacksize,
	      int argc, char *argv[])
{
  ffc9fe:	01 00 6d f6 	mov.l	er6,@-er7
  ffca02:	0f f6       	mov.l	er7,er6
  ffca04:	01 00 6d f4 	mov.l	er4,@-er7
  ffca08:	01 00 6d f5 	mov.l	er5,@-er7
  ffca0c:	1b 97       	subs	#4,er7
  ffca0e:	0f 84       	mov.l	er0,er4
  ffca10:	0f 95       	mov.l	er1,er5
  ffca12:	0d 23       	mov.w	r2,r3

00ffca14 <.LM96>:
/home/kozos.c:533
  kzmem_init(); /* 動的メモリの初期化 */
  ffca14:	01 00 6f e3 	mov.l	er3,@(0xfff4:16,er6)
  ffca18:	ff f4 
  ffca1a:	5e ff d1 7c 	jsr	@0xffd17c:24

00ffca1e <.LM97>:
/home/kozos.c:539

  /*
   * 以降で呼び出すスレッド関連のライブラリ関数の内部で current を
   * 見ている場合があるので，current を NULL に初期化しておく．
   */
  current = NULL;
  ffca1e:	1a a2       	sub.l	er2,er2
  ffca20:	01 00 6b a2 	mov.l	er2,@0xffdad8:32
  ffca24:	00 ff da d8 

00ffca28 <.LM98>:
/home/kozos.c:541

  memset(readyque, 0, sizeof(readyque));
  ffca28:	1a a2       	sub.l	er2,er2
  ffca2a:	8a 80       	add.b	#0x80,r2l
  ffca2c:	19 11       	sub.w	r1,r1
  ffca2e:	7a 00 00 ff 	mov.l	#0xffdadc,er0
  ffca32:	da dc 
  ffca34:	5e ff c1 66 	jsr	@0xffc166:24

00ffca38 <.LM99>:
/home/kozos.c:542
  memset(threads,  0, sizeof(threads));
  ffca38:	7a 02 00 00 	mov.l	#0x180,er2
  ffca3c:	01 80 
  ffca3e:	19 11       	sub.w	r1,r1
  ffca40:	7a 00 00 ff 	mov.l	#0xffd958,er0
  ffca44:	d9 58 
  ffca46:	5e ff c1 66 	jsr	@0xffc166:24

00ffca4a <.LM100>:
/home/kozos.c:543
  memset(handlers, 0, sizeof(handlers));
  ffca4a:	1a a2       	sub.l	er2,er2
  ffca4c:	8a 10       	add.b	#0x10,r2l
  ffca4e:	19 11       	sub.w	r1,r1
  ffca50:	7a 00 00 ff 	mov.l	#0xffd948,er0
  ffca54:	d9 48 
  ffca56:	5e ff c1 66 	jsr	@0xffc166:24

00ffca5a <.LM101>:
/home/kozos.c:544
  memset(msgboxes, 0, sizeof(msgboxes));
  ffca5a:	1a a2       	sub.l	er2,er2
  ffca5c:	8a 20       	add.b	#0x20,r2l
  ffca5e:	19 11       	sub.w	r1,r1
  ffca60:	7a 00 00 ff 	mov.l	#0xffd928,er0
  ffca64:	d9 28 
  ffca66:	5e ff c1 66 	jsr	@0xffc166:24

00ffca6a <.LBB20>:
thread_setintr():
/home/kozos.c:383
  softvec_setintr(type, thread_intr);
  ffca6a:	7a 01 00 ff 	mov.l	#0xffcdac,er1
  ffca6e:	cd ac 
  ffca70:	79 00 00 01 	mov.w	#0x1,r0
  ffca74:	5e ff c1 26 	jsr	@0xffc126:24

00ffca78 <.LM103>:
/home/kozos.c:385
  handlers[type] = handler; /* OS側から呼び出す割込みハンドラを登録 */
  ffca78:	7a 02 00 ff 	mov.l	#0xffcd72,er2
  ffca7c:	cd 72 
  ffca7e:	01 00 6b a2 	mov.l	er2,@0xffd94c:32
  ffca82:	00 ff d9 4c 

00ffca86 <.LM104>:
/home/kozos.c:386
  putcurrent();
  ffca86:	5e ff c6 e8 	jsr	@0xffc6e8:24

00ffca8a <.LBB22>:
/home/kozos.c:383
  softvec_setintr(type, thread_intr);
  ffca8a:	7a 01 00 ff 	mov.l	#0xffcdac,er1
  ffca8e:	cd ac 
  ffca90:	19 00       	sub.w	r0,r0
  ffca92:	5e ff c1 26 	jsr	@0xffc126:24

00ffca96 <.LM106>:
/home/kozos.c:385
  handlers[type] = handler; /* OS側から呼び出す割込みハンドラを登録 */
  ffca96:	7a 02 00 ff 	mov.l	#0xffc7a0,er2
  ffca9a:	c7 a0 
  ffca9c:	01 00 6b a2 	mov.l	er2,@0xffd948:32
  ffcaa0:	00 ff d9 48 

00ffcaa4 <.LM107>:
/home/kozos.c:386
  putcurrent();
  ffcaa4:	5e ff c6 e8 	jsr	@0xffc6e8:24

00ffcaa8 <.LM108>:
kz_start():
/home/kozos.c:551
  /* 割込みハンドラの登録 */
  thread_setintr(SOFTVEC_TYPE_SYSCALL, syscall_intr); /* システム・コール */
  thread_setintr(SOFTVEC_TYPE_SOFTERR, softerr_intr); /* ダウン要因発生 */

  /* システム・コール発行不可なので直接関数を呼び出してスレッド作成する */
  current = (kz_thread *)thread_run(func, name, priority, stacksize,
  ffcaa8:	01 00 6f 62 	mov.l	@(0x10:16,er6),er2
  ffcaac:	00 10 
  ffcaae:	01 00 6d f2 	mov.l	er2,@-er7
  ffcab2:	1b 97       	subs	#4,er7
  ffcab4:	1b 97       	subs	#4,er7
  ffcab6:	6f 62 00 0e 	mov.w	@(0xe:16,er6),r2
  ffcaba:	6f f2 00 06 	mov.w	r2,@(0x6:16,er7)
  ffcabe:	6f 62 00 0a 	mov.w	@(0xa:16,er6),r2
  ffcac2:	6f f2 00 02 	mov.w	r2,@(0x2:16,er7)
  ffcac6:	01 00 6f 63 	mov.l	@(0xfff4:16,er6),er3
  ffcaca:	ff f4 
  ffcacc:	0d 32       	mov.w	r3,r2
  ffcace:	0f d1       	mov.l	er5,er1
  ffcad0:	0f c0       	mov.l	er4,er0
  ffcad2:	5e ff c8 40 	jsr	@0xffc840:24

00ffcad6 <.LVL54>:
  ffcad6:	01 00 6b a0 	mov.l	er0,@0xffdad8:32
  ffcada:	00 ff da d8 

00ffcade <.LM109>:
/home/kozos.c:555
				    argc, argv);

  /* 最初のスレッドを起動 */
  dispatch(&current->context);
  ffcade:	7a 10 00 00 	add.l	#0x34,er0
  ffcae2:	00 34 
  ffcae4:	5e ff c0 2c 	jsr	@0xffc02c:24

00ffcae8 <.LM110>:
/home/kozos.c:558

  /* ここには返ってこない */
}
  ffcae8:	7a 17 00 00 	add.l	#0x10,er7
  ffcaec:	00 10 
  ffcaee:	01 00 6d 75 	mov.l	@er7+,er5
  ffcaf2:	01 00 6d 74 	mov.l	@er7+,er4
  ffcaf6:	01 00 6d 76 	mov.l	@er7+,er6
  ffcafa:	54 70       	rts	

00ffcafc <_kz_sysdown>:
kz_sysdown():
/home/kozos.c:561

void kz_sysdown(void)
{
  ffcafc:	01 00 6d f6 	mov.l	er6,@-er7
  ffcb00:	0f f6       	mov.l	er7,er6

00ffcb02 <.LM112>:
/home/kozos.c:562
  puts("system error!\n");
  ffcb02:	7a 00 00 ff 	mov.l	#0xffd88f,er0
  ffcb06:	d8 8f 
  ffcb08:	5e ff c3 14 	jsr	@0xffc314:24

00ffcb0c <.L36>:
  ffcb0c:	40 fe       	bra	.-2 (0xffcb0c)

00ffcb0e <_call_functions>:
call_functions():
/home/kozos.c:392
{
  ffcb0e:	01 00 6d f6 	mov.l	er6,@-er7
  ffcb12:	0f f6       	mov.l	er7,er6
  ffcb14:	01 00 6d f4 	mov.l	er4,@-er7
  ffcb18:	01 00 6d f5 	mov.l	er5,@-er7
  ffcb1c:	7a 37 00 00 	sub.l	#0xc,er7
  ffcb20:	00 0c 
  ffcb22:	0f 94       	mov.l	er1,er4

00ffcb24 <.LM114>:
/home/kozos.c:394
  switch (type) {
  ffcb24:	79 20 00 0b 	cmp.w	#0xb,r0
  ffcb28:	58 20 02 32 	bhi	.+562 (0xffcd5e)
  ffcb2c:	17 70       	extu.l	er0
  ffcb2e:	10 30       	shll.l	er0
  ffcb30:	10 30       	shll.l	er0
  ffcb32:	01 00 78 00 	mov.l	@(0xffd814:32,er0),er2
  ffcb36:	6b 22 00 ff 
  ffcb3a:	d8 14 
  ffcb3c:	59 20       	jmp	@er2

00ffcb3e <.L39>:
/home/kozos.c:396
    p->un.run.ret = thread_run(p->un.run.func, p->un.run.name,
  ffcb3e:	01 00 6f 12 	mov.l	@(0x10:16,er1),er2
  ffcb42:	00 10 
  ffcb44:	01 00 6d f2 	mov.l	er2,@-er7
  ffcb48:	1b 97       	subs	#4,er7
  ffcb4a:	1b 97       	subs	#4,er7
  ffcb4c:	6f 12 00 0c 	mov.w	@(0xc:16,er1),r2
  ffcb50:	6f f2 00 06 	mov.w	r2,@(0x6:16,er7)
  ffcb54:	6f 12 00 0a 	mov.w	@(0xa:16,er1),r2
  ffcb58:	6f f2 00 02 	mov.w	r2,@(0x2:16,er7)
  ffcb5c:	6f 12 00 08 	mov.w	@(0x8:16,er1),r2
  ffcb60:	01 00 6f 11 	mov.l	@(0x4:16,er1),er1
  ffcb64:	00 04 
  ffcb66:	01 00 69 40 	mov.l	@er4,er0
  ffcb6a:	5e ff c8 40 	jsr	@0xffc840:24

00ffcb6e <.LVL62>:
  ffcb6e:	01 00 6f c0 	mov.l	er0,@(0x14:16,er4)
  ffcb72:	00 14 

00ffcb74 <.LM116>:
/home/kozos.c:399
    break;
  ffcb74:	7a 17 00 00 	add.l	#0xc,er7
  ffcb78:	00 0c 
  ffcb7a:	58 00 01 e0 	bra	.+480 (0xffcd5e)

00ffcb7e <.L41>:
/home/kozos.c:402
    thread_exit();
  ffcb7e:	5e ff c7 68 	jsr	@0xffc768:24

00ffcb82 <.LM118>:
/home/kozos.c:403
    break;
  ffcb82:	58 00 01 d8 	bra	.+472 (0xffcd5e)

00ffcb86 <.L42>:
thread_wait():
/home/kozos.c:226
  putcurrent();
  ffcb86:	5e ff c6 e8 	jsr	@0xffc6e8:24

00ffcb8a <.L43>:
call_functions():
/home/kozos.c:408
    p->un.sleep.ret = thread_sleep();
  ffcb8a:	19 22       	sub.w	r2,r2
  ffcb8c:	69 c2       	mov.w	r2,@er4

00ffcb8e <.LM121>:
/home/kozos.c:409
    break;
  ffcb8e:	58 00 01 cc 	bra	.+460 (0xffcd5e)

00ffcb92 <.L44>:
/home/kozos.c:411
    p->un.wakeup.ret = thread_wakeup(p->un.wakeup.id);
  ffcb92:	01 00 69 15 	mov.l	@er1,er5

00ffcb96 <.LBB46>:
thread_wakeup():
/home/kozos.c:240
  putcurrent();
  ffcb96:	5e ff c6 e8 	jsr	@0xffc6e8:24

00ffcb9a <.LM124>:
/home/kozos.c:243
  current = (kz_thread *)id;
  ffcb9a:	01 00 6b a5 	mov.l	er5,@0xffdad8:32
  ffcb9e:	00 ff da d8 
  ffcba2:	40 54       	bra	.+84 (0xffcbf8)

00ffcba4 <.L45>:
thread_getid():
/home/kozos.c:252
  putcurrent();
  ffcba4:	5e ff c6 e8 	jsr	@0xffc6e8:24

00ffcba8 <.LM126>:
call_functions():
/home/kozos.c:414
    p->un.getid.ret = thread_getid();
  ffcba8:	01 00 6b 22 	mov.l	@0xffdad8:32,er2
  ffcbac:	00 ff da d8 
  ffcbb0:	01 00 69 c2 	mov.l	er2,@er4

00ffcbb4 <.LM127>:
/home/kozos.c:415
    break;
  ffcbb4:	58 00 01 a6 	bra	.+422 (0xffcd5e)

00ffcbb8 <.L46>:
/home/kozos.c:417
    p->un.chpri.ret = thread_chpri(p->un.chpri.priority);
  ffcbb8:	69 13       	mov.w	@er1,r3

00ffcbba <.LBB50>:
thread_chpri():
/home/kozos.c:259
  int old = current->priority;
  ffcbba:	01 00 6b 22 	mov.l	@0xffdad8:32,er2
  ffcbbe:	00 ff da d8 
  ffcbc2:	6f 25 00 14 	mov.w	@(0x14:16,er2),r5

00ffcbc6 <.LM130>:
/home/kozos.c:260
  if (priority >= 0)
  ffcbc6:	0d 33       	mov.w	r3,r3
  ffcbc8:	4d 04       	blt	.+4 (0xffcbce)

00ffcbca <.LM131>:
/home/kozos.c:261
    current->priority = priority; /* 優先度変更 */
  ffcbca:	6f a3 00 14 	mov.w	r3,@(0x14:16,er2)

00ffcbce <.L52>:
/home/kozos.c:262
  putcurrent(); /* 新しい優先度のレディー・キューに繋ぎ直す */
  ffcbce:	5e ff c6 e8 	jsr	@0xffc6e8:24

00ffcbd2 <.LM133>:
call_functions():
/home/kozos.c:417
    p->un.chpri.ret = thread_chpri(p->un.chpri.priority);
  ffcbd2:	6f c5 00 02 	mov.w	r5,@(0x2:16,er4)

00ffcbd6 <.LM134>:
/home/kozos.c:418
    break;
  ffcbd6:	58 00 01 84 	bra	.+388 (0xffcd5e)

00ffcbda <.L47>:
/home/kozos.c:420
    p->un.kmalloc.ret = thread_kmalloc(p->un.kmalloc.size);
  ffcbda:	69 15       	mov.w	@er1,r5

00ffcbdc <.LBB52>:
thread_kmalloc():
/home/kozos.c:269
  putcurrent();
  ffcbdc:	5e ff c6 e8 	jsr	@0xffc6e8:24

00ffcbe0 <.LM137>:
/home/kozos.c:270
  return kzmem_alloc(size);
  ffcbe0:	0d 50       	mov.w	r5,r0
  ffcbe2:	5e ff d2 24 	jsr	@0xffd224:24

00ffcbe6 <.LM138>:
call_functions():
/home/kozos.c:420
    p->un.kmalloc.ret = thread_kmalloc(p->un.kmalloc.size);
  ffcbe6:	01 00 6f c0 	mov.l	er0,@(0x4:16,er4)
  ffcbea:	00 04 

00ffcbec <.LM139>:
/home/kozos.c:421
    break;
  ffcbec:	58 00 01 6e 	bra	.+366 (0xffcd5e)

00ffcbf0 <.L48>:
thread_kmfree():
/home/kozos.c:276
  kzmem_free(p);
  ffcbf0:	01 00 69 10 	mov.l	@er1,er0
  ffcbf4:	5e ff d2 a0 	jsr	@0xffd2a0:24

00ffcbf8 <.L64>:
/home/kozos.c:277
  putcurrent();
  ffcbf8:	5e ff c6 e8 	jsr	@0xffc6e8:24

00ffcbfc <.LM142>:
call_functions():
/home/kozos.c:423
    p->un.kmfree.ret = thread_kmfree(p->un.kmfree.p);
  ffcbfc:	19 22       	sub.w	r2,r2
  ffcbfe:	6f c2 00 04 	mov.w	r2,@(0x4:16,er4)

00ffcc02 <.LM143>:
/home/kozos.c:424
    break;
  ffcc02:	58 00 01 58 	bra	.+344 (0xffcd5e)

00ffcc06 <.L49>:
/home/kozos.c:426
    p->un.send.ret = thread_send(p->un.send.id,
  ffcc06:	01 00 6f 12 	mov.l	@(0x4:16,er1),er2
  ffcc0a:	00 04 
  ffcc0c:	6f 13 00 02 	mov.w	@(0x2:16,er1),r3
  ffcc10:	6f e3 ff f6 	mov.w	r3,@(0xfff6:16,er6)
  ffcc14:	69 15       	mov.w	@er1,r5

00ffcc16 <.LBB56>:
thread_send():
/home/kozos.c:337
  putcurrent();
  ffcc16:	01 00 6f e2 	mov.l	er2,@(0xfff0:16,er6)
  ffcc1a:	ff f0 
  ffcc1c:	5e ff c6 e8 	jsr	@0xffc6e8:24

00ffcc20 <.LM146>:
/home/kozos.c:338
  sendmsg(mboxp, current, size, p); /* メッセージの送信処理 */
  ffcc20:	01 00 6b 23 	mov.l	@0xffdad8:32,er3
  ffcc24:	00 ff da d8 

00ffcc28 <.LBB58>:
sendmsg():
/home/kozos.c:287
  mp = (kz_msgbuf *)kzmem_alloc(sizeof(*mp));
  ffcc28:	79 00 00 10 	mov.w	#0x10,r0
  ffcc2c:	01 00 6f e3 	mov.l	er3,@(0xffec:16,er6)
  ffcc30:	ff ec 
  ffcc32:	5e ff d2 24 	jsr	@0xffd224:24

00ffcc36 <.LM148>:
/home/kozos.c:288
  if (mp == NULL)
  ffcc36:	01 00 6f 62 	mov.l	@(0xfff0:16,er6),er2
  ffcc3a:	ff f0 
  ffcc3c:	01 00 6f 63 	mov.l	@(0xffec:16,er6),er3
  ffcc40:	ff ec 
  ffcc42:	0f 80       	mov.l	er0,er0
  ffcc44:	46 04       	bne	.+4 (0xffcc4a)

00ffcc46 <.L57>:
/home/kozos.c:289
    kz_sysdown();
  ffcc46:	5e ff ca fc 	jsr	@0xffcafc:24

00ffcc4a <.L53>:
/home/kozos.c:290
  mp->next       = NULL;
  ffcc4a:	1a 91       	sub.l	er1,er1
  ffcc4c:	01 00 69 81 	mov.l	er1,@er0

00ffcc50 <.LM151>:
/home/kozos.c:291
  mp->sender     = thp;
  ffcc50:	01 00 6f 83 	mov.l	er3,@(0x4:16,er0)
  ffcc54:	00 04 

00ffcc56 <.LM152>:
/home/kozos.c:292
  mp->param.size = size;
  ffcc56:	6f 63 ff f6 	mov.w	@(0xfff6:16,er6),r3
  ffcc5a:	6f 83 00 08 	mov.w	r3,@(0x8:16,er0)

00ffcc5e <.LM153>:
/home/kozos.c:293
  mp->param.p    = p;
  ffcc5e:	01 00 6f 82 	mov.l	er2,@(0xc:16,er0)
  ffcc62:	00 0c 

00ffcc64 <.LM154>:
/home/kozos.c:296
  if (mboxp->tail) {
  ffcc64:	7a 03 00 ff 	mov.l	#0xffd928,er3
  ffcc68:	d9 28 
  ffcc6a:	0d 52       	mov.w	r5,r2
  ffcc6c:	17 72       	extu.l	er2
  ffcc6e:	0f a1       	mov.l	er2,er1
  ffcc70:	10 31       	shll.l	er1
  ffcc72:	10 31       	shll.l	er1
  ffcc74:	10 31       	shll.l	er1
  ffcc76:	10 31       	shll.l	er1
  ffcc78:	0a b1       	add.l	er3,er1
  ffcc7a:	01 00 6f 15 	mov.l	@(0x8:16,er1),er5
  ffcc7e:	00 08 
  ffcc80:	47 06       	beq	.+6 (0xffcc88)

00ffcc82 <.LM155>:
/home/kozos.c:297
    mboxp->tail->next = mp;
  ffcc82:	01 00 69 d0 	mov.l	er0,@er5
  ffcc86:	40 06       	bra	.+6 (0xffcc8e)

00ffcc88 <.L54>:
/home/kozos.c:299
    mboxp->head = mp;
  ffcc88:	01 00 6f 90 	mov.l	er0,@(0x4:16,er1)
  ffcc8c:	00 04 

00ffcc8e <.L55>:
/home/kozos.c:301
  mboxp->tail = mp;
  ffcc8e:	10 32       	shll.l	er2
  ffcc90:	10 32       	shll.l	er2
  ffcc92:	10 32       	shll.l	er2
  ffcc94:	10 32       	shll.l	er2
  ffcc96:	0a a3       	add.l	er2,er3
  ffcc98:	01 00 6f b0 	mov.l	er0,@(0x8:16,er3)
  ffcc9c:	00 08 

00ffcc9e <.LM158>:
thread_send():
/home/kozos.c:341
  if (mboxp->receiver) {
  ffcc9e:	01 00 69 33 	mov.l	@er3,er3
  ffcca2:	47 18       	beq	.+24 (0xffccbc)

00ffcca4 <.LM159>:
/home/kozos.c:342
    current = mboxp->receiver; /* 受信待ちスレッド */
  ffcca4:	01 00 6b a3 	mov.l	er3,@0xffdad8:32
  ffcca8:	00 ff da d8 

00ffccac <.LM160>:
/home/kozos.c:343
    recvmsg(mboxp); /* メッセージの受信処理 */
  ffccac:	0f a0       	mov.l	er2,er0
  ffccae:	7a 10 00 ff 	add.l	#0xffd928,er0
  ffccb2:	d9 28 
  ffccb4:	5e ff c7 cc 	jsr	@0xffc7cc:24

00ffccb8 <.LM161>:
/home/kozos.c:344
    putcurrent(); /* 受信により動作可能になったので，ブロック解除する */
  ffccb8:	5e ff c6 e8 	jsr	@0xffc6e8:24

00ffccbc <.L56>:
call_functions():
/home/kozos.c:426
    p->un.send.ret = thread_send(p->un.send.id,
  ffccbc:	6f 62 ff f6 	mov.w	@(0xfff6:16,er6),r2
  ffccc0:	58 00 00 96 	bra	.+150 (0xffcd5a)

00ffccc4 <.L50>:
/home/kozos.c:430
    p->un.recv.ret = thread_recv(p->un.recv.id,
  ffccc4:	69 10       	mov.w	@er1,r0

00ffccc6 <.LBB60>:
thread_recv():
/home/kozos.c:355
  if (mboxp->receiver) /* 他のスレッドがすでに受信待ちしている */
  ffccc6:	17 70       	extu.l	er0
  ffccc8:	10 30       	shll.l	er0
  ffccca:	10 30       	shll.l	er0
  ffcccc:	10 30       	shll.l	er0
  ffccce:	10 30       	shll.l	er0
  ffccd0:	0f 82       	mov.l	er0,er2
  ffccd2:	7a 12 00 ff 	add.l	#0xffd928,er2
  ffccd6:	d9 28 
  ffccd8:	01 00 69 23 	mov.l	@er2,er3
  ffccdc:	58 60 ff 66 	bne	.-154 (0xffcc46)

00ffcce0 <.LM165>:
/home/kozos.c:358
  mboxp->receiver = current; /* 受信待ちスレッドに設定 */
  ffcce0:	01 00 6b 23 	mov.l	@0xffdad8:32,er3
  ffcce4:	00 ff da d8 
  ffcce8:	01 00 69 a3 	mov.l	er3,@er2

00ffccec <.LM166>:
/home/kozos.c:360
  if (mboxp->head == NULL) {
  ffccec:	01 00 6f 22 	mov.l	@(0x4:16,er2),er2
  ffccf0:	00 04 
  ffccf2:	47 24       	beq	.+36 (0xffcd18)

00ffccf4 <.LM167>:
/home/kozos.c:368
  recvmsg(mboxp); /* メッセージの受信処理 */
  ffccf4:	7a 10 00 ff 	add.l	#0xffd928,er0
  ffccf8:	d9 28 
  ffccfa:	5e ff c7 cc 	jsr	@0xffc7cc:24

00ffccfe <.LM168>:
/home/kozos.c:369
  putcurrent(); /* メッセージを受信できたので，レディー状態にする */
  ffccfe:	5e ff c6 e8 	jsr	@0xffc6e8:24

00ffcd02 <.LM169>:
/home/kozos.c:371
  return current->syscall.param->un.recv.ret;
  ffcd02:	01 00 6b 22 	mov.l	@0xffdad8:32,er2
  ffcd06:	00 ff da d8 
  ffcd0a:	01 00 6f 22 	mov.l	@(0x30:16,er2),er2
  ffcd0e:	00 30 
  ffcd10:	01 00 6f 22 	mov.l	@(0xc:16,er2),er2
  ffcd14:	00 0c 
  ffcd16:	40 04       	bra	.+4 (0xffcd1c)

00ffcd18 <.L59>:
/home/kozos.c:365
    return -1;
  ffcd18:	1a a2       	sub.l	er2,er2
  ffcd1a:	1b 02       	subs	#1,er2

00ffcd1c <.L58>:
call_functions():
/home/kozos.c:430
    p->un.recv.ret = thread_recv(p->un.recv.id,
  ffcd1c:	01 00 6f c2 	mov.l	er2,@(0xc:16,er4)
  ffcd20:	00 0c 

00ffcd22 <.LM172>:
/home/kozos.c:432
    break;
  ffcd22:	40 3a       	bra	.+58 (0xffcd5e)

00ffcd24 <.L51>:
/home/kozos.c:434
    p->un.setintr.ret = thread_setintr(p->un.setintr.type,
  ffcd24:	01 00 6f 12 	mov.l	@(0x4:16,er1),er2
  ffcd28:	00 04 
  ffcd2a:	69 15       	mov.w	@er1,r5

00ffcd2c <.LBB62>:
thread_setintr():
/home/kozos.c:383
  softvec_setintr(type, thread_intr);
  ffcd2c:	7a 01 00 ff 	mov.l	#0xffcdac,er1
  ffcd30:	cd ac 
  ffcd32:	0d 50       	mov.w	r5,r0
  ffcd34:	01 00 6f e2 	mov.l	er2,@(0xfff0:16,er6)
  ffcd38:	ff f0 
  ffcd3a:	5e ff c1 26 	jsr	@0xffc126:24

00ffcd3e <.LM175>:
/home/kozos.c:385
  handlers[type] = handler; /* OS側から呼び出す割込みハンドラを登録 */
  ffcd3e:	17 f5       	exts.l	er5
  ffcd40:	10 35       	shll.l	er5
  ffcd42:	10 35       	shll.l	er5
  ffcd44:	01 00 6f 62 	mov.l	@(0xfff0:16,er6),er2
  ffcd48:	ff f0 
  ffcd4a:	01 00 78 d0 	mov.l	er2,@(0xffd948:32,er5)
  ffcd4e:	6b a2 00 ff 
  ffcd52:	d9 48 

00ffcd54 <.LM176>:
/home/kozos.c:386
  putcurrent();
  ffcd54:	5e ff c6 e8 	jsr	@0xffc6e8:24

00ffcd58 <.LM177>:
call_functions():
/home/kozos.c:434
    p->un.setintr.ret = thread_setintr(p->un.setintr.type,
  ffcd58:	19 22       	sub.w	r2,r2

00ffcd5a <.L63>:
  ffcd5a:	6f c2 00 08 	mov.w	r2,@(0x8:16,er4)

00ffcd5e <.L37>:
/home/kozos.c:440
}
  ffcd5e:	7a 17 00 00 	add.l	#0xc,er7
  ffcd62:	00 0c 
  ffcd64:	01 00 6d 75 	mov.l	@er7+,er5
  ffcd68:	01 00 6d 74 	mov.l	@er7+,er4
  ffcd6c:	01 00 6d 76 	mov.l	@er7+,er6
  ffcd70:	54 70       	rts	

00ffcd72 <_syscall_intr>:
syscall_intr():
/home/kozos.c:491
{
  ffcd72:	01 00 6d f6 	mov.l	er6,@-er7
  ffcd76:	0f f6       	mov.l	er7,er6
  ffcd78:	01 00 6d f4 	mov.l	er4,@-er7
  ffcd7c:	01 00 6d f5 	mov.l	er5,@-er7

00ffcd80 <.LM180>:
/home/kozos.c:492
  syscall_proc(current->syscall.type, current->syscall.param);
  ffcd80:	01 00 6b 22 	mov.l	@0xffdad8:32,er2
  ffcd84:	00 ff da d8 
  ffcd88:	01 00 6f 25 	mov.l	@(0x30:16,er2),er5
  ffcd8c:	00 30 
  ffcd8e:	6f 24 00 2c 	mov.w	@(0x2c:16,er2),r4

00ffcd92 <.LBB66>:
syscall_proc():
/home/kozos.c:451
  getcurrent();
  ffcd92:	5e ff c6 8a 	jsr	@0xffc68a:24

00ffcd96 <.LM182>:
/home/kozos.c:452
  call_functions(type, p);
  ffcd96:	0f d1       	mov.l	er5,er1
  ffcd98:	0d 40       	mov.w	r4,r0
  ffcd9a:	5e ff cb 0e 	jsr	@0xffcb0e:24

00ffcd9e <.LM183>:
syscall_intr():
/home/kozos.c:493
}
  ffcd9e:	01 00 6d 75 	mov.l	@er7+,er5
  ffcda2:	01 00 6d 74 	mov.l	@er7+,er4
  ffcda6:	01 00 6d 76 	mov.l	@er7+,er6
  ffcdaa:	54 70       	rts	

00ffcdac <_thread_intr>:
thread_intr():
/home/kozos.c:505
{
  ffcdac:	01 00 6d f6 	mov.l	er6,@-er7
  ffcdb0:	0f f6       	mov.l	er7,er6

00ffcdb2 <.LM185>:
/home/kozos.c:507
  current->context.sp = sp;
  ffcdb2:	01 00 6b 22 	mov.l	@0xffdad8:32,er2
  ffcdb6:	00 ff da d8 
  ffcdba:	01 00 6f a1 	mov.l	er1,@(0x34:16,er2)
  ffcdbe:	00 34 

00ffcdc0 <.LM186>:
/home/kozos.c:517
  if (handlers[type])
  ffcdc0:	17 f0       	exts.l	er0
  ffcdc2:	10 30       	shll.l	er0
  ffcdc4:	10 30       	shll.l	er0
  ffcdc6:	01 00 78 00 	mov.l	@(0xffd948:32,er0),er2
  ffcdca:	6b 22 00 ff 
  ffcdce:	d9 48 
  ffcdd0:	47 02       	beq	.+2 (0xffcdd4)

00ffcdd2 <.LM187>:
/home/kozos.c:518
    handlers[type]();
  ffcdd2:	5d 20       	jsr	@er2

00ffcdd4 <.L67>:
  ffcdd4:	7a 02 00 ff 	mov.l	#0xffdadc,er2
  ffcdd8:	da dc 

00ffcdda <.LM188>:
/home/kozos.c:505
{
  ffcdda:	79 03 00 10 	mov.w	#0x10,r3

00ffcdde <.L69>:
schedule():
/home/kozos.c:481
    if (readyque[i].head) /* 見つかった */
  ffcdde:	01 00 69 20 	mov.l	@er2,er0
  ffcde2:	46 0e       	bne	.+14 (0xffcdf2)
  ffcde4:	1b 03       	subs	#1,er3
  ffcde6:	0b 92       	adds	#4,er2
  ffcde8:	0b 92       	adds	#4,er2

00ffcdea <.LM190>:
/home/kozos.c:480
  for (i = 0; i < PRIORITY_NUM; i++) {
  ffcdea:	0d 33       	mov.w	r3,r3
  ffcdec:	46 f0       	bne	.-16 (0xffcdde)

00ffcdee <.LM191>:
/home/kozos.c:485
    kz_sysdown();
  ffcdee:	5e ff ca fc 	jsr	@0xffcafc:24

00ffcdf2 <.L68>:
/home/kozos.c:487
  current = readyque[i].head; /* カレント・スレッドに設定する */
  ffcdf2:	01 00 6b a0 	mov.l	er0,@0xffdad8:32
  ffcdf6:	00 ff da d8 

00ffcdfa <.LM193>:
thread_intr():
/home/kozos.c:526
  dispatch(&current->context);
  ffcdfa:	7a 10 00 00 	add.l	#0x34,er0
  ffcdfe:	00 34 
  ffce00:	5e ff c0 2c 	jsr	@0xffc02c:24

00ffce04 <.LM194>:
/home/kozos.c:528
}
  ffce04:	01 00 6d 76 	mov.l	@er7+,er6
  ffce08:	54 70       	rts	

00ffce0a <_kz_syscall>:
kz_syscall():
/home/kozos.c:569
    ;
}

/* システム・コール呼び出し用ライブラリ関数 */
void kz_syscall(kz_syscall_type_t type, kz_syscall_param_t *param)
{
  ffce0a:	01 00 6d f6 	mov.l	er6,@-er7
  ffce0e:	0f f6       	mov.l	er7,er6

00ffce10 <.LM196>:
/home/kozos.c:570
  current->syscall.type  = type;
  ffce10:	01 00 6b 22 	mov.l	@0xffdad8:32,er2
  ffce14:	00 ff da d8 
  ffce18:	6f a0 00 2c 	mov.w	r0,@(0x2c:16,er2)

00ffce1c <.LM197>:
/home/kozos.c:571
  current->syscall.param = param;
  ffce1c:	01 00 6f a1 	mov.l	er1,@(0x30:16,er2)
  ffce20:	00 30 

00ffce22 <.LM198>:
/home/kozos.c:572
  asm volatile ("trapa #0"); /* トラップ割込み発行 */
  ffce22:	57 00       	trapa	#0x0

00ffce24 <.LM199>:
/home/kozos.c:573
}
  ffce24:	01 00 6d 76 	mov.l	@er7+,er6
  ffce28:	54 70       	rts	

00ffce2a <_kz_srvcall>:
kz_srvcall():
/home/kozos.c:577

/* サービス・コール呼び出し用ライブラリ関数 */
void kz_srvcall(kz_syscall_type_t type, kz_syscall_param_t *param)
{
  ffce2a:	01 00 6d f6 	mov.l	er6,@-er7
  ffce2e:	0f f6       	mov.l	er7,er6

00ffce30 <.LBB74>:
srvcall_proc():
/home/kozos.c:467
  current = NULL;
  ffce30:	1a a2       	sub.l	er2,er2
  ffce32:	01 00 6b a2 	mov.l	er2,@0xffdad8:32
  ffce36:	00 ff da d8 

00ffce3a <.LM202>:
/home/kozos.c:468
  call_functions(type, p);
  ffce3a:	5e ff cb 0e 	jsr	@0xffcb0e:24

00ffce3e <.LM203>:
kz_srvcall():
/home/kozos.c:579
  srvcall_proc(type, param);
}
  ffce3e:	01 00 6d 76 	mov.l	@er7+,er6
  ffce42:	54 70       	rts	

00ffce44 <_kz_run>:
kz_run():
/home/syscall.c:10

/* システム・コール */

kz_thread_id_t kz_run(kz_func_t func, char *name, int priority, int stacksize,
		      int argc, char *argv[])
{
  ffce44:	01 00 6d f6 	mov.l	er6,@-er7
  ffce48:	0f f6       	mov.l	er7,er6
  ffce4a:	7a 37 00 00 	sub.l	#0x18,er7
  ffce4e:	00 18 

00ffce50 <.LM2>:
/home/syscall.c:12
  kz_syscall_param_t param;
  param.un.run.func = func;
  ffce50:	01 00 6f e0 	mov.l	er0,@(0xffe8:16,er6)
  ffce54:	ff e8 

00ffce56 <.LM3>:
/home/syscall.c:13
  param.un.run.name = name;
  ffce56:	01 00 6f e1 	mov.l	er1,@(0xffec:16,er6)
  ffce5a:	ff ec 

00ffce5c <.LM4>:
/home/syscall.c:14
  param.un.run.priority = priority;
  ffce5c:	6f e2 ff f0 	mov.w	r2,@(0xfff0:16,er6)

00ffce60 <.LM5>:
/home/syscall.c:15
  param.un.run.stacksize = stacksize;
  ffce60:	6f 62 00 0a 	mov.w	@(0xa:16,er6),r2
  ffce64:	6f e2 ff f2 	mov.w	r2,@(0xfff2:16,er6)

00ffce68 <.LM6>:
/home/syscall.c:16
  param.un.run.argc = argc;
  ffce68:	6f 62 00 0e 	mov.w	@(0xe:16,er6),r2
  ffce6c:	6f e2 ff f4 	mov.w	r2,@(0xfff4:16,er6)

00ffce70 <.LM7>:
/home/syscall.c:17
  param.un.run.argv = argv;
  ffce70:	01 00 6f 62 	mov.l	@(0x10:16,er6),er2
  ffce74:	00 10 
  ffce76:	01 00 6f e2 	mov.l	er2,@(0xfff8:16,er6)
  ffce7a:	ff f8 

00ffce7c <.LM8>:
/home/syscall.c:18
  kz_syscall(KZ_SYSCALL_TYPE_RUN, &param);
  ffce7c:	0f e1       	mov.l	er6,er1
  ffce7e:	7a 31 00 00 	sub.l	#0x18,er1
  ffce82:	00 18 
  ffce84:	19 00       	sub.w	r0,r0
  ffce86:	5e ff ce 0a 	jsr	@0xffce0a:24

00ffce8a <.LM9>:
/home/syscall.c:20
  return param.un.run.ret;
}
  ffce8a:	01 00 6f 60 	mov.l	@(0xfffc:16,er6),er0
  ffce8e:	ff fc 
  ffce90:	7a 17 00 00 	add.l	#0x18,er7
  ffce94:	00 18 
  ffce96:	01 00 6d 76 	mov.l	@er7+,er6
  ffce9a:	54 70       	rts	

00ffce9c <_kz_exit>:
kz_exit():
/home/syscall.c:23

void kz_exit(void)
{
  ffce9c:	01 00 6d f6 	mov.l	er6,@-er7
  ffcea0:	0f f6       	mov.l	er7,er6

00ffcea2 <.LM11>:
/home/syscall.c:24
  kz_syscall(KZ_SYSCALL_TYPE_EXIT, NULL);
  ffcea2:	1a 91       	sub.l	er1,er1
  ffcea4:	79 00 00 01 	mov.w	#0x1,r0
  ffcea8:	5e ff ce 0a 	jsr	@0xffce0a:24

00ffceac <.LM12>:
/home/syscall.c:25
}
  ffceac:	01 00 6d 76 	mov.l	@er7+,er6
  ffceb0:	54 70       	rts	

00ffceb2 <_kz_wait>:
kz_wait():
/home/syscall.c:28

int kz_wait(void)
{
  ffceb2:	01 00 6d f6 	mov.l	er6,@-er7
  ffceb6:	0f f6       	mov.l	er7,er6
  ffceb8:	7a 37 00 00 	sub.l	#0x18,er7
  ffcebc:	00 18 

00ffcebe <.LM14>:
/home/syscall.c:30
  kz_syscall_param_t param;
  kz_syscall(KZ_SYSCALL_TYPE_WAIT, &param);
  ffcebe:	0f e1       	mov.l	er6,er1
  ffcec0:	7a 31 00 00 	sub.l	#0x18,er1
  ffcec4:	00 18 
  ffcec6:	79 00 00 02 	mov.w	#0x2,r0
  ffceca:	5e ff ce 0a 	jsr	@0xffce0a:24

00ffcece <.LM15>:
/home/syscall.c:32
  return param.un.wait.ret;
}
  ffcece:	6f 60 ff e8 	mov.w	@(0xffe8:16,er6),r0
  ffced2:	7a 17 00 00 	add.l	#0x18,er7
  ffced6:	00 18 
  ffced8:	01 00 6d 76 	mov.l	@er7+,er6
  ffcedc:	54 70       	rts	

00ffcede <_kz_sleep>:
kz_sleep():
/home/syscall.c:35

int kz_sleep(void)
{
  ffcede:	01 00 6d f6 	mov.l	er6,@-er7
  ffcee2:	0f f6       	mov.l	er7,er6
  ffcee4:	7a 37 00 00 	sub.l	#0x18,er7
  ffcee8:	00 18 

00ffceea <.LM17>:
/home/syscall.c:37
  kz_syscall_param_t param;
  kz_syscall(KZ_SYSCALL_TYPE_SLEEP, &param);
  ffceea:	0f e1       	mov.l	er6,er1
  ffceec:	7a 31 00 00 	sub.l	#0x18,er1
  ffcef0:	00 18 
  ffcef2:	79 00 00 03 	mov.w	#0x3,r0
  ffcef6:	5e ff ce 0a 	jsr	@0xffce0a:24

00ffcefa <.LM18>:
/home/syscall.c:39
  return param.un.sleep.ret;
}
  ffcefa:	6f 60 ff e8 	mov.w	@(0xffe8:16,er6),r0
  ffcefe:	7a 17 00 00 	add.l	#0x18,er7
  ffcf02:	00 18 
  ffcf04:	01 00 6d 76 	mov.l	@er7+,er6
  ffcf08:	54 70       	rts	

00ffcf0a <_kz_wakeup>:
kz_wakeup():
/home/syscall.c:42

int kz_wakeup(kz_thread_id_t id)
{
  ffcf0a:	01 00 6d f6 	mov.l	er6,@-er7
  ffcf0e:	0f f6       	mov.l	er7,er6
  ffcf10:	7a 37 00 00 	sub.l	#0x18,er7
  ffcf14:	00 18 

00ffcf16 <.LM20>:
/home/syscall.c:44
  kz_syscall_param_t param;
  param.un.wakeup.id = id;
  ffcf16:	01 00 6f e0 	mov.l	er0,@(0xffe8:16,er6)
  ffcf1a:	ff e8 

00ffcf1c <.LM21>:
/home/syscall.c:45
  kz_syscall(KZ_SYSCALL_TYPE_WAKEUP, &param);
  ffcf1c:	0f e1       	mov.l	er6,er1
  ffcf1e:	7a 31 00 00 	sub.l	#0x18,er1
  ffcf22:	00 18 
  ffcf24:	79 00 00 04 	mov.w	#0x4,r0
  ffcf28:	5e ff ce 0a 	jsr	@0xffce0a:24

00ffcf2c <.LM22>:
/home/syscall.c:47
  return param.un.wakeup.ret;
}
  ffcf2c:	6f 60 ff ec 	mov.w	@(0xffec:16,er6),r0
  ffcf30:	7a 17 00 00 	add.l	#0x18,er7
  ffcf34:	00 18 
  ffcf36:	01 00 6d 76 	mov.l	@er7+,er6
  ffcf3a:	54 70       	rts	

00ffcf3c <_kz_getid>:
kz_getid():
/home/syscall.c:50

kz_thread_id_t kz_getid(void)
{
  ffcf3c:	01 00 6d f6 	mov.l	er6,@-er7
  ffcf40:	0f f6       	mov.l	er7,er6
  ffcf42:	7a 37 00 00 	sub.l	#0x18,er7
  ffcf46:	00 18 

00ffcf48 <.LM24>:
/home/syscall.c:52
  kz_syscall_param_t param;
  kz_syscall(KZ_SYSCALL_TYPE_GETID, &param);
  ffcf48:	0f e1       	mov.l	er6,er1
  ffcf4a:	7a 31 00 00 	sub.l	#0x18,er1
  ffcf4e:	00 18 
  ffcf50:	79 00 00 05 	mov.w	#0x5,r0
  ffcf54:	5e ff ce 0a 	jsr	@0xffce0a:24

00ffcf58 <.LM25>:
/home/syscall.c:54
  return param.un.getid.ret;
}
  ffcf58:	01 00 6f 60 	mov.l	@(0xffe8:16,er6),er0
  ffcf5c:	ff e8 
  ffcf5e:	7a 17 00 00 	add.l	#0x18,er7
  ffcf62:	00 18 
  ffcf64:	01 00 6d 76 	mov.l	@er7+,er6
  ffcf68:	54 70       	rts	

00ffcf6a <_kz_chpri>:
kz_chpri():
/home/syscall.c:57

int kz_chpri(int priority)
{
  ffcf6a:	01 00 6d f6 	mov.l	er6,@-er7
  ffcf6e:	0f f6       	mov.l	er7,er6
  ffcf70:	7a 37 00 00 	sub.l	#0x18,er7
  ffcf74:	00 18 

00ffcf76 <.LM27>:
/home/syscall.c:59
  kz_syscall_param_t param;
  param.un.chpri.priority = priority;
  ffcf76:	6f e0 ff e8 	mov.w	r0,@(0xffe8:16,er6)

00ffcf7a <.LM28>:
/home/syscall.c:60
  kz_syscall(KZ_SYSCALL_TYPE_CHPRI, &param);
  ffcf7a:	0f e1       	mov.l	er6,er1
  ffcf7c:	7a 31 00 00 	sub.l	#0x18,er1
  ffcf80:	00 18 
  ffcf82:	79 00 00 06 	mov.w	#0x6,r0
  ffcf86:	5e ff ce 0a 	jsr	@0xffce0a:24

00ffcf8a <.LM29>:
/home/syscall.c:62
  return param.un.chpri.ret;
}
  ffcf8a:	6f 60 ff ea 	mov.w	@(0xffea:16,er6),r0
  ffcf8e:	7a 17 00 00 	add.l	#0x18,er7
  ffcf92:	00 18 
  ffcf94:	01 00 6d 76 	mov.l	@er7+,er6
  ffcf98:	54 70       	rts	

00ffcf9a <_kz_kmalloc>:
kz_kmalloc():
/home/syscall.c:65

void *kz_kmalloc(int size)
{
  ffcf9a:	01 00 6d f6 	mov.l	er6,@-er7
  ffcf9e:	0f f6       	mov.l	er7,er6
  ffcfa0:	7a 37 00 00 	sub.l	#0x18,er7
  ffcfa4:	00 18 

00ffcfa6 <.LM31>:
/home/syscall.c:67
  kz_syscall_param_t param;
  param.un.kmalloc.size = size;
  ffcfa6:	6f e0 ff e8 	mov.w	r0,@(0xffe8:16,er6)

00ffcfaa <.LM32>:
/home/syscall.c:68
  kz_syscall(KZ_SYSCALL_TYPE_KMALLOC, &param);
  ffcfaa:	0f e1       	mov.l	er6,er1
  ffcfac:	7a 31 00 00 	sub.l	#0x18,er1
  ffcfb0:	00 18 
  ffcfb2:	79 00 00 07 	mov.w	#0x7,r0
  ffcfb6:	5e ff ce 0a 	jsr	@0xffce0a:24

00ffcfba <.LM33>:
/home/syscall.c:70
  return param.un.kmalloc.ret;
}
  ffcfba:	01 00 6f 60 	mov.l	@(0xffec:16,er6),er0
  ffcfbe:	ff ec 
  ffcfc0:	7a 17 00 00 	add.l	#0x18,er7
  ffcfc4:	00 18 
  ffcfc6:	01 00 6d 76 	mov.l	@er7+,er6
  ffcfca:	54 70       	rts	

00ffcfcc <_kz_kmfree>:
kz_kmfree():
/home/syscall.c:73

int kz_kmfree(void *p)
{
  ffcfcc:	01 00 6d f6 	mov.l	er6,@-er7
  ffcfd0:	0f f6       	mov.l	er7,er6
  ffcfd2:	7a 37 00 00 	sub.l	#0x18,er7
  ffcfd6:	00 18 

00ffcfd8 <.LM35>:
/home/syscall.c:75
  kz_syscall_param_t param;
  param.un.kmfree.p = p;
  ffcfd8:	01 00 6f e0 	mov.l	er0,@(0xffe8:16,er6)
  ffcfdc:	ff e8 

00ffcfde <.LM36>:
/home/syscall.c:76
  kz_syscall(KZ_SYSCALL_TYPE_KMFREE, &param);
  ffcfde:	0f e1       	mov.l	er6,er1
  ffcfe0:	7a 31 00 00 	sub.l	#0x18,er1
  ffcfe4:	00 18 
  ffcfe6:	79 00 00 08 	mov.w	#0x8,r0
  ffcfea:	5e ff ce 0a 	jsr	@0xffce0a:24

00ffcfee <.LM37>:
/home/syscall.c:78
  return param.un.kmfree.ret;
}
  ffcfee:	6f 60 ff ec 	mov.w	@(0xffec:16,er6),r0
  ffcff2:	7a 17 00 00 	add.l	#0x18,er7
  ffcff6:	00 18 
  ffcff8:	01 00 6d 76 	mov.l	@er7+,er6
  ffcffc:	54 70       	rts	

00ffcffe <_kz_send>:
kz_send():
/home/syscall.c:81

int kz_send(kz_msgbox_id_t id, int size, char *p)
{
  ffcffe:	01 00 6d f6 	mov.l	er6,@-er7
  ffd002:	0f f6       	mov.l	er7,er6
  ffd004:	7a 37 00 00 	sub.l	#0x18,er7
  ffd008:	00 18 

00ffd00a <.LM39>:
/home/syscall.c:83
  kz_syscall_param_t param;
  param.un.send.id = id;
  ffd00a:	6f e0 ff e8 	mov.w	r0,@(0xffe8:16,er6)

00ffd00e <.LM40>:
/home/syscall.c:84
  param.un.send.size = size;
  ffd00e:	6f e1 ff ea 	mov.w	r1,@(0xffea:16,er6)

00ffd012 <.LM41>:
/home/syscall.c:85
  param.un.send.p = p;
  ffd012:	01 00 6f e2 	mov.l	er2,@(0xffec:16,er6)
  ffd016:	ff ec 

00ffd018 <.LM42>:
/home/syscall.c:86
  kz_syscall(KZ_SYSCALL_TYPE_SEND, &param);
  ffd018:	0f e1       	mov.l	er6,er1
  ffd01a:	7a 31 00 00 	sub.l	#0x18,er1
  ffd01e:	00 18 
  ffd020:	79 00 00 09 	mov.w	#0x9,r0
  ffd024:	5e ff ce 0a 	jsr	@0xffce0a:24

00ffd028 <.LM43>:
/home/syscall.c:88
  return param.un.send.ret;
}
  ffd028:	6f 60 ff f0 	mov.w	@(0xfff0:16,er6),r0
  ffd02c:	7a 17 00 00 	add.l	#0x18,er7
  ffd030:	00 18 
  ffd032:	01 00 6d 76 	mov.l	@er7+,er6
  ffd036:	54 70       	rts	

00ffd038 <_kz_recv>:
kz_recv():
/home/syscall.c:91

kz_thread_id_t kz_recv(kz_msgbox_id_t id, int *sizep, char **pp)
{
  ffd038:	01 00 6d f6 	mov.l	er6,@-er7
  ffd03c:	0f f6       	mov.l	er7,er6
  ffd03e:	7a 37 00 00 	sub.l	#0x18,er7
  ffd042:	00 18 

00ffd044 <.LM45>:
/home/syscall.c:93
  kz_syscall_param_t param;
  param.un.recv.id = id;
  ffd044:	6f e0 ff e8 	mov.w	r0,@(0xffe8:16,er6)

00ffd048 <.LM46>:
/home/syscall.c:94
  param.un.recv.sizep = sizep;
  ffd048:	01 00 6f e1 	mov.l	er1,@(0xffec:16,er6)
  ffd04c:	ff ec 

00ffd04e <.LM47>:
/home/syscall.c:95
  param.un.recv.pp = pp;
  ffd04e:	01 00 6f e2 	mov.l	er2,@(0xfff0:16,er6)
  ffd052:	ff f0 

00ffd054 <.LM48>:
/home/syscall.c:96
  kz_syscall(KZ_SYSCALL_TYPE_RECV, &param);
  ffd054:	0f e1       	mov.l	er6,er1
  ffd056:	7a 31 00 00 	sub.l	#0x18,er1
  ffd05a:	00 18 
  ffd05c:	79 00 00 0a 	mov.w	#0xa,r0
  ffd060:	5e ff ce 0a 	jsr	@0xffce0a:24

00ffd064 <.LM49>:
/home/syscall.c:98
  return param.un.recv.ret;
}
  ffd064:	01 00 6f 60 	mov.l	@(0xfff4:16,er6),er0
  ffd068:	ff f4 
  ffd06a:	7a 17 00 00 	add.l	#0x18,er7
  ffd06e:	00 18 
  ffd070:	01 00 6d 76 	mov.l	@er7+,er6
  ffd074:	54 70       	rts	

00ffd076 <_kz_setintr>:
kz_setintr():
/home/syscall.c:101

int kz_setintr(softvec_type_t type, kz_handler_t handler)
{
  ffd076:	01 00 6d f6 	mov.l	er6,@-er7
  ffd07a:	0f f6       	mov.l	er7,er6
  ffd07c:	7a 37 00 00 	sub.l	#0x18,er7
  ffd080:	00 18 

00ffd082 <.LM51>:
/home/syscall.c:103
  kz_syscall_param_t param;
  param.un.setintr.type = type;
  ffd082:	6f e0 ff e8 	mov.w	r0,@(0xffe8:16,er6)

00ffd086 <.LM52>:
/home/syscall.c:104
  param.un.setintr.handler = handler;
  ffd086:	01 00 6f e1 	mov.l	er1,@(0xffec:16,er6)
  ffd08a:	ff ec 

00ffd08c <.LM53>:
/home/syscall.c:105
  kz_syscall(KZ_SYSCALL_TYPE_SETINTR, &param);
  ffd08c:	0f e1       	mov.l	er6,er1
  ffd08e:	7a 31 00 00 	sub.l	#0x18,er1
  ffd092:	00 18 
  ffd094:	79 00 00 0b 	mov.w	#0xb,r0
  ffd098:	5e ff ce 0a 	jsr	@0xffce0a:24

00ffd09c <.LM54>:
/home/syscall.c:107
  return param.un.setintr.ret;
}
  ffd09c:	6f 60 ff f0 	mov.w	@(0xfff0:16,er6),r0
  ffd0a0:	7a 17 00 00 	add.l	#0x18,er7
  ffd0a4:	00 18 
  ffd0a6:	01 00 6d 76 	mov.l	@er7+,er6
  ffd0aa:	54 70       	rts	

00ffd0ac <_kx_wakeup>:
kx_wakeup():
/home/syscall.c:112

/* サービス・コール */

int kx_wakeup(kz_thread_id_t id)
{
  ffd0ac:	01 00 6d f6 	mov.l	er6,@-er7
  ffd0b0:	0f f6       	mov.l	er7,er6
  ffd0b2:	7a 37 00 00 	sub.l	#0x18,er7
  ffd0b6:	00 18 

00ffd0b8 <.LM56>:
/home/syscall.c:114
  kz_syscall_param_t param;
  param.un.wakeup.id = id;
  ffd0b8:	01 00 6f e0 	mov.l	er0,@(0xffe8:16,er6)
  ffd0bc:	ff e8 

00ffd0be <.LM57>:
/home/syscall.c:115
  kz_srvcall(KZ_SYSCALL_TYPE_WAKEUP, &param);
  ffd0be:	0f e1       	mov.l	er6,er1
  ffd0c0:	7a 31 00 00 	sub.l	#0x18,er1
  ffd0c4:	00 18 
  ffd0c6:	79 00 00 04 	mov.w	#0x4,r0
  ffd0ca:	5e ff ce 2a 	jsr	@0xffce2a:24

00ffd0ce <.LM58>:
/home/syscall.c:117
  return param.un.wakeup.ret;
}
  ffd0ce:	6f 60 ff ec 	mov.w	@(0xffec:16,er6),r0
  ffd0d2:	7a 17 00 00 	add.l	#0x18,er7
  ffd0d6:	00 18 
  ffd0d8:	01 00 6d 76 	mov.l	@er7+,er6
  ffd0dc:	54 70       	rts	

00ffd0de <_kx_kmalloc>:
kx_kmalloc():
/home/syscall.c:120

void *kx_kmalloc(int size)
{
  ffd0de:	01 00 6d f6 	mov.l	er6,@-er7
  ffd0e2:	0f f6       	mov.l	er7,er6
  ffd0e4:	7a 37 00 00 	sub.l	#0x18,er7
  ffd0e8:	00 18 

00ffd0ea <.LM60>:
/home/syscall.c:122
  kz_syscall_param_t param;
  param.un.kmalloc.size = size;
  ffd0ea:	6f e0 ff e8 	mov.w	r0,@(0xffe8:16,er6)

00ffd0ee <.LM61>:
/home/syscall.c:123
  kz_srvcall(KZ_SYSCALL_TYPE_KMALLOC, &param);
  ffd0ee:	0f e1       	mov.l	er6,er1
  ffd0f0:	7a 31 00 00 	sub.l	#0x18,er1
  ffd0f4:	00 18 
  ffd0f6:	79 00 00 07 	mov.w	#0x7,r0
  ffd0fa:	5e ff ce 2a 	jsr	@0xffce2a:24

00ffd0fe <.LM62>:
/home/syscall.c:125
  return param.un.kmalloc.ret;
}
  ffd0fe:	01 00 6f 60 	mov.l	@(0xffec:16,er6),er0
  ffd102:	ff ec 
  ffd104:	7a 17 00 00 	add.l	#0x18,er7
  ffd108:	00 18 
  ffd10a:	01 00 6d 76 	mov.l	@er7+,er6
  ffd10e:	54 70       	rts	

00ffd110 <_kx_kmfree>:
kx_kmfree():
/home/syscall.c:128

int kx_kmfree(void *p)
{
  ffd110:	01 00 6d f6 	mov.l	er6,@-er7
  ffd114:	0f f6       	mov.l	er7,er6
  ffd116:	7a 37 00 00 	sub.l	#0x18,er7
  ffd11a:	00 18 

00ffd11c <.LM64>:
/home/syscall.c:130
  kz_syscall_param_t param;
  param.un.kmfree.p = p;
  ffd11c:	01 00 6f e0 	mov.l	er0,@(0xffe8:16,er6)
  ffd120:	ff e8 

00ffd122 <.LM65>:
/home/syscall.c:131
  kz_srvcall(KZ_SYSCALL_TYPE_KMFREE, &param);
  ffd122:	0f e1       	mov.l	er6,er1
  ffd124:	7a 31 00 00 	sub.l	#0x18,er1
  ffd128:	00 18 
  ffd12a:	79 00 00 08 	mov.w	#0x8,r0
  ffd12e:	5e ff ce 2a 	jsr	@0xffce2a:24

00ffd132 <.LM66>:
/home/syscall.c:133
  return param.un.kmfree.ret;
}
  ffd132:	6f 60 ff ec 	mov.w	@(0xffec:16,er6),r0
  ffd136:	7a 17 00 00 	add.l	#0x18,er7
  ffd13a:	00 18 
  ffd13c:	01 00 6d 76 	mov.l	@er7+,er6
  ffd140:	54 70       	rts	

00ffd142 <_kx_send>:
kx_send():
/home/syscall.c:136

int kx_send(kz_msgbox_id_t id, int size, char *p)
{
  ffd142:	01 00 6d f6 	mov.l	er6,@-er7
  ffd146:	0f f6       	mov.l	er7,er6
  ffd148:	7a 37 00 00 	sub.l	#0x18,er7
  ffd14c:	00 18 

00ffd14e <.LM68>:
/home/syscall.c:138
  kz_syscall_param_t param;
  param.un.send.id = id;
  ffd14e:	6f e0 ff e8 	mov.w	r0,@(0xffe8:16,er6)

00ffd152 <.LM69>:
/home/syscall.c:139
  param.un.send.size = size;
  ffd152:	6f e1 ff ea 	mov.w	r1,@(0xffea:16,er6)

00ffd156 <.LM70>:
/home/syscall.c:140
  param.un.send.p = p;
  ffd156:	01 00 6f e2 	mov.l	er2,@(0xffec:16,er6)
  ffd15a:	ff ec 

00ffd15c <.LM71>:
/home/syscall.c:141
  kz_srvcall(KZ_SYSCALL_TYPE_SEND, &param);
  ffd15c:	0f e1       	mov.l	er6,er1
  ffd15e:	7a 31 00 00 	sub.l	#0x18,er1
  ffd162:	00 18 
  ffd164:	79 00 00 09 	mov.w	#0x9,r0
  ffd168:	5e ff ce 2a 	jsr	@0xffce2a:24

00ffd16c <.LM72>:
/home/syscall.c:143
  return param.un.send.ret;
}
  ffd16c:	6f 60 ff f0 	mov.w	@(0xfff0:16,er6),r0
  ffd170:	7a 17 00 00 	add.l	#0x18,er7
  ffd174:	00 18 
  ffd176:	01 00 6d 76 	mov.l	@er7+,er6
  ffd17a:	54 70       	rts	

00ffd17c <_kzmem_init>:
kzmem_init():
/home/memory.c:56
  return 0;
}

/* 動的メモリの初期化 */
int kzmem_init(void)
{
  ffd17c:	01 00 6d f6 	mov.l	er6,@-er7
  ffd180:	0f f6       	mov.l	er7,er6
  ffd182:	01 00 6d f4 	mov.l	er4,@-er7
  ffd186:	01 00 6d f5 	mov.l	er5,@-er7
  ffd18a:	7a 37 00 00 	sub.l	#0x8,er7
  ffd18e:	00 08 
  ffd190:	7a 04 00 ff 	mov.l	#0xffd910,er4
  ffd194:	d9 10 
  ffd196:	7a 03 00 ff 	mov.l	#0xffd912,er3
  ffd19a:	d9 12 

00ffd19c <.LM2>:
/home/memory.c:58
  int i;
  for (i = 0; i < MEMORY_AREA_NUM; i++) {
  ffd19c:	40 6a       	bra	.+106 (0xffd208)

00ffd19e <.L5>:
kzmem_init_pool():
/home/memory.c:38 (discriminator 3)
  mp = (kzmem_block *)area;
  ffd19e:	01 00 6b 25 	mov.l	@0xffd90c:32,er5
  ffd1a2:	00 ff d9 0c 
  ffd1a6:	0f c0       	mov.l	er4,er0
  ffd1a8:	0b 90       	adds	#4,er0

00ffd1aa <.LM4>:
/home/memory.c:42
  for (i = 0; i < p->num; i++) {
  ffd1aa:	19 11       	sub.w	r1,r1
  ffd1ac:	6f e1 ff f6 	mov.w	r1,@(0xfff6:16,er6)
  ffd1b0:	40 44       	bra	.+68 (0xffd1f6)

00ffd1b2 <.L4>:
/home/memory.c:43
    *mpp = mp;
  ffd1b2:	01 00 69 85 	mov.l	er5,@er0

00ffd1b6 <.LM6>:
/home/memory.c:44
    memset(mp, 0, sizeof(*mp));
  ffd1b6:	1a a2       	sub.l	er2,er2
  ffd1b8:	8a 08       	add.b	#0x8,r2l
  ffd1ba:	19 11       	sub.w	r1,r1
  ffd1bc:	0f d0       	mov.l	er5,er0
  ffd1be:	01 00 6f e3 	mov.l	er3,@(0xfff0:16,er6)
  ffd1c2:	ff f0 
  ffd1c4:	5e ff c1 66 	jsr	@0xffc166:24

00ffd1c8 <.LM7>:
/home/memory.c:45
    mp->size = p->size;
  ffd1c8:	69 42       	mov.w	@er4,r2
  ffd1ca:	6f d2 00 04 	mov.w	r2,@(0x4:16,er5)

00ffd1ce <.LM8>:
/home/memory.c:46
    mpp = &(mp->next);
  ffd1ce:	0f d0       	mov.l	er5,er0

00ffd1d0 <.LM9>:
/home/memory.c:47
    mp = (kzmem_block *)((char *)mp + p->size);
  ffd1d0:	17 f2       	exts.l	er2
  ffd1d2:	0a a5       	add.l	er2,er5

00ffd1d4 <.LM10>:
/home/memory.c:48
    area += p->size;
  ffd1d4:	01 00 6b 21 	mov.l	@0xffd90c:32,er1
  ffd1d8:	00 ff d9 0c 
  ffd1dc:	0a 92       	add.l	er1,er2
  ffd1de:	01 00 6b a2 	mov.l	er2,@0xffd90c:32
  ffd1e2:	00 ff d9 0c 

00ffd1e6 <.LM11>:
/home/memory.c:42
  for (i = 0; i < p->num; i++) {
  ffd1e6:	6f 62 ff f6 	mov.w	@(0xfff6:16,er6),r2
  ffd1ea:	0b 02       	adds	#1,er2
  ffd1ec:	6f e2 ff f6 	mov.w	r2,@(0xfff6:16,er6)
  ffd1f0:	01 00 6f 63 	mov.l	@(0xfff0:16,er6),er3
  ffd1f4:	ff f0 

00ffd1f6 <.L3>:
  ffd1f6:	69 32       	mov.w	@er3,r2
  ffd1f8:	6f 61 ff f6 	mov.w	@(0xfff6:16,er6),r1
  ffd1fc:	1d 21       	cmp.w	r2,r1
  ffd1fe:	4d b2       	blt	.-78 (0xffd1b2)
  ffd200:	0b 94       	adds	#4,er4
  ffd202:	0b 94       	adds	#4,er4
  ffd204:	0b 93       	adds	#4,er3
  ffd206:	0b 93       	adds	#4,er3

00ffd208 <.L2>:
kzmem_init():
/home/memory.c:58 (discriminator 1)
  for (i = 0; i < MEMORY_AREA_NUM; i++) {
  ffd208:	7a 24 00 ff 	cmp.l	#0xffd928,er4
  ffd20c:	d9 28 
  ffd20e:	46 8e       	bne	.-114 (0xffd19e)

00ffd210 <.LM13>:
/home/memory.c:62
    kzmem_init_pool(&pool[i]); /* 各メモリ・プールを初期化する */
  }
  return 0;
}
  ffd210:	19 00       	sub.w	r0,r0
  ffd212:	0b 97       	adds	#4,er7
  ffd214:	0b 97       	adds	#4,er7
  ffd216:	01 00 6d 75 	mov.l	@er7+,er5
  ffd21a:	01 00 6d 74 	mov.l	@er7+,er4
  ffd21e:	01 00 6d 76 	mov.l	@er7+,er6
  ffd222:	54 70       	rts	

00ffd224 <_kzmem_alloc>:
kzmem_alloc():
/home/memory.c:66

/* 動的メモリの獲得 */
void *kzmem_alloc(int size)
{
  ffd224:	01 00 6d f6 	mov.l	er6,@-er7
  ffd228:	0f f6       	mov.l	er7,er6

00ffd22a <.LM15>:
/home/memory.c:73
  kzmem_block *mp;
  kzmem_pool *p;

  for (i = 0; i < MEMORY_AREA_NUM; i++) {
    p = &pool[i];
    if (size <= p->size - sizeof(kzmem_block)) {
  ffd22a:	17 f0       	exts.l	er0
  ffd22c:	7a 02 00 ff 	mov.l	#0xffd910,er2
  ffd230:	d9 10 
  ffd232:	69 21       	mov.w	@er2,r1
  ffd234:	17 f1       	exts.l	er1
  ffd236:	1b 91       	subs	#4,er1
  ffd238:	1b 91       	subs	#4,er1
  ffd23a:	0f a3       	mov.l	er2,er3
  ffd23c:	1f 90       	cmp.l	er1,er0
  ffd23e:	43 26       	bls	.+38 (0xffd266)
  ffd240:	6b 22 00 ff 	mov.w	@0xffd918:32,r2
  ffd244:	d9 18 
  ffd246:	17 f2       	exts.l	er2
  ffd248:	1b 92       	subs	#4,er2
  ffd24a:	1b 92       	subs	#4,er2
  ffd24c:	1f a0       	cmp.l	er2,er0
  ffd24e:	43 1a       	bls	.+26 (0xffd26a)
  ffd250:	6b 22 00 ff 	mov.w	@0xffd920:32,r2
  ffd254:	d9 20 
  ffd256:	17 f2       	exts.l	er2
  ffd258:	1b 92       	subs	#4,er2
  ffd25a:	1b 92       	subs	#4,er2
  ffd25c:	1f a0       	cmp.l	er2,er0
  ffd25e:	42 20       	bhi	.+32 (0xffd280)

00ffd260 <.LM16>:
/home/memory.c:71
  for (i = 0; i < MEMORY_AREA_NUM; i++) {
  ffd260:	79 02 00 02 	mov.w	#0x2,r2
  ffd264:	40 08       	bra	.+8 (0xffd26e)

00ffd266 <.L11>:
  ffd266:	19 22       	sub.w	r2,r2
  ffd268:	40 04       	bra	.+4 (0xffd26e)

00ffd26a <.L12>:
  ffd26a:	79 02 00 01 	mov.w	#0x1,r2

00ffd26e <.L7>:
/home/memory.c:74
      if (p->free == NULL) { /* 解放済み領域が無い(メモリ・ブロック不足) */
  ffd26e:	17 f2       	exts.l	er2
  ffd270:	10 32       	shll.l	er2
  ffd272:	10 32       	shll.l	er2
  ffd274:	10 32       	shll.l	er2
  ffd276:	0a b2       	add.l	er3,er2
  ffd278:	0b 92       	adds	#4,er2
  ffd27a:	01 00 69 20 	mov.l	@er2,er0
  ffd27e:	46 08       	bne	.+8 (0xffd288)

00ffd280 <.L8>:
/home/memory.c:75
	kz_sysdown();
  ffd280:	5e ff ca fc 	jsr	@0xffcafc:24

00ffd284 <.LM19>:
/home/memory.c:76
	return NULL;
  ffd284:	1a 80       	sub.l	er0,er0
  ffd286:	40 12       	bra	.+18 (0xffd29a)

00ffd288 <.L9>:
/home/memory.c:80
      }
      /* 解放済みリンクリストから領域を取得する */
      mp = p->free;
      p->free = p->free->next;
  ffd288:	01 00 69 03 	mov.l	@er0,er3
  ffd28c:	01 00 69 a3 	mov.l	er3,@er2

00ffd290 <.LM21>:
/home/memory.c:81
      mp->next = NULL;
  ffd290:	1a a2       	sub.l	er2,er2
  ffd292:	01 00 69 82 	mov.l	er2,@er0

00ffd296 <.LM22>:
/home/memory.c:87

      /*
       * 実際に利用可能な領域は，メモリ・ブロック構造体の直後の領域に
       * なるので，直後のアドレスを返す．
       */
      return mp + 1;
  ffd296:	0b 90       	adds	#4,er0
  ffd298:	0b 90       	adds	#4,er0

00ffd29a <.L6>:
/home/memory.c:94
  }

  /* 指定されたサイズの領域を格納できるメモリ・プールが無い */
  kz_sysdown();
  return NULL;
}
  ffd29a:	01 00 6d 76 	mov.l	@er7+,er6
  ffd29e:	54 70       	rts	

00ffd2a0 <_kzmem_free>:
kzmem_free():
/home/memory.c:98

/* メモリの解放 */
void kzmem_free(void *mem)
{
  ffd2a0:	01 00 6d f6 	mov.l	er6,@-er7
  ffd2a4:	0f f6       	mov.l	er7,er6
  ffd2a6:	01 00 6d f4 	mov.l	er4,@-er7

00ffd2aa <.LM25>:
/home/memory.c:108
  /* 領域の直前にある(はずの)メモリ・ブロック構造体を取得 */
  mp = ((kzmem_block *)mem - 1);

  for (i = 0; i < MEMORY_AREA_NUM; i++) {
    p = &pool[i];
    if (mp->size == p->size) {
  ffd2aa:	6f 03 ff fc 	mov.w	@(0xfffc:16,er0),r3
  ffd2ae:	7a 02 00 ff 	mov.l	#0xffd910,er2
  ffd2b2:	d9 10 
  ffd2b4:	69 24       	mov.w	@er2,r4
  ffd2b6:	0f a1       	mov.l	er2,er1
  ffd2b8:	1d 43       	cmp.w	r4,r3
  ffd2ba:	47 1a       	beq	.+26 (0xffd2d6)
  ffd2bc:	6b 22 00 ff 	mov.w	@0xffd918:32,r2
  ffd2c0:	d9 18 
  ffd2c2:	1d 23       	cmp.w	r2,r3
  ffd2c4:	47 14       	beq	.+20 (0xffd2da)
  ffd2c6:	6b 22 00 ff 	mov.w	@0xffd920:32,r2
  ffd2ca:	d9 20 
  ffd2cc:	1d 23       	cmp.w	r2,r3
  ffd2ce:	47 10       	beq	.+16 (0xffd2e0)

00ffd2d0 <.LM26>:
/home/memory.c:116
      p->free = mp;
      return;
    }
  }

  kz_sysdown();
  ffd2d0:	5e ff ca fc 	jsr	@0xffcafc:24

00ffd2d4 <.LVL30>:
  ffd2d4:	40 2c       	bra	.+44 (0xffd302)

00ffd2d6 <.L16>:
/home/memory.c:106
  for (i = 0; i < MEMORY_AREA_NUM; i++) {
  ffd2d6:	19 22       	sub.w	r2,r2
  ffd2d8:	40 0a       	bra	.+10 (0xffd2e4)

00ffd2da <.L17>:
  ffd2da:	79 02 00 01 	mov.w	#0x1,r2
  ffd2de:	40 04       	bra	.+4 (0xffd2e4)

00ffd2e0 <.L18>:
  ffd2e0:	79 02 00 02 	mov.w	#0x2,r2

00ffd2e4 <.L14>:
/home/memory.c:110
      mp->next = p->free;
  ffd2e4:	17 f2       	exts.l	er2
  ffd2e6:	10 32       	shll.l	er2
  ffd2e8:	10 32       	shll.l	er2
  ffd2ea:	10 32       	shll.l	er2
  ffd2ec:	0a 92       	add.l	er1,er2
  ffd2ee:	0b 92       	adds	#4,er2
  ffd2f0:	01 00 69 23 	mov.l	@er2,er3
  ffd2f4:	01 00 6f 83 	mov.l	er3,@(0xfff8:16,er0)
  ffd2f8:	ff f8 

00ffd2fa <.LM29>:
/home/memory.c:104
  mp = ((kzmem_block *)mem - 1);
  ffd2fa:	1b 90       	subs	#4,er0
  ffd2fc:	1b 90       	subs	#4,er0

00ffd2fe <.LM30>:
/home/memory.c:111
      p->free = mp;
  ffd2fe:	01 00 69 a0 	mov.l	er0,@er2

00ffd302 <.L13>:
/home/memory.c:117
}
  ffd302:	01 00 6d 74 	mov.l	@er7+,er4
  ffd306:	01 00 6d 76 	mov.l	@er7+,er6
  ffd30a:	54 70       	rts	

00ffd30c <_send_char>:
send_char():
/home/consdrv.c:32
 * 場合は排他のため割込み禁止状態で呼ぶこと．
 */

/* 送信バッファの先頭１文字を送信する */
static void send_char(struct consreg *cons)
{
  ffd30c:	01 00 6d f6 	mov.l	er6,@-er7
  ffd310:	0f f6       	mov.l	er7,er6
  ffd312:	01 00 6d f4 	mov.l	er4,@-er7
  ffd316:	0f 84       	mov.l	er0,er4

00ffd318 <.LM2>:
/home/consdrv.c:34
  int i;
  serial_send_byte(cons->index, cons->send_buf[0]);
  ffd318:	01 00 6f 02 	mov.l	@(0x8:16,er0),er2
  ffd31c:	00 08 
  ffd31e:	68 29       	mov.b	@er2,r1l
  ffd320:	6f 00 00 04 	mov.w	@(0x4:16,er0),r0
  ffd324:	5e ff c4 46 	jsr	@0xffc446:24

00ffd328 <.LM3>:
/home/consdrv.c:35
  cons->send_len--;
  ffd328:	6f 42 00 10 	mov.w	@(0x10:16,er4),r2
  ffd32c:	1b 02       	subs	#1,er2
  ffd32e:	6f c2 00 10 	mov.w	r2,@(0x10:16,er4)

00ffd332 <.LM4>:
/home/consdrv.c:37
  /* 先頭文字を送信したので，１文字ぶんずらす */
  for (i = 0; i < cons->send_len; i++)
  ffd332:	1a a2       	sub.l	er2,er2
  ffd334:	40 16       	bra	.+22 (0xffd34c)

00ffd336 <.L3>:
/home/consdrv.c:38 (discriminator 3)
    cons->send_buf[i] = cons->send_buf[i + 1];
  ffd336:	01 00 6f 43 	mov.l	@(0x8:16,er4),er3
  ffd33a:	00 08 
  ffd33c:	0f a0       	mov.l	er2,er0
  ffd33e:	0b 00       	adds	#1,er0
  ffd340:	0f b1       	mov.l	er3,er1
  ffd342:	0a 81       	add.l	er0,er1
  ffd344:	68 19       	mov.b	@er1,r1l
  ffd346:	0a b2       	add.l	er3,er2
  ffd348:	68 a9       	mov.b	r1l,@er2
  ffd34a:	0f 82       	mov.l	er0,er2

00ffd34c <.L2>:
/home/consdrv.c:37 (discriminator 1)
  for (i = 0; i < cons->send_len; i++)
  ffd34c:	6f 43 00 10 	mov.w	@(0x10:16,er4),r3
  ffd350:	1d 23       	cmp.w	r2,r3
  ffd352:	4e e2       	bgt	.-30 (0xffd336)

00ffd354 <.LM7>:
/home/consdrv.c:39
}
  ffd354:	01 00 6d 74 	mov.l	@er7+,er4
  ffd358:	01 00 6d 76 	mov.l	@er7+,er6
  ffd35c:	54 70       	rts	

00ffd35e <_send_string>:
send_string():
/home/consdrv.c:43

/* 文字列を送信バッファに書き込み送信開始する */
static void send_string(struct consreg *cons, char *str, int len)
{
  ffd35e:	01 00 6d f6 	mov.l	er6,@-er7
  ffd362:	0f f6       	mov.l	er7,er6
  ffd364:	01 00 6d f4 	mov.l	er4,@-er7
  ffd368:	01 00 6d f5 	mov.l	er5,@-er7
  ffd36c:	1b 97       	subs	#4,er7
  ffd36e:	0f 84       	mov.l	er0,er4

00ffd370 <.LM9>:
/home/consdrv.c:45
  int i;
  for (i = 0; i < len; i++) { /* 文字列を送信バッファにコピー */
  ffd370:	19 00       	sub.w	r0,r0
  ffd372:	40 40       	bra	.+64 (0xffd3b4)

00ffd374 <.L7>:
/home/consdrv.c:46
    if (str[i] == '\n') /* \n→\r\nに変換 */
  ffd374:	68 1d       	mov.b	@er1,r5l
  ffd376:	ad 0a       	cmp.b	#0xa,r5l
  ffd378:	46 16       	bne	.+22 (0xffd390)

00ffd37a <.LM11>:
/home/consdrv.c:47
      cons->send_buf[cons->send_len++] = '\r';
  ffd37a:	0d 35       	mov.w	r3,r5
  ffd37c:	0b 05       	adds	#1,er5
  ffd37e:	6f c5 00 10 	mov.w	r5,@(0x10:16,er4)
  ffd382:	17 f3       	exts.l	er3
  ffd384:	01 00 6f 45 	mov.l	@(0x8:16,er4),er5
  ffd388:	00 08 
  ffd38a:	0a d3       	add.l	er5,er3
  ffd38c:	fd 0d       	mov.b	#0xd,r5l
  ffd38e:	68 bd       	mov.b	r5l,@er3

00ffd390 <.L6>:
/home/consdrv.c:48 (discriminator 2)
    cons->send_buf[cons->send_len++] = str[i];
  ffd390:	6f 43 00 10 	mov.w	@(0x10:16,er4),r3
  ffd394:	0d 35       	mov.w	r3,r5
  ffd396:	0b 05       	adds	#1,er5
  ffd398:	6f c5 00 10 	mov.w	r5,@(0x10:16,er4)
  ffd39c:	6c 1d       	mov.b	@er1+,r5l
  ffd39e:	6e ed ff f7 	mov.b	r5l,@(0xfff7:16,er6)
  ffd3a2:	17 f3       	exts.l	er3
  ffd3a4:	01 00 6f 45 	mov.l	@(0x8:16,er4),er5
  ffd3a8:	00 08 
  ffd3aa:	0a d3       	add.l	er5,er3
  ffd3ac:	6e 6d ff f7 	mov.b	@(0xfff7:16,er6),r5l
  ffd3b0:	68 bd       	mov.b	r5l,@er3

00ffd3b2 <.LM13>:
/home/consdrv.c:45
  for (i = 0; i < len; i++) { /* 文字列を送信バッファにコピー */
  ffd3b2:	0b 00       	adds	#1,er0

00ffd3b4 <.L5>:
  ffd3b4:	6f 43 00 10 	mov.w	@(0x10:16,er4),r3

00ffd3b8 <.LM14>:
/home/consdrv.c:45 (discriminator 1)
  ffd3b8:	1d 20       	cmp.w	r2,r0
  ffd3ba:	4d b8       	blt	.-72 (0xffd374)

00ffd3bc <.LM15>:
/home/consdrv.c:55
  /*
   * 送信割込み無効ならば，送信開始されていないので送信開始する．
   * 送信割込み有効ならば送信開始されており，送信割込みの延長で
   * 送信バッファ内のデータが順次送信されるので，何もしなくてよい．
   */
  if (cons->send_len && !serial_intr_is_send_enable(cons->index)) {
  ffd3bc:	0d 33       	mov.w	r3,r3
  ffd3be:	47 1a       	beq	.+26 (0xffd3da)

00ffd3c0 <.LM16>:
/home/consdrv.c:55 (discriminator 1)
  ffd3c0:	6f 40 00 04 	mov.w	@(0x4:16,er4),r0
  ffd3c4:	5e ff c4 ce 	jsr	@0xffc4ce:24

00ffd3c8 <.LVL14>:
  ffd3c8:	0d 00       	mov.w	r0,r0
  ffd3ca:	46 0e       	bne	.+14 (0xffd3da)

00ffd3cc <.LBB4>:
/home/consdrv.c:56
    serial_intr_send_enable(cons->index); /* 送信割込み有効化 */
  ffd3cc:	6f 40 00 04 	mov.w	@(0x4:16,er4),r0
  ffd3d0:	5e ff c4 f6 	jsr	@0xffc4f6:24

00ffd3d4 <.LM18>:
/home/consdrv.c:57
    send_char(cons); /* 送信開始 */
  ffd3d4:	0f c0       	mov.l	er4,er0
  ffd3d6:	5e ff d3 0c 	jsr	@0xffd30c:24

00ffd3da <.L4>:
/home/consdrv.c:59
  }
}
  ffd3da:	0b 97       	adds	#4,er7
  ffd3dc:	01 00 6d 75 	mov.l	@er7+,er5
  ffd3e0:	01 00 6d 74 	mov.l	@er7+,er4
  ffd3e4:	01 00 6d 76 	mov.l	@er7+,er6
  ffd3e8:	54 70       	rts	

00ffd3ea <_consdrv_intr>:
consdrv_intr():
/home/consdrv.c:116
  return 0;
}

/* 割込みハンドラ */
static void consdrv_intr(void)
{
  ffd3ea:	01 00 6d f6 	mov.l	er6,@-er7
  ffd3ee:	0f f6       	mov.l	er7,er6
  ffd3f0:	01 00 6d f4 	mov.l	er4,@-er7
  ffd3f4:	01 00 6d f5 	mov.l	er5,@-er7
  ffd3f8:	1b 97       	subs	#4,er7

00ffd3fa <.LM21>:
/home/consdrv.c:122
  int i;
  struct consreg *cons;

  for (i = 0; i < CONSDRV_DEVICE_NUM; i++) {
    cons = &consreg[i];
    if (cons->id) {
  ffd3fa:	7a 04 00 ff 	mov.l	#0xffdb5c,er4
  ffd3fe:	db 5c 
  ffd400:	01 00 69 42 	mov.l	@er4,er2
  ffd404:	58 70 00 f6 	beq	.+246 (0xffd4fe)

00ffd408 <.LM22>:
/home/consdrv.c:123
      if (serial_is_send_enable(cons->index) ||
  ffd408:	6b 20 00 ff 	mov.w	@0xffdb60:32,r0
  ffd40c:	db 60 
  ffd40e:	5e ff c4 22 	jsr	@0xffc422:24

00ffd412 <.LVL20>:
  ffd412:	0d 00       	mov.w	r0,r0
  ffd414:	47 12       	beq	.+18 (0xffd428)

00ffd416 <.L17>:
consdrv_intrproc():
/home/consdrv.c:76
  if (serial_is_recv_enable(cons->index)) { /* 受信割込み */
  ffd416:	6b 20 00 ff 	mov.w	@0xffdb60:32,r0
  ffd41a:	db 60 
  ffd41c:	5e ff c4 78 	jsr	@0xffc478:24

00ffd420 <.LVL22>:
  ffd420:	0d 00       	mov.w	r0,r0
  ffd422:	58 70 00 a6 	beq	.+166 (0xffd4cc)
  ffd426:	40 12       	bra	.+18 (0xffd43a)

00ffd428 <.L14>:
consdrv_intr():
/home/consdrv.c:124 (discriminator 1)
	  serial_is_recv_enable(cons->index))
  ffd428:	6b 20 00 ff 	mov.w	@0xffdb60:32,r0
  ffd42c:	db 60 
  ffd42e:	5e ff c4 78 	jsr	@0xffc478:24

00ffd432 <.LM25>:
/home/consdrv.c:123
      if (serial_is_send_enable(cons->index) ||
  ffd432:	0d 00       	mov.w	r0,r0
  ffd434:	46 e0       	bne	.-32 (0xffd416)
  ffd436:	58 00 00 c4 	bra	.+196 (0xffd4fe)

00ffd43a <.L15>:
consdrv_intrproc():
/home/consdrv.c:77
    c = serial_recv_byte(cons->index);
  ffd43a:	6b 20 00 ff 	mov.w	@0xffdb60:32,r0
  ffd43e:	db 60 
  ffd440:	5e ff c4 9c 	jsr	@0xffc49c:24

00ffd444 <.LM27>:
/home/consdrv.c:78
    if (c == '\r') /* 改行コード変換(\r→\n) */
  ffd444:	a8 0d       	cmp.b	#0xd,r0l
  ffd446:	47 06       	beq	.+6 (0xffd44e)

00ffd448 <.LM28>:
/home/consdrv.c:77
    c = serial_recv_byte(cons->index);
  ffd448:	6e e8 ff f7 	mov.b	r0l,@(0xfff7:16,er6)
  ffd44c:	40 06       	bra	.+6 (0xffd454)

00ffd44e <.L20>:
/home/consdrv.c:79
      c = '\n';
  ffd44e:	fa 0a       	mov.b	#0xa,r2l
  ffd450:	6e ea ff f7 	mov.b	r2l,@(0xfff7:16,er6)

00ffd454 <.L21>:
/home/consdrv.c:81
    send_string(cons, &c, 1); /* エコーバック処理 */
  ffd454:	79 02 00 01 	mov.w	#0x1,r2
  ffd458:	0f e1       	mov.l	er6,er1
  ffd45a:	7a 31 00 00 	sub.l	#0x9,er1
  ffd45e:	00 09 
  ffd460:	7a 00 00 ff 	mov.l	#0xffdb5c,er0
  ffd464:	db 5c 
  ffd466:	5e ff d3 5e 	jsr	@0xffd35e:24

00ffd46a <.LM31>:
/home/consdrv.c:83
    if (cons->id) {
  ffd46a:	01 00 69 42 	mov.l	@er4,er2
  ffd46e:	47 5c       	beq	.+92 (0xffd4cc)

00ffd470 <.LM32>:
/home/consdrv.c:84
      if (c != '\n') {
  ffd470:	6e 68 ff f7 	mov.b	@(0xfff7:16,er6),r0l
  ffd474:	a8 0a       	cmp.b	#0xa,r0l
  ffd476:	47 20       	beq	.+32 (0xffd498)

00ffd478 <.LM33>:
/home/consdrv.c:86
	cons->recv_buf[cons->recv_len++] = c;
  ffd478:	6b 22 00 ff 	mov.w	@0xffdb6e:32,r2
  ffd47c:	db 6e 
  ffd47e:	0d 23       	mov.w	r2,r3
  ffd480:	0b 03       	adds	#1,er3
  ffd482:	6b a3 00 ff 	mov.w	r3,@0xffdb6e:32
  ffd486:	db 6e 
  ffd488:	17 f2       	exts.l	er2
  ffd48a:	01 00 6b 23 	mov.l	@0xffdb68:32,er3
  ffd48e:	00 ff db 68 
  ffd492:	0a b2       	add.l	er3,er2
  ffd494:	68 a8       	mov.b	r0l,@er2
  ffd496:	40 34       	bra	.+52 (0xffd4cc)

00ffd498 <.L22>:
/home/consdrv.c:93
	p = kx_kmalloc(CONS_BUFFER_SIZE);
  ffd498:	79 00 00 18 	mov.w	#0x18,r0
  ffd49c:	5e ff d0 de 	jsr	@0xffd0de:24

00ffd4a0 <.LVL28>:
  ffd4a0:	0f 85       	mov.l	er0,er5

00ffd4a2 <.LM35>:
/home/consdrv.c:94
	memcpy(p, cons->recv_buf, cons->recv_len);
  ffd4a2:	6b 22 00 ff 	mov.w	@0xffdb6e:32,r2
  ffd4a6:	db 6e 
  ffd4a8:	17 f2       	exts.l	er2
  ffd4aa:	01 00 6b 21 	mov.l	@0xffdb68:32,er1
  ffd4ae:	00 ff db 68 
  ffd4b2:	5e ff c1 8c 	jsr	@0xffc18c:24

00ffd4b6 <.LM36>:
/home/consdrv.c:95
	kx_send(MSGBOX_ID_CONSINPUT, cons->recv_len, p);
  ffd4b6:	0f d2       	mov.l	er5,er2
  ffd4b8:	6b 21 00 ff 	mov.w	@0xffdb6e:32,r1
  ffd4bc:	db 6e 
  ffd4be:	19 00       	sub.w	r0,r0
  ffd4c0:	5e ff d1 42 	jsr	@0xffd142:24

00ffd4c4 <.LM37>:
/home/consdrv.c:96
	cons->recv_len = 0;
  ffd4c4:	19 22       	sub.w	r2,r2
  ffd4c6:	6b a2 00 ff 	mov.w	r2,@0xffdb6e:32
  ffd4ca:	db 6e 

00ffd4cc <.L19>:
/home/consdrv.c:101
  if (serial_is_send_enable(cons->index)) { /* 送信割込み */
  ffd4cc:	6b 20 00 ff 	mov.w	@0xffdb60:32,r0
  ffd4d0:	db 60 
  ffd4d2:	5e ff c4 22 	jsr	@0xffc422:24

00ffd4d6 <.LVL33>:
  ffd4d6:	0d 00       	mov.w	r0,r0
  ffd4d8:	47 24       	beq	.+36 (0xffd4fe)

00ffd4da <.LM39>:
/home/consdrv.c:102
    if (!cons->id || !cons->send_len) {
  ffd4da:	01 00 69 42 	mov.l	@er4,er2
  ffd4de:	47 08       	beq	.+8 (0xffd4e8)
  ffd4e0:	6b 22 00 ff 	mov.w	@0xffdb6c:32,r2
  ffd4e4:	db 6c 
  ffd4e6:	46 0c       	bne	.+12 (0xffd4f4)

00ffd4e8 <.L24>:
/home/consdrv.c:104
      serial_intr_send_disable(cons->index);
  ffd4e8:	6b 20 00 ff 	mov.w	@0xffdb60:32,r0
  ffd4ec:	db 60 
  ffd4ee:	5e ff c5 1c 	jsr	@0xffc51c:24

00ffd4f2 <.LVL34>:
  ffd4f2:	40 0a       	bra	.+10 (0xffd4fe)

00ffd4f4 <.L25>:
/home/consdrv.c:107
      send_char(cons);
  ffd4f4:	7a 00 00 ff 	mov.l	#0xffdb5c,er0
  ffd4f8:	db 5c 
  ffd4fa:	5e ff d3 0c 	jsr	@0xffd30c:24

00ffd4fe <.L11>:
consdrv_intr():
/home/consdrv.c:129
	/* 割込みがあるならば，割込み処理を呼び出す */
	consdrv_intrproc(cons);
    }
  }
}
  ffd4fe:	0b 97       	adds	#4,er7
  ffd500:	01 00 6d 75 	mov.l	@er7+,er5
  ffd504:	01 00 6d 74 	mov.l	@er7+,er4
  ffd508:	01 00 6d 76 	mov.l	@er7+,er6
  ffd50c:	54 70       	rts	

00ffd50e <_consdrv_main>:
consdrv_main():
/home/consdrv.c:171

  return 0;
}

int consdrv_main(int argc, char *argv[])
{
  ffd50e:	01 00 6d f6 	mov.l	er6,@-er7
  ffd512:	0f f6       	mov.l	er7,er6
  ffd514:	7a 37 00 00 	sub.l	#0xc,er7
  ffd518:	00 0c 

00ffd51a <.LBB16>:
consdrv_init():
/home/consdrv.c:133
  memset(consreg, 0, sizeof(consreg));
  ffd51a:	1a a2       	sub.l	er2,er2
  ffd51c:	8a 20       	add.b	#0x20,r2l
  ffd51e:	19 11       	sub.w	r1,r1
  ffd520:	7a 00 00 ff 	mov.l	#0xffdb5c,er0
  ffd524:	db 5c 
  ffd526:	5e ff c1 66 	jsr	@0xffc166:24

00ffd52a <.LM45>:
consdrv_main():
/home/consdrv.c:177
  int size, index;
  kz_thread_id_t id;
  char *p;

  consdrv_init();
  kz_setintr(SOFTVEC_TYPE_SERINTR, consdrv_intr); /* 割込みハンドラ設定 */
  ffd52a:	7a 01 00 ff 	mov.l	#0xffd3ea,er1
  ffd52e:	d3 ea 
  ffd530:	79 00 00 02 	mov.w	#0x2,r0
  ffd534:	5e ff d0 76 	jsr	@0xffd076:24

00ffd538 <.L39>:
/home/consdrv.c:180 (discriminator 1)

  while (1) {
    id = kz_recv(MSGBOX_ID_CONSOUTPUT, &size, &p);
  ffd538:	0f e2       	mov.l	er6,er2
  ffd53a:	0f e1       	mov.l	er6,er1
  ffd53c:	1b 81       	subs	#2,er1
  ffd53e:	79 00 00 01 	mov.w	#0x1,r0
  ffd542:	5e ff d0 38 	jsr	@0xffd038:24

00ffd546 <.LM47>:
/home/consdrv.c:181
    index = p[0] - '0';
  ffd546:	01 00 69 61 	mov.l	@er6,er1
  ffd54a:	68 1c       	mov.b	@er1,r4l
  ffd54c:	17 54       	extu.w	r4
  ffd54e:	79 14 ff d0 	add.w	#0xffd0,r4

00ffd552 <.LBB18>:
consdrv_command():
/home/consdrv.c:141
  switch (command[0]) {
  ffd552:	6e 1a 00 01 	mov.b	@(0x1:16,er1),r2l
  ffd556:	aa 75       	cmp.b	#0x75,r2l
  ffd558:	47 08       	beq	.+8 (0xffd562)
  ffd55a:	aa 77       	cmp.b	#0x77,r2l
  ffd55c:	47 72       	beq	.+114 (0xffd5d0)
  ffd55e:	58 00 00 90 	bra	.+144 (0xffd5f2)

00ffd562 <.L37>:
/home/consdrv.c:143
    cons->id = id;
  ffd562:	17 f4       	exts.l	er4
  ffd564:	fa 05       	mov.b	#0x5,r2l

00ffd566 <.Llt1>:
  ffd566:	10 34       	shll.l	er4
  ffd568:	8a ff       	add.b	#0xff,r2l
  ffd56a:	46 fa       	bne	.-6 (0xffd566)
  ffd56c:	0f c5       	mov.l	er4,er5
  ffd56e:	7a 15 00 ff 	add.l	#0xffdb5c,er5
  ffd572:	db 5c 
  ffd574:	01 00 69 d0 	mov.l	er0,@er5

00ffd578 <.LM50>:
/home/consdrv.c:144
    cons->index = command[1] - '0';
  ffd578:	0f d2       	mov.l	er5,er2
  ffd57a:	0b 92       	adds	#4,er2
  ffd57c:	6e 1b 00 02 	mov.b	@(0x2:16,er1),r3l
  ffd580:	17 53       	extu.w	r3
  ffd582:	79 13 ff d0 	add.w	#0xffd0,r3
  ffd586:	69 a3       	mov.w	r3,@er2

00ffd588 <.LM51>:
/home/consdrv.c:145
    cons->send_buf = kz_kmalloc(CONS_BUFFER_SIZE);
  ffd588:	79 00 00 18 	mov.w	#0x18,r0
  ffd58c:	01 00 6f e2 	mov.l	er2,@(0xfff8:16,er6)
  ffd590:	ff f8 
  ffd592:	5e ff cf 9a 	jsr	@0xffcf9a:24

00ffd596 <.LVL46>:
  ffd596:	01 00 6f d0 	mov.l	er0,@(0x8:16,er5)
  ffd59a:	00 08 

00ffd59c <.LM52>:
/home/consdrv.c:146
    cons->recv_buf = kz_kmalloc(CONS_BUFFER_SIZE);
  ffd59c:	79 00 00 18 	mov.w	#0x18,r0
  ffd5a0:	5e ff cf 9a 	jsr	@0xffcf9a:24

00ffd5a4 <.LVL47>:
  ffd5a4:	01 00 6f d0 	mov.l	er0,@(0xc:16,er5)
  ffd5a8:	00 0c 

00ffd5aa <.LM53>:
/home/consdrv.c:147
    cons->send_len = 0;
  ffd5aa:	7a 14 00 ff 	add.l	#0xffdb6c,er4
  ffd5ae:	db 6c 
  ffd5b0:	1a b3       	sub.l	er3,er3
  ffd5b2:	01 00 69 c3 	mov.l	er3,@er4

00ffd5b6 <.LM54>:
/home/consdrv.c:149
    serial_init(cons->index);
  ffd5b6:	01 00 6f 62 	mov.l	@(0xfff8:16,er6),er2
  ffd5ba:	ff f8 
  ffd5bc:	69 20       	mov.w	@er2,r0
  ffd5be:	5e ff c3 ec 	jsr	@0xffc3ec:24

00ffd5c2 <.LM55>:
/home/consdrv.c:150
    serial_intr_recv_enable(cons->index); /* 受信割込み有効化(受信開始) */
  ffd5c2:	01 00 6f 62 	mov.l	@(0xfff8:16,er6),er2
  ffd5c6:	ff f8 
  ffd5c8:	69 20       	mov.w	@er2,r0
  ffd5ca:	5e ff c5 6a 	jsr	@0xffc56a:24

00ffd5ce <.LVL49>:
  ffd5ce:	40 22       	bra	.+34 (0xffd5f2)

00ffd5d0 <.L38>:
consdrv_main():
/home/consdrv.c:182
    consdrv_command(&consreg[index], id, index, size - 1, p + 1);
  ffd5d0:	6f 62 ff fe 	mov.w	@(0xfffe:16,er6),r2

00ffd5d4 <.LM57>:
consdrv_command():
/home/consdrv.c:158
    INTR_DISABLE;
  ffd5d4:	04 c0       	orc	#0xc0,ccr

00ffd5d6 <.LM58>:
consdrv_main():
/home/consdrv.c:182
    consdrv_command(&consreg[index], id, index, size - 1, p + 1);
  ffd5d6:	17 f4       	exts.l	er4
  ffd5d8:	0f c0       	mov.l	er4,er0
  ffd5da:	fb 05       	mov.b	#0x5,r3l

00ffd5dc <.Llt2>:
  ffd5dc:	10 30       	shll.l	er0
  ffd5de:	8b ff       	add.b	#0xff,r3l
  ffd5e0:	46 fa       	bne	.-6 (0xffd5dc)

00ffd5e2 <.LM59>:
consdrv_command():
/home/consdrv.c:159
    send_string(cons, command + 1, size - 1); /* 文字列の送信 */
  ffd5e2:	1b 82       	subs	#2,er2
  ffd5e4:	0b 81       	adds	#2,er1
  ffd5e6:	7a 10 00 ff 	add.l	#0xffdb5c,er0
  ffd5ea:	db 5c 
  ffd5ec:	5e ff d3 5e 	jsr	@0xffd35e:24

00ffd5f0 <.LM60>:
/home/consdrv.c:160
    INTR_ENABLE;
  ffd5f0:	06 3f       	andc	#0x3f,ccr

00ffd5f2 <.L36>:
consdrv_main():
/home/consdrv.c:183
    kz_kmfree(p);
  ffd5f2:	01 00 69 60 	mov.l	@er6,er0
  ffd5f6:	5e ff cf cc 	jsr	@0xffcfcc:24

00ffd5fa <.LVL55>:
  ffd5fa:	58 00 ff 3a 	bra	.-198 (0xffd538)

00ffd5fe <_send_write>:
send_write():
/home/command.c:24
  kz_send(MSGBOX_ID_CONSOUTPUT, 3, p);
}

/* コンソールへの文字列出力をコンソール・ドライバに依頼する */
static void send_write(char *str)
{
  ffd5fe:	01 00 6d f6 	mov.l	er6,@-er7
  ffd602:	0f f6       	mov.l	er7,er6
  ffd604:	01 00 6d f4 	mov.l	er4,@-er7
  ffd608:	01 00 6d f5 	mov.l	er5,@-er7
  ffd60c:	7a 37 00 00 	sub.l	#0x8,er7
  ffd610:	00 08 

00ffd612 <.LM2>:
/home/command.c:27
  char *p;
  int len;
  len = strlen(str);
  ffd612:	01 00 6f e0 	mov.l	er0,@(0xfff4:16,er6)
  ffd616:	ff f4 
  ffd618:	5e ff c1 fe 	jsr	@0xffc1fe:24

00ffd61c <.LVL1>:
  ffd61c:	0d 02       	mov.w	r0,r2

00ffd61e <.LM3>:
/home/command.c:28
  p = kz_kmalloc(len + 2);
  ffd61e:	0d 05       	mov.w	r0,r5
  ffd620:	0b 85       	adds	#2,er5
  ffd622:	0d 50       	mov.w	r5,r0
  ffd624:	01 00 6f e2 	mov.l	er2,@(0xfff0:16,er6)
  ffd628:	ff f0 
  ffd62a:	5e ff cf 9a 	jsr	@0xffcf9a:24

00ffd62e <.LVL4>:
  ffd62e:	0f 84       	mov.l	er0,er4

00ffd630 <.LM4>:
/home/command.c:29
  p[0] = '0';
  ffd630:	fb 30       	mov.b	#0x30,r3l
  ffd632:	68 8b       	mov.b	r3l,@er0

00ffd634 <.LM5>:
/home/command.c:30
  p[1] = CONSDRV_CMD_WRITE;
  ffd634:	fb 77       	mov.b	#0x77,r3l
  ffd636:	6e 8b 00 01 	mov.b	r3l,@(0x1:16,er0)

00ffd63a <.LM6>:
/home/command.c:31
  memcpy(&p[2], str, len);
  ffd63a:	01 00 6f 62 	mov.l	@(0xfff0:16,er6),er2
  ffd63e:	ff f0 
  ffd640:	17 f2       	exts.l	er2
  ffd642:	01 00 6f 61 	mov.l	@(0xfff4:16,er6),er1
  ffd646:	ff f4 
  ffd648:	0b 80       	adds	#2,er0
  ffd64a:	5e ff c1 8c 	jsr	@0xffc18c:24

00ffd64e <.LM7>:
/home/command.c:32
  kz_send(MSGBOX_ID_CONSOUTPUT, len + 2, p);
  ffd64e:	0f c2       	mov.l	er4,er2
  ffd650:	0d 51       	mov.w	r5,r1
  ffd652:	79 00 00 01 	mov.w	#0x1,r0
  ffd656:	5e ff cf fe 	jsr	@0xffcffe:24

00ffd65a <.LM8>:
/home/command.c:33
}
  ffd65a:	0b 97       	adds	#4,er7
  ffd65c:	0b 97       	adds	#4,er7
  ffd65e:	01 00 6d 75 	mov.l	@er7+,er5
  ffd662:	01 00 6d 74 	mov.l	@er7+,er4
  ffd666:	01 00 6d 76 	mov.l	@er7+,er6
  ffd66a:	54 70       	rts	

00ffd66c <_timer_intr>:
timer_intr():
/home/command.c:36

void timer_intr(softvec_type_t type, unsigned long sp)
{
  ffd66c:	01 00 6d f6 	mov.l	er6,@-er7
  ffd670:	0f f6       	mov.l	er7,er6

00ffd672 <.LM10>:
/home/command.c:37
  if (timer_is_expired(0)) {
  ffd672:	19 00       	sub.w	r0,r0
  ffd674:	5e ff c6 00 	jsr	@0xffc600:24

00ffd678 <.LVL13>:
  ffd678:	0d 00       	mov.w	r0,r0
  ffd67a:	47 10       	beq	.+16 (0xffd68c)

00ffd67c <.LM11>:
/home/command.c:38
    puts("timer expired 0.\n");
  ffd67c:	7a 00 00 ff 	mov.l	#0xffd89e,er0
  ffd680:	d8 9e 
  ffd682:	5e ff c3 14 	jsr	@0xffc314:24

00ffd686 <.LM12>:
/home/command.c:39
    timer_expire(0);
  ffd686:	19 00       	sub.w	r0,r0
  ffd688:	5e ff c6 28 	jsr	@0xffc628:24

00ffd68c <.L3>:
/home/command.c:41
  }
  if (timer_is_expired(1)) {
  ffd68c:	79 00 00 01 	mov.w	#0x1,r0
  ffd690:	5e ff c6 00 	jsr	@0xffc600:24

00ffd694 <.LVL16>:
  ffd694:	0d 00       	mov.w	r0,r0
  ffd696:	47 12       	beq	.+18 (0xffd6aa)

00ffd698 <.LBB4>:
/home/command.c:42
    puts("timer expired 1.\n");
  ffd698:	7a 00 00 ff 	mov.l	#0xffd8b0,er0
  ffd69c:	d8 b0 
  ffd69e:	5e ff c3 14 	jsr	@0xffc314:24

00ffd6a2 <.LM15>:
/home/command.c:43
    timer_cancel(1);
  ffd6a2:	79 00 00 01 	mov.w	#0x1,r0
  ffd6a6:	5e ff c6 50 	jsr	@0xffc650:24

00ffd6aa <.L2>:
/home/command.c:45
  }
}
  ffd6aa:	01 00 6d 76 	mov.l	@er7+,er6
  ffd6ae:	54 70       	rts	

00ffd6b0 <_command_main>:
command_main():
/home/command.c:48

int command_main(int argc, char *argv[])
{
  ffd6b0:	01 00 6d f6 	mov.l	er6,@-er7
  ffd6b4:	0f f6       	mov.l	er7,er6
  ffd6b6:	7a 37 00 00 	sub.l	#0x8,er7
  ffd6ba:	00 08 

00ffd6bc <.LBB8>:
send_use():
/home/command.c:15
  p = kz_kmalloc(3);
  ffd6bc:	79 00 00 03 	mov.w	#0x3,r0
  ffd6c0:	5e ff cf 9a 	jsr	@0xffcf9a:24

00ffd6c4 <.LVL23>:
  ffd6c4:	0f 82       	mov.l	er0,er2

00ffd6c6 <.LM19>:
/home/command.c:16
  p[0] = '0';
  ffd6c6:	fb 30       	mov.b	#0x30,r3l
  ffd6c8:	68 8b       	mov.b	r3l,@er0

00ffd6ca <.LM20>:
/home/command.c:17
  p[1] = CONSDRV_CMD_USE;
  ffd6ca:	fb 75       	mov.b	#0x75,r3l
  ffd6cc:	6e 8b 00 01 	mov.b	r3l,@(0x1:16,er0)

00ffd6d0 <.LM21>:
/home/command.c:18
  p[2] = '0' + index;
  ffd6d0:	fb 31       	mov.b	#0x31,r3l
  ffd6d2:	6e 8b 00 02 	mov.b	r3l,@(0x2:16,er0)

00ffd6d6 <.LM22>:
/home/command.c:19
  kz_send(MSGBOX_ID_CONSOUTPUT, 3, p);
  ffd6d6:	79 01 00 03 	mov.w	#0x3,r1
  ffd6da:	79 00 00 01 	mov.w	#0x1,r0
  ffd6de:	5e ff cf fe 	jsr	@0xffcffe:24

00ffd6e2 <.L16>:
command_main():
/home/command.c:55
  int size;

  send_use(SERIAL_DEFAULT_DEVICE);

  while (1) {
    send_write("command> "); /* プロンプト表示 */
  ffd6e2:	7a 00 00 ff 	mov.l	#0xffd8c2,er0
  ffd6e6:	d8 c2 
  ffd6e8:	5e ff d5 fe 	jsr	@0xffd5fe:24

00ffd6ec <.LM24>:
/home/command.c:58

    /* コンソールからの受信文字列を受け取る */
    kz_recv(MSGBOX_ID_CONSINPUT, &size, &p);
  ffd6ec:	0f e2       	mov.l	er6,er2
  ffd6ee:	0f e1       	mov.l	er6,er1
  ffd6f0:	1b 81       	subs	#2,er1
  ffd6f2:	19 00       	sub.w	r0,r0
  ffd6f4:	5e ff d0 38 	jsr	@0xffd038:24

00ffd6f8 <.LM25>:
/home/command.c:59
    p[size] = '\0';
  ffd6f8:	6f 62 ff fe 	mov.w	@(0xfffe:16,er6),r2
  ffd6fc:	0d 23       	mov.w	r2,r3
  ffd6fe:	17 f3       	exts.l	er3
  ffd700:	01 00 69 62 	mov.l	@er6,er2
  ffd704:	0a b2       	add.l	er3,er2
  ffd706:	18 bb       	sub.b	r3l,r3l
  ffd708:	68 ab       	mov.b	r3l,@er2

00ffd70a <.LM26>:
/home/command.c:61

    if (!strncmp(p, "echo", 4)) { /* echoコマンド */
  ffd70a:	79 02 00 04 	mov.w	#0x4,r2
  ffd70e:	7a 01 00 ff 	mov.l	#0xffd8cc,er1
  ffd712:	d8 cc 
  ffd714:	01 00 69 60 	mov.l	@er6,er0
  ffd718:	5e ff c2 6c 	jsr	@0xffc26c:24

00ffd71c <.LVL29>:
  ffd71c:	01 00 69 63 	mov.l	@er6,er3
  ffd720:	0d 00       	mov.w	r0,r0
  ffd722:	46 10       	bne	.+16 (0xffd734)

00ffd724 <.LM27>:
/home/command.c:62
      send_write(p + 4); /* echoに続く文字列を出力する */
  ffd724:	0f b0       	mov.l	er3,er0
  ffd726:	0b 90       	adds	#4,er0
  ffd728:	5e ff d5 fe 	jsr	@0xffd5fe:24

00ffd72c <.LM28>:
/home/command.c:63
      send_write("\n");
  ffd72c:	7a 00 00 ff 	mov.l	#0xffd867,er0
  ffd730:	d8 67 
  ffd732:	40 72       	bra	.+114 (0xffd7a6)

00ffd734 <.L12>:
/home/command.c:64
    } else if (!strncmp(p, "timer", 5)) { /* タイマ起動コマンド */
  ffd734:	79 02 00 05 	mov.w	#0x5,r2
  ffd738:	7a 01 00 ff 	mov.l	#0xffd8d1,er1
  ffd73c:	d8 d1 
  ffd73e:	0f b0       	mov.l	er3,er0
  ffd740:	5e ff c2 6c 	jsr	@0xffc26c:24

00ffd744 <.LVL31>:
  ffd744:	0d 00       	mov.w	r0,r0
  ffd746:	46 30       	bne	.+48 (0xffd778)

00ffd748 <.LM30>:
/home/command.c:65
      softvec_setintr(SOFTVEC_TYPE_TIMINTR, timer_intr);
  ffd748:	7a 01 00 ff 	mov.l	#0xffd66c,er1
  ffd74c:	d6 6c 
  ffd74e:	79 00 00 03 	mov.w	#0x3,r0
  ffd752:	5e ff c1 26 	jsr	@0xffc126:24

00ffd756 <.LM31>:
/home/command.c:66
      puts("start timer.\n");
  ffd756:	7a 00 00 ff 	mov.l	#0xffd8d7,er0
  ffd75a:	d8 d7 
  ffd75c:	5e ff c3 14 	jsr	@0xffc314:24

00ffd760 <.LM32>:
/home/command.c:67
      timer_start(0, 3000);
  ffd760:	79 01 0b b8 	mov.w	#0xbb8,r1
  ffd764:	19 00       	sub.w	r0,r0
  ffd766:	5e ff c5 b6 	jsr	@0xffc5b6:24

00ffd76a <.LM33>:
/home/command.c:68
      timer_start(1, 4500);
  ffd76a:	79 01 11 94 	mov.w	#0x1194,r1
  ffd76e:	79 00 00 01 	mov.w	#0x1,r0
  ffd772:	5e ff c5 b6 	jsr	@0xffc5b6:24

00ffd776 <.LVL35>:
  ffd776:	40 32       	bra	.+50 (0xffd7aa)

00ffd778 <.L14>:
/home/command.c:69
    } else if (!strncmp(p, "cancel", 6)) { /* タイマキャンセル */
  ffd778:	79 02 00 06 	mov.w	#0x6,r2
  ffd77c:	7a 01 00 ff 	mov.l	#0xffd8e5,er1
  ffd780:	d8 e5 
  ffd782:	01 00 69 60 	mov.l	@er6,er0
  ffd786:	5e ff c2 6c 	jsr	@0xffc26c:24

00ffd78a <.LVL36>:
  ffd78a:	0d 00       	mov.w	r0,r0
  ffd78c:	46 12       	bne	.+18 (0xffd7a0)

00ffd78e <.LM35>:
/home/command.c:70
      puts("cancel timer.\n");
  ffd78e:	7a 00 00 ff 	mov.l	#0xffd8ec,er0
  ffd792:	d8 ec 
  ffd794:	5e ff c3 14 	jsr	@0xffc314:24

00ffd798 <.LM36>:
/home/command.c:71
      timer_cancel(0);
  ffd798:	19 00       	sub.w	r0,r0
  ffd79a:	5e ff c6 50 	jsr	@0xffc650:24

00ffd79e <.LVL38>:
  ffd79e:	40 0a       	bra	.+10 (0xffd7aa)

00ffd7a0 <.L15>:
/home/command.c:73
    } else {
      send_write("unknown.\n");
  ffd7a0:	7a 00 00 ff 	mov.l	#0xffd8fb,er0
  ffd7a4:	d8 fb 

00ffd7a6 <.L17>:
  ffd7a6:	5e ff d5 fe 	jsr	@0xffd5fe:24

00ffd7aa <.L13>:
/home/command.c:76
    }

    kz_kmfree(p);
  ffd7aa:	01 00 69 60 	mov.l	@er6,er0
  ffd7ae:	5e ff cf cc 	jsr	@0xffcfcc:24

00ffd7b2 <.LM39>:
/home/command.c:55
    send_write("command> "); /* プロンプト表示 */
  ffd7b2:	58 00 ff 2c 	bra	.-212 (0xffd6e2)

Disassembly of section .text.startup:

00ffd7b6 <_main>:
main():
/home/main.c:22

  return 0;
}

int main(void)
{
  ffd7b6:	01 00 6d f6 	mov.l	er6,@-er7
  ffd7ba:	0f f6       	mov.l	er7,er6

00ffd7bc <.LM8>:
/home/main.c:23
  INTR_DISABLE; /* 割込み無効にする */
  ffd7bc:	04 c0       	orc	#0xc0,ccr

00ffd7be <.LM9>:
/home/main.c:25

  puts("kozos boot succeed!\n");
  ffd7be:	7a 00 00 ff 	mov.l	#0xffd854,er0
  ffd7c2:	d8 54 
  ffd7c4:	5e ff c3 14 	jsr	@0xffc314:24

00ffd7c8 <.LM10>:
/home/main.c:28

  /* OSの動作開始 */
  kz_start(start_threads, "idle", 0, 0x100, 0, NULL);
  ffd7c8:	1a a2       	sub.l	er2,er2
  ffd7ca:	01 00 6d f2 	mov.l	er2,@-er7
  ffd7ce:	1b 97       	subs	#4,er7
  ffd7d0:	1b 97       	subs	#4,er7
  ffd7d2:	6f f2 00 06 	mov.w	r2,@(0x6:16,er7)
  ffd7d6:	79 02 01 00 	mov.w	#0x100,r2
  ffd7da:	6f f2 00 02 	mov.w	r2,@(0x2:16,er7)
  ffd7de:	19 22       	sub.w	r2,r2
  ffd7e0:	7a 01 00 ff 	mov.l	#0xffd869,er1
  ffd7e4:	d8 69 
  ffd7e6:	7a 00 00 ff 	mov.l	#0xffc04e,er0
  ffd7ea:	c0 4e 
  ffd7ec:	5e ff c9 fe 	jsr	@0xffc9fe:24

00ffd7f0 <.LVL7>:
  ffd7f0:	7a 17 00 00 	add.l	#0xc,er7
  ffd7f4:	00 0c 

00ffd7f6 <.LM11>:
/home/main.c:32
  /* ここには戻ってこない */

  return 0;
}
  ffd7f6:	19 00       	sub.w	r0,r0
  ffd7f8:	01 00 6d 76 	mov.l	@er7+,er6
  ffd7fc:	54 70       	rts	

Disassembly of section .rodata:

00ffd800 <_rodata_start>:
_rodata_start():
  ffd800:	00 ff       	.word	H'0,H'ff
  ffd802:	ff b0       	mov.b	#0xb0,r7l
  ffd804:	00 ff       	.word	H'0,H'ff
  ffd806:	ff b8       	mov.b	#0xb8,r7l
  ffd808:	00 ff       	.word	H'0,H'ff
  ffd80a:	ff c0       	mov.b	#0xc0,r7l

00ffd80c <_regs>:
  ffd80c:	00 ff       	.word	H'0,H'ff
  ffd80e:	ff 80       	mov.b	#0x80,r7l
  ffd810:	00 ff       	.word	H'0,H'ff
  ffd812:	ff 90       	mov.b	#0x90,r7l

00ffd814 <.L40>:
.L40():
  ffd814:	00 ff       	.word	H'0,H'ff
  ffd816:	cb 3e       	or.b	#0x3e,r3l
  ffd818:	00 ff       	.word	H'0,H'ff
  ffd81a:	cb 7e       	or.b	#0x7e,r3l
  ffd81c:	00 ff       	.word	H'0,H'ff
  ffd81e:	cb 86       	or.b	#0x86,r3l
  ffd820:	00 ff       	.word	H'0,H'ff
  ffd822:	cb 8a       	or.b	#0x8a,r3l
  ffd824:	00 ff       	.word	H'0,H'ff
  ffd826:	cb 92       	or.b	#0x92,r3l
  ffd828:	00 ff       	.word	H'0,H'ff
  ffd82a:	cb a4       	or.b	#0xa4,r3l
  ffd82c:	00 ff       	.word	H'0,H'ff
  ffd82e:	cb b8       	or.b	#0xb8,r3l
  ffd830:	00 ff       	.word	H'0,H'ff
  ffd832:	cb da       	or.b	#0xda,r3l
  ffd834:	00 ff       	.word	H'0,H'ff
  ffd836:	cb f0       	or.b	#0xf0,r3l
  ffd838:	00 ff       	.word	H'0,H'ff
  ffd83a:	cc 06       	or.b	#0x6,r4l
  ffd83c:	00 ff       	.word	H'0,H'ff
  ffd83e:	cc c4       	or.b	#0xc4,r4l
  ffd840:	00 ff       	.word	H'0,H'ff
  ffd842:	cd 24       	or.b	#0x24,r5l
  ffd844:	63 6f       	btst	r6h,r7l
  ffd846:	6e 73 64 72 	mov.b	@(0x6472:16,er7),r3h
  ffd84a:	76 00       	band	#0x0,r0h
  ffd84c:	63 6f       	btst	r6h,r7l
  ffd84e:	6d 6d       	mov.w	@er6+,e5
  ffd850:	61 6e       	bnot	r6h,r6l
  ffd852:	64 00       	or.w	r0,r0
  ffd854:	6b 6f       	.word	H'6b,H'6f
  ffd856:	7a 6f 73 20 	and.l	#0x7320,er7
  ffd85a:	62 6f       	bclr	r6h,r7l
  ffd85c:	6f 74 20 73 	mov.w	@(0x2073:16,er7),r4
  ffd860:	75 63       	bxor	#0x6,r3h
  ffd862:	63 65       	btst	r6h,r5h
  ffd864:	65 64       	xor.w	r6,r4
  ffd866:	21 0a       	mov.b	@0xa:8,r1h
  ffd868:	00 69       	.word	H'0,H'69
  ffd86a:	64 6c       	or.w	r6,e4
  ffd86c:	65 00       	xor.w	r0,r0
  ffd86e:	30 31       	mov.b	r0h,@0x31:8
  ffd870:	32 33       	mov.b	r2h,@0x33:8
  ffd872:	34 35       	mov.b	r4h,@0x35:8
  ffd874:	36 37       	mov.b	r6h,@0x37:8
  ffd876:	38 39       	mov.b	r0l,@0x39:8
  ffd878:	61 62       	bnot	r6h,r2h
  ffd87a:	63 64       	btst	r6h,r4h
  ffd87c:	65 66       	xor.w	r6,r6
  ffd87e:	00 20       	.word	H'0,H'20
  ffd880:	45 58       	bcs	.+88 (0xffd8da)
  ffd882:	49 54       	bvs	.+84 (0xffd8d8)
  ffd884:	2e 0a       	mov.b	@0xa:8,r6l
  ffd886:	00 20       	.word	H'0,H'20
  ffd888:	44 4f       	.word	H'44,H'4f
  ffd88a:	57 4e       	.word	H'57,H'4e
  ffd88c:	2e 0a       	mov.b	@0xa:8,r6l
  ffd88e:	00 73       	.word	H'0,H'73
  ffd890:	79 73       	.word	H'79,H'73
  ffd892:	74 65       	bor	#0x6,r5h
  ffd894:	6d 20       	mov.w	@er2+,r0
  ffd896:	65 72       	xor.w	r7,r2
  ffd898:	72 6f       	bclr	#0x6,r7l
  ffd89a:	72 21       	bclr	#0x2,r1h
  ffd89c:	0a 00       	inc	r0h
  ffd89e:	74 69       	bor	#0x6,r1l
  ffd8a0:	6d 65       	mov.w	@er6+,r5
  ffd8a2:	72 20       	bclr	#0x2,r0h
  ffd8a4:	65 78       	xor.w	r7,e0
  ffd8a6:	70 69       	bset	#0x6,r1l
  ffd8a8:	72 65       	bclr	#0x6,r5h
  ffd8aa:	64 20       	or.w	r2,r0
  ffd8ac:	30 2e       	mov.b	r0h,@0x2e:8
  ffd8ae:	0a 00       	inc	r0h
  ffd8b0:	74 69       	bor	#0x6,r1l
  ffd8b2:	6d 65       	mov.w	@er6+,r5
  ffd8b4:	72 20       	bclr	#0x2,r0h
  ffd8b6:	65 78       	xor.w	r7,e0
  ffd8b8:	70 69       	bset	#0x6,r1l
  ffd8ba:	72 65       	bclr	#0x6,r5h
  ffd8bc:	64 20       	or.w	r2,r0
  ffd8be:	31 2e       	mov.b	r1h,@0x2e:8
  ffd8c0:	0a 00       	inc	r0h
  ffd8c2:	63 6f       	btst	r6h,r7l
  ffd8c4:	6d 6d       	mov.w	@er6+,e5
  ffd8c6:	61 6e       	bnot	r6h,r6l
  ffd8c8:	64 3e       	or.w	r3,e6
  ffd8ca:	20 00       	mov.b	@0x0:8,r0h
  ffd8cc:	65 63       	xor.w	r6,r3
  ffd8ce:	68 6f       	mov.b	@er6,r7l
  ffd8d0:	00 74       	.word	H'0,H'74
  ffd8d2:	69 6d       	mov.w	@er6,e5
  ffd8d4:	65 72       	xor.w	r7,r2
  ffd8d6:	00 73       	.word	H'0,H'73
  ffd8d8:	74 61       	bor	#0x6,r1h
  ffd8da:	72 74       	bclr	#0x7,r4h
  ffd8dc:	20 74       	mov.b	@0x74:8,r0h
  ffd8de:	69 6d       	mov.w	@er6,e5
  ffd8e0:	65 72       	xor.w	r7,r2
  ffd8e2:	2e 0a       	mov.b	@0xa:8,r6l
  ffd8e4:	00 63       	.word	H'0,H'63
  ffd8e6:	61 6e       	bnot	r6h,r6l
  ffd8e8:	63 65       	btst	r6h,r5h
  ffd8ea:	6c 00       	mov.b	@er0+,r0h
  ffd8ec:	63 61       	btst	r6h,r1h
  ffd8ee:	6e 63 65 6c 	mov.b	@(0x656c:16,er6),r3h
  ffd8f2:	20 74       	mov.b	@0x74:8,r0h
  ffd8f4:	69 6d       	mov.w	@er6,e5
  ffd8f6:	65 72       	xor.w	r7,r2
  ffd8f8:	2e 0a       	mov.b	@0xa:8,r6l
  ffd8fa:	00 75       	.word	H'0,H'75
  ffd8fc:	6e 6b 6e 6f 	mov.b	@(0x6e6f:16,er6),r3l
  ffd900:	77 6e       	bld	#0x6,r6l
  ffd902:	2e 0a       	mov.b	@0xa:8,r6l
	...

Disassembly of section .data:

00ffd908 <_data_start>:
_data_start():
  ffd908:	00 ff       	.word	H'0,H'ff
  ffd90a:	f4 00       	mov.b	#0x0,r4h

00ffd90c <_area___1088>:
  ffd90c:	00 ff       	.word	H'0,H'ff
  ffd90e:	db 7c       	xor.b	#0x7c,r3l

00ffd910 <_pool>:
  ffd910:	00 10       	.word	H'0,H'10
  ffd912:	00 08       	.word	H'0,H'8
  ffd914:	00 00       	nop	
  ffd916:	00 00       	nop	
  ffd918:	00 20       	.word	H'0,H'20
  ffd91a:	00 08       	.word	H'0,H'8
  ffd91c:	00 00       	nop	
  ffd91e:	00 00       	nop	
  ffd920:	00 40       	.word	H'0,H'40
  ffd922:	00 04       	.word	H'0,H'4
  ffd924:	00 00       	nop	
	...

Disassembly of section .bss:

00ffd928 <_bss_start>:
	...

00ffd948 <_handlers>:
	...

00ffd958 <_threads>:
	...

00ffdad8 <_current>:
_bss_start():
  ffdad8:	00 00       	nop	
	...

00ffdadc <_readyque>:
	...

00ffdb5c <_consreg>:
	...

Disassembly of section .debug_frame:

00000000 <.Lframe0>:
.Lframe0():
   0:	00 00       	nop	
   2:	00 10       	.word	H'0,H'10
   4:	ff ff       	mov.b	#0xff,r7l
   6:	ff ff       	mov.b	#0xff,r7l
   8:	03 00       	ldc	r0h,ccr
   a:	01 02       	.word	H'1,H'2
   c:	0c 0c       	mov.b	r0h,r4l
   e:	07 04       	ldc	#0x4,ccr
  10:	11 0c       	shlr.b	r4l
  12:	7e 00       	.word	H'7e,H'0
  14:	00 00       	nop	
  16:	00 20       	.word	H'0,H'20
  18:	00 00       	nop	
  1a:	00 00       	nop	
  1c:	00 ff       	.word	H'0,H'ff
  1e:	c0 4e       	or.b	#0x4e,r0h
  20:	00 00       	nop	
  22:	00 68       	.word	H'0,H'68
  24:	04 00       	orc	#0x0,ccr
  26:	00 00       	nop	
  28:	04 0e       	orc	#0xe,ccr
  2a:	08 11       	add.b	r1h,r1h
  2c:	06 7c       	andc	#0x7c,ccr
  2e:	04 00       	orc	#0x0,ccr
  30:	00 00       	nop	
  32:	02 0d       	stc	ccr,r5l
  34:	06 00       	andc	#0x0,ccr
  36:	00 00       	nop	
  38:	00 00       	nop	
  3a:	00 20       	.word	H'0,H'20
  3c:	00 00       	nop	
  3e:	00 00       	nop	
  40:	00 ff       	.word	H'0,H'ff
  42:	d7 b6       	xor.b	#0xb6,r7h
  44:	00 00       	nop	
  46:	00 48       	.word	H'0,H'48
  48:	04 00       	orc	#0x0,ccr
  4a:	00 00       	nop	
  4c:	04 0e       	orc	#0xe,ccr
  4e:	08 11       	add.b	r1h,r1h
  50:	06 7c       	andc	#0x7c,ccr
  52:	04 00       	orc	#0x0,ccr
  54:	00 00       	nop	
  56:	02 0d       	stc	ccr,r5l
  58:	06 00       	andc	#0x0,ccr
	...

0000005c <.Lframe0>:
  5c:	00 00       	nop	
  5e:	00 10       	.word	H'0,H'10
  60:	ff ff       	mov.b	#0xff,r7l
  62:	ff ff       	mov.b	#0xff,r7l
  64:	03 00       	ldc	r0h,ccr
  66:	01 02       	.word	H'1,H'2
  68:	0c 0c       	mov.b	r0h,r4l
  6a:	07 04       	ldc	#0x4,ccr
  6c:	11 0c       	shlr.b	r4l
  6e:	7e 00       	.word	H'7e,H'0
  70:	00 00       	nop	
  72:	00 20       	.word	H'0,H'20
  74:	00 00       	nop	
  76:	00 5c       	.word	H'0,H'5c
  78:	00 ff       	.word	H'0,H'ff
  7a:	c0 b6       	or.b	#0xb6,r0h
  7c:	00 00       	nop	
  7e:	00 70       	.word	H'0,H'70
  80:	04 00       	orc	#0x0,ccr
  82:	00 00       	nop	
  84:	04 0e       	orc	#0xe,ccr
  86:	08 11       	add.b	r1h,r1h
  88:	06 7c       	andc	#0x7c,ccr
  8a:	04 00       	orc	#0x0,ccr
  8c:	00 00       	nop	
  8e:	02 0d       	stc	ccr,r5l
  90:	06 00       	andc	#0x0,ccr
  92:	00 00       	nop	
  94:	00 00       	nop	
  96:	00 20       	.word	H'0,H'20
  98:	00 00       	nop	
  9a:	00 5c       	.word	H'0,H'5c
  9c:	00 ff       	.word	H'0,H'ff
  9e:	c1 26       	or.b	#0x26,r1h
  a0:	00 00       	nop	
  a2:	00 1e       	.word	H'0,H'1e
  a4:	04 00       	orc	#0x0,ccr
  a6:	00 00       	nop	
  a8:	04 0e       	orc	#0xe,ccr
  aa:	08 11       	add.b	r1h,r1h
  ac:	06 7c       	andc	#0x7c,ccr
  ae:	04 00       	orc	#0x0,ccr
  b0:	00 00       	nop	
  b2:	02 0d       	stc	ccr,r5l
  b4:	06 00       	andc	#0x0,ccr
  b6:	00 00       	nop	
  b8:	00 00       	nop	
  ba:	00 20       	.word	H'0,H'20
  bc:	00 00       	nop	
  be:	00 5c       	.word	H'0,H'5c
  c0:	00 ff       	.word	H'0,H'ff
  c2:	c1 44       	or.b	#0x44,r1h
  c4:	00 00       	nop	
  c6:	00 22       	.word	H'0,H'22
  c8:	04 00       	orc	#0x0,ccr
  ca:	00 00       	nop	
  cc:	04 0e       	orc	#0xe,ccr
  ce:	08 11       	add.b	r1h,r1h
  d0:	06 7c       	andc	#0x7c,ccr
  d2:	04 00       	orc	#0x0,ccr
  d4:	00 00       	nop	
  d6:	02 0d       	stc	ccr,r5l
  d8:	06 00       	andc	#0x0,ccr
	...

000000dc <.Lframe0>:
  dc:	00 00       	nop	
  de:	00 10       	.word	H'0,H'10
  e0:	ff ff       	mov.b	#0xff,r7l
  e2:	ff ff       	mov.b	#0xff,r7l
  e4:	03 00       	ldc	r0h,ccr
  e6:	01 02       	.word	H'1,H'2
  e8:	0c 0c       	mov.b	r0h,r4l
  ea:	07 04       	ldc	#0x4,ccr
  ec:	11 0c       	shlr.b	r4l
  ee:	7e 00       	.word	H'7e,H'0
  f0:	00 00       	nop	
  f2:	00 20       	.word	H'0,H'20
  f4:	00 00       	nop	
  f6:	00 dc       	.word	H'0,H'dc
  f8:	00 ff       	.word	H'0,H'ff
  fa:	c1 66       	or.b	#0x66,r1h
  fc:	00 00       	nop	
  fe:	00 26       	.word	H'0,H'26
 100:	04 00       	orc	#0x0,ccr
 102:	00 00       	nop	
 104:	04 0e       	orc	#0xe,ccr
 106:	08 11       	add.b	r1h,r1h
 108:	06 7c       	andc	#0x7c,ccr
 10a:	04 00       	orc	#0x0,ccr
 10c:	00 00       	nop	
 10e:	02 0d       	stc	ccr,r5l
 110:	06 00       	andc	#0x0,ccr
 112:	00 00       	nop	
 114:	00 00       	nop	
 116:	00 20       	.word	H'0,H'20
 118:	00 00       	nop	
 11a:	00 dc       	.word	H'0,H'dc
 11c:	00 ff       	.word	H'0,H'ff
 11e:	c1 8c       	or.b	#0x8c,r1h
 120:	00 00       	nop	
 122:	00 36       	.word	H'0,H'36
 124:	04 00       	orc	#0x0,ccr
 126:	00 00       	nop	
 128:	04 0e       	orc	#0xe,ccr
 12a:	08 11       	add.b	r1h,r1h
 12c:	06 7c       	andc	#0x7c,ccr
 12e:	04 00       	orc	#0x0,ccr
 130:	00 00       	nop	
 132:	02 0d       	stc	ccr,r5l
 134:	06 00       	andc	#0x0,ccr
 136:	00 00       	nop	
 138:	00 00       	nop	
 13a:	00 20       	.word	H'0,H'20
 13c:	00 00       	nop	
 13e:	00 dc       	.word	H'0,H'dc
 140:	00 ff       	.word	H'0,H'ff
 142:	c1 c2       	or.b	#0xc2,r1h
 144:	00 00       	nop	
 146:	00 3c       	.word	H'0,H'3c
 148:	04 00       	orc	#0x0,ccr
 14a:	00 00       	nop	
 14c:	04 0e       	orc	#0xe,ccr
 14e:	08 11       	add.b	r1h,r1h
 150:	06 7c       	andc	#0x7c,ccr
 152:	04 00       	orc	#0x0,ccr
 154:	00 00       	nop	
 156:	02 0d       	stc	ccr,r5l
 158:	06 00       	andc	#0x0,ccr
 15a:	00 00       	nop	
 15c:	00 00       	nop	
 15e:	00 20       	.word	H'0,H'20
 160:	00 00       	nop	
 162:	00 dc       	.word	H'0,H'dc
 164:	00 ff       	.word	H'0,H'ff
 166:	c1 fe       	or.b	#0xfe,r1h
 168:	00 00       	nop	
 16a:	00 1a       	.word	H'0,H'1a
 16c:	04 00       	orc	#0x0,ccr
 16e:	00 00       	nop	
 170:	04 0e       	orc	#0xe,ccr
 172:	08 11       	add.b	r1h,r1h
 174:	06 7c       	andc	#0x7c,ccr
 176:	04 00       	orc	#0x0,ccr
 178:	00 00       	nop	
 17a:	02 0d       	stc	ccr,r5l
 17c:	06 00       	andc	#0x0,ccr
 17e:	00 00       	nop	
 180:	00 00       	nop	
 182:	00 20       	.word	H'0,H'20
 184:	00 00       	nop	
 186:	00 dc       	.word	H'0,H'dc
 188:	00 ff       	.word	H'0,H'ff
 18a:	c2 18       	or.b	#0x18,r2h
 18c:	00 00       	nop	
 18e:	00 1c       	.word	H'0,H'1c
 190:	04 00       	orc	#0x0,ccr
 192:	00 00       	nop	
 194:	04 0e       	orc	#0xe,ccr
 196:	08 11       	add.b	r1h,r1h
 198:	06 7c       	andc	#0x7c,ccr
 19a:	04 00       	orc	#0x0,ccr
 19c:	00 00       	nop	
 19e:	02 0d       	stc	ccr,r5l
 1a0:	06 00       	andc	#0x0,ccr
 1a2:	00 00       	nop	
 1a4:	00 00       	nop	
 1a6:	00 20       	.word	H'0,H'20
 1a8:	00 00       	nop	
 1aa:	00 dc       	.word	H'0,H'dc
 1ac:	00 ff       	.word	H'0,H'ff
 1ae:	c2 34       	or.b	#0x34,r2h
 1b0:	00 00       	nop	
 1b2:	00 38       	.word	H'0,H'38
 1b4:	04 00       	orc	#0x0,ccr
 1b6:	00 00       	nop	
 1b8:	04 0e       	orc	#0xe,ccr
 1ba:	08 11       	add.b	r1h,r1h
 1bc:	06 7c       	andc	#0x7c,ccr
 1be:	04 00       	orc	#0x0,ccr
 1c0:	00 00       	nop	
 1c2:	02 0d       	stc	ccr,r5l
 1c4:	06 00       	andc	#0x0,ccr
 1c6:	00 00       	nop	
 1c8:	00 00       	nop	
 1ca:	00 20       	.word	H'0,H'20
 1cc:	00 00       	nop	
 1ce:	00 dc       	.word	H'0,H'dc
 1d0:	00 ff       	.word	H'0,H'ff
 1d2:	c2 6c       	or.b	#0x6c,r2h
 1d4:	00 00       	nop	
 1d6:	00 4e       	.word	H'0,H'4e
 1d8:	04 00       	orc	#0x0,ccr
 1da:	00 00       	nop	
 1dc:	04 0e       	orc	#0xe,ccr
 1de:	08 11       	add.b	r1h,r1h
 1e0:	06 7c       	andc	#0x7c,ccr
 1e2:	04 00       	orc	#0x0,ccr
 1e4:	00 00       	nop	
 1e6:	02 0d       	stc	ccr,r5l
 1e8:	06 00       	andc	#0x0,ccr
 1ea:	00 00       	nop	
 1ec:	00 00       	nop	
 1ee:	00 20       	.word	H'0,H'20
 1f0:	00 00       	nop	
 1f2:	00 dc       	.word	H'0,H'dc
 1f4:	00 ff       	.word	H'0,H'ff
 1f6:	c2 ba       	or.b	#0xba,r2h
 1f8:	00 00       	nop	
 1fa:	00 2e       	.word	H'0,H'2e
 1fc:	04 00       	orc	#0x0,ccr
 1fe:	00 00       	nop	
 200:	04 0e       	orc	#0xe,ccr
 202:	08 11       	add.b	r1h,r1h
 204:	06 7c       	andc	#0x7c,ccr
 206:	04 00       	orc	#0x0,ccr
 208:	00 00       	nop	
 20a:	02 0d       	stc	ccr,r5l
 20c:	06 00       	andc	#0x0,ccr
 20e:	00 00       	nop	
 210:	00 00       	nop	
 212:	00 20       	.word	H'0,H'20
 214:	00 00       	nop	
 216:	00 dc       	.word	H'0,H'dc
 218:	00 ff       	.word	H'0,H'ff
 21a:	c2 e8       	or.b	#0xe8,r2h
 21c:	00 00       	nop	
 21e:	00 2c       	.word	H'0,H'2c
 220:	04 00       	orc	#0x0,ccr
 222:	00 00       	nop	
 224:	04 0e       	orc	#0xe,ccr
 226:	08 11       	add.b	r1h,r1h
 228:	06 7c       	andc	#0x7c,ccr
 22a:	04 00       	orc	#0x0,ccr
 22c:	00 00       	nop	
 22e:	02 0d       	stc	ccr,r5l
 230:	06 00       	andc	#0x0,ccr
 232:	00 00       	nop	
 234:	00 00       	nop	
 236:	00 20       	.word	H'0,H'20
 238:	00 00       	nop	
 23a:	00 dc       	.word	H'0,H'dc
 23c:	00 ff       	.word	H'0,H'ff
 23e:	c3 14       	or.b	#0x14,r3h
 240:	00 00       	nop	
 242:	00 24       	.word	H'0,H'24
 244:	04 00       	orc	#0x0,ccr
 246:	00 00       	nop	
 248:	04 0e       	orc	#0xe,ccr
 24a:	08 11       	add.b	r1h,r1h
 24c:	06 7c       	andc	#0x7c,ccr
 24e:	04 00       	orc	#0x0,ccr
 250:	00 00       	nop	
 252:	02 0d       	stc	ccr,r5l
 254:	06 00       	andc	#0x0,ccr
 256:	00 00       	nop	
 258:	00 00       	nop	
 25a:	00 20       	.word	H'0,H'20
 25c:	00 00       	nop	
 25e:	00 dc       	.word	H'0,H'dc
 260:	00 ff       	.word	H'0,H'ff
 262:	c3 38       	or.b	#0x38,r3h
 264:	00 00       	nop	
 266:	00 46       	.word	H'0,H'46
 268:	04 00       	orc	#0x0,ccr
 26a:	00 00       	nop	
 26c:	04 0e       	orc	#0xe,ccr
 26e:	08 11       	add.b	r1h,r1h
 270:	06 7c       	andc	#0x7c,ccr
 272:	04 00       	orc	#0x0,ccr
 274:	00 00       	nop	
 276:	02 0d       	stc	ccr,r5l
 278:	06 00       	andc	#0x0,ccr
 27a:	00 00       	nop	
 27c:	00 00       	nop	
 27e:	00 20       	.word	H'0,H'20
 280:	00 00       	nop	
 282:	00 dc       	.word	H'0,H'dc
 284:	00 ff       	.word	H'0,H'ff
 286:	c3 7e       	or.b	#0x7e,r3h
 288:	00 00       	nop	
 28a:	00 6e       	.word	H'0,H'6e
 28c:	04 00       	orc	#0x0,ccr
 28e:	00 00       	nop	
 290:	04 0e       	orc	#0xe,ccr
 292:	08 11       	add.b	r1h,r1h
 294:	06 7c       	andc	#0x7c,ccr
 296:	04 00       	orc	#0x0,ccr
 298:	00 00       	nop	
 29a:	02 0d       	stc	ccr,r5l
 29c:	06 00       	andc	#0x0,ccr
	...

000002a0 <.Lframe0>:
 2a0:	00 00       	nop	
 2a2:	00 10       	.word	H'0,H'10
 2a4:	ff ff       	mov.b	#0xff,r7l
 2a6:	ff ff       	mov.b	#0xff,r7l
 2a8:	03 00       	ldc	r0h,ccr
 2aa:	01 02       	.word	H'1,H'2
 2ac:	0c 0c       	mov.b	r0h,r4l
 2ae:	07 04       	ldc	#0x4,ccr
 2b0:	11 0c       	shlr.b	r4l
 2b2:	7e 00       	.word	H'7e,H'0
 2b4:	00 00       	nop	
 2b6:	00 20       	.word	H'0,H'20
 2b8:	00 00       	nop	
 2ba:	02 a0       	stmac	mach,er0
 2bc:	00 ff       	.word	H'0,H'ff
 2be:	c3 ec       	or.b	#0xec,r3h
 2c0:	00 00       	nop	
 2c2:	00 36       	.word	H'0,H'36
 2c4:	04 00       	orc	#0x0,ccr
 2c6:	00 00       	nop	
 2c8:	04 0e       	orc	#0xe,ccr
 2ca:	08 11       	add.b	r1h,r1h
 2cc:	06 7c       	andc	#0x7c,ccr
 2ce:	04 00       	orc	#0x0,ccr
 2d0:	00 00       	nop	
 2d2:	02 0d       	stc	ccr,r5l
 2d4:	06 00       	andc	#0x0,ccr
 2d6:	00 00       	nop	
 2d8:	00 00       	nop	
 2da:	00 20       	.word	H'0,H'20
 2dc:	00 00       	nop	
 2de:	02 a0       	stmac	mach,er0
 2e0:	00 ff       	.word	H'0,H'ff
 2e2:	c4 22       	or.b	#0x22,r4h
 2e4:	00 00       	nop	
 2e6:	00 24       	.word	H'0,H'24
 2e8:	04 00       	orc	#0x0,ccr
 2ea:	00 00       	nop	
 2ec:	04 0e       	orc	#0xe,ccr
 2ee:	08 11       	add.b	r1h,r1h
 2f0:	06 7c       	andc	#0x7c,ccr
 2f2:	04 00       	orc	#0x0,ccr
 2f4:	00 00       	nop	
 2f6:	02 0d       	stc	ccr,r5l
 2f8:	06 00       	andc	#0x0,ccr
 2fa:	00 00       	nop	
 2fc:	00 00       	nop	
 2fe:	00 20       	.word	H'0,H'20
 300:	00 00       	nop	
 302:	02 a0       	stmac	mach,er0
 304:	00 ff       	.word	H'0,H'ff
 306:	c4 46       	or.b	#0x46,r4h
 308:	00 00       	nop	
 30a:	00 32       	.word	H'0,H'32
 30c:	04 00       	orc	#0x0,ccr
 30e:	00 00       	nop	
 310:	04 0e       	orc	#0xe,ccr
 312:	08 11       	add.b	r1h,r1h
 314:	06 7c       	andc	#0x7c,ccr
 316:	04 00       	orc	#0x0,ccr
 318:	00 00       	nop	
 31a:	02 0d       	stc	ccr,r5l
 31c:	06 00       	andc	#0x0,ccr
 31e:	00 00       	nop	
 320:	00 00       	nop	
 322:	00 20       	.word	H'0,H'20
 324:	00 00       	nop	
 326:	02 a0       	stmac	mach,er0
 328:	00 ff       	.word	H'0,H'ff
 32a:	c4 78       	or.b	#0x78,r4h
 32c:	00 00       	nop	
 32e:	00 24       	.word	H'0,H'24
 330:	04 00       	orc	#0x0,ccr
 332:	00 00       	nop	
 334:	04 0e       	orc	#0xe,ccr
 336:	08 11       	add.b	r1h,r1h
 338:	06 7c       	andc	#0x7c,ccr
 33a:	04 00       	orc	#0x0,ccr
 33c:	00 00       	nop	
 33e:	02 0d       	stc	ccr,r5l
 340:	06 00       	andc	#0x0,ccr
 342:	00 00       	nop	
 344:	00 00       	nop	
 346:	00 20       	.word	H'0,H'20
 348:	00 00       	nop	
 34a:	02 a0       	stmac	mach,er0
 34c:	00 ff       	.word	H'0,H'ff
 34e:	c4 9c       	or.b	#0x9c,r4h
 350:	00 00       	nop	
 352:	00 32       	.word	H'0,H'32
 354:	04 00       	orc	#0x0,ccr
 356:	00 00       	nop	
 358:	04 0e       	orc	#0xe,ccr
 35a:	08 11       	add.b	r1h,r1h
 35c:	06 7c       	andc	#0x7c,ccr
 35e:	04 00       	orc	#0x0,ccr
 360:	00 00       	nop	
 362:	02 0d       	stc	ccr,r5l
 364:	06 00       	andc	#0x0,ccr
 366:	00 00       	nop	
 368:	00 00       	nop	
 36a:	00 20       	.word	H'0,H'20
 36c:	00 00       	nop	
 36e:	02 a0       	stmac	mach,er0
 370:	00 ff       	.word	H'0,H'ff
 372:	c4 ce       	or.b	#0xce,r4h
 374:	00 00       	nop	
 376:	00 28       	.word	H'0,H'28
 378:	04 00       	orc	#0x0,ccr
 37a:	00 00       	nop	
 37c:	04 0e       	orc	#0xe,ccr
 37e:	08 11       	add.b	r1h,r1h
 380:	06 7c       	andc	#0x7c,ccr
 382:	04 00       	orc	#0x0,ccr
 384:	00 00       	nop	
 386:	02 0d       	stc	ccr,r5l
 388:	06 00       	andc	#0x0,ccr
 38a:	00 00       	nop	
 38c:	00 00       	nop	
 38e:	00 20       	.word	H'0,H'20
 390:	00 00       	nop	
 392:	02 a0       	stmac	mach,er0
 394:	00 ff       	.word	H'0,H'ff
 396:	c4 f6       	or.b	#0xf6,r4h
 398:	00 00       	nop	
 39a:	00 26       	.word	H'0,H'26
 39c:	04 00       	orc	#0x0,ccr
 39e:	00 00       	nop	
 3a0:	04 0e       	orc	#0xe,ccr
 3a2:	08 11       	add.b	r1h,r1h
 3a4:	06 7c       	andc	#0x7c,ccr
 3a6:	04 00       	orc	#0x0,ccr
 3a8:	00 00       	nop	
 3aa:	02 0d       	stc	ccr,r5l
 3ac:	06 00       	andc	#0x0,ccr
 3ae:	00 00       	nop	
 3b0:	00 00       	nop	
 3b2:	00 20       	.word	H'0,H'20
 3b4:	00 00       	nop	
 3b6:	02 a0       	stmac	mach,er0
 3b8:	00 ff       	.word	H'0,H'ff
 3ba:	c5 1c       	or.b	#0x1c,r5h
 3bc:	00 00       	nop	
 3be:	00 26       	.word	H'0,H'26
 3c0:	04 00       	orc	#0x0,ccr
 3c2:	00 00       	nop	
 3c4:	04 0e       	orc	#0xe,ccr
 3c6:	08 11       	add.b	r1h,r1h
 3c8:	06 7c       	andc	#0x7c,ccr
 3ca:	04 00       	orc	#0x0,ccr
 3cc:	00 00       	nop	
 3ce:	02 0d       	stc	ccr,r5l
 3d0:	06 00       	andc	#0x0,ccr
 3d2:	00 00       	nop	
 3d4:	00 00       	nop	
 3d6:	00 20       	.word	H'0,H'20
 3d8:	00 00       	nop	
 3da:	02 a0       	stmac	mach,er0
 3dc:	00 ff       	.word	H'0,H'ff
 3de:	c5 42       	or.b	#0x42,r5h
 3e0:	00 00       	nop	
 3e2:	00 28       	.word	H'0,H'28
 3e4:	04 00       	orc	#0x0,ccr
 3e6:	00 00       	nop	
 3e8:	04 0e       	orc	#0xe,ccr
 3ea:	08 11       	add.b	r1h,r1h
 3ec:	06 7c       	andc	#0x7c,ccr
 3ee:	04 00       	orc	#0x0,ccr
 3f0:	00 00       	nop	
 3f2:	02 0d       	stc	ccr,r5l
 3f4:	06 00       	andc	#0x0,ccr
 3f6:	00 00       	nop	
 3f8:	00 00       	nop	
 3fa:	00 20       	.word	H'0,H'20
 3fc:	00 00       	nop	
 3fe:	02 a0       	stmac	mach,er0
 400:	00 ff       	.word	H'0,H'ff
 402:	c5 6a       	or.b	#0x6a,r5h
 404:	00 00       	nop	
 406:	00 26       	.word	H'0,H'26
 408:	04 00       	orc	#0x0,ccr
 40a:	00 00       	nop	
 40c:	04 0e       	orc	#0xe,ccr
 40e:	08 11       	add.b	r1h,r1h
 410:	06 7c       	andc	#0x7c,ccr
 412:	04 00       	orc	#0x0,ccr
 414:	00 00       	nop	
 416:	02 0d       	stc	ccr,r5l
 418:	06 00       	andc	#0x0,ccr
 41a:	00 00       	nop	
 41c:	00 00       	nop	
 41e:	00 20       	.word	H'0,H'20
 420:	00 00       	nop	
 422:	02 a0       	stmac	mach,er0
 424:	00 ff       	.word	H'0,H'ff
 426:	c5 90       	or.b	#0x90,r5h
 428:	00 00       	nop	
 42a:	00 26       	.word	H'0,H'26
 42c:	04 00       	orc	#0x0,ccr
 42e:	00 00       	nop	
 430:	04 0e       	orc	#0xe,ccr
 432:	08 11       	add.b	r1h,r1h
 434:	06 7c       	andc	#0x7c,ccr
 436:	04 00       	orc	#0x0,ccr
 438:	00 00       	nop	
 43a:	02 0d       	stc	ccr,r5l
 43c:	06 00       	andc	#0x0,ccr
	...

00000440 <.Lframe0>:
 440:	00 00       	nop	
 442:	00 10       	.word	H'0,H'10
 444:	ff ff       	mov.b	#0xff,r7l
 446:	ff ff       	mov.b	#0xff,r7l
 448:	03 00       	ldc	r0h,ccr
 44a:	01 02       	.word	H'1,H'2
 44c:	0c 0c       	mov.b	r0h,r4l
 44e:	07 04       	ldc	#0x4,ccr
 450:	11 0c       	shlr.b	r4l
 452:	7e 00       	.word	H'7e,H'0
 454:	00 00       	nop	
 456:	00 20       	.word	H'0,H'20
 458:	00 00       	nop	
 45a:	04 40       	orc	#0x40,ccr
 45c:	00 ff       	.word	H'0,H'ff
 45e:	c5 b6       	or.b	#0xb6,r5h
 460:	00 00       	nop	
 462:	00 4a       	.word	H'0,H'4a
 464:	04 00       	orc	#0x0,ccr
 466:	00 00       	nop	
 468:	04 0e       	orc	#0xe,ccr
 46a:	08 11       	add.b	r1h,r1h
 46c:	06 7c       	andc	#0x7c,ccr
 46e:	04 00       	orc	#0x0,ccr
 470:	00 00       	nop	
 472:	02 0d       	stc	ccr,r5l
 474:	06 00       	andc	#0x0,ccr
 476:	00 00       	nop	
 478:	00 00       	nop	
 47a:	00 20       	.word	H'0,H'20
 47c:	00 00       	nop	
 47e:	04 40       	orc	#0x40,ccr
 480:	00 ff       	.word	H'0,H'ff
 482:	c6 00       	or.b	#0x0,r6h
 484:	00 00       	nop	
 486:	00 28       	.word	H'0,H'28
 488:	04 00       	orc	#0x0,ccr
 48a:	00 00       	nop	
 48c:	04 0e       	orc	#0xe,ccr
 48e:	08 11       	add.b	r1h,r1h
 490:	06 7c       	andc	#0x7c,ccr
 492:	04 00       	orc	#0x0,ccr
 494:	00 00       	nop	
 496:	02 0d       	stc	ccr,r5l
 498:	06 00       	andc	#0x0,ccr
 49a:	00 00       	nop	
 49c:	00 00       	nop	
 49e:	00 20       	.word	H'0,H'20
 4a0:	00 00       	nop	
 4a2:	04 40       	orc	#0x40,ccr
 4a4:	00 ff       	.word	H'0,H'ff
 4a6:	c6 28       	or.b	#0x28,r6h
 4a8:	00 00       	nop	
 4aa:	00 28       	.word	H'0,H'28
 4ac:	04 00       	orc	#0x0,ccr
 4ae:	00 00       	nop	
 4b0:	04 0e       	orc	#0xe,ccr
 4b2:	08 11       	add.b	r1h,r1h
 4b4:	06 7c       	andc	#0x7c,ccr
 4b6:	04 00       	orc	#0x0,ccr
 4b8:	00 00       	nop	
 4ba:	02 0d       	stc	ccr,r5l
 4bc:	06 00       	andc	#0x0,ccr
 4be:	00 00       	nop	
 4c0:	00 00       	nop	
 4c2:	00 20       	.word	H'0,H'20
 4c4:	00 00       	nop	
 4c6:	04 40       	orc	#0x40,ccr
 4c8:	00 ff       	.word	H'0,H'ff
 4ca:	c6 50       	or.b	#0x50,r6h
 4cc:	00 00       	nop	
 4ce:	00 3a       	.word	H'0,H'3a
 4d0:	04 00       	orc	#0x0,ccr
 4d2:	00 00       	nop	
 4d4:	04 0e       	orc	#0xe,ccr
 4d6:	08 11       	add.b	r1h,r1h
 4d8:	06 7c       	andc	#0x7c,ccr
 4da:	04 00       	orc	#0x0,ccr
 4dc:	00 00       	nop	
 4de:	02 0d       	stc	ccr,r5l
 4e0:	06 00       	andc	#0x0,ccr
	...

000004e4 <.Lframe0>:
 4e4:	00 00       	nop	
 4e6:	00 10       	.word	H'0,H'10
 4e8:	ff ff       	mov.b	#0xff,r7l
 4ea:	ff ff       	mov.b	#0xff,r7l
 4ec:	03 00       	ldc	r0h,ccr
 4ee:	01 02       	.word	H'1,H'2
 4f0:	0c 0c       	mov.b	r0h,r4l
 4f2:	07 04       	ldc	#0x4,ccr
 4f4:	11 0c       	shlr.b	r4l
 4f6:	7e 00       	.word	H'7e,H'0
 4f8:	00 00       	nop	
 4fa:	00 20       	.word	H'0,H'20
 4fc:	00 00       	nop	
 4fe:	04 e4       	orc	#0xe4,ccr
 500:	00 ff       	.word	H'0,H'ff
 502:	c6 8a       	or.b	#0x8a,r6h
 504:	00 00       	nop	
 506:	00 5e       	.word	H'0,H'5e
 508:	04 00       	orc	#0x0,ccr
 50a:	00 00       	nop	
 50c:	04 0e       	orc	#0xe,ccr
 50e:	08 11       	add.b	r1h,r1h
 510:	06 7c       	andc	#0x7c,ccr
 512:	04 00       	orc	#0x0,ccr
 514:	00 00       	nop	
 516:	02 0d       	stc	ccr,r5l
 518:	06 00       	andc	#0x0,ccr
 51a:	00 00       	nop	
 51c:	00 00       	nop	
 51e:	00 20       	.word	H'0,H'20
 520:	00 00       	nop	
 522:	04 e4       	orc	#0xe4,ccr
 524:	00 ff       	.word	H'0,H'ff
 526:	c6 e8       	or.b	#0xe8,r6h
 528:	00 00       	nop	
 52a:	00 80       	.word	H'0,H'80
 52c:	04 00       	orc	#0x0,ccr
 52e:	00 00       	nop	
 530:	04 0e       	orc	#0xe,ccr
 532:	08 11       	add.b	r1h,r1h
 534:	06 7c       	andc	#0x7c,ccr
 536:	04 00       	orc	#0x0,ccr
 538:	00 00       	nop	
 53a:	02 0d       	stc	ccr,r5l
 53c:	06 00       	andc	#0x0,ccr
 53e:	00 00       	nop	
 540:	00 00       	nop	
 542:	00 20       	.word	H'0,H'20
 544:	00 00       	nop	
 546:	04 e4       	orc	#0xe4,ccr
 548:	00 ff       	.word	H'0,H'ff
 54a:	c7 68       	or.b	#0x68,r7h
 54c:	00 00       	nop	
 54e:	00 38       	.word	H'0,H'38
 550:	04 00       	orc	#0x0,ccr
 552:	00 00       	nop	
 554:	04 0e       	orc	#0xe,ccr
 556:	08 11       	add.b	r1h,r1h
 558:	06 7c       	andc	#0x7c,ccr
 55a:	04 00       	orc	#0x0,ccr
 55c:	00 00       	nop	
 55e:	02 0d       	stc	ccr,r5l
 560:	06 00       	andc	#0x0,ccr
 562:	00 00       	nop	
 564:	00 00       	nop	
 566:	00 20       	.word	H'0,H'20
 568:	00 00       	nop	
 56a:	04 e4       	orc	#0xe4,ccr
 56c:	00 ff       	.word	H'0,H'ff
 56e:	c7 a0       	or.b	#0xa0,r7h
 570:	00 00       	nop	
 572:	00 2c       	.word	H'0,H'2c
 574:	04 00       	orc	#0x0,ccr
 576:	00 00       	nop	
 578:	04 0e       	orc	#0xe,ccr
 57a:	08 11       	add.b	r1h,r1h
 57c:	06 7c       	andc	#0x7c,ccr
 57e:	04 00       	orc	#0x0,ccr
 580:	00 00       	nop	
 582:	02 0d       	stc	ccr,r5l
 584:	06 00       	andc	#0x0,ccr
 586:	00 00       	nop	
 588:	00 00       	nop	
 58a:	00 20       	.word	H'0,H'20
 58c:	00 00       	nop	
 58e:	04 e4       	orc	#0xe4,ccr
 590:	00 ff       	.word	H'0,H'ff
 592:	c7 cc       	or.b	#0xcc,r7h
 594:	00 00       	nop	
 596:	00 74       	.word	H'0,H'74
 598:	04 00       	orc	#0x0,ccr
 59a:	00 00       	nop	
 59c:	04 0e       	orc	#0xe,ccr
 59e:	08 11       	add.b	r1h,r1h
 5a0:	06 7c       	andc	#0x7c,ccr
 5a2:	04 00       	orc	#0x0,ccr
 5a4:	00 00       	nop	
 5a6:	02 0d       	stc	ccr,r5l
 5a8:	06 00       	andc	#0x0,ccr
 5aa:	00 00       	nop	
 5ac:	00 00       	nop	
 5ae:	00 20       	.word	H'0,H'20
 5b0:	00 00       	nop	
 5b2:	04 e4       	orc	#0xe4,ccr
 5b4:	00 ff       	.word	H'0,H'ff
 5b6:	c8 40       	or.b	#0x40,r0l
 5b8:	00 00       	nop	
 5ba:	01 8c       	.word	H'1,H'8c
 5bc:	04 00       	orc	#0x0,ccr
 5be:	00 00       	nop	
 5c0:	04 0e       	orc	#0xe,ccr
 5c2:	08 11       	add.b	r1h,r1h
 5c4:	06 7c       	andc	#0x7c,ccr
 5c6:	04 00       	orc	#0x0,ccr
 5c8:	00 00       	nop	
 5ca:	02 0d       	stc	ccr,r5l
 5cc:	06 00       	andc	#0x0,ccr
 5ce:	00 00       	nop	
 5d0:	00 00       	nop	
 5d2:	00 20       	.word	H'0,H'20
 5d4:	00 00       	nop	
 5d6:	04 e4       	orc	#0xe4,ccr
 5d8:	00 ff       	.word	H'0,H'ff
 5da:	c9 cc       	or.b	#0xcc,r1l
 5dc:	00 00       	nop	
 5de:	00 10       	.word	H'0,H'10
 5e0:	04 00       	orc	#0x0,ccr
 5e2:	00 00       	nop	
 5e4:	04 0e       	orc	#0xe,ccr
 5e6:	08 11       	add.b	r1h,r1h
 5e8:	06 7c       	andc	#0x7c,ccr
 5ea:	04 00       	orc	#0x0,ccr
 5ec:	00 00       	nop	
 5ee:	02 0d       	stc	ccr,r5l
 5f0:	06 00       	andc	#0x0,ccr
 5f2:	00 00       	nop	
 5f4:	00 00       	nop	
 5f6:	00 20       	.word	H'0,H'20
 5f8:	00 00       	nop	
 5fa:	04 e4       	orc	#0xe4,ccr
 5fc:	00 ff       	.word	H'0,H'ff
 5fe:	c9 dc       	or.b	#0xdc,r1l
 600:	00 00       	nop	
 602:	00 22       	.word	H'0,H'22
 604:	04 00       	orc	#0x0,ccr
 606:	00 00       	nop	
 608:	04 0e       	orc	#0xe,ccr
 60a:	08 11       	add.b	r1h,r1h
 60c:	06 7c       	andc	#0x7c,ccr
 60e:	04 00       	orc	#0x0,ccr
 610:	00 00       	nop	
 612:	02 0d       	stc	ccr,r5l
 614:	06 00       	andc	#0x0,ccr
 616:	00 00       	nop	
 618:	00 00       	nop	
 61a:	00 20       	.word	H'0,H'20
 61c:	00 00       	nop	
 61e:	04 e4       	orc	#0xe4,ccr
 620:	00 ff       	.word	H'0,H'ff
 622:	c9 fe       	or.b	#0xfe,r1l
 624:	00 00       	nop	
 626:	00 fe       	.word	H'0,H'fe
 628:	04 00       	orc	#0x0,ccr
 62a:	00 00       	nop	
 62c:	04 0e       	orc	#0xe,ccr
 62e:	08 11       	add.b	r1h,r1h
 630:	06 7c       	andc	#0x7c,ccr
 632:	04 00       	orc	#0x0,ccr
 634:	00 00       	nop	
 636:	02 0d       	stc	ccr,r5l
 638:	06 00       	andc	#0x0,ccr
 63a:	00 00       	nop	
 63c:	00 00       	nop	
 63e:	00 20       	.word	H'0,H'20
 640:	00 00       	nop	
 642:	04 e4       	orc	#0xe4,ccr
 644:	00 ff       	.word	H'0,H'ff
 646:	ca fc       	or.b	#0xfc,r2l
 648:	00 00       	nop	
 64a:	00 12       	.word	H'0,H'12
 64c:	04 00       	orc	#0x0,ccr
 64e:	00 00       	nop	
 650:	04 0e       	orc	#0xe,ccr
 652:	08 11       	add.b	r1h,r1h
 654:	06 7c       	andc	#0x7c,ccr
 656:	04 00       	orc	#0x0,ccr
 658:	00 00       	nop	
 65a:	02 0d       	stc	ccr,r5l
 65c:	06 00       	andc	#0x0,ccr
 65e:	00 00       	nop	
 660:	00 00       	nop	
 662:	00 20       	.word	H'0,H'20
 664:	00 00       	nop	
 666:	04 e4       	orc	#0xe4,ccr
 668:	00 ff       	.word	H'0,H'ff
 66a:	cb 0e       	or.b	#0xe,r3l
 66c:	00 00       	nop	
 66e:	02 64       	stc	vbr,er4
 670:	04 00       	orc	#0x0,ccr
 672:	00 00       	nop	
 674:	04 0e       	orc	#0xe,ccr
 676:	08 11       	add.b	r1h,r1h
 678:	06 7c       	andc	#0x7c,ccr
 67a:	04 00       	orc	#0x0,ccr
 67c:	00 00       	nop	
 67e:	02 0d       	stc	ccr,r5l
 680:	06 00       	andc	#0x0,ccr
 682:	00 00       	nop	
 684:	00 00       	nop	
 686:	00 20       	.word	H'0,H'20
 688:	00 00       	nop	
 68a:	04 e4       	orc	#0xe4,ccr
 68c:	00 ff       	.word	H'0,H'ff
 68e:	cd 72       	or.b	#0x72,r5l
 690:	00 00       	nop	
 692:	00 3a       	.word	H'0,H'3a
 694:	04 00       	orc	#0x0,ccr
 696:	00 00       	nop	
 698:	04 0e       	orc	#0xe,ccr
 69a:	08 11       	add.b	r1h,r1h
 69c:	06 7c       	andc	#0x7c,ccr
 69e:	04 00       	orc	#0x0,ccr
 6a0:	00 00       	nop	
 6a2:	02 0d       	stc	ccr,r5l
 6a4:	06 00       	andc	#0x0,ccr
 6a6:	00 00       	nop	
 6a8:	00 00       	nop	
 6aa:	00 20       	.word	H'0,H'20
 6ac:	00 00       	nop	
 6ae:	04 e4       	orc	#0xe4,ccr
 6b0:	00 ff       	.word	H'0,H'ff
 6b2:	cd ac       	or.b	#0xac,r5l
 6b4:	00 00       	nop	
 6b6:	00 5e       	.word	H'0,H'5e
 6b8:	04 00       	orc	#0x0,ccr
 6ba:	00 00       	nop	
 6bc:	04 0e       	orc	#0xe,ccr
 6be:	08 11       	add.b	r1h,r1h
 6c0:	06 7c       	andc	#0x7c,ccr
 6c2:	04 00       	orc	#0x0,ccr
 6c4:	00 00       	nop	
 6c6:	02 0d       	stc	ccr,r5l
 6c8:	06 00       	andc	#0x0,ccr
 6ca:	00 00       	nop	
 6cc:	00 00       	nop	
 6ce:	00 20       	.word	H'0,H'20
 6d0:	00 00       	nop	
 6d2:	04 e4       	orc	#0xe4,ccr
 6d4:	00 ff       	.word	H'0,H'ff
 6d6:	ce 0a       	or.b	#0xa,r6l
 6d8:	00 00       	nop	
 6da:	00 20       	.word	H'0,H'20
 6dc:	04 00       	orc	#0x0,ccr
 6de:	00 00       	nop	
 6e0:	04 0e       	orc	#0xe,ccr
 6e2:	08 11       	add.b	r1h,r1h
 6e4:	06 7c       	andc	#0x7c,ccr
 6e6:	04 00       	orc	#0x0,ccr
 6e8:	00 00       	nop	
 6ea:	02 0d       	stc	ccr,r5l
 6ec:	06 00       	andc	#0x0,ccr
 6ee:	00 00       	nop	
 6f0:	00 00       	nop	
 6f2:	00 20       	.word	H'0,H'20
 6f4:	00 00       	nop	
 6f6:	04 e4       	orc	#0xe4,ccr
 6f8:	00 ff       	.word	H'0,H'ff
 6fa:	ce 2a       	or.b	#0x2a,r6l
 6fc:	00 00       	nop	
 6fe:	00 1a       	.word	H'0,H'1a
 700:	04 00       	orc	#0x0,ccr
 702:	00 00       	nop	
 704:	04 0e       	orc	#0xe,ccr
 706:	08 11       	add.b	r1h,r1h
 708:	06 7c       	andc	#0x7c,ccr
 70a:	04 00       	orc	#0x0,ccr
 70c:	00 00       	nop	
 70e:	02 0d       	stc	ccr,r5l
 710:	06 00       	andc	#0x0,ccr
	...

00000714 <.Lframe0>:
 714:	00 00       	nop	
 716:	00 10       	.word	H'0,H'10
 718:	ff ff       	mov.b	#0xff,r7l
 71a:	ff ff       	mov.b	#0xff,r7l
 71c:	03 00       	ldc	r0h,ccr
 71e:	01 02       	.word	H'1,H'2
 720:	0c 0c       	mov.b	r0h,r4l
 722:	07 04       	ldc	#0x4,ccr
 724:	11 0c       	shlr.b	r4l
 726:	7e 00       	.word	H'7e,H'0
 728:	00 00       	nop	
 72a:	00 20       	.word	H'0,H'20
 72c:	00 00       	nop	
 72e:	07 14       	ldc	#0x14,ccr
 730:	00 ff       	.word	H'0,H'ff
 732:	ce 44       	or.b	#0x44,r6l
 734:	00 00       	nop	
 736:	00 58       	.word	H'0,H'58
 738:	04 00       	orc	#0x0,ccr
 73a:	00 00       	nop	
 73c:	04 0e       	orc	#0xe,ccr
 73e:	08 11       	add.b	r1h,r1h
 740:	06 7c       	andc	#0x7c,ccr
 742:	04 00       	orc	#0x0,ccr
 744:	00 00       	nop	
 746:	02 0d       	stc	ccr,r5l
 748:	06 00       	andc	#0x0,ccr
 74a:	00 00       	nop	
 74c:	00 00       	nop	
 74e:	00 20       	.word	H'0,H'20
 750:	00 00       	nop	
 752:	07 14       	ldc	#0x14,ccr
 754:	00 ff       	.word	H'0,H'ff
 756:	ce 9c       	or.b	#0x9c,r6l
 758:	00 00       	nop	
 75a:	00 16       	.word	H'0,H'16
 75c:	04 00       	orc	#0x0,ccr
 75e:	00 00       	nop	
 760:	04 0e       	orc	#0xe,ccr
 762:	08 11       	add.b	r1h,r1h
 764:	06 7c       	andc	#0x7c,ccr
 766:	04 00       	orc	#0x0,ccr
 768:	00 00       	nop	
 76a:	02 0d       	stc	ccr,r5l
 76c:	06 00       	andc	#0x0,ccr
 76e:	00 00       	nop	
 770:	00 00       	nop	
 772:	00 20       	.word	H'0,H'20
 774:	00 00       	nop	
 776:	07 14       	ldc	#0x14,ccr
 778:	00 ff       	.word	H'0,H'ff
 77a:	ce b2       	or.b	#0xb2,r6l
 77c:	00 00       	nop	
 77e:	00 2c       	.word	H'0,H'2c
 780:	04 00       	orc	#0x0,ccr
 782:	00 00       	nop	
 784:	04 0e       	orc	#0xe,ccr
 786:	08 11       	add.b	r1h,r1h
 788:	06 7c       	andc	#0x7c,ccr
 78a:	04 00       	orc	#0x0,ccr
 78c:	00 00       	nop	
 78e:	02 0d       	stc	ccr,r5l
 790:	06 00       	andc	#0x0,ccr
 792:	00 00       	nop	
 794:	00 00       	nop	
 796:	00 20       	.word	H'0,H'20
 798:	00 00       	nop	
 79a:	07 14       	ldc	#0x14,ccr
 79c:	00 ff       	.word	H'0,H'ff
 79e:	ce de       	or.b	#0xde,r6l
 7a0:	00 00       	nop	
 7a2:	00 2c       	.word	H'0,H'2c
 7a4:	04 00       	orc	#0x0,ccr
 7a6:	00 00       	nop	
 7a8:	04 0e       	orc	#0xe,ccr
 7aa:	08 11       	add.b	r1h,r1h
 7ac:	06 7c       	andc	#0x7c,ccr
 7ae:	04 00       	orc	#0x0,ccr
 7b0:	00 00       	nop	
 7b2:	02 0d       	stc	ccr,r5l
 7b4:	06 00       	andc	#0x0,ccr
 7b6:	00 00       	nop	
 7b8:	00 00       	nop	
 7ba:	00 20       	.word	H'0,H'20
 7bc:	00 00       	nop	
 7be:	07 14       	ldc	#0x14,ccr
 7c0:	00 ff       	.word	H'0,H'ff
 7c2:	cf 0a       	or.b	#0xa,r7l
 7c4:	00 00       	nop	
 7c6:	00 32       	.word	H'0,H'32
 7c8:	04 00       	orc	#0x0,ccr
 7ca:	00 00       	nop	
 7cc:	04 0e       	orc	#0xe,ccr
 7ce:	08 11       	add.b	r1h,r1h
 7d0:	06 7c       	andc	#0x7c,ccr
 7d2:	04 00       	orc	#0x0,ccr
 7d4:	00 00       	nop	
 7d6:	02 0d       	stc	ccr,r5l
 7d8:	06 00       	andc	#0x0,ccr
 7da:	00 00       	nop	
 7dc:	00 00       	nop	
 7de:	00 20       	.word	H'0,H'20
 7e0:	00 00       	nop	
 7e2:	07 14       	ldc	#0x14,ccr
 7e4:	00 ff       	.word	H'0,H'ff
 7e6:	cf 3c       	or.b	#0x3c,r7l
 7e8:	00 00       	nop	
 7ea:	00 2e       	.word	H'0,H'2e
 7ec:	04 00       	orc	#0x0,ccr
 7ee:	00 00       	nop	
 7f0:	04 0e       	orc	#0xe,ccr
 7f2:	08 11       	add.b	r1h,r1h
 7f4:	06 7c       	andc	#0x7c,ccr
 7f6:	04 00       	orc	#0x0,ccr
 7f8:	00 00       	nop	
 7fa:	02 0d       	stc	ccr,r5l
 7fc:	06 00       	andc	#0x0,ccr
 7fe:	00 00       	nop	
 800:	00 00       	nop	
 802:	00 20       	.word	H'0,H'20
 804:	00 00       	nop	
 806:	07 14       	ldc	#0x14,ccr
 808:	00 ff       	.word	H'0,H'ff
 80a:	cf 6a       	or.b	#0x6a,r7l
 80c:	00 00       	nop	
 80e:	00 30       	.word	H'0,H'30
 810:	04 00       	orc	#0x0,ccr
 812:	00 00       	nop	
 814:	04 0e       	orc	#0xe,ccr
 816:	08 11       	add.b	r1h,r1h
 818:	06 7c       	andc	#0x7c,ccr
 81a:	04 00       	orc	#0x0,ccr
 81c:	00 00       	nop	
 81e:	02 0d       	stc	ccr,r5l
 820:	06 00       	andc	#0x0,ccr
 822:	00 00       	nop	
 824:	00 00       	nop	
 826:	00 20       	.word	H'0,H'20
 828:	00 00       	nop	
 82a:	07 14       	ldc	#0x14,ccr
 82c:	00 ff       	.word	H'0,H'ff
 82e:	cf 9a       	or.b	#0x9a,r7l
 830:	00 00       	nop	
 832:	00 32       	.word	H'0,H'32
 834:	04 00       	orc	#0x0,ccr
 836:	00 00       	nop	
 838:	04 0e       	orc	#0xe,ccr
 83a:	08 11       	add.b	r1h,r1h
 83c:	06 7c       	andc	#0x7c,ccr
 83e:	04 00       	orc	#0x0,ccr
 840:	00 00       	nop	
 842:	02 0d       	stc	ccr,r5l
 844:	06 00       	andc	#0x0,ccr
 846:	00 00       	nop	
 848:	00 00       	nop	
 84a:	00 20       	.word	H'0,H'20
 84c:	00 00       	nop	
 84e:	07 14       	ldc	#0x14,ccr
 850:	00 ff       	.word	H'0,H'ff
 852:	cf cc       	or.b	#0xcc,r7l
 854:	00 00       	nop	
 856:	00 32       	.word	H'0,H'32
 858:	04 00       	orc	#0x0,ccr
 85a:	00 00       	nop	
 85c:	04 0e       	orc	#0xe,ccr
 85e:	08 11       	add.b	r1h,r1h
 860:	06 7c       	andc	#0x7c,ccr
 862:	04 00       	orc	#0x0,ccr
 864:	00 00       	nop	
 866:	02 0d       	stc	ccr,r5l
 868:	06 00       	andc	#0x0,ccr
 86a:	00 00       	nop	
 86c:	00 00       	nop	
 86e:	00 20       	.word	H'0,H'20
 870:	00 00       	nop	
 872:	07 14       	ldc	#0x14,ccr
 874:	00 ff       	.word	H'0,H'ff
 876:	cf fe       	or.b	#0xfe,r7l
 878:	00 00       	nop	
 87a:	00 3a       	.word	H'0,H'3a
 87c:	04 00       	orc	#0x0,ccr
 87e:	00 00       	nop	
 880:	04 0e       	orc	#0xe,ccr
 882:	08 11       	add.b	r1h,r1h
 884:	06 7c       	andc	#0x7c,ccr
 886:	04 00       	orc	#0x0,ccr
 888:	00 00       	nop	
 88a:	02 0d       	stc	ccr,r5l
 88c:	06 00       	andc	#0x0,ccr
 88e:	00 00       	nop	
 890:	00 00       	nop	
 892:	00 20       	.word	H'0,H'20
 894:	00 00       	nop	
 896:	07 14       	ldc	#0x14,ccr
 898:	00 ff       	.word	H'0,H'ff
 89a:	d0 38       	xor.b	#0x38,r0h
 89c:	00 00       	nop	
 89e:	00 3e       	.word	H'0,H'3e
 8a0:	04 00       	orc	#0x0,ccr
 8a2:	00 00       	nop	
 8a4:	04 0e       	orc	#0xe,ccr
 8a6:	08 11       	add.b	r1h,r1h
 8a8:	06 7c       	andc	#0x7c,ccr
 8aa:	04 00       	orc	#0x0,ccr
 8ac:	00 00       	nop	
 8ae:	02 0d       	stc	ccr,r5l
 8b0:	06 00       	andc	#0x0,ccr
 8b2:	00 00       	nop	
 8b4:	00 00       	nop	
 8b6:	00 20       	.word	H'0,H'20
 8b8:	00 00       	nop	
 8ba:	07 14       	ldc	#0x14,ccr
 8bc:	00 ff       	.word	H'0,H'ff
 8be:	d0 76       	xor.b	#0x76,r0h
 8c0:	00 00       	nop	
 8c2:	00 36       	.word	H'0,H'36
 8c4:	04 00       	orc	#0x0,ccr
 8c6:	00 00       	nop	
 8c8:	04 0e       	orc	#0xe,ccr
 8ca:	08 11       	add.b	r1h,r1h
 8cc:	06 7c       	andc	#0x7c,ccr
 8ce:	04 00       	orc	#0x0,ccr
 8d0:	00 00       	nop	
 8d2:	02 0d       	stc	ccr,r5l
 8d4:	06 00       	andc	#0x0,ccr
 8d6:	00 00       	nop	
 8d8:	00 00       	nop	
 8da:	00 20       	.word	H'0,H'20
 8dc:	00 00       	nop	
 8de:	07 14       	ldc	#0x14,ccr
 8e0:	00 ff       	.word	H'0,H'ff
 8e2:	d0 ac       	xor.b	#0xac,r0h
 8e4:	00 00       	nop	
 8e6:	00 32       	.word	H'0,H'32
 8e8:	04 00       	orc	#0x0,ccr
 8ea:	00 00       	nop	
 8ec:	04 0e       	orc	#0xe,ccr
 8ee:	08 11       	add.b	r1h,r1h
 8f0:	06 7c       	andc	#0x7c,ccr
 8f2:	04 00       	orc	#0x0,ccr
 8f4:	00 00       	nop	
 8f6:	02 0d       	stc	ccr,r5l
 8f8:	06 00       	andc	#0x0,ccr
 8fa:	00 00       	nop	
 8fc:	00 00       	nop	
 8fe:	00 20       	.word	H'0,H'20
 900:	00 00       	nop	
 902:	07 14       	ldc	#0x14,ccr
 904:	00 ff       	.word	H'0,H'ff
 906:	d0 de       	xor.b	#0xde,r0h
 908:	00 00       	nop	
 90a:	00 32       	.word	H'0,H'32
 90c:	04 00       	orc	#0x0,ccr
 90e:	00 00       	nop	
 910:	04 0e       	orc	#0xe,ccr
 912:	08 11       	add.b	r1h,r1h
 914:	06 7c       	andc	#0x7c,ccr
 916:	04 00       	orc	#0x0,ccr
 918:	00 00       	nop	
 91a:	02 0d       	stc	ccr,r5l
 91c:	06 00       	andc	#0x0,ccr
 91e:	00 00       	nop	
 920:	00 00       	nop	
 922:	00 20       	.word	H'0,H'20
 924:	00 00       	nop	
 926:	07 14       	ldc	#0x14,ccr
 928:	00 ff       	.word	H'0,H'ff
 92a:	d1 10       	xor.b	#0x10,r1h
 92c:	00 00       	nop	
 92e:	00 32       	.word	H'0,H'32
 930:	04 00       	orc	#0x0,ccr
 932:	00 00       	nop	
 934:	04 0e       	orc	#0xe,ccr
 936:	08 11       	add.b	r1h,r1h
 938:	06 7c       	andc	#0x7c,ccr
 93a:	04 00       	orc	#0x0,ccr
 93c:	00 00       	nop	
 93e:	02 0d       	stc	ccr,r5l
 940:	06 00       	andc	#0x0,ccr
 942:	00 00       	nop	
 944:	00 00       	nop	
 946:	00 20       	.word	H'0,H'20
 948:	00 00       	nop	
 94a:	07 14       	ldc	#0x14,ccr
 94c:	00 ff       	.word	H'0,H'ff
 94e:	d1 42       	xor.b	#0x42,r1h
 950:	00 00       	nop	
 952:	00 3a       	.word	H'0,H'3a
 954:	04 00       	orc	#0x0,ccr
 956:	00 00       	nop	
 958:	04 0e       	orc	#0xe,ccr
 95a:	08 11       	add.b	r1h,r1h
 95c:	06 7c       	andc	#0x7c,ccr
 95e:	04 00       	orc	#0x0,ccr
 960:	00 00       	nop	
 962:	02 0d       	stc	ccr,r5l
 964:	06 00       	andc	#0x0,ccr
	...

00000968 <.Lframe0>:
 968:	00 00       	nop	
 96a:	00 10       	.word	H'0,H'10
 96c:	ff ff       	mov.b	#0xff,r7l
 96e:	ff ff       	mov.b	#0xff,r7l
 970:	03 00       	ldc	r0h,ccr
 972:	01 02       	.word	H'1,H'2
 974:	0c 0c       	mov.b	r0h,r4l
 976:	07 04       	ldc	#0x4,ccr
 978:	11 0c       	shlr.b	r4l
 97a:	7e 00       	.word	H'7e,H'0
 97c:	00 00       	nop	
 97e:	00 20       	.word	H'0,H'20
 980:	00 00       	nop	
 982:	09 68       	add.w	r6,e0
 984:	00 ff       	.word	H'0,H'ff
 986:	d1 7c       	xor.b	#0x7c,r1h
 988:	00 00       	nop	
 98a:	00 a8       	.word	H'0,H'a8
 98c:	04 00       	orc	#0x0,ccr
 98e:	00 00       	nop	
 990:	04 0e       	orc	#0xe,ccr
 992:	08 11       	add.b	r1h,r1h
 994:	06 7c       	andc	#0x7c,ccr
 996:	04 00       	orc	#0x0,ccr
 998:	00 00       	nop	
 99a:	02 0d       	stc	ccr,r5l
 99c:	06 00       	andc	#0x0,ccr
 99e:	00 00       	nop	
 9a0:	00 00       	nop	
 9a2:	00 20       	.word	H'0,H'20
 9a4:	00 00       	nop	
 9a6:	09 68       	add.w	r6,e0
 9a8:	00 ff       	.word	H'0,H'ff
 9aa:	d2 24       	xor.b	#0x24,r2h
 9ac:	00 00       	nop	
 9ae:	00 7c       	.word	H'0,H'7c
 9b0:	04 00       	orc	#0x0,ccr
 9b2:	00 00       	nop	
 9b4:	04 0e       	orc	#0xe,ccr
 9b6:	08 11       	add.b	r1h,r1h
 9b8:	06 7c       	andc	#0x7c,ccr
 9ba:	04 00       	orc	#0x0,ccr
 9bc:	00 00       	nop	
 9be:	02 0d       	stc	ccr,r5l
 9c0:	06 00       	andc	#0x0,ccr
 9c2:	00 00       	nop	
 9c4:	00 00       	nop	
 9c6:	00 20       	.word	H'0,H'20
 9c8:	00 00       	nop	
 9ca:	09 68       	add.w	r6,e0
 9cc:	00 ff       	.word	H'0,H'ff
 9ce:	d2 a0       	xor.b	#0xa0,r2h
 9d0:	00 00       	nop	
 9d2:	00 6c       	.word	H'0,H'6c
 9d4:	04 00       	orc	#0x0,ccr
 9d6:	00 00       	nop	
 9d8:	04 0e       	orc	#0xe,ccr
 9da:	08 11       	add.b	r1h,r1h
 9dc:	06 7c       	andc	#0x7c,ccr
 9de:	04 00       	orc	#0x0,ccr
 9e0:	00 00       	nop	
 9e2:	02 0d       	stc	ccr,r5l
 9e4:	06 00       	andc	#0x0,ccr
	...

000009e8 <.Lframe0>:
 9e8:	00 00       	nop	
 9ea:	00 10       	.word	H'0,H'10
 9ec:	ff ff       	mov.b	#0xff,r7l
 9ee:	ff ff       	mov.b	#0xff,r7l
 9f0:	03 00       	ldc	r0h,ccr
 9f2:	01 02       	.word	H'1,H'2
 9f4:	0c 0c       	mov.b	r0h,r4l
 9f6:	07 04       	ldc	#0x4,ccr
 9f8:	11 0c       	shlr.b	r4l
 9fa:	7e 00       	.word	H'7e,H'0
 9fc:	00 00       	nop	
 9fe:	00 20       	.word	H'0,H'20
 a00:	00 00       	nop	
 a02:	09 e8       	add.w	e6,e0
 a04:	00 ff       	.word	H'0,H'ff
 a06:	d3 0c       	xor.b	#0xc,r3h
 a08:	00 00       	nop	
 a0a:	00 52       	.word	H'0,H'52
 a0c:	04 00       	orc	#0x0,ccr
 a0e:	00 00       	nop	
 a10:	04 0e       	orc	#0xe,ccr
 a12:	08 11       	add.b	r1h,r1h
 a14:	06 7c       	andc	#0x7c,ccr
 a16:	04 00       	orc	#0x0,ccr
 a18:	00 00       	nop	
 a1a:	02 0d       	stc	ccr,r5l
 a1c:	06 00       	andc	#0x0,ccr
 a1e:	00 00       	nop	
 a20:	00 00       	nop	
 a22:	00 20       	.word	H'0,H'20
 a24:	00 00       	nop	
 a26:	09 e8       	add.w	e6,e0
 a28:	00 ff       	.word	H'0,H'ff
 a2a:	d3 5e       	xor.b	#0x5e,r3h
 a2c:	00 00       	nop	
 a2e:	00 8c       	.word	H'0,H'8c
 a30:	04 00       	orc	#0x0,ccr
 a32:	00 00       	nop	
 a34:	04 0e       	orc	#0xe,ccr
 a36:	08 11       	add.b	r1h,r1h
 a38:	06 7c       	andc	#0x7c,ccr
 a3a:	04 00       	orc	#0x0,ccr
 a3c:	00 00       	nop	
 a3e:	02 0d       	stc	ccr,r5l
 a40:	06 00       	andc	#0x0,ccr
 a42:	00 00       	nop	
 a44:	00 00       	nop	
 a46:	00 20       	.word	H'0,H'20
 a48:	00 00       	nop	
 a4a:	09 e8       	add.w	e6,e0
 a4c:	00 ff       	.word	H'0,H'ff
 a4e:	d3 ea       	xor.b	#0xea,r3h
 a50:	00 00       	nop	
 a52:	01 24       	.word	H'1,H'24
 a54:	04 00       	orc	#0x0,ccr
 a56:	00 00       	nop	
 a58:	04 0e       	orc	#0xe,ccr
 a5a:	08 11       	add.b	r1h,r1h
 a5c:	06 7c       	andc	#0x7c,ccr
 a5e:	04 00       	orc	#0x0,ccr
 a60:	00 00       	nop	
 a62:	02 0d       	stc	ccr,r5l
 a64:	06 00       	andc	#0x0,ccr
 a66:	00 00       	nop	
 a68:	00 00       	nop	
 a6a:	00 20       	.word	H'0,H'20
 a6c:	00 00       	nop	
 a6e:	09 e8       	add.w	e6,e0
 a70:	00 ff       	.word	H'0,H'ff
 a72:	d5 0e       	xor.b	#0xe,r5h
 a74:	00 00       	nop	
 a76:	00 f0       	.word	H'0,H'f0
 a78:	04 00       	orc	#0x0,ccr
 a7a:	00 00       	nop	
 a7c:	04 0e       	orc	#0xe,ccr
 a7e:	08 11       	add.b	r1h,r1h
 a80:	06 7c       	andc	#0x7c,ccr
 a82:	04 00       	orc	#0x0,ccr
 a84:	00 00       	nop	
 a86:	02 0d       	stc	ccr,r5l
 a88:	06 00       	andc	#0x0,ccr
	...

00000a8c <.Lframe0>:
 a8c:	00 00       	nop	
 a8e:	00 10       	.word	H'0,H'10
 a90:	ff ff       	mov.b	#0xff,r7l
 a92:	ff ff       	mov.b	#0xff,r7l
 a94:	03 00       	ldc	r0h,ccr
 a96:	01 02       	.word	H'1,H'2
 a98:	0c 0c       	mov.b	r0h,r4l
 a9a:	07 04       	ldc	#0x4,ccr
 a9c:	11 0c       	shlr.b	r4l
 a9e:	7e 00       	.word	H'7e,H'0
 aa0:	00 00       	nop	
 aa2:	00 20       	.word	H'0,H'20
 aa4:	00 00       	nop	
 aa6:	0a 8c       	.word	H'a,H'8c
 aa8:	00 ff       	.word	H'0,H'ff
 aaa:	d5 fe       	xor.b	#0xfe,r5h
 aac:	00 00       	nop	
 aae:	00 6e       	.word	H'0,H'6e
 ab0:	04 00       	orc	#0x0,ccr
 ab2:	00 00       	nop	
 ab4:	04 0e       	orc	#0xe,ccr
 ab6:	08 11       	add.b	r1h,r1h
 ab8:	06 7c       	andc	#0x7c,ccr
 aba:	04 00       	orc	#0x0,ccr
 abc:	00 00       	nop	
 abe:	02 0d       	stc	ccr,r5l
 ac0:	06 00       	andc	#0x0,ccr
 ac2:	00 00       	nop	
 ac4:	00 00       	nop	
 ac6:	00 20       	.word	H'0,H'20
 ac8:	00 00       	nop	
 aca:	0a 8c       	.word	H'a,H'8c
 acc:	00 ff       	.word	H'0,H'ff
 ace:	d6 6c       	xor.b	#0x6c,r6h
 ad0:	00 00       	nop	
 ad2:	00 44       	.word	H'0,H'44
 ad4:	04 00       	orc	#0x0,ccr
 ad6:	00 00       	nop	
 ad8:	04 0e       	orc	#0xe,ccr
 ada:	08 11       	add.b	r1h,r1h
 adc:	06 7c       	andc	#0x7c,ccr
 ade:	04 00       	orc	#0x0,ccr
 ae0:	00 00       	nop	
 ae2:	02 0d       	stc	ccr,r5l
 ae4:	06 00       	andc	#0x0,ccr
 ae6:	00 00       	nop	
 ae8:	00 00       	nop	
 aea:	00 20       	.word	H'0,H'20
 aec:	00 00       	nop	
 aee:	0a 8c       	.word	H'a,H'8c
 af0:	00 ff       	.word	H'0,H'ff
 af2:	d6 b0       	xor.b	#0xb0,r6h
 af4:	00 00       	nop	
 af6:	01 06       	.word	H'1,H'6
 af8:	04 00       	orc	#0x0,ccr
 afa:	00 00       	nop	
 afc:	04 0e       	orc	#0xe,ccr
 afe:	08 11       	add.b	r1h,r1h
 b00:	06 7c       	andc	#0x7c,ccr
 b02:	04 00       	orc	#0x0,ccr
 b04:	00 00       	nop	
 b06:	02 0d       	stc	ccr,r5l
 b08:	06 00       	andc	#0x0,ccr
	...

Disassembly of section .debug_info:

00000000 <.Ldebug_info0>:
.Ldebug_info0():
       0:	00 00       	nop	
       2:	01 67       	.word	H'1,H'67
       4:	00 04       	.word	H'0,H'4
       6:	00 00       	nop	
       8:	00 00       	nop	
       a:	04 01       	orc	#0x1,ccr
       c:	00 00       	nop	
       e:	00 4b       	.word	H'0,H'4b
      10:	0c 00       	mov.b	r0h,r0h
      12:	00 00       	nop	
      14:	76 00       	band	#0x0,r0h
      16:	00 00       	nop	
      18:	12 00       	rotxl.b	r0h
	...
      22:	00 00       	nop	
      24:	00 02       	.word	H'0,H'2
      26:	01 08 00 00 	mov.l	@er0,@er0
      2a:	00 18       	.word	H'0,H'18
      2c:	02 02       	stc	ccr,r2h
      2e:	07 00       	ldc	#0x0,ccr
      30:	00 00       	nop	
      32:	38 02       	mov.b	r0l,@0x2:8
      34:	04 07       	orc	#0x7,ccr
      36:	00 00       	nop	
      38:	00 26       	.word	H'0,H'26
      3a:	03 02       	ldc	r2h,ccr
      3c:	05 69       	xorc	#0x69,ccr
      3e:	6e 74 00 04 	mov.b	@(0x4:16,er7),r4h
      42:	04 00       	orc	#0x0,ccr
      44:	00 00       	nop	
      46:	47 04       	beq	.+4 (0x4c)
      48:	04 00       	orc	#0x0,ccr
      4a:	00 00       	nop	
      4c:	4d 02       	blt	.+2 (0x50)
      4e:	01 08 00 00 	mov.l	@er0,@er0
      52:	00 21       	.word	H'0,H'21
      54:	02 02       	stc	ccr,r2h
      56:	07 00       	ldc	#0x0,ccr
      58:	00 00       	nop	
      5a:	2b 05       	mov.b	@0x5:8,r3l
      5c:	00 00       	nop	
      5e:	00 9a       	.word	H'0,H'9a
      60:	04 05       	orc	#0x5,ccr
      62:	00 00       	nop	
      64:	00 4d       	.word	H'0,H'4d
      66:	02 02       	stc	ccr,r2h
      68:	05 00       	xorc	#0x0,ccr
      6a:	00 00       	nop	
      6c:	8b 06       	add.b	#0x6,r3l
      6e:	00 00       	nop	
      70:	08 82       	add.b	r0l,r2h
      72:	01 15       	.word	H'1,H'15
      74:	00 00       	nop	
      76:	00 3a       	.word	H'0,H'3a
      78:	00 ff       	.word	H'0,H'ff
      7a:	d7 b6       	xor.b	#0xb6,r7h
      7c:	00 00       	nop	
      7e:	00 48       	.word	H'0,H'48
      80:	01 9c       	.word	H'1,H'9c
      82:	00 00       	nop	
      84:	00 bf       	.word	H'0,H'bf
      86:	07 00       	ldc	#0x0,ccr
      88:	ff d7       	mov.b	#0xd7,r7l
      8a:	c8 00       	or.b	#0x0,r0l
      8c:	00 01       	.word	H'0,H'1
      8e:	3e 00       	mov.b	r6l,@0x0:8
      90:	00 00       	nop	
      92:	9d 08       	addx	#0x8,r5l
      94:	01 50       	.word	H'1,H'50
      96:	05 03       	xorc	#0x3,ccr
      98:	00 ff       	.word	H'0,H'ff
      9a:	d8 54       	xor.b	#0x54,r0l
      9c:	00 09       	.word	H'0,H'9
      9e:	00 ff       	.word	H'0,H'ff
      a0:	d7 f0       	xor.b	#0xf0,r7h
      a2:	00 00       	nop	
      a4:	01 49       	.word	H'1,H'49
      a6:	08 01       	add.b	r0h,r1h
      a8:	50 05       	mulxu.b	r0h,r5
      aa:	03 00       	ldc	r0h,ccr
      ac:	ff c0       	mov.b	#0xc0,r7l
      ae:	4e 08       	bgt	.+8 (0xb8)
      b0:	01 51       	.word	H'1,H'51
      b2:	05 03       	xorc	#0x3,ccr
      b4:	00 ff       	.word	H'0,H'ff
      b6:	d8 69       	xor.b	#0x69,r0l
      b8:	08 01       	add.b	r0h,r1h
      ba:	52 01       	mulxu.w	r0,er1
      bc:	30 00       	mov.b	r0h,@0x0:8
      be:	00 0a       	.word	H'0,H'a
      c0:	00 00       	nop	
      c2:	00 7d       	.word	H'0,H'7d
      c4:	01 07       	.word	H'1,H'7
      c6:	00 00       	nop	
      c8:	00 3a       	.word	H'0,H'3a
      ca:	00 ff       	.word	H'0,H'ff
      cc:	c0 4e       	or.b	#0x4e,r0h
      ce:	00 00       	nop	
      d0:	00 68       	.word	H'0,H'68
      d2:	01 9c       	.word	H'1,H'9c
      d4:	00 00       	nop	
      d6:	01 3e       	.word	H'1,H'3e
      d8:	0b 00       	adds	#1,er0
      da:	00 00       	nop	
      dc:	71 01       	bnot	#0x0,r1h
      de:	07 00       	ldc	#0x0,ccr
      e0:	00 00       	nop	
      e2:	3a 00       	mov.b	r2l,@0x0:8
      e4:	00 00       	nop	
      e6:	00 0b       	.word	H'0,H'b
      e8:	00 00       	nop	
      ea:	00 95       	.word	H'0,H'95
      ec:	01 07       	.word	H'1,H'7
      ee:	00 00       	nop	
      f0:	00 41       	.word	H'0,H'41
      f2:	00 00       	nop	
      f4:	00 21       	.word	H'0,H'21
      f6:	07 00       	ldc	#0x0,ccr
      f8:	ff c0       	mov.b	#0xc0,r7l
      fa:	7e 00       	.word	H'7e,H'0
      fc:	00 01       	.word	H'0,H'1
      fe:	54 00       	rts/l	er0
     100:	00 01       	.word	H'0,H'1
     102:	12 08       	rotxl.b	r0l
     104:	01 51       	.word	H'1,H'51
     106:	05 03       	xorc	#0x3,ccr
     108:	00 ff       	.word	H'0,H'ff
     10a:	d8 44       	xor.b	#0x44,r0l
     10c:	08 01       	add.b	r0h,r1h
     10e:	52 01       	mulxu.w	r0,er1
     110:	31 00       	mov.b	r1h,@0x0:8
     112:	07 00       	ldc	#0x0,ccr
     114:	ff c0       	mov.b	#0xc0,r7l
     116:	a2 00       	cmp.b	#0x0,r2h
     118:	00 01       	.word	H'0,H'1
     11a:	54 00       	rts/l	er0
     11c:	00 01       	.word	H'0,H'1
     11e:	2e 08       	mov.b	@0x8:8,r6l
     120:	01 51       	.word	H'1,H'51
     122:	05 03       	xorc	#0x3,ccr
     124:	00 ff       	.word	H'0,H'ff
     126:	d8 4c       	xor.b	#0x4c,r0l
     128:	08 01       	add.b	r0h,r1h
     12a:	52 01       	mulxu.w	r0,er1
     12c:	38 00       	mov.b	r0l,@0x0:8
     12e:	09 00       	add.w	r0,r0
     130:	ff c0       	mov.b	#0xc0,r7l
     132:	aa 00       	cmp.b	#0x0,r2l
     134:	00 01       	.word	H'0,H'1
     136:	5f 08       	jsr	@@8 (0x8)
     138:	01 50       	.word	H'1,H'50
     13a:	01 3f       	.word	H'1,H'3f
     13c:	00 00       	nop	
     13e:	0c 00       	mov.b	r0h,r0h
     140:	00 00       	nop	
     142:	a2 00       	cmp.b	#0x0,r2h
     144:	00 00       	nop	
     146:	a2 02       	cmp.b	#0x2,r2h
     148:	0e 0c       	addx	r0h,r4l
	...
     152:	03 1e       	ldc	r6l,exr
     154:	0c 00       	mov.b	r0h,r0h
     156:	00 00       	nop	
     158:	a7 00       	cmp.b	#0x0,r7h
     15a:	00 00       	nop	
     15c:	a7 03       	cmp.b	#0x3,r7h
     15e:	09 0c       	add.w	r0,e4
     160:	00 00       	nop	
     162:	00 09       	.word	H'0,H'9
     164:	00 00       	nop	
     166:	00 09       	.word	H'0,H'9
     168:	03 10       	ldc	r0h,exr
	...

0000016b <.Ldebug_info0>:
     16b:	00 00       	nop	
     16d:	01 72       	.word	H'1,H'72
     16f:	00 04       	.word	H'0,H'4
     171:	00 00       	nop	
     173:	00 be       	.word	H'0,H'be
     175:	04 01       	orc	#0x1,ccr
     177:	00 00       	nop	
     179:	00 4b       	.word	H'0,H'4b
     17b:	0c 00       	mov.b	r0h,r0h
     17d:	00 00       	nop	
     17f:	b8 00       	subx	#0x0,r0l
     181:	00 00       	nop	
     183:	12 00       	rotxl.b	r0h
     185:	ff c0       	mov.b	#0xc0,r7l
     187:	b6 00       	subx	#0x0,r6h
     189:	00 00       	nop	
     18b:	b0 00       	subx	#0x0,r0h
     18d:	00 00       	nop	
     18f:	bb 02       	subx	#0x2,r3l
     191:	01 08 00 00 	mov.l	@er0,@er0
     195:	00 18       	.word	H'0,H'18
     197:	02 02       	stc	ccr,r2h
     199:	07 00       	ldc	#0x0,ccr
     19b:	00 00       	nop	
     19d:	38 02       	mov.b	r0l,@0x2:8
     19f:	04 07       	orc	#0x7,ccr
     1a1:	00 00       	nop	
     1a3:	00 26       	.word	H'0,H'26
     1a5:	03 02       	ldc	r2h,ccr
     1a7:	05 69       	xorc	#0x69,ccr
     1a9:	6e 74 00 02 	mov.b	@(0x2:16,er7),r4h
     1ad:	01 08 00 00 	mov.l	@er0,@er0
     1b1:	00 21       	.word	H'0,H'21
     1b3:	02 02       	stc	ccr,r2h
     1b5:	07 00       	ldc	#0x0,ccr
     1b7:	00 00       	nop	
     1b9:	2b 04       	mov.b	@0x4:8,r3l
     1bb:	00 00       	nop	
     1bd:	00 9a       	.word	H'0,H'9a
     1bf:	02 05       	stc	ccr,r5h
     1c1:	00 00       	nop	
     1c3:	00 41       	.word	H'0,H'41
     1c5:	05 00       	xorc	#0x0,ccr
     1c7:	00 00       	nop	
     1c9:	c4 02       	or.b	#0x2,r4h
     1cb:	08 00       	add.b	r0h,r0h
     1cd:	00 00       	nop	
     1cf:	65 02       	xor.w	r0,r2
     1d1:	02 05       	stc	ccr,r5h
     1d3:	00 00       	nop	
     1d5:	00 8b       	.word	H'0,H'8b
     1d7:	05 00       	xorc	#0x0,ccr
     1d9:	00 00       	nop	
     1db:	fd 02       	mov.b	#0x2,r5l
     1dd:	0a 00       	inc	r0h
     1df:	00 00       	nop	
     1e1:	77 06       	bld	#0x0,r6h
     1e3:	04 00       	orc	#0x0,ccr
     1e5:	00 00       	nop	
     1e7:	7d 07       	.word	H'7d,H'7
     1e9:	00 00       	nop	
     1eb:	00 8d       	.word	H'0,H'8d
     1ed:	08 00       	add.b	r0h,r0h
     1ef:	00 00       	nop	
     1f1:	5a 08 00 00 	jmp	@0x80000:24
     1f5:	00 33       	.word	H'0,H'33
     1f7:	00 09       	.word	H'0,H'9
     1f9:	00 00       	nop	
     1fb:	00 ae       	.word	H'0,H'ae
     1fd:	01 19       	.word	H'1,H'19
     1ff:	00 ff       	.word	H'0,H'ff
     201:	c1 44       	or.b	#0x44,r1h
     203:	00 00       	nop	
     205:	00 22       	.word	H'0,H'22
     207:	01 9c       	.word	H'1,H'9c
     209:	00 00       	nop	
     20b:	00 e3       	.word	H'0,H'e3
     20d:	0a 00       	inc	r0h
     20f:	00 00       	nop	
     211:	f8 01       	mov.b	#0x1,r0l
     213:	19 00       	sub.w	r0,r0
     215:	00 00       	nop	
     217:	5a 00 00 00 	jmp	@0x0:24
     21b:	42 0b       	.word	H'42,H'b
     21d:	73 70       	btst	#0x7,r0h
     21f:	00 01       	.word	H'0,H'1
     221:	19 00       	sub.w	r0,r0
     223:	00 00       	nop	
     225:	33 00       	mov.b	r3h,@0x0:8
     227:	00 00       	nop	
     229:	63 0c       	btst	r0h,r4l
     22b:	00 00       	nop	
     22d:	00 e0       	.word	H'0,H'e0
     22f:	01 1b       	.word	H'1,H'1b
     231:	00 00       	nop	
     233:	00 6c       	.word	H'0,H'6c
     235:	00 00       	nop	
     237:	00 84       	.word	H'0,H'84
     239:	0d 00       	mov.w	r0,r0
     23b:	ff c1       	mov.b	#0xc1,r7l
     23d:	60 0e       	bset	r0h,r6l
     23f:	01 50       	.word	H'1,H'50
     241:	03 f3       	.word	H'3,H'f3
     243:	01 50       	.word	H'1,H'50
     245:	0e 01       	addx	r0h,r1h
     247:	51 03       	divxu.b	r0h,r3
     249:	f3 01       	mov.b	#0x1,r3h
     24b:	51 00       	divxu.b	r0h,r0
     24d:	00 0f       	.word	H'0,H'f
     24f:	00 00       	nop	
     251:	00 e8       	.word	H'0,H'e8
     253:	01 0f       	.word	H'1,H'f
     255:	00 00       	nop	
     257:	00 3a       	.word	H'0,H'3a
     259:	01 00       	.word	H'1,H'0
     25b:	00 01       	.word	H'0,H'1
     25d:	0a 10       	add.w	#0x1,r0
     25f:	00 00       	nop	
     261:	00 f8       	.word	H'0,H'f8
     263:	01 0f       	.word	H'1,H'f
     265:	00 00       	nop	
     267:	00 5a       	.word	H'0,H'5a
     269:	10 00       	shll.b	r0h
     26b:	00 00       	nop	
     26d:	e0 01       	and.b	#0x1,r0h
     26f:	0f 00       	daa	r0h
     271:	00 00       	nop	
     273:	6c 00       	mov.b	@er0+,r0h
     275:	11 00       	shlr.b	r0h
     277:	00 00       	nop	
     279:	d3 01       	xor.b	#0x1,r3h
     27b:	06 00       	andc	#0x0,ccr
     27d:	00 00       	nop	
     27f:	3a 00       	mov.b	r2l,@0x0:8
     281:	ff c0       	mov.b	#0xc0,r7l
     283:	b6 00       	subx	#0x0,r6h
     285:	00 00       	nop	
     287:	70 01       	bset	#0x0,r1h
     289:	9c 00       	addx	#0x0,r4l
     28b:	00 01       	.word	H'0,H'1
     28d:	55 0c       	bsr	.+12 (0x29b)
     28f:	00 00       	nop	
     291:	00 f8       	.word	H'0,H'f8
     293:	01 08 00 00 	mov.l	@er0,@er0
     297:	00 3a       	.word	H'0,H'3a
     299:	00 00       	nop	
     29b:	00 97       	.word	H'0,H'97
     29d:	12 00       	rotxl.b	r0h
     29f:	00 00       	nop	
     2a1:	e3 00       	and.b	#0x0,r3h
     2a3:	ff c0       	mov.b	#0xc0,r7l
     2a5:	bc 00       	subx	#0x0,r4l
     2a7:	00 00       	nop	
     2a9:	62 01       	bclr	r0h,r1h
     2ab:	0a 13       	add.w	#0x1,r3
     2ad:	00 00       	nop	
     2af:	00 fe       	.word	H'0,H'fe
     2b1:	00 00       	nop	
     2b3:	00 db       	.word	H'0,H'db
     2b5:	13 00       	rotxr.b	r0h
     2b7:	00 00       	nop	
     2b9:	f3 00       	mov.b	#0x0,r3h
     2bb:	00 00       	nop	
     2bd:	ef 00       	and.b	#0x0,r7l
     2bf:	00 14       	.word	H'0,H'14
     2c1:	00 00       	nop	
     2c3:	00 e3       	.word	H'0,H'e3
     2c5:	00 ff       	.word	H'0,H'ff
     2c7:	c1 26       	or.b	#0x26,r1h
     2c9:	00 00       	nop	
     2cb:	00 1e       	.word	H'0,H'1e
     2cd:	01 9c       	.word	H'1,H'9c
     2cf:	13 00       	rotxr.b	r0h
     2d1:	00 00       	nop	
     2d3:	f3 00       	mov.b	#0x0,r3h
     2d5:	00 01       	.word	H'0,H'1
     2d7:	27 15       	mov.b	@0x15:8,r7h
     2d9:	00 00       	nop	
     2db:	00 fe       	.word	H'0,H'fe
     2dd:	01 51       	.word	H'1,H'51
	...

000002e1 <.Ldebug_info0>:
     2e1:	00 00       	nop	
     2e3:	04 0d       	orc	#0xd,ccr
     2e5:	00 04       	.word	H'0,H'4
     2e7:	00 00       	nop	
     2e9:	01 ea       	.word	H'1,H'ea
     2eb:	04 01       	orc	#0x1,ccr
     2ed:	00 00       	nop	
     2ef:	00 4b       	.word	H'0,H'4b
     2f1:	0c 00       	mov.b	r0h,r0h
     2f3:	00 01       	.word	H'0,H'1
     2f5:	53 00       	divxu.w	r0,er0
     2f7:	00 00       	nop	
     2f9:	12 00       	rotxl.b	r0h
     2fb:	ff c1       	mov.b	#0xc1,r7l
     2fd:	66 00       	and.w	r0,r0
     2ff:	00 02       	.word	H'0,H'2
     301:	86 00       	add.b	#0x0,r6h
     303:	00 01       	.word	H'0,H'1
     305:	59 02       	.word	H'59,H'2
     307:	01 08 00 00 	mov.l	@er0,@er0
     30b:	00 18       	.word	H'0,H'18
     30d:	02 02       	stc	ccr,r2h
     30f:	07 00       	ldc	#0x0,ccr
     311:	00 00       	nop	
     313:	38 02       	mov.b	r0l,@0x2:8
     315:	04 07       	orc	#0x7,ccr
     317:	00 00       	nop	
     319:	00 26       	.word	H'0,H'26
     31b:	03 02       	ldc	r2h,ccr
     31d:	05 69       	xorc	#0x69,ccr
     31f:	6e 74 00 04 	mov.b	@(0x4:16,er7),r4h
     323:	04 00       	orc	#0x0,ccr
     325:	00 00       	nop	
     327:	47 02       	beq	.+2 (0x32b)
     329:	01 08 00 00 	mov.l	@er0,@er0
     32d:	00 21       	.word	H'0,H'21
     32f:	05 00       	xorc	#0x0,ccr
     331:	00 00       	nop	
     333:	47 02       	beq	.+2 (0x337)
     335:	02 07       	stc	ccr,r7h
     337:	00 00       	nop	
     339:	00 2b       	.word	H'0,H'2b
     33b:	06 00       	andc	#0x0,ccr
     33d:	00 01       	.word	H'0,H'1
     33f:	59 01       	.word	H'59,H'1
     341:	73 00       	btst	#0x0,r0h
     343:	00 00       	nop	
     345:	3a 00       	mov.b	r2l,@0x0:8
     347:	ff c3       	mov.b	#0xc3,r7l
     349:	7e 00       	.word	H'7e,H'0
     34b:	00 00       	nop	
     34d:	6e 01 9c 00 	mov.b	@(0x9c00:16,er0),r1h
     351:	00 00       	nop	
     353:	b6 07       	subx	#0x7,r6h
     355:	00 00       	nop	
     357:	01 0f       	.word	H'1,H'f
     359:	01 73       	.word	H'1,H'73
     35b:	00 00       	nop	
     35d:	00 33       	.word	H'0,H'33
     35f:	00 00       	nop	
     361:	01 48       	.word	H'1,H'48
     363:	07 00       	ldc	#0x0,ccr
     365:	00 01       	.word	H'0,H'1
     367:	2d 01       	mov.b	@0x1:8,r5l
     369:	73 00       	btst	#0x0,r0h
     36b:	00 00       	nop	
     36d:	3a 00       	mov.b	r2l,@0x0:8
     36f:	00 01       	.word	H'0,H'1
     371:	72 08       	bclr	#0x0,r0l
     373:	62 75       	bclr	r7h,r5h
     375:	66 00       	and.w	r0,r0
     377:	01 75       	.word	H'1,H'75
     379:	00 00       	nop	
     37b:	00 b6       	.word	H'0,H'b6
     37d:	02 91       	.word	H'2,H'91
     37f:	6b 09 70 00 	mov.w	@0x7000:16,e1
     383:	01 76       	.word	H'1,H'76
     385:	00 00       	nop	
     387:	00 41       	.word	H'0,H'41
     389:	00 00       	nop	
     38b:	01 9e       	.word	H'1,H'9e
     38d:	0a 00       	inc	r0h
     38f:	ff c3       	mov.b	#0xc3,r7l
     391:	da 00       	xor.b	#0x0,r2l
     393:	00 01       	.word	H'0,H'1
     395:	18 00       	sub.b	r0h,r0h
     397:	0b 00       	adds	#1,er0
     399:	00 00       	nop	
     39b:	47 00       	beq	.0 (0x39d)
     39d:	00 00       	nop	
     39f:	c6 0c       	or.b	#0xc,r6h
     3a1:	00 00       	nop	
     3a3:	00 33       	.word	H'0,H'33
     3a5:	08 00       	add.b	r0h,r0h
     3a7:	06 00       	andc	#0x0,ccr
     3a9:	00 01       	.word	H'0,H'1
     3ab:	47 01       	.word	H'47,H'1
     3ad:	65 00       	xor.w	r0,r0
     3af:	00 00       	nop	
     3b1:	3a 00       	mov.b	r2l,@0x0:8
     3b3:	ff c3       	mov.b	#0xc3,r7l
     3b5:	38 00       	mov.b	r0l,@0x0:8
     3b7:	00 00       	nop	
     3b9:	46 01       	.word	H'46,H'1
     3bb:	9c 00       	addx	#0x0,r4l
     3bd:	00 01       	.word	H'0,H'1
     3bf:	12 0d       	rotxl.b	r5l
     3c1:	62 75       	bclr	r7h,r5h
     3c3:	66 00       	and.w	r0,r0
     3c5:	01 65       	.word	H'1,H'65
     3c7:	00 00       	nop	
     3c9:	01 12       	.word	H'1,H'12
     3cb:	00 00       	nop	
     3cd:	01 cb       	.word	H'1,H'cb
     3cf:	09 69       	add.w	r6,e1
     3d1:	00 01       	.word	H'0,H'1
     3d3:	67 00       	bst	#0x0,r0h
     3d5:	00 00       	nop	
     3d7:	3a 00       	mov.b	r2l,@0x0:8
     3d9:	00 01       	.word	H'0,H'1
     3db:	f7 09       	mov.b	#0x9,r7h
     3dd:	63 00       	btst	r0h,r0h
     3df:	01 68       	.word	H'1,H'68
     3e1:	00 00       	nop	
     3e3:	00 25       	.word	H'0,H'25
     3e5:	00 00       	nop	
     3e7:	02 6f       	stc	vbr,er7
     3e9:	0a 00       	inc	r0h
     3eb:	ff c3       	mov.b	#0xc3,r7l
     3ed:	5a 00 00 01 	jmp	@0x1:24
     3f1:	4a 00       	bpl	.0 (0x3f3)
     3f3:	04 04       	orc	#0x4,ccr
     3f5:	00 00       	nop	
     3f7:	00 25       	.word	H'0,H'25
     3f9:	06 00       	andc	#0x0,ccr
     3fb:	00 00       	nop	
     3fd:	a2 01       	cmp.b	#0x1,r2h
     3ff:	5d 00       	jsr	@er0
     401:	00 00       	nop	
     403:	3a 00       	mov.b	r2l,@0x0:8
     405:	ff c3       	mov.b	#0xc3,r7l
     407:	14 00       	or.b	r0h,r0h
     409:	00 00       	nop	
     40b:	24 01       	mov.b	@0x1:8,r4h
     40d:	9c 00       	addx	#0x0,r4l
     40f:	00 01       	.word	H'0,H'1
     411:	4a 0d       	.word	H'4a,H'd
     413:	73 74       	btst	#0x7,r4h
     415:	72 00       	bclr	#0x0,r0h
     417:	01 5d 00 00 	mov.w	#0x0,@er0
     41b:	01 12       	.word	H'1,H'12
     41d:	00 00       	nop	
     41f:	02 8e       	.word	H'2,H'8e
     421:	0a 00       	inc	r0h
     423:	ff c3       	mov.b	#0xc3,r7l
     425:	28 00       	mov.b	@0x0:8,r0l
     427:	00 01       	.word	H'0,H'1
     429:	94 00       	addx	#0x0,r4h
     42b:	06 00       	andc	#0x0,ccr
     42d:	00 01       	.word	H'0,H'1
     42f:	3b 01       	mov.b	r3l,@0x1:8
     431:	54 00       	rts/l	er0
     433:	00 00       	nop	
     435:	25 00       	mov.b	@0x0:8,r5h
     437:	ff c2       	mov.b	#0xc2,r7l
     439:	e8 00       	and.b	#0x0,r0l
     43b:	00 00       	nop	
     43d:	2c 01       	mov.b	@0x1:8,r4l
     43f:	9c 00       	addx	#0x0,r4l
     441:	00 01       	.word	H'0,H'1
     443:	94 09       	addx	#0x9,r4h
     445:	63 00       	btst	r0h,r0h
     447:	01 56       	.word	H'1,H'56
     449:	00 00       	nop	
     44b:	00 25       	.word	H'0,H'25
     44d:	00 00       	nop	
     44f:	02 ac       	stmac	mach,er4
     451:	0e 00       	addx	r0h,r0h
     453:	ff c2       	mov.b	#0xc2,r7l
     455:	fa 00       	mov.b	#0x0,r2l
     457:	00 03       	.word	H'0,H'3
     459:	fa 00       	mov.b	#0x0,r2l
     45b:	00 01       	.word	H'0,H'1
     45d:	83 0f       	add.b	#0xf,r3h
     45f:	01 50       	.word	H'1,H'50
     461:	01 31       	.word	H'1,H'31
     463:	00 10       	.word	H'0,H'10
     465:	00 ff       	.word	H'0,H'ff
     467:	c3 08       	or.b	#0x8,r3h
     469:	00 00       	nop	
     46b:	01 94       	.word	H'1,H'94
     46d:	0f 01       	daa	r1h
     46f:	50 02       	mulxu.b	r0h,r2
     471:	74 00       	bor	#0x0,r0h
     473:	00 00       	nop	
     475:	06 00       	andc	#0x0,ccr
     477:	00 01       	.word	H'0,H'1
     479:	77 01       	bld	#0x0,r1h
     47b:	4c 00       	bge	.0 (0x47d)
     47d:	00 00       	nop	
     47f:	3a 00       	mov.b	r2l,@0x0:8
     481:	ff c2       	mov.b	#0xc2,r7l
     483:	ba 00       	subx	#0x0,r2l
     485:	00 00       	nop	
     487:	2e 01       	mov.b	@0x1:8,r6l
     489:	9c 00       	addx	#0x0,r4l
     48b:	00 01       	.word	H'0,H'1
     48d:	e8 0d       	and.b	#0xd,r0l
     48f:	63 00       	btst	r0h,r0h
     491:	01 4c       	.word	H'1,H'4c
     493:	00 00       	nop	
     495:	00 25       	.word	H'0,H'25
     497:	00 00       	nop	
     499:	02 d5       	.word	H'2,H'd5
     49b:	0e 00       	addx	r0h,r0h
     49d:	ff c2       	mov.b	#0xc2,r7l
     49f:	d4 00       	xor.b	#0x0,r4h
     4a1:	00 04       	.word	H'0,H'4
     4a3:	05 00       	xorc	#0x0,ccr
     4a5:	00 01       	.word	H'0,H'1
     4a7:	d2 0f       	xor.b	#0xf,r2h
     4a9:	01 50       	.word	H'1,H'50
     4ab:	01 31       	.word	H'1,H'31
     4ad:	0f 01       	daa	r1h
     4af:	51 01       	divxu.b	r0h,r1
     4b1:	3d 00       	mov.b	r5l,@0x0:8
     4b3:	10 00       	shll.b	r0h
     4b5:	ff c2       	mov.b	#0xc2,r7l
     4b7:	de 00       	xor.b	#0x0,r6l
     4b9:	00 04       	.word	H'0,H'4
     4bb:	05 0f       	xorc	#0xf,ccr
     4bd:	01 50       	.word	H'1,H'50
     4bf:	01 31       	.word	H'1,H'31
     4c1:	0f 01       	daa	r1h
     4c3:	51 02       	divxu.b	r0h,r2
     4c5:	74 00       	bor	#0x0,r0h
     4c7:	00 00       	nop	
     4c9:	06 00       	andc	#0x0,ccr
     4cb:	00 01       	.word	H'0,H'1
     4cd:	6f 01 3f 00 	mov.w	@(0x3f00:16,er0),r1
     4d1:	00 00       	nop	
     4d3:	3a 00       	mov.b	r2l,@0x0:8
     4d5:	ff c2       	mov.b	#0xc2,r7l
     4d7:	6c 00       	mov.b	@er0+,r0h
     4d9:	00 00       	nop	
     4db:	4e 01       	.word	H'4e,H'1
     4dd:	9c 00       	addx	#0x0,r4l
     4df:	00 02       	.word	H'0,H'2
     4e1:	2d 0d       	mov.b	@0xd:8,r5l
     4e3:	73 31       	btst	#0x3,r1h
     4e5:	00 01       	.word	H'0,H'1
     4e7:	3f 00       	mov.b	r7l,@0x0:8
     4e9:	00 02       	.word	H'0,H'2
     4eb:	2d 00       	mov.b	@0x0:8,r5l
     4ed:	00 03       	.word	H'0,H'3
     4ef:	01 0d       	.word	H'1,H'd
     4f1:	73 32       	btst	#0x3,r2h
     4f3:	00 01       	.word	H'0,H'1
     4f5:	3f 00       	mov.b	r7l,@0x0:8
     4f7:	00 02       	.word	H'0,H'2
     4f9:	2d 00       	mov.b	@0x0:8,r5l
     4fb:	00 03       	.word	H'0,H'3
     4fd:	35 0d       	mov.b	r5h,@0xd:8
     4ff:	6c 65       	mov.b	@er6+,r5h
     501:	6e 00 01 3f 	mov.b	@(0x13f:16,er0),r0h
     505:	00 00       	nop	
     507:	00 3a       	.word	H'0,H'3a
     509:	00 00       	nop	
     50b:	03 53       	.word	H'3,H'53
     50d:	00 04       	.word	H'0,H'4
     50f:	04 00       	orc	#0x0,ccr
     511:	00 00       	nop	
     513:	4e 06       	bgt	.+6 (0x51b)
     515:	00 00       	nop	
     517:	01 61       	.word	H'1,H'61
     519:	01 34       	.word	H'1,H'34
     51b:	00 00       	nop	
     51d:	00 3a       	.word	H'0,H'3a
     51f:	00 ff       	.word	H'0,H'ff
     521:	c2 34       	or.b	#0x34,r2h
     523:	00 00       	nop	
     525:	00 38       	.word	H'0,H'38
     527:	01 9c       	.word	H'1,H'9c
     529:	00 00       	nop	
     52b:	02 69       	stc	vbr,er1
     52d:	0d 73       	mov.w	r7,r3
     52f:	31 00       	mov.b	r1h,@0x0:8
     531:	01 34       	.word	H'1,H'34
     533:	00 00       	nop	
     535:	02 2d       	stmac	mach,er5
     537:	00 00       	nop	
     539:	03 71       	ldc	er1,sbr
     53b:	0d 73       	mov.w	r7,r3
     53d:	32 00       	mov.b	r2h,@0x0:8
     53f:	01 34       	.word	H'1,H'34
     541:	00 00       	nop	
     543:	02 2d       	stmac	mach,er5
     545:	00 00       	nop	
     547:	03 9a       	.word	H'3,H'9a
     549:	00 06       	.word	H'0,H'6
     54b:	00 00       	nop	
     54d:	01 40       	.word	H'1,H'40
     54f:	01 2a       	.word	H'1,H'2a
     551:	00 00       	nop	
     553:	00 41       	.word	H'0,H'41
     555:	00 ff       	.word	H'0,H'ff
     557:	c2 18       	or.b	#0x18,r2h
     559:	00 00       	nop	
     55b:	00 1c       	.word	H'0,H'1c
     55d:	01 9c       	.word	H'1,H'9c
     55f:	00 00       	nop	
     561:	02 ac       	stmac	mach,er4
     563:	0d 64       	mov.w	r6,r4
     565:	73 74       	btst	#0x7,r4h
     567:	00 01       	.word	H'0,H'1
     569:	2a 00       	mov.b	@0x0:8,r2l
     56b:	00 00       	nop	
     56d:	41 00       	brn	.0 (0x56f)
     56f:	00 03       	.word	H'0,H'3
     571:	b8 0d       	subx	#0xd,r0l
     573:	73 72       	btst	#0x7,r2h
     575:	63 00       	btst	r0h,r0h
     577:	01 2a       	.word	H'1,H'2a
     579:	00 00       	nop	
     57b:	02 2d       	stmac	mach,er5
     57d:	00 00       	nop	
     57f:	03 d6       	.word	H'3,H'd6
     581:	08 64       	add.b	r6h,r4h
     583:	00 01       	.word	H'0,H'1
     585:	2c 00       	mov.b	@0x0:8,r4l
     587:	00 00       	nop	
     589:	41 01       	.word	H'41,H'1
     58b:	50 00       	mulxu.b	r0h,r0
     58d:	06 00       	andc	#0x0,ccr
     58f:	00 01       	.word	H'0,H'1
     591:	34 01       	mov.b	r4h,@0x1:8
     593:	22 00       	mov.b	@0x0:8,r2h
     595:	00 00       	nop	
     597:	3a 00       	mov.b	r2l,@0x0:8
     599:	ff c1       	mov.b	#0xc1,r7l
     59b:	fe 00       	mov.b	#0x0,r6l
     59d:	00 00       	nop	
     59f:	1a 01       	dec.b	r1h
     5a1:	9c 00       	addx	#0x0,r4l
     5a3:	00 02       	.word	H'0,H'2
     5a5:	e2 0d       	and.b	#0xd,r2h
     5a7:	73 00       	btst	#0x0,r0h
     5a9:	01 22       	.word	H'1,H'22
     5ab:	00 00       	nop	
     5ad:	02 2d       	stmac	mach,er5
     5af:	00 00       	nop	
     5b1:	03 f4       	.word	H'3,H'f4
     5b3:	09 6c       	add.w	r6,e4
     5b5:	65 6e       	xor.w	r6,e6
     5b7:	00 01       	.word	H'0,H'1
     5b9:	24 00       	mov.b	@0x0:8,r4h
     5bb:	00 00       	nop	
     5bd:	3a 00       	mov.b	r2l,@0x0:8
     5bf:	00 04       	.word	H'0,H'4
     5c1:	12 00       	rotxl.b	r0h
     5c3:	06 00       	andc	#0x0,ccr
     5c5:	00 01       	.word	H'0,H'1
     5c7:	4c 01       	.word	H'4c,H'1
     5c9:	16 00       	and.b	r0h,r0h
     5cb:	00 00       	nop	
     5cd:	3a 00       	mov.b	r2l,@0x0:8
     5cf:	ff c1       	mov.b	#0xc1,r7l
     5d1:	c2 00       	or.b	#0x0,r2h
     5d3:	00 00       	nop	
     5d5:	3c 01       	mov.b	r4l,@0x1:8
     5d7:	9c 00       	addx	#0x0,r4l
     5d9:	00 03       	.word	H'0,H'3
     5db:	41 0d       	.word	H'41,H'd
     5dd:	62 31       	bclr	r3h,r1h
     5df:	00 01       	.word	H'0,H'1
     5e1:	16 00       	and.b	r0h,r0h
     5e3:	00 03       	.word	H'0,H'3
     5e5:	41 00       	brn	.0 (0x5e7)
     5e7:	00 04       	.word	H'0,H'4
     5e9:	31 0d       	mov.b	r1h,@0xd:8
     5eb:	62 32       	bclr	r3h,r2h
     5ed:	00 01       	.word	H'0,H'1
     5ef:	16 00       	and.b	r0h,r0h
     5f1:	00 03       	.word	H'0,H'3
     5f3:	41 00       	brn	.0 (0x5f5)
     5f5:	00 04       	.word	H'0,H'4
     5f7:	52 0d       	.word	H'52,H'd
     5f9:	6c 65       	mov.b	@er6+,r5h
     5fb:	6e 00 01 16 	mov.b	@(0x116:16,er0),r0h
     5ff:	00 00       	nop	
     601:	03 48       	.word	H'3,H'48
     603:	00 00       	nop	
     605:	04 73       	orc	#0x73,ccr
     607:	09 70       	add.w	r7,r0
     609:	31 00       	mov.b	r1h,@0x0:8
     60b:	01 18       	.word	H'1,H'18
     60d:	00 00       	nop	
     60f:	02 2d       	stmac	mach,er5
     611:	00 00       	nop	
     613:	04 ff       	orc	#0xff,ccr
     615:	08 70       	add.b	r7h,r0h
     617:	32 00       	mov.b	r2h,@0x0:8
     619:	01 18       	.word	H'1,H'18
     61b:	00 00       	nop	
     61d:	02 2d       	stmac	mach,er5
     61f:	01 51       	.word	H'1,H'51
     621:	00 04       	.word	H'0,H'4
     623:	04 00       	orc	#0x0,ccr
     625:	00 03       	.word	H'0,H'3
     627:	47 11       	.word	H'47,H'11
     629:	02 04       	stc	ccr,r4h
     62b:	05 00       	xorc	#0x0,ccr
     62d:	00 01       	.word	H'0,H'1
     62f:	7c 06       	.word	H'7c,H'6
     631:	00 00       	nop	
     633:	01 68       	.word	H'1,H'68
     635:	01 0d 00 00 	mov.l	#0x0,@er0
     639:	03 ac       	ldmac	er4,mach
     63b:	00 ff       	.word	H'0,H'ff
     63d:	c1 8c       	or.b	#0x8c,r1h
     63f:	00 00       	nop	
     641:	00 36       	.word	H'0,H'36
     643:	01 9c       	.word	H'1,H'9c
     645:	00 00       	nop	
     647:	03 ac       	ldmac	er4,mach
     649:	12 64       	.word	H'12,H'64
     64b:	73 74       	btst	#0x7,r4h
     64d:	00 01       	.word	H'0,H'1
     64f:	0d 00       	mov.w	r0,r0
     651:	00 03       	.word	H'0,H'3
     653:	ac 01       	cmp.b	#0x1,r4l
     655:	50 12       	mulxu.b	r1h,r2
     657:	73 72       	btst	#0x7,r2h
     659:	63 00       	btst	r0h,r0h
     65b:	01 0d 00 00 	mov.l	#0x0,@er0
     65f:	03 41       	.word	H'3,H'41
     661:	01 51       	.word	H'1,H'51
     663:	0d 6c       	mov.w	r6,e4
     665:	65 6e       	xor.w	r6,e6
     667:	00 01       	.word	H'0,H'1
     669:	0d 00       	mov.w	r0,r0
     66b:	00 03       	.word	H'0,H'3
     66d:	48 00       	bvc	.0 (0x66f)
     66f:	00 05       	.word	H'0,H'5
     671:	28 09       	mov.b	@0x9:8,r0l
     673:	64 00       	or.w	r0,r0
     675:	01 0f       	.word	H'1,H'f
     677:	00 00       	nop	
     679:	00 41       	.word	H'0,H'41
     67b:	00 00       	nop	
     67d:	05 92       	xorc	#0x92,ccr
     67f:	09 73       	add.w	r7,r3
     681:	00 01       	.word	H'0,H'1
     683:	10 00       	shll.b	r0h
     685:	00 02       	.word	H'0,H'2
     687:	2d 00       	mov.b	@0x0:8,r5l
     689:	00 05       	.word	H'0,H'5
     68b:	c7 00       	or.b	#0x0,r7h
     68d:	13 04       	rotxr.b	r4h
     68f:	06 00       	andc	#0x0,ccr
     691:	00 01       	.word	H'0,H'1
     693:	15 01       	xor.b	r0h,r1h
     695:	05 00       	xorc	#0x0,ccr
     697:	00 03       	.word	H'0,H'3
     699:	ac 00       	cmp.b	#0x0,r4l
     69b:	ff c1       	mov.b	#0xc1,r7l
     69d:	66 00       	and.w	r0,r0
     69f:	00 00       	nop	
     6a1:	26 01       	mov.b	@0x1:8,r6h
     6a3:	9c 00       	addx	#0x0,r4l
     6a5:	00 03       	.word	H'0,H'3
     6a7:	fa 12       	mov.b	#0x12,r2l
     6a9:	62 00       	bclr	r0h,r0h
     6ab:	01 05       	.word	H'1,H'5
     6ad:	00 00       	nop	
     6af:	03 ac       	ldmac	er4,mach
     6b1:	01 50       	.word	H'1,H'50
     6b3:	12 63       	.word	H'12,H'63
     6b5:	00 01       	.word	H'0,H'1
     6b7:	05 00       	xorc	#0x0,ccr
     6b9:	00 00       	nop	
     6bb:	3a 01       	mov.b	r2l,@0x1:8
     6bd:	51 0d       	divxu.b	r0h,e5
     6bf:	6c 65       	mov.b	@er6+,r5h
     6c1:	6e 00 01 05 	mov.b	@(0x105:16,er0),r0h
     6c5:	00 00       	nop	
     6c7:	03 48       	.word	H'3,H'48
     6c9:	00 00       	nop	
     6cb:	05 fc       	xorc	#0xfc,ccr
     6cd:	09 70       	add.w	r7,r0
     6cf:	00 01       	.word	H'0,H'1
     6d1:	07 00       	ldc	#0x0,ccr
     6d3:	00 00       	nop	
     6d5:	41 00       	brn	.0 (0x6d7)
     6d7:	00 06       	.word	H'0,H'6
     6d9:	5a 00 14 00 	jmp	@0x1400:24
     6dd:	00 01       	.word	H'0,H'1
     6df:	1c 00       	cmp.b	r0h,r0h
     6e1:	00 01       	.word	H'0,H'1
     6e3:	1c 02       	cmp.b	r0h,r2h
     6e5:	08 14       	add.b	r1h,r4h
     6e7:	00 00       	nop	
     6e9:	01 85       	.word	H'1,H'85
     6eb:	00 00       	nop	
     6ed:	01 85       	.word	H'1,H'85
     6ef:	02 06       	stc	ccr,r6h
	...

000006f2 <.Ldebug_info0>:
     6f2:	00 00       	nop	
     6f4:	03 cc       	.word	H'3,H'cc
     6f6:	00 04       	.word	H'0,H'4
     6f8:	00 00       	nop	
     6fa:	02 e9       	.word	H'2,H'e9
     6fc:	04 01       	orc	#0x1,ccr
     6fe:	00 00       	nop	
     700:	00 4b       	.word	H'0,H'4b
     702:	0c 00       	mov.b	r0h,r0h
     704:	00 01       	.word	H'0,H'1
     706:	ee 00       	and.b	#0x0,r6l
     708:	00 00       	nop	
     70a:	12 00       	rotxl.b	r0h
     70c:	ff c3       	mov.b	#0xc3,r7l
     70e:	ec 00       	and.b	#0x0,r4l
     710:	00 01       	.word	H'0,H'1
     712:	ca 00       	or.b	#0x0,r2l
     714:	00 04       	.word	H'0,H'4
     716:	e2 02       	and.b	#0x2,r2h
     718:	00 00       	nop	
     71a:	01 bb       	.word	H'1,H'bb
     71c:	02 07       	stc	ccr,r7h
     71e:	00 00       	nop	
     720:	00 35       	.word	H'0,H'35
     722:	03 00       	ldc	r0h,ccr
     724:	00 00       	nop	
     726:	25 04       	mov.b	@0x4:8,r5h
     728:	01 08 00 00 	mov.l	@er0,@er0
     72c:	00 18       	.word	H'0,H'18
     72e:	04 02       	orc	#0x2,ccr
     730:	07 00       	ldc	#0x0,ccr
     732:	00 00       	nop	
     734:	38 04       	mov.b	r0l,@0x4:8
     736:	04 07       	orc	#0x7,ccr
     738:	00 00       	nop	
     73a:	00 26       	.word	H'0,H'26
     73c:	05 02       	xorc	#0x2,ccr
     73e:	05 69       	xorc	#0x69,ccr
     740:	6e 74 00 04 	mov.b	@(0x4:16,er7),r4h
     744:	01 08 00 00 	mov.l	@er0,@er0
     748:	00 21       	.word	H'0,H'21
     74a:	04 02       	orc	#0x2,ccr
     74c:	07 00       	ldc	#0x0,ccr
     74e:	00 00       	nop	
     750:	2b 06       	mov.b	@0x6:8,r3l
     752:	00 00       	nop	
     754:	01 c1       	.word	H'1,H'c1
     756:	07 01       	ldc	#0x1,ccr
     758:	0a 00       	inc	r0h
     75a:	00 00       	nop	
     75c:	c0 07       	or.b	#0x7,r0h
     75e:	73 6d       	btst	#0x6,r5l
     760:	72 00       	bclr	#0x0,r0h
     762:	01 0b       	.word	H'1,H'b
     764:	00 00       	nop	
     766:	00 30       	.word	H'0,H'30
     768:	00 07       	.word	H'0,H'7
     76a:	62 72       	bclr	r7h,r2h
     76c:	72 00       	bclr	#0x0,r0h
     76e:	01 0c       	.word	H'1,H'c
     770:	00 00       	nop	
     772:	00 30       	.word	H'0,H'30
     774:	01 07       	.word	H'1,H'7
     776:	73 63       	btst	#0x6,r3h
     778:	72 00       	bclr	#0x0,r0h
     77a:	01 0d 00 00 	mov.l	#0x0,@er0
     77e:	00 30       	.word	H'0,H'30
     780:	02 07       	stc	ccr,r7h
     782:	74 64       	bor	#0x6,r4h
     784:	72 00       	bclr	#0x0,r0h
     786:	01 0e       	.word	H'1,H'e
     788:	00 00       	nop	
     78a:	00 30       	.word	H'0,H'30
     78c:	03 07       	ldc	r7h,ccr
     78e:	73 73       	btst	#0x7,r3h
     790:	72 00       	bclr	#0x0,r0h
     792:	01 0f       	.word	H'1,H'f
     794:	00 00       	nop	
     796:	00 30       	.word	H'0,H'30
     798:	04 07       	orc	#0x7,ccr
     79a:	72 64       	bclr	#0x6,r4h
     79c:	72 00       	bclr	#0x0,r0h
     79e:	01 10       	.word	H'1,H'10
     7a0:	00 00       	nop	
     7a2:	00 30       	.word	H'0,H'30
     7a4:	05 08       	xorc	#0x8,ccr
     7a6:	00 00       	nop	
     7a8:	01 ce       	.word	H'1,H'ce
     7aa:	01 11       	.word	H'1,H'11
     7ac:	00 00       	nop	
     7ae:	00 30       	.word	H'0,H'30
     7b0:	06 00       	andc	#0x0,ccr
     7b2:	03 00       	ldc	r0h,ccr
     7b4:	00 00       	nop	
     7b6:	5f 09       	jsr	@@9 (0x9)
     7b8:	04 01       	orc	#0x1,ccr
     7ba:	31 00       	mov.b	r1h,@0x0:8
     7bc:	00 00       	nop	
     7be:	da 07       	xor.b	#0x7,r2l
     7c0:	73 63       	btst	#0x6,r3h
     7c2:	69 00       	mov.w	@er0,r0
     7c4:	01 32       	.word	H'1,H'32
     7c6:	00 00       	nop	
     7c8:	00 da       	.word	H'0,H'da
     7ca:	00 00       	nop	
     7cc:	0a 04       	inc	r4h
     7ce:	00 00       	nop	
     7d0:	00 c0       	.word	H'0,H'c0
     7d2:	0b 00       	adds	#1,er0
     7d4:	00 00       	nop	
     7d6:	c5 00       	or.b	#0x0,r5h
     7d8:	00 00       	nop	
     7da:	f0 0c       	mov.b	#0xc,r0h
     7dc:	00 00       	nop	
     7de:	00 43       	.word	H'0,H'43
     7e0:	02 00       	stc	ccr,r0h
     7e2:	0d 00       	mov.w	r0,r0
     7e4:	00 02       	.word	H'0,H'2
     7e6:	74 01       	bor	#0x0,r1h
     7e8:	33 00       	mov.b	r3h,@0x0:8
     7ea:	00 00       	nop	
     7ec:	e0 05       	and.b	#0x5,r0h
     7ee:	03 00       	ldc	r0h,ccr
     7f0:	ff d8       	mov.b	#0xd8,r7l
     7f2:	00 0e       	.word	H'0,H'e
     7f4:	00 00       	nop	
     7f6:	02 79       	stc	sbr,er1
     7f8:	01 96       	.word	H'1,H'96
     7fa:	00 ff       	.word	H'0,H'ff
     7fc:	c5 90       	or.b	#0x90,r5h
     7fe:	00 00       	nop	
     800:	00 26       	.word	H'0,H'26
     802:	01 9c       	.word	H'1,H'9c
     804:	00 00       	nop	
     806:	01 33       	.word	H'1,H'33
     808:	0f 00       	daa	r0h
     80a:	00 02       	.word	H'0,H'2
     80c:	0d 01       	mov.w	r0,r1
     80e:	96 00       	addx	#0x0,r6h
     810:	00 00       	nop	
     812:	4a 00       	bpl	.0 (0x814)
     814:	00 06       	.word	H'0,H'6
     816:	85 10       	add.b	#0x10,r5h
     818:	73 63       	btst	#0x6,r3h
     81a:	69 00       	mov.w	@er0,r0
     81c:	01 98       	.word	H'1,H'98
     81e:	00 00       	nop	
     820:	00 da       	.word	H'0,H'da
     822:	01 53       	.word	H'1,H'53
     824:	00 0e       	.word	H'0,H'e
     826:	00 00       	nop	
     828:	02 5c       	.word	H'2,H'5c
     82a:	01 8f       	.word	H'1,H'8f
     82c:	00 ff       	.word	H'0,H'ff
     82e:	c5 6a       	or.b	#0x6a,r5h
     830:	00 00       	nop	
     832:	00 26       	.word	H'0,H'26
     834:	01 9c       	.word	H'1,H'9c
     836:	00 00       	nop	
     838:	01 65       	.word	H'1,H'65
     83a:	0f 00       	daa	r0h
     83c:	00 02       	.word	H'0,H'2
     83e:	0d 01       	mov.w	r0,r1
     840:	8f 00       	add.b	#0x0,r7l
     842:	00 00       	nop	
     844:	4a 00       	bpl	.0 (0x846)
     846:	00 06       	.word	H'0,H'6
     848:	a6 10       	cmp.b	#0x10,r6h
     84a:	73 63       	btst	#0x6,r3h
     84c:	69 00       	mov.w	@er0,r0
     84e:	01 91       	.word	H'1,H'91
     850:	00 00       	nop	
     852:	00 da       	.word	H'0,H'da
     854:	01 53       	.word	H'1,H'53
     856:	00 11       	.word	H'0,H'11
     858:	00 00       	nop	
     85a:	02 29       	stmac	mach,er1
     85c:	01 88       	.word	H'1,H'88
     85e:	00 00       	nop	
     860:	00 4a       	.word	H'0,H'4a
     862:	00 ff       	.word	H'0,H'ff
     864:	c5 42       	or.b	#0x42,r5h
     866:	00 00       	nop	
     868:	00 28       	.word	H'0,H'28
     86a:	01 9c       	.word	H'1,H'9c
     86c:	00 00       	nop	
     86e:	01 9b       	.word	H'1,H'9b
     870:	0f 00       	daa	r0h
     872:	00 02       	.word	H'0,H'2
     874:	0d 01       	mov.w	r0,r1
     876:	88 00       	add.b	#0x0,r0l
     878:	00 00       	nop	
     87a:	4a 00       	bpl	.0 (0x87c)
     87c:	00 06       	.word	H'0,H'6
     87e:	c7 10       	or.b	#0x10,r7h
     880:	73 63       	btst	#0x6,r3h
     882:	69 00       	mov.w	@er0,r0
     884:	01 8a       	.word	H'1,H'8a
     886:	00 00       	nop	
     888:	00 da       	.word	H'0,H'da
     88a:	01 52       	.word	H'1,H'52
     88c:	00 0e       	.word	H'0,H'e
     88e:	00 00       	nop	
     890:	01 a2       	.word	H'1,H'a2
     892:	01 81       	.word	H'1,H'81
     894:	00 ff       	.word	H'0,H'ff
     896:	c5 1c       	or.b	#0x1c,r5h
     898:	00 00       	nop	
     89a:	00 26       	.word	H'0,H'26
     89c:	01 9c       	.word	H'1,H'9c
     89e:	00 00       	nop	
     8a0:	01 cd       	.word	H'1,H'cd
     8a2:	0f 00       	daa	r0h
     8a4:	00 02       	.word	H'0,H'2
     8a6:	0d 01       	mov.w	r0,r1
     8a8:	81 00       	add.b	#0x0,r1h
     8aa:	00 00       	nop	
     8ac:	4a 00       	bpl	.0 (0x8ae)
     8ae:	00 06       	.word	H'0,H'6
     8b0:	e8 10       	and.b	#0x10,r0l
     8b2:	73 63       	btst	#0x6,r3h
     8b4:	69 00       	mov.w	@er0,r0
     8b6:	01 83       	.word	H'1,H'83
     8b8:	00 00       	nop	
     8ba:	00 da       	.word	H'0,H'da
     8bc:	01 53       	.word	H'1,H'53
     8be:	00 0e       	.word	H'0,H'e
     8c0:	00 00       	nop	
     8c2:	02 44       	.word	H'2,H'44
     8c4:	01 7a       	.word	H'1,H'7a
     8c6:	00 ff       	.word	H'0,H'ff
     8c8:	c4 f6       	or.b	#0xf6,r4h
     8ca:	00 00       	nop	
     8cc:	00 26       	.word	H'0,H'26
     8ce:	01 9c       	.word	H'1,H'9c
     8d0:	00 00       	nop	
     8d2:	01 ff       	.word	H'1,H'ff
     8d4:	0f 00       	daa	r0h
     8d6:	00 02       	.word	H'0,H'2
     8d8:	0d 01       	mov.w	r0,r1
     8da:	7a 00 00 00 	mov.l	#0x4a00,er0
     8de:	4a 00 
     8e0:	00 07       	.word	H'0,H'7
     8e2:	09 10       	add.w	r1,r0
     8e4:	73 63       	btst	#0x6,r3h
     8e6:	69 00       	mov.w	@er0,r0
     8e8:	01 7c       	.word	H'1,H'7c
     8ea:	00 00       	nop	
     8ec:	00 da       	.word	H'0,H'da
     8ee:	01 53       	.word	H'1,H'53
     8f0:	00 11       	.word	H'0,H'11
     8f2:	00 00       	nop	
     8f4:	01 d3       	.word	H'1,H'd3
     8f6:	01 73       	.word	H'1,H'73
     8f8:	00 00       	nop	
     8fa:	00 4a       	.word	H'0,H'4a
     8fc:	00 ff       	.word	H'0,H'ff
     8fe:	c4 ce       	or.b	#0xce,r4h
     900:	00 00       	nop	
     902:	00 28       	.word	H'0,H'28
     904:	01 9c       	.word	H'1,H'9c
     906:	00 00       	nop	
     908:	02 35       	stmac	macl,er5
     90a:	0f 00       	daa	r0h
     90c:	00 02       	.word	H'0,H'2
     90e:	0d 01       	mov.w	r0,r1
     910:	73 00       	btst	#0x0,r0h
     912:	00 00       	nop	
     914:	4a 00       	bpl	.0 (0x916)
     916:	00 07       	.word	H'0,H'7
     918:	2a 10       	mov.b	@0x10:8,r2l
     91a:	73 63       	btst	#0x6,r3h
     91c:	69 00       	mov.w	@er0,r0
     91e:	01 75       	.word	H'1,H'75
     920:	00 00       	nop	
     922:	00 da       	.word	H'0,H'da
     924:	01 52       	.word	H'1,H'52
     926:	00 11       	.word	H'0,H'11
     928:	00 00       	nop	
     92a:	01 1c       	.word	H'1,H'1c
     92c:	01 64       	.word	H'1,H'64
     92e:	00 00       	nop	
     930:	00 35       	.word	H'0,H'35
     932:	00 ff       	.word	H'0,H'ff
     934:	c4 9c       	or.b	#0x9c,r4h
     936:	00 00       	nop	
     938:	00 32       	.word	H'0,H'32
     93a:	01 9c       	.word	H'1,H'9c
     93c:	00 00       	nop	
     93e:	02 9e       	.word	H'2,H'9e
     940:	0f 00       	daa	r0h
     942:	00 02       	.word	H'0,H'2
     944:	0d 01       	mov.w	r0,r1
     946:	64 00       	or.w	r0,r0
     948:	00 00       	nop	
     94a:	4a 00       	bpl	.0 (0x94c)
     94c:	00 07       	.word	H'0,H'7
     94e:	4b 10       	bmi	.+16 (0x960)
     950:	73 63       	btst	#0x6,r3h
     952:	69 00       	mov.w	@er0,r0
     954:	01 66       	.word	H'1,H'66
     956:	00 00       	nop	
     958:	00 da       	.word	H'0,H'da
     95a:	01 52       	.word	H'1,H'52
     95c:	10 63       	shll.w	#8,r3
     95e:	00 01       	.word	H'0,H'1
     960:	67 00       	bst	#0x0,r0h
     962:	00 00       	nop	
     964:	35 01       	mov.b	r5h,@0x1:8
     966:	50 12       	mulxu.b	r1h,r2
     968:	00 00       	nop	
     96a:	02 9e       	.word	H'2,H'9e
     96c:	00 ff       	.word	H'0,H'ff
     96e:	c4 b2       	or.b	#0xb2,r4h
     970:	00 00       	nop	
     972:	00 04       	.word	H'0,H'4
     974:	01 6a       	.word	H'1,H'6a
     976:	13 00       	rotxr.b	r0h
     978:	00 02       	.word	H'0,H'2
     97a:	ae 00       	cmp.b	#0x0,r6l
     97c:	00 07       	.word	H'0,H'7
     97e:	6c 14       	mov.b	@er1+,r4h
     980:	00 ff       	.word	H'0,H'ff
     982:	c4 b2       	or.b	#0xb2,r4h
     984:	00 00       	nop	
     986:	00 04       	.word	H'0,H'4
     988:	15 00       	xor.b	r0h,r0h
     98a:	00 03       	.word	H'0,H'3
     98c:	c7 00       	or.b	#0x0,r7h
     98e:	00 00       	nop	
     990:	16 00       	and.b	r0h,r0h
     992:	00 01       	.word	H'0,H'1
     994:	f7 01       	mov.b	#0x1,r7h
     996:	5d 00       	jsr	@er0
     998:	00 00       	nop	
     99a:	4a 01       	.word	H'4a,H'1
     99c:	00 00       	nop	
     99e:	02 c5       	.word	H'2,H'c5
     9a0:	17 00       	not.b	r0h
     9a2:	00 02       	.word	H'0,H'2
     9a4:	0d 01       	mov.w	r0,r1
     9a6:	5d 00       	jsr	@er0
     9a8:	00 00       	nop	
     9aa:	4a 18       	bpl	.+24 (0x9c4)
     9ac:	73 63       	btst	#0x6,r3h
     9ae:	69 00       	mov.w	@er0,r0
     9b0:	01 5f       	.word	H'1,H'5f
     9b2:	00 00       	nop	
     9b4:	00 da       	.word	H'0,H'da
     9b6:	00 11       	.word	H'0,H'11
     9b8:	00 00       	nop	
     9ba:	01 85       	.word	H'1,H'85
     9bc:	01 4f       	.word	H'1,H'4f
     9be:	00 00       	nop	
     9c0:	00 4a       	.word	H'0,H'4a
     9c2:	00 ff       	.word	H'0,H'ff
     9c4:	c4 46       	or.b	#0x46,r4h
     9c6:	00 00       	nop	
     9c8:	00 32       	.word	H'0,H'32
     9ca:	01 9c       	.word	H'1,H'9c
     9cc:	00 00       	nop	
     9ce:	03 2e       	ldmac	er6,mach
     9d0:	0f 00       	daa	r0h
     9d2:	00 02       	.word	H'0,H'2
     9d4:	0d 01       	mov.w	r0,r1
     9d6:	4f 00       	ble	.0 (0x9d8)
     9d8:	00 00       	nop	
     9da:	4a 00       	bpl	.0 (0x9dc)
     9dc:	00 07       	.word	H'0,H'7
     9de:	82 19       	add.b	#0x19,r2h
     9e0:	63 00       	btst	r0h,r0h
     9e2:	01 4f       	.word	H'1,H'4f
     9e4:	00 00       	nop	
     9e6:	00 35       	.word	H'0,H'35
     9e8:	01 51       	.word	H'1,H'51
     9ea:	10 73       	shll.l	#2,er3
     9ec:	63 69       	btst	r6h,r1l
     9ee:	00 01       	.word	H'0,H'1
     9f0:	51 00       	divxu.b	r0h,r0
     9f2:	00 00       	nop	
     9f4:	da 01       	xor.b	#0x1,r2l
     9f6:	52 12       	mulxu.w	r1,er2
     9f8:	00 00       	nop	
     9fa:	03 2e       	ldmac	er6,mach
     9fc:	00 ff       	.word	H'0,H'ff
     9fe:	c4 5c       	or.b	#0x5c,r4h
     a00:	00 00       	nop	
     a02:	00 04       	.word	H'0,H'4
     a04:	01 54       	.word	H'1,H'54
     a06:	13 00       	rotxr.b	r0h
     a08:	00 03       	.word	H'0,H'3
     a0a:	3e 00       	mov.b	r6l,@0x0:8
     a0c:	00 07       	.word	H'0,H'7
     a0e:	a3 14       	cmp.b	#0x14,r3h
     a10:	00 ff       	.word	H'0,H'ff
     a12:	c4 5c       	or.b	#0x5c,r4h
     a14:	00 00       	nop	
     a16:	00 04       	.word	H'0,H'4
     a18:	15 00       	xor.b	r0h,r0h
     a1a:	00 03       	.word	H'0,H'3
     a1c:	a7 00       	cmp.b	#0x0,r7h
     a1e:	00 00       	nop	
     a20:	16 00       	and.b	r0h,r0h
     a22:	00 02       	.word	H'0,H'2
     a24:	13 01       	rotxr.b	r1h
     a26:	48 00       	bvc	.0 (0xa28)
     a28:	00 00       	nop	
     a2a:	4a 01       	.word	H'4a,H'1
     a2c:	00 00       	nop	
     a2e:	03 55       	.word	H'3,H'55
     a30:	17 00       	not.b	r0h
     a32:	00 02       	.word	H'0,H'2
     a34:	0d 01       	mov.w	r0,r1
     a36:	48 00       	bvc	.0 (0xa38)
     a38:	00 00       	nop	
     a3a:	4a 18       	bpl	.+24 (0xa54)
     a3c:	73 63       	btst	#0x6,r3h
     a3e:	69 00       	mov.w	@er0,r0
     a40:	01 4a       	.word	H'1,H'4a
     a42:	00 00       	nop	
     a44:	00 da       	.word	H'0,H'da
     a46:	00 11       	.word	H'0,H'11
     a48:	00 00       	nop	
     a4a:	01 96       	.word	H'1,H'96
     a4c:	01 3a       	.word	H'1,H'3a
     a4e:	00 00       	nop	
     a50:	00 4a       	.word	H'0,H'4a
     a52:	00 ff       	.word	H'0,H'ff
     a54:	c3 ec       	or.b	#0xec,r3h
     a56:	00 00       	nop	
     a58:	00 36       	.word	H'0,H'36
     a5a:	01 9c       	.word	H'1,H'9c
     a5c:	00 00       	nop	
     a5e:	03 8b       	.word	H'3,H'8b
     a60:	0f 00       	daa	r0h
     a62:	00 02       	.word	H'0,H'2
     a64:	0d 01       	mov.w	r0,r1
     a66:	3a 00       	mov.b	r2l,@0x0:8
     a68:	00 00       	nop	
     a6a:	4a 00       	bpl	.0 (0xa6c)
     a6c:	00 07       	.word	H'0,H'7
     a6e:	b9 10       	subx	#0x10,r1l
     a70:	73 63       	btst	#0x6,r3h
     a72:	69 00       	mov.w	@er0,r0
     a74:	01 3c       	.word	H'1,H'3c
     a76:	00 00       	nop	
     a78:	00 da       	.word	H'0,H'da
     a7a:	01 52       	.word	H'1,H'52
     a7c:	00 1a       	.word	H'0,H'1a
     a7e:	00 00       	nop	
     a80:	03 2e       	ldmac	er6,mach
     a82:	00 ff       	.word	H'0,H'ff
     a84:	c4 22       	or.b	#0x22,r4h
     a86:	00 00       	nop	
     a88:	00 24       	.word	H'0,H'24
     a8a:	01 9c       	.word	H'1,H'9c
     a8c:	00 00       	nop	
     a8e:	03 af       	ldmac	er7,mach
     a90:	13 00       	rotxr.b	r0h
     a92:	00 03       	.word	H'0,H'3
     a94:	3e 00       	mov.b	r6l,@0x0:8
     a96:	00 07       	.word	H'0,H'7
     a98:	da 1b       	xor.b	#0x1b,r2l
     a9a:	00 00       	nop	
     a9c:	03 49       	.word	H'3,H'49
     a9e:	01 52       	.word	H'1,H'52
     aa0:	00 1c       	.word	H'0,H'1c
     aa2:	00 00       	nop	
     aa4:	02 9e       	.word	H'2,H'9e
     aa6:	00 ff       	.word	H'0,H'ff
     aa8:	c4 78       	or.b	#0x78,r4h
     aaa:	00 00       	nop	
     aac:	00 24       	.word	H'0,H'24
     aae:	01 9c       	.word	H'1,H'9c
     ab0:	13 00       	rotxr.b	r0h
     ab2:	00 02       	.word	H'0,H'2
     ab4:	ae 00       	cmp.b	#0x0,r6l
     ab6:	00 07       	.word	H'0,H'7
     ab8:	fb 1b       	mov.b	#0x1b,r3l
     aba:	00 00       	nop	
     abc:	02 b9       	stmac	macl,er1
     abe:	01 52       	.word	H'1,H'52
	...

00000ac2 <.Ldebug_info0>:
     ac2:	00 00       	nop	
     ac4:	02 2b       	stmac	mach,er3
     ac6:	00 04       	.word	H'0,H'4
     ac8:	00 00       	nop	
     aca:	04 70       	orc	#0x70,ccr
     acc:	04 01       	orc	#0x1,ccr
     ace:	00 00       	nop	
     ad0:	00 4b       	.word	H'0,H'4b
     ad2:	0c 00       	mov.b	r0h,r0h
     ad4:	00 03       	.word	H'0,H'3
     ad6:	1f 00       	das	r0h
     ad8:	00 00       	nop	
     ada:	12 00       	rotxl.b	r0h
     adc:	ff c5       	mov.b	#0xc5,r7l
     ade:	b6 00       	subx	#0x0,r6h
     ae0:	00 00       	nop	
     ae2:	d4 00       	xor.b	#0x0,r4h
     ae4:	00 06       	.word	H'0,H'6
     ae6:	e3 02       	and.b	#0x2,r3h
     ae8:	00 00       	nop	
     aea:	01 bb       	.word	H'1,H'bb
     aec:	02 07       	stc	ccr,r7h
     aee:	00 00       	nop	
     af0:	00 35       	.word	H'0,H'35
     af2:	03 00       	ldc	r0h,ccr
     af4:	00 00       	nop	
     af6:	25 04       	mov.b	@0x4:8,r5h
     af8:	01 08 00 00 	mov.l	@er0,@er0
     afc:	00 18       	.word	H'0,H'18
     afe:	02 00       	stc	ccr,r0h
     b00:	00 03       	.word	H'0,H'3
     b02:	11 02       	shlr.b	r2h
     b04:	08 00       	add.b	r0h,r0h
     b06:	00 00       	nop	
     b08:	4c 03       	.word	H'4c,H'3
     b0a:	00 00       	nop	
     b0c:	00 3c       	.word	H'0,H'3c
     b0e:	04 02       	orc	#0x2,ccr
     b10:	07 00       	ldc	#0x0,ccr
     b12:	00 00       	nop	
     b14:	38 04       	mov.b	r0l,@0x4:8
     b16:	04 07       	orc	#0x7,ccr
     b18:	00 00       	nop	
     b1a:	00 26       	.word	H'0,H'26
     b1c:	05 02       	xorc	#0x2,ccr
     b1e:	05 69       	xorc	#0x69,ccr
     b20:	6e 74 00 04 	mov.b	@(0x4:16,er7),r4h
     b24:	01 08 00 00 	mov.l	@er0,@er0
     b28:	00 21       	.word	H'0,H'21
     b2a:	04 02       	orc	#0x2,ccr
     b2c:	07 00       	ldc	#0x0,ccr
     b2e:	00 00       	nop	
     b30:	2b 06       	mov.b	@0x6:8,r3l
     b32:	00 00       	nop	
     b34:	02 a8       	stmac	mach,er0
     b36:	0a 01       	inc	r1h
     b38:	09 00       	add.w	r0,r0
     b3a:	00 00       	nop	
     b3c:	e8 07       	and.b	#0x7,r0l
     b3e:	00 00       	nop	
     b40:	02 c8       	.word	H'2,H'c8
     b42:	01 0a       	.word	H'1,H'a
     b44:	00 00       	nop	
     b46:	00 30       	.word	H'0,H'30
     b48:	00 07       	.word	H'0,H'7
     b4a:	00 00       	nop	
     b4c:	02 cd       	.word	H'2,H'cd
     b4e:	01 0b       	.word	H'1,H'b
     b50:	00 00       	nop	
     b52:	00 30       	.word	H'0,H'30
     b54:	01 07       	.word	H'1,H'7
     b56:	00 00       	nop	
     b58:	02 c2       	.word	H'2,H'c2
     b5a:	01 0c       	.word	H'1,H'c
     b5c:	00 00       	nop	
     b5e:	00 30       	.word	H'0,H'30
     b60:	02 07       	stc	ccr,r7h
     b62:	00 00       	nop	
     b64:	02 d2       	.word	H'2,H'd2
     b66:	01 0d 00 00 	mov.l	#0x0,@er0
     b6a:	00 30       	.word	H'0,H'30
     b6c:	03 07       	ldc	r7h,ccr
     b6e:	00 00       	nop	
     b70:	03 03       	ldc	r3h,ccr
     b72:	01 0e       	.word	H'1,H'e
     b74:	00 00       	nop	
     b76:	00 30       	.word	H'0,H'30
     b78:	04 07       	orc	#0x7,ccr
     b7a:	00 00       	nop	
     b7c:	03 0a       	ldc	r2l,ccr
     b7e:	01 0f       	.word	H'1,H'f
     b80:	00 00       	nop	
     b82:	00 30       	.word	H'0,H'30
     b84:	05 07       	xorc	#0x7,ccr
     b86:	00 00       	nop	
     b88:	03 18       	ldc	r0l,exr
     b8a:	01 10       	.word	H'1,H'10
     b8c:	00 00       	nop	
     b8e:	00 30       	.word	H'0,H'30
     b90:	06 07       	andc	#0x7,ccr
     b92:	00 00       	nop	
     b94:	02 fc       	.word	H'2,H'fc
     b96:	01 11       	.word	H'1,H'11
     b98:	00 00       	nop	
     b9a:	00 30       	.word	H'0,H'30
     b9c:	07 07       	ldc	#0x7,ccr
     b9e:	00 00       	nop	
     ba0:	02 a3       	stmac	mach,er3
     ba2:	01 12       	.word	H'1,H'12
     ba4:	00 00       	nop	
     ba6:	00 47       	.word	H'0,H'47
     ba8:	08 00       	add.b	r0h,r0h
     baa:	03 00       	ldc	r0h,ccr
     bac:	00 00       	nop	
     bae:	6f 08 04 01 	mov.w	@(0x401:16,er0),e0
     bb2:	30 00       	mov.b	r0h,@0x0:8
     bb4:	00 01       	.word	H'0,H'1
     bb6:	02 09       	stc	ccr,r1l
     bb8:	74 6d       	bor	#0x6,r5l
     bba:	72 00       	bclr	#0x0,r0h
     bbc:	01 31       	.word	H'1,H'31
     bbe:	00 00       	nop	
     bc0:	01 02       	.word	H'1,H'2
     bc2:	00 00       	nop	
     bc4:	0a 04       	inc	r4h
     bc6:	00 00       	nop	
     bc8:	00 e8       	.word	H'0,H'e8
     bca:	0b 00       	adds	#1,er0
     bcc:	00 00       	nop	
     bce:	ed 00       	and.b	#0x0,r5l
     bd0:	00 01       	.word	H'0,H'1
     bd2:	18 0c       	sub.b	r0h,r4l
     bd4:	00 00       	nop	
     bd6:	00 53       	.word	H'0,H'53
     bd8:	01 00       	.word	H'1,H'0
     bda:	0d 00       	mov.w	r0,r0
     bdc:	00 02       	.word	H'0,H'2
     bde:	74 01       	bor	#0x0,r1h
     be0:	32 00       	mov.b	r2h,@0x0:8
     be2:	00 01       	.word	H'0,H'1
     be4:	08 05       	add.b	r0h,r5h
     be6:	03 00       	ldc	r0h,ccr
     be8:	ff d8       	mov.b	#0xd8,r7l
     bea:	0c 0e       	mov.b	r0h,r6l
     bec:	00 00       	nop	
     bee:	02 b5       	stmac	macl,er5
     bf0:	01 5e       	.word	H'1,H'5e
     bf2:	00 00       	nop	
     bf4:	00 5a       	.word	H'0,H'5a
     bf6:	00 ff       	.word	H'0,H'ff
     bf8:	c6 50       	or.b	#0x50,r6h
     bfa:	00 00       	nop	
     bfc:	00 3a       	.word	H'0,H'3a
     bfe:	01 9c       	.word	H'1,H'9c
     c00:	00 00       	nop	
     c02:	01 72       	.word	H'1,H'72
     c04:	0f 00       	daa	r0h
     c06:	00 02       	.word	H'0,H'2
     c08:	0d 01       	mov.w	r0,r1
     c0a:	5e 00 00 00 	jsr	@0x0:24
     c0e:	5a 00 00 08 	jmp	@0x8:24
     c12:	1c 10       	cmp.b	r1h,r0h
     c14:	74 6d       	bor	#0x6,r5l
     c16:	72 00       	bclr	#0x0,r0h
     c18:	01 60       	.word	H'1,H'60
     c1a:	00 00       	nop	
     c1c:	01 02       	.word	H'1,H'2
     c1e:	00 00       	nop	
     c20:	08 3d       	add.b	r3h,r5l
     c22:	11 00       	shlr.b	r0h
     c24:	ff c6       	mov.b	#0xc6,r7l
     c26:	70 00       	bset	#0x0,r0h
     c28:	00 01       	.word	H'0,H'1
     c2a:	72 12       	bclr	#0x1,r2h
     c2c:	01 50       	.word	H'1,H'50
     c2e:	03 f3       	.word	H'3,H'f3
     c30:	01 50       	.word	H'1,H'50
     c32:	00 00       	nop	
     c34:	0e 00       	addx	r0h,r0h
     c36:	00 02       	.word	H'0,H'2
     c38:	ef 01       	and.b	#0x1,r7l
     c3a:	54 00       	rts/l	er0
     c3c:	00 00       	nop	
     c3e:	5a 00 ff c6 	jmp	@0xffc6:24
     c42:	28 00       	mov.b	@0x0:8,r0l
     c44:	00 00       	nop	
     c46:	28 01       	mov.b	@0x1:8,r0l
     c48:	9c 00       	addx	#0x0,r4l
     c4a:	00 01       	.word	H'0,H'1
     c4c:	a8 0f       	cmp.b	#0xf,r0l
     c4e:	00 00       	nop	
     c50:	02 0d       	stc	ccr,r5l
     c52:	01 54       	.word	H'1,H'54
     c54:	00 00       	nop	
     c56:	00 5a       	.word	H'0,H'5a
     c58:	00 00       	nop	
     c5a:	08 69       	add.b	r6h,r1l
     c5c:	13 74       	rotxr.l	#2,er4
     c5e:	6d 72       	mov.w	@er7+,r2
     c60:	00 01       	.word	H'0,H'1
     c62:	56 00       	rte/l	er0
     c64:	00 01       	.word	H'0,H'1
     c66:	02 01       	stc	ccr,r1h
     c68:	53 00       	divxu.w	r0,er0
     c6a:	0e 00       	addx	r0h,r0h
     c6c:	00 02       	.word	H'0,H'2
     c6e:	92 01       	addx	#0x1,r2h
     c70:	4d 00       	blt	.0 (0xc72)
     c72:	00 00       	nop	
     c74:	5a 00 ff c6 	jmp	@0xffc6:24
     c78:	00 00       	nop	
     c7a:	00 00       	nop	
     c7c:	28 01       	mov.b	@0x1:8,r0l
     c7e:	9c 00       	addx	#0x0,r4l
     c80:	00 01       	.word	H'0,H'1
     c82:	de 0f       	xor.b	#0xf,r6l
     c84:	00 00       	nop	
     c86:	02 0d       	stc	ccr,r5l
     c88:	01 4d       	.word	H'1,H'4d
     c8a:	00 00       	nop	
     c8c:	00 5a       	.word	H'0,H'5a
     c8e:	00 00       	nop	
     c90:	08 8a       	add.b	r0l,r2l
     c92:	13 74       	rotxr.l	#2,er4
     c94:	6d 72       	mov.w	@er7+,r2
     c96:	00 01       	.word	H'0,H'1
     c98:	4f 00       	ble	.0 (0xc9a)
     c9a:	00 01       	.word	H'0,H'1
     c9c:	02 01       	stc	ccr,r1h
     c9e:	52 00       	mulxu.w	r0,er0
     ca0:	14 00       	or.b	r0h,r0h
     ca2:	00 02       	.word	H'0,H'2
     ca4:	d8 01       	xor.b	#0x1,r0l
     ca6:	38 00       	mov.b	r0l,@0x0:8
     ca8:	00 00       	nop	
     caa:	5a 00 ff c5 	jmp	@0xffc5:24
     cae:	b6 00       	subx	#0x0,r6h
     cb0:	00 00       	nop	
     cb2:	4a 01       	.word	H'4a,H'1
     cb4:	9c 0f       	addx	#0xf,r4l
     cb6:	00 00       	nop	
     cb8:	02 0d       	stc	ccr,r5l
     cba:	01 38       	.word	H'1,H'38
     cbc:	00 00       	nop	
     cbe:	00 5a       	.word	H'0,H'5a
     cc0:	00 00       	nop	
     cc2:	08 ab       	add.b	r2l,r3l
     cc4:	0f 00       	daa	r0h
     cc6:	00 02       	.word	H'0,H'2
     cc8:	ea 01       	and.b	#0x1,r2l
     cca:	38 00       	mov.b	r0l,@0x0:8
     ccc:	00 00       	nop	
     cce:	5a 00 00 08 	jmp	@0x8:24
     cd2:	cc 13       	or.b	#0x13,r4l
     cd4:	74 6d       	bor	#0x6,r5l
     cd6:	72 00       	bclr	#0x0,r0h
     cd8:	01 3a       	.word	H'1,H'3a
     cda:	00 00       	nop	
     cdc:	01 02       	.word	H'1,H'2
     cde:	01 52       	.word	H'1,H'52
     ce0:	15 00       	xor.b	r0h,r0h
     ce2:	00 02       	.word	H'0,H'2
     ce4:	e4 01       	and.b	#0x1,r4h
     ce6:	3b 00       	mov.b	r3l,@0x0:8
     ce8:	00 00       	nop	
     cea:	5a 00 00 08 	jmp	@0x8:24
     cee:	ed 00       	and.b	#0x0,r5l
	...

00000cf1 <.Ldebug_info0>:
     cf1:	00 00       	nop	
     cf3:	11 66       	shlr.w	#8,r6
     cf5:	00 04       	.word	H'0,H'4
     cf7:	00 00       	nop	
     cf9:	05 9b       	xorc	#0x9b,ccr
     cfb:	04 01       	orc	#0x1,ccr
     cfd:	00 00       	nop	
     cff:	00 4b       	.word	H'0,H'4b
     d01:	0c 00       	mov.b	r0h,r0h
     d03:	00 05       	.word	H'0,H'5
     d05:	b7 00       	subx	#0x0,r7h
     d07:	00 00       	nop	
     d09:	12 00       	rotxl.b	r0h
     d0b:	ff c6       	mov.b	#0xc6,r7l
     d0d:	8a 00       	add.b	#0x0,r2l
     d0f:	00 07       	.word	H'0,H'7
     d11:	ba 00       	subx	#0x0,r2l
     d13:	00 07       	.word	H'0,H'7
     d15:	f3 02       	mov.b	#0x2,r3h
     d17:	01 08 00 00 	mov.l	@er0,@er0
     d1b:	00 18       	.word	H'0,H'18
     d1d:	02 02       	stc	ccr,r2h
     d1f:	07 00       	ldc	#0x0,ccr
     d21:	00 00       	nop	
     d23:	38 03       	mov.b	r0l,@0x3:8
     d25:	00 00       	nop	
     d27:	05 d4       	xorc	#0xd4,ccr
     d29:	02 09       	stc	ccr,r1l
     d2b:	00 00       	nop	
     d2d:	00 3e       	.word	H'0,H'3e
     d2f:	02 04       	stc	ccr,r4h
     d31:	07 00       	ldc	#0x0,ccr
     d33:	00 00       	nop	
     d35:	26 03       	mov.b	@0x3:8,r6h
     d37:	00 00       	nop	
     d39:	04 ab       	orc	#0xab,ccr
     d3b:	02 0b       	stc	ccr,r3l
     d3d:	00 00       	nop	
     d3f:	00 33       	.word	H'0,H'33
     d41:	03 00       	ldc	r0h,ccr
     d43:	00 04       	.word	H'0,H'4
     d45:	45 02       	bcs	.+2 (0xd49)
     d47:	0c 00       	mov.b	r0h,r0h
     d49:	00 00       	nop	
     d4b:	5b 04       	jmp	@@4 (0x4)
     d4d:	04 00       	orc	#0x0,ccr
     d4f:	00 00       	nop	
     d51:	61 05       	bnot	r0h,r5h
     d53:	00 00       	nop	
     d55:	00 75       	.word	H'0,H'75
     d57:	00 00       	nop	
     d59:	00 75       	.word	H'0,H'75
     d5b:	06 00       	andc	#0x0,ccr
     d5d:	00 00       	nop	
     d5f:	75 06       	bxor	#0x0,r6h
     d61:	00 00       	nop	
     d63:	00 7c       	.word	H'0,H'7c
     d65:	00 07       	.word	H'0,H'7
     d67:	02 05       	stc	ccr,r5h
     d69:	69 6e       	mov.w	@er6,e6
     d6b:	74 00       	bor	#0x0,r0h
     d6d:	04 04       	orc	#0x4,ccr
     d6f:	00 00       	nop	
     d71:	00 82       	.word	H'0,H'82
     d73:	04 04       	orc	#0x4,ccr
     d75:	00 00       	nop	
     d77:	00 88       	.word	H'0,H'88
     d79:	02 01       	stc	ccr,r1h
     d7b:	08 00       	add.b	r0h,r0h
     d7d:	00 00       	nop	
     d7f:	21 03       	mov.b	@0x3:8,r1h
     d81:	00 00       	nop	
     d83:	05 17       	xorc	#0x17,ccr
     d85:	02 0d       	stc	ccr,r5l
     d87:	00 00       	nop	
     d89:	00 9a       	.word	H'0,H'9a
     d8b:	04 04       	orc	#0x4,ccr
     d8d:	00 00       	nop	
     d8f:	00 a0       	.word	H'0,H'a0
     d91:	08 09       	add.b	r0h,r1l
     d93:	07 02       	ldc	#0x2,ccr
     d95:	00 00       	nop	
     d97:	00 c1       	.word	H'0,H'c1
     d99:	02 0f       	stc	ccr,r7l
     d9b:	00 00       	nop	
     d9d:	00 c1       	.word	H'0,H'c1
     d9f:	0a 00       	inc	r0h
     da1:	00 06       	.word	H'0,H'6
     da3:	97 00       	addx	#0x0,r7h
     da5:	0a 00       	inc	r0h
     da7:	00 06       	.word	H'0,H'6
     da9:	4f 01       	.word	H'4f,H'1
     dab:	0a 00       	inc	r0h
     dad:	00 05       	.word	H'0,H'5
     daf:	ed 02       	and.b	#0x2,r5l
     db1:	00 02       	.word	H'0,H'2
     db3:	02 07       	stc	ccr,r7h
     db5:	00 00       	nop	
     db7:	00 2b       	.word	H'0,H'2b
     db9:	03 00       	ldc	r0h,ccr
     dbb:	00 03       	.word	H'0,H'3
     dbd:	3d 02       	mov.b	r5l,@0x2:8
     dbf:	13 00       	rotxr.b	r0h
     dc1:	00 00       	nop	
     dc3:	a1 0b       	cmp.b	#0xb,r1h
     dc5:	00 00       	nop	
     dc7:	00 9a       	.word	H'0,H'9a
     dc9:	03 05       	ldc	r5h,ccr
     dcb:	00 00       	nop	
     dcd:	00 88       	.word	H'0,H'88
     dcf:	03 00       	ldc	r0h,ccr
     dd1:	00 00       	nop	
     dd3:	c4 03       	or.b	#0x3,r4h
     dd5:	08 00       	add.b	r0h,r0h
     dd7:	00 00       	nop	
     dd9:	e9 02       	and.b	#0x2,r1l
     ddb:	02 05       	stc	ccr,r5h
     ddd:	00 00       	nop	
     ddf:	00 8b       	.word	H'0,H'8b
     de1:	09 07       	add.w	r0,r7
     de3:	02 00       	stc	ccr,r0h
     de5:	00 00       	nop	
     de7:	c1 04       	or.b	#0x4,r1h
     de9:	08 00       	add.b	r0h,r0h
     deb:	00 01       	.word	H'0,H'1
     ded:	46 0a       	bne	.+10 (0xdf9)
     def:	00 00       	nop	
     df1:	06 f0       	andc	#0xf0,ccr
     df3:	00 0a       	.word	H'0,H'a
     df5:	00 00       	nop	
     df7:	03 6d       	ldc	er5,vbr
     df9:	01 0a       	.word	H'1,H'a
     dfb:	00 00       	nop	
     dfd:	04 78       	orc	#0x78,ccr
     dff:	02 0a       	stc	ccr,r2l
     e01:	00 00       	nop	
     e03:	03 27       	ldmac	er7,mach
     e05:	03 0a       	ldc	r2l,ccr
     e07:	00 00       	nop	
     e09:	06 d4       	andc	#0xd4,ccr
     e0b:	04 0a       	orc	#0xa,ccr
     e0d:	00 00       	nop	
     e0f:	06 0a       	andc	#0xa,ccr
     e11:	05 0a       	xorc	#0xa,ccr
     e13:	00 00       	nop	
     e15:	03 4c       	.word	H'3,H'4c
     e17:	06 0a       	andc	#0xa,ccr
     e19:	00 00       	nop	
     e1b:	05 9f       	xorc	#0x9f,ccr
     e1d:	07 0a       	ldc	#0xa,ccr
     e1f:	00 00       	nop	
     e21:	05 50       	xorc	#0x50,ccr
     e23:	08 0a       	add.b	r0h,r2l
     e25:	00 00       	nop	
     e27:	03 b0       	ldmac	er0,macl
     e29:	09 0a       	add.w	r0,e2
     e2b:	00 00       	nop	
     e2d:	05 bf       	xorc	#0xbf,ccr
     e2f:	0a 0a       	inc	r2l
     e31:	00 00       	nop	
     e33:	03 c5       	.word	H'3,H'c5
     e35:	0b 00       	adds	#1,er0
     e37:	03 00       	ldc	r0h,ccr
     e39:	00 05       	.word	H'0,H'5
     e3b:	db 04       	xor.b	#0x4,r3l
     e3d:	15 00       	xor.b	r0h,r0h
     e3f:	00 00       	nop	
     e41:	f0 0c       	mov.b	#0xc,r0h
     e43:	18 04       	sub.b	r0h,r4h
     e45:	1a 00       	dec.b	r0h
     e47:	00 01       	.word	H'0,H'1
     e49:	ae 0d       	cmp.b	#0xd,r6l
     e4b:	00 00       	nop	
     e4d:	04 4f       	orc	#0x4f,ccr
     e4f:	04 1b       	orc	#0x1b,ccr
     e51:	00 00       	nop	
     e53:	00 50       	.word	H'0,H'50
     e55:	00 0d       	.word	H'0,H'd
     e57:	00 00       	nop	
     e59:	04 ba       	orc	#0xba,ccr
     e5b:	04 1c       	orc	#0x1c,ccr
     e5d:	00 00       	nop	
     e5f:	00 82       	.word	H'0,H'82
     e61:	04 0d       	orc	#0xd,ccr
     e63:	00 00       	nop	
     e65:	06 8e       	andc	#0x8e,ccr
     e67:	04 1d       	orc	#0x1d,ccr
     e69:	00 00       	nop	
     e6b:	00 75       	.word	H'0,H'75
     e6d:	08 0d       	add.b	r0h,r5l
     e6f:	00 00       	nop	
     e71:	03 e8       	.word	H'3,H'e8
     e73:	04 1e       	orc	#0x1e,ccr
     e75:	00 00       	nop	
     e77:	00 75       	.word	H'0,H'75
     e79:	0a 0d       	inc	r5l
     e7b:	00 00       	nop	
     e7d:	00 71       	.word	H'0,H'71
     e7f:	04 1f       	orc	#0x1f,ccr
     e81:	00 00       	nop	
     e83:	00 75       	.word	H'0,H'75
     e85:	0c 0d       	mov.b	r0h,r5l
     e87:	00 00       	nop	
     e89:	00 95       	.word	H'0,H'95
     e8b:	04 20       	orc	#0x20,ccr
     e8d:	00 00       	nop	
     e8f:	00 7c       	.word	H'0,H'7c
     e91:	10 0e       	shll.b	r6l
     e93:	72 65       	bclr	#0x6,r5h
     e95:	74 00       	bor	#0x0,r0h
     e97:	04 21       	orc	#0x21,ccr
     e99:	00 00       	nop	
     e9b:	00 45       	.word	H'0,H'45
     e9d:	14 00       	or.b	r0h,r0h
     e9f:	0c 02       	mov.b	r0h,r2h
     ea1:	04 23       	orc	#0x23,ccr
     ea3:	00 00       	nop	
     ea5:	01 c3       	.word	H'1,H'c3
     ea7:	0d 00       	mov.w	r0,r0
     ea9:	00 04       	.word	H'0,H'4
     eab:	98 04       	addx	#0x4,r0l
     ead:	24 00       	mov.b	@0x0:8,r4h
     eaf:	00 00       	nop	
     eb1:	75 00       	bxor	#0x0,r0h
     eb3:	00 0c       	.word	H'0,H'c
     eb5:	02 04       	stc	ccr,r4h
     eb7:	26 00       	mov.b	@0x0:8,r6h
     eb9:	00 01       	.word	H'0,H'1
     ebb:	d8 0e       	xor.b	#0xe,r0l
     ebd:	72 65       	bclr	#0x6,r5h
     ebf:	74 00       	bor	#0x0,r0h
     ec1:	04 27       	orc	#0x27,ccr
     ec3:	00 00       	nop	
     ec5:	00 75       	.word	H'0,H'75
     ec7:	00 00       	nop	
     ec9:	0c 02       	mov.b	r0h,r2h
     ecb:	04 29       	orc	#0x29,ccr
     ecd:	00 00       	nop	
     ecf:	01 ed       	.word	H'1,H'ed
     ed1:	0e 72       	addx	r7h,r2h
     ed3:	65 74       	xor.w	r7,r4
     ed5:	00 04       	.word	H'0,H'4
     ed7:	2a 00       	mov.b	@0x0:8,r2l
     ed9:	00 00       	nop	
     edb:	75 00       	bxor	#0x0,r0h
     edd:	00 0c       	.word	H'0,H'c
     edf:	08 04       	add.b	r0h,r4h
     ee1:	2c 00       	mov.b	@0x0:8,r4l
     ee3:	00 02       	.word	H'0,H'2
     ee5:	0d 0e       	mov.w	r0,e6
     ee7:	69 64       	mov.w	@er6,r4
     ee9:	00 04       	.word	H'0,H'4
     eeb:	2d 00       	mov.b	@0x0:8,r5l
     eed:	00 00       	nop	
     eef:	45 00       	bcs	.0 (0xef1)
     ef1:	0e 72       	addx	r7h,r2h
     ef3:	65 74       	xor.w	r7,r4
     ef5:	00 04       	.word	H'0,H'4
     ef7:	2e 00       	mov.b	@0x0:8,r6l
     ef9:	00 00       	nop	
     efb:	75 04       	bxor	#0x0,r4h
     efd:	00 0c       	.word	H'0,H'c
     eff:	04 04       	orc	#0x4,ccr
     f01:	30 00       	mov.b	r0h,@0x0:8
     f03:	00 02       	.word	H'0,H'2
     f05:	22 0e       	mov.b	@0xe:8,r2h
     f07:	72 65       	bclr	#0x6,r5h
     f09:	74 00       	bor	#0x0,r0h
     f0b:	04 31       	orc	#0x31,ccr
     f0d:	00 00       	nop	
     f0f:	00 45       	.word	H'0,H'45
     f11:	00 00       	nop	
     f13:	0c 04       	mov.b	r0h,r4h
     f15:	04 33       	orc	#0x33,ccr
     f17:	00 00       	nop	
     f19:	02 43       	.word	H'2,H'43
     f1b:	0d 00       	mov.w	r0,r0
     f1d:	00 06       	.word	H'0,H'6
     f1f:	8e 04       	add.b	#0x4,r6l
     f21:	34 00       	mov.b	r4h,@0x0:8
     f23:	00 00       	nop	
     f25:	75 00       	bxor	#0x0,r0h
     f27:	0e 72       	addx	r7h,r2h
     f29:	65 74       	xor.w	r7,r4
     f2b:	00 04       	.word	H'0,H'4
     f2d:	35 00       	mov.b	r5h,@0x0:8
     f2f:	00 00       	nop	
     f31:	75 02       	bxor	#0x0,r2h
     f33:	00 0c       	.word	H'0,H'c
     f35:	08 04       	add.b	r0h,r4h
     f37:	37 00       	mov.b	r7h,@0x0:8
     f39:	00 02       	.word	H'0,H'2
     f3b:	64 0d       	or.w	r0,e5
     f3d:	00 00       	nop	
     f3f:	03 ed       	.word	H'3,H'ed
     f41:	04 38       	orc	#0x38,ccr
     f43:	00 00       	nop	
     f45:	00 75       	.word	H'0,H'75
     f47:	00 0e       	.word	H'0,H'e
     f49:	72 65       	bclr	#0x6,r5h
     f4b:	74 00       	bor	#0x0,r0h
     f4d:	04 39       	orc	#0x39,ccr
     f4f:	00 00       	nop	
     f51:	02 64       	stc	vbr,er4
     f53:	04 00       	orc	#0x0,ccr
     f55:	0f 04       	daa	r4h
     f57:	0c 08       	mov.b	r0h,r0l
     f59:	04 3b       	orc	#0x3b,ccr
     f5b:	00 00       	nop	
     f5d:	02 85       	.word	H'2,H'85
     f5f:	0e 70       	addx	r7h,r0h
     f61:	00 04       	.word	H'0,H'4
     f63:	3c 00       	mov.b	r4l,@0x0:8
     f65:	00 00       	nop	
     f67:	82 00       	add.b	#0x0,r2h
     f69:	0e 72       	addx	r7h,r2h
     f6b:	65 74       	xor.w	r7,r4
     f6d:	00 04       	.word	H'0,H'4
     f6f:	3d 00       	mov.b	r5l,@0x0:8
     f71:	00 00       	nop	
     f73:	75 04       	bxor	#0x0,r4h
     f75:	00 0c       	.word	H'0,H'c
     f77:	0c 04       	mov.b	r0h,r4h
     f79:	3f 00       	mov.b	r7l,@0x0:8
     f7b:	00 02       	.word	H'0,H'2
     f7d:	bb 0e       	subx	#0xe,r3l
     f7f:	69 64       	mov.w	@er6,r4
     f81:	00 04       	.word	H'0,H'4
     f83:	40 00       	bra	.0 (0xf85)
     f85:	00 00       	nop	
     f87:	c8 00       	or.b	#0x0,r0l
     f89:	0d 00       	mov.w	r0,r0
     f8b:	00 03       	.word	H'0,H'3
     f8d:	ed 04       	and.b	#0x4,r5l
     f8f:	41 00       	brn	.0 (0xf91)
     f91:	00 00       	nop	
     f93:	75 02       	bxor	#0x0,r2h
     f95:	0e 70       	addx	r7h,r0h
     f97:	00 04       	.word	H'0,H'4
     f99:	42 00       	bhi	.0 (0xf9b)
     f9b:	00 00       	nop	
     f9d:	82 04       	add.b	#0x4,r2h
     f9f:	0e 72       	addx	r7h,r2h
     fa1:	65 74       	xor.w	r7,r4
     fa3:	00 04       	.word	H'0,H'4
     fa5:	43 00       	bls	.0 (0xfa7)
     fa7:	00 00       	nop	
     fa9:	75 08       	bxor	#0x0,r0l
     fab:	00 0c       	.word	H'0,H'c
     fad:	10 04       	shll.b	r4h
     faf:	45 00       	bcs	.0 (0xfb1)
     fb1:	00 02       	.word	H'0,H'2
     fb3:	f2 0e       	mov.b	#0xe,r2h
     fb5:	69 64       	mov.w	@er6,r4
     fb7:	00 04       	.word	H'0,H'4
     fb9:	46 00       	bne	.0 (0xfbb)
     fbb:	00 00       	nop	
     fbd:	c8 00       	or.b	#0x0,r0l
     fbf:	0d 00       	mov.w	r0,r0
     fc1:	00 03       	.word	H'0,H'3
     fc3:	91 04       	addx	#0x4,r1h
     fc5:	47 00       	beq	.0 (0xfc7)
     fc7:	00 02       	.word	H'0,H'2
     fc9:	f2 04       	mov.b	#0x4,r2h
     fcb:	0e 70       	addx	r7h,r0h
     fcd:	70 00       	bset	#0x0,r0h
     fcf:	04 48       	orc	#0x48,ccr
     fd1:	00 00       	nop	
     fd3:	00 7c       	.word	H'0,H'7c
     fd5:	08 0e       	add.b	r0h,r6l
     fd7:	72 65       	bclr	#0x6,r5h
     fd9:	74 00       	bor	#0x0,r0h
     fdb:	04 49       	orc	#0x49,ccr
     fdd:	00 00       	nop	
     fdf:	00 45       	.word	H'0,H'45
     fe1:	0c 00       	mov.b	r0h,r0h
     fe3:	04 04       	orc	#0x4,ccr
     fe5:	00 00       	nop	
     fe7:	00 75       	.word	H'0,H'75
     fe9:	0c 0c       	mov.b	r0h,r4l
     feb:	04 4b       	orc	#0x4b,ccr
     fed:	00 00       	nop	
     fef:	03 25       	ldmac	er5,mach
     ff1:	0d 00       	mov.w	r0,r0
     ff3:	00 00       	nop	
     ff5:	f8 04       	mov.b	#0x4,r0l
     ff7:	4c 00       	bge	.0 (0xff9)
     ff9:	00 00       	nop	
     ffb:	de 00       	xor.b	#0x0,r6l
     ffd:	0d 00       	mov.w	r0,r0
     fff:	00 00       	nop	
    1001:	e0 04       	and.b	#0x4,r0h
    1003:	4d 00       	blt	.0 (0x1005)
    1005:	00 00       	nop	
    1007:	8f 04       	add.b	#0x4,r7l
    1009:	0e 72       	addx	r7h,r2h
    100b:	65 74       	xor.w	r7,r4
    100d:	00 04       	.word	H'0,H'4
    100f:	4e 00       	bgt	.0 (0x1011)
    1011:	00 00       	nop	
    1013:	75 08       	bxor	#0x0,r0l
    1015:	00 10       	.word	H'0,H'10
    1017:	18 04       	sub.b	r0h,r4h
    1019:	19 00       	sub.w	r0,r0
    101b:	00 03       	.word	H'0,H'3
    101d:	b2 11       	subx	#0x11,r2h
    101f:	72 75       	bclr	#0x7,r5h
    1021:	6e 00 04 22 	mov.b	@(0x422:16,er0),r0h
    1025:	00 00       	nop	
    1027:	01 51       	.word	H'1,H'51
    1029:	12 00       	rotxl.b	r0h
    102b:	00 05       	.word	H'0,H'5
    102d:	79 04 25 00 	mov.w	#0x2500,r4
    1031:	00 01       	.word	H'0,H'1
    1033:	ae 12       	cmp.b	#0x12,r6l
    1035:	00 00       	nop	
    1037:	04 e0       	orc	#0xe0,ccr
    1039:	04 28       	orc	#0x28,ccr
    103b:	00 00       	nop	
    103d:	01 c3       	.word	H'1,H'c3
    103f:	12 00       	rotxl.b	r0h
    1041:	00 06       	.word	H'0,H'6
    1043:	27 04       	mov.b	@0x4:8,r7h
    1045:	2b 00       	mov.b	@0x0:8,r3l
    1047:	00 01       	.word	H'0,H'1
    1049:	d8 12       	xor.b	#0x12,r0l
    104b:	00 00       	nop	
    104d:	04 37       	orc	#0x37,ccr
    104f:	04 2f       	orc	#0x2f,ccr
    1051:	00 00       	nop	
    1053:	01 ed       	.word	H'1,H'ed
    1055:	12 00       	rotxl.b	r0h
    1057:	00 04       	.word	H'0,H'4
    1059:	66 04       	and.w	r0,r4
    105b:	32 00       	mov.b	r2h,@0x0:8
    105d:	00 02       	.word	H'0,H'2
    105f:	0d 12       	mov.w	r1,r2
    1061:	00 00       	nop	
    1063:	04 a5       	orc	#0xa5,ccr
    1065:	04 36       	orc	#0x36,ccr
    1067:	00 00       	nop	
    1069:	02 22       	stmac	mach,er2
    106b:	12 00       	rotxl.b	r0h
    106d:	00 04       	.word	H'0,H'4
    106f:	fd 04       	mov.b	#0x4,r5l
    1071:	3a 00       	mov.b	r2l,@0x0:8
    1073:	00 02       	.word	H'0,H'2
    1075:	43 12       	bls	.+18 (0x1089)
    1077:	00 00       	nop	
    1079:	06 6b       	andc	#0x6b,ccr
    107b:	04 3e       	orc	#0x3e,ccr
    107d:	00 00       	nop	
    107f:	02 66       	stc	vbr,er6
    1081:	12 00       	rotxl.b	r0h
    1083:	00 05       	.word	H'0,H'5
    1085:	2b 04       	mov.b	@0x4:8,r3l
    1087:	44 00       	bcc	.0 (0x1089)
    1089:	00 02       	.word	H'0,H'2
    108b:	85 12       	add.b	#0x12,r5h
    108d:	00 00       	nop	
    108f:	04 2b       	orc	#0x2b,ccr
    1091:	04 4a       	orc	#0x4a,ccr
    1093:	00 00       	nop	
    1095:	02 bb       	stmac	macl,er3
    1097:	12 00       	rotxl.b	r0h
    1099:	00 00       	nop	
    109b:	f0 04       	mov.b	#0x4,r0h
    109d:	4f 00       	ble	.0 (0x109f)
    109f:	00 02       	.word	H'0,H'2
    10a1:	f8 00       	mov.b	#0x0,r0l
    10a3:	0c 18       	mov.b	r1h,r0l
    10a5:	04 18       	orc	#0x18,ccr
    10a7:	00 00       	nop	
    10a9:	03 c6       	.word	H'3,H'c6
    10ab:	0e 75       	addx	r7h,r5h
    10ad:	6e 00 04 50 	mov.b	@(0x450:16,er0),r0h
    10b1:	00 00       	nop	
    10b3:	03 25       	ldmac	er5,mach
    10b5:	00 00       	nop	
    10b7:	03 00       	ldc	r0h,ccr
    10b9:	00 03       	.word	H'0,H'3
    10bb:	97 04       	addx	#0x4,r7h
    10bd:	51 00       	divxu.b	r0h,r0
    10bf:	00 03       	.word	H'0,H'3
    10c1:	b2 13       	subx	#0x13,r2h
    10c3:	00 00       	nop	
    10c5:	04 6c       	orc	#0x6c,ccr
    10c7:	04 01       	orc	#0x1,ccr
    10c9:	0e 00       	addx	r0h,r0h
    10cb:	00 03       	.word	H'0,H'3
    10cd:	e9 0e       	and.b	#0xe,r1l
    10cf:	73 70       	btst	#0x7,r0h
    10d1:	00 01       	.word	H'0,H'1
    10d3:	0f 00       	daa	r0h
    10d5:	00 00       	nop	
    10d7:	33 00       	mov.b	r3h,@0x0:8
    10d9:	00 03       	.word	H'0,H'3
    10db:	00 00       	nop	
    10dd:	04 6d       	orc	#0x6d,ccr
    10df:	01 10       	.word	H'1,H'10
    10e1:	00 00       	nop	
    10e3:	03 d1       	.word	H'3,H'd1
    10e5:	0c 0c       	mov.b	r0h,r4l
    10e7:	01 1b       	.word	H'1,H'1b
    10e9:	00 00       	nop	
    10eb:	04 21       	orc	#0x21,ccr
    10ed:	0d 00       	mov.w	r0,r0
    10ef:	00 04       	.word	H'0,H'4
    10f1:	4f 01       	.word	H'4f,H'1
    10f3:	1c 00       	cmp.b	r0h,r0h
    10f5:	00 00       	nop	
    10f7:	50 00       	mulxu.b	r0h,r0
    10f9:	0d 00       	mov.w	r0,r0
    10fb:	00 00       	nop	
    10fd:	71 01       	bnot	#0x0,r1h
    10ff:	1d 00       	cmp.w	r0,r0
    1101:	00 00       	nop	
    1103:	75 04       	bxor	#0x0,r4h
    1105:	0d 00       	mov.w	r0,r0
    1107:	00 00       	nop	
    1109:	95 01       	addx	#0x1,r5h
    110b:	1e 00       	subx	r0h,r0h
    110d:	00 00       	nop	
    110f:	7c 08       	.word	H'7c,H'8
    1111:	00 0c       	.word	H'0,H'c
    1113:	08 01       	add.b	r0h,r1h
    1115:	21 00       	mov.b	@0x0:8,r1h
    1117:	00 04       	.word	H'0,H'4
    1119:	42 0d       	.word	H'42,H'd
    111b:	00 00       	nop	
    111d:	00 f8       	.word	H'0,H'f8
    111f:	01 22       	.word	H'1,H'22
    1121:	00 00       	nop	
    1123:	01 46       	.word	H'1,H'46
    1125:	00 0d       	.word	H'0,H'd
    1127:	00 00       	nop	
    1129:	05 30       	xorc	#0x30,ccr
    112b:	01 23       	.word	H'1,H'23
    112d:	00 00       	nop	
    112f:	04 42       	orc	#0x42,ccr
    1131:	04 00       	orc	#0x0,ccr
    1133:	04 04       	orc	#0x4,ccr
    1135:	00 00       	nop	
    1137:	03 c6       	.word	H'3,H'c6
    1139:	13 00       	rotxr.b	r0h
    113b:	00 04       	.word	H'0,H'4
    113d:	e5 40       	and.b	#0x40,r5h
    113f:	01 13       	.word	H'1,H'13
    1141:	00 00       	nop	
    1143:	04 c1       	orc	#0xc1,ccr
    1145:	0d 00       	mov.w	r0,r0
    1147:	00 06       	.word	H'0,H'6
    1149:	eb 01       	and.b	#0x1,r3l
    114b:	14 00       	or.b	r0h,r0h
    114d:	00 04       	.word	H'0,H'4
    114f:	c1 00       	or.b	#0x0,r1h
    1151:	0d 00       	mov.w	r0,r0
    1153:	00 04       	.word	H'0,H'4
    1155:	ba 01       	subx	#0x1,r2l
    1157:	15 00       	xor.b	r0h,r0h
    1159:	00 04       	.word	H'0,H'4
    115b:	c7 04       	or.b	#0x4,r7h
    115d:	0d 00       	mov.w	r0,r0
    115f:	00 06       	.word	H'0,H'6
    1161:	8e 01       	add.b	#0x1,r6l
    1163:	16 00       	and.b	r0h,r0h
    1165:	00 00       	nop	
    1167:	75 14       	bxor	#0x1,r4h
    1169:	0d 00       	mov.w	r0,r0
    116b:	00 04       	.word	H'0,H'4
    116d:	07 01       	ldc	#0x1,ccr
    116f:	17 00       	not.b	r0h
    1171:	00 00       	nop	
    1173:	82 18       	add.b	#0x18,r2h
    1175:	0d 00       	mov.w	r0,r0
    1177:	00 04       	.word	H'0,H'4
    1179:	f0 01       	mov.b	#0x1,r0h
    117b:	18 00       	sub.b	r0h,r0h
    117d:	00 00       	nop	
    117f:	33 1c       	mov.b	r3h,@0x1c:8
    1181:	0d 00       	mov.w	r0,r0
    1183:	00 00       	nop	
    1185:	db 01       	xor.b	#0x1,r3l
    1187:	1f 00       	das	r0h
    1189:	00 03       	.word	H'0,H'3
    118b:	f4 20       	mov.b	#0x20,r4h
    118d:	0d 00       	mov.w	r0,r0
    118f:	00 03       	.word	H'0,H'3
    1191:	e0 01       	and.b	#0x1,r0h
    1193:	24 00       	mov.b	@0x0:8,r4h
    1195:	00 04       	.word	H'0,H'4
    1197:	21 2c       	mov.b	@0x2c:8,r1h
    1199:	0d 00       	mov.w	r0,r0
    119b:	00 04       	.word	H'0,H'4
    119d:	70 01       	bset	#0x0,r1h
    119f:	26 00       	mov.b	@0x0:8,r6h
    11a1:	00 03       	.word	H'0,H'3
    11a3:	e9 34       	and.b	#0x34,r1l
    11a5:	0d 00       	mov.w	r0,r0
    11a7:	00 04       	.word	H'0,H'4
    11a9:	98 01       	addx	#0x1,r0l
    11ab:	27 00       	mov.b	@0x0:8,r7h
    11ad:	00 04       	.word	H'0,H'4
    11af:	d7 38       	xor.b	#0x38,r7h
    11b1:	00 04       	.word	H'0,H'4
    11b3:	04 00       	orc	#0x0,ccr
    11b5:	00 04       	.word	H'0,H'4
    11b7:	48 14       	bvc	.+20 (0x11cd)
    11b9:	00 00       	nop	
    11bb:	00 88       	.word	H'0,H'88
    11bd:	00 00       	nop	
    11bf:	04 d7       	orc	#0xd7,ccr
    11c1:	15 00       	xor.b	r0h,r0h
    11c3:	00 00       	nop	
    11c5:	3e 0f       	mov.b	r6l,@0xf:8
    11c7:	00 14       	.word	H'0,H'14
    11c9:	00 00       	nop	
    11cb:	00 88       	.word	H'0,H'88
    11cd:	00 00       	nop	
    11cf:	04 e7       	orc	#0xe7,ccr
    11d1:	15 00       	xor.b	r0h,r0h
    11d3:	00 00       	nop	
    11d5:	3e 07       	mov.b	r6l,@0x7:8
    11d7:	00 03       	.word	H'0,H'3
    11d9:	00 00       	nop	
    11db:	04 e6       	orc	#0xe6,ccr
    11dd:	01 28       	.word	H'1,H'28
    11df:	00 00       	nop	
    11e1:	04 48       	orc	#0x48,ccr
    11e3:	0c 08       	mov.b	r0h,r0l
    11e5:	01 2e       	.word	H'1,H'2e
    11e7:	00 00       	nop	
    11e9:	05 11       	xorc	#0x11,ccr
    11eb:	0d 00       	mov.w	r0,r0
    11ed:	00 03       	.word	H'0,H'3
    11ef:	ed 01       	and.b	#0x1,r5l
    11f1:	2f 00       	mov.b	@0x0:8,r7l
    11f3:	00 00       	nop	
    11f5:	75 00       	bxor	#0x0,r0h
    11f7:	0e 70       	addx	r7h,r0h
    11f9:	00 01       	.word	H'0,H'1
    11fb:	30 00       	mov.b	r0h,@0x0:8
    11fd:	00 00       	nop	
    11ff:	82 04       	add.b	#0x4,r2h
    1201:	00 13       	.word	H'0,H'13
    1203:	00 00       	nop	
    1205:	06 2d       	andc	#0x2d,ccr
    1207:	10 01       	shll.b	r1h
    1209:	2b 00       	mov.b	@0x0:8,r3l
    120b:	00 05       	.word	H'0,H'5
    120d:	42 0d       	.word	H'42,H'd
    120f:	00 00       	nop	
    1211:	06 eb       	andc	#0xeb,ccr
    1213:	01 2c       	.word	H'1,H'2c
    1215:	00 00       	nop	
    1217:	05 42       	xorc	#0x42,ccr
    1219:	00 0d       	.word	H'0,H'd
    121b:	00 00       	nop	
    121d:	04 3e       	orc	#0x3e,ccr
    121f:	01 2d       	.word	H'1,H'2d
    1221:	00 00       	nop	
    1223:	05 48       	xorc	#0x48,ccr
    1225:	04 0d       	orc	#0xd,ccr
    1227:	00 00       	nop	
    1229:	05 30       	xorc	#0x30,ccr
    122b:	01 31       	.word	H'1,H'31
    122d:	00 00       	nop	
    122f:	04 f2       	orc	#0xf2,ccr
    1231:	08 00       	add.b	r0h,r0h
    1233:	04 04       	orc	#0x4,ccr
    1235:	00 00       	nop	
    1237:	05 11       	xorc	#0x11,ccr
    1239:	04 04       	orc	#0x4,ccr
    123b:	00 00       	nop	
    123d:	04 e7       	orc	#0xe7,ccr
    123f:	03 00       	ldc	r0h,ccr
    1241:	00 06       	.word	H'0,H'6
    1243:	2e 01       	mov.b	@0x1:8,r6l
    1245:	32 00       	mov.b	r2h,@0x0:8
    1247:	00 05       	.word	H'0,H'5
    1249:	11 13       	shlr.w	r3
    124b:	00 00       	nop	
    124d:	04 0d       	orc	#0xd,ccr
    124f:	10 01       	shll.b	r1h
    1251:	35 00       	mov.b	r5h,@0x0:8
    1253:	00 05       	.word	H'0,H'5
    1255:	96 0d       	addx	#0xd,r6h
    1257:	00 00       	nop	
    1259:	06 7a       	andc	#0x7a,ccr
    125b:	01 36       	.word	H'1,H'36
    125d:	00 00       	nop	
    125f:	05 48       	xorc	#0x48,ccr
    1261:	00 0d       	.word	H'0,H'd
    1263:	00 00       	nop	
    1265:	03 f2       	.word	H'3,H'f2
    1267:	01 37       	.word	H'1,H'37
    1269:	00 00       	nop	
    126b:	05 96       	xorc	#0x96,ccr
    126d:	04 0d       	orc	#0xd,ccr
    126f:	00 00       	nop	
    1271:	04 bf       	orc	#0xbf,ccr
    1273:	01 38       	.word	H'1,H'38
    1275:	00 00       	nop	
    1277:	05 96       	xorc	#0x96,ccr
    1279:	08 0d       	add.b	r0h,r5l
    127b:	00 00       	nop	
    127d:	04 98       	orc	#0x98,ccr
    127f:	01 42       	.word	H'1,H'42
    1281:	00 00       	nop	
    1283:	05 9c       	xorc	#0x9c,ccr
    1285:	0c 00       	mov.b	r0h,r0h
    1287:	04 04       	orc	#0x4,ccr
    1289:	00 00       	nop	
    128b:	05 4e       	xorc	#0x4e,ccr
    128d:	14 00       	or.b	r0h,r0h
    128f:	00 05       	.word	H'0,H'5
    1291:	ac 00       	cmp.b	#0x0,r4l
    1293:	00 05       	.word	H'0,H'5
    1295:	ac 15       	cmp.b	#0x15,r4l
    1297:	00 00       	nop	
    1299:	00 3e       	.word	H'0,H'3e
    129b:	00 00       	nop	
    129d:	02 04       	stc	ccr,r4h
    129f:	05 00       	xorc	#0x0,ccr
    12a1:	00 01       	.word	H'0,H'1
    12a3:	7c 03       	.word	H'7c,H'3
    12a5:	00 00       	nop	
    12a7:	04 0e       	orc	#0xe,ccr
    12a9:	01 43       	.word	H'1,H'43
    12ab:	00 00       	nop	
    12ad:	05 59       	xorc	#0x59,ccr
    12af:	0c 08       	mov.b	r0h,r0l
    12b1:	01 46       	.word	H'1,H'46
    12b3:	00 00       	nop	
    12b5:	05 df       	xorc	#0xdf,ccr
    12b7:	0d 00       	mov.w	r0,r0
    12b9:	00 03       	.word	H'0,H'3
    12bb:	f2 01       	mov.b	#0x1,r2h
    12bd:	47 00       	beq	.0 (0x12bf)
    12bf:	00 05       	.word	H'0,H'5
    12c1:	48 00       	bvc	.0 (0x12c3)
    12c3:	0d 00       	mov.w	r0,r0
    12c5:	00 04       	.word	H'0,H'4
    12c7:	bf 01       	subx	#0x1,r7l
    12c9:	48 00       	bvc	.0 (0x12cb)
    12cb:	00 05       	.word	H'0,H'5
    12cd:	48 04       	bvc	.+4 (0x12d3)
    12cf:	00 14       	.word	H'0,H'14
    12d1:	00 00       	nop	
    12d3:	05 be       	xorc	#0xbe,ccr
    12d5:	00 00       	nop	
    12d7:	05 ef       	xorc	#0xef,ccr
    12d9:	15 00       	xor.b	r0h,r0h
    12db:	00 00       	nop	
    12dd:	3e 0f       	mov.b	r6l,@0xf:8
    12df:	00 16       	.word	H'0,H'16
    12e1:	00 00       	nop	
    12e3:	06 c3       	andc	#0xc3,ccr
    12e5:	01 49       	.word	H'1,H'49
    12e7:	00 00       	nop	
    12e9:	05 df       	xorc	#0xdf,ccr
    12eb:	05 03       	xorc	#0x3,ccr
    12ed:	00 ff       	.word	H'0,H'ff
    12ef:	da dc       	xor.b	#0xdc,r2l
    12f1:	16 00       	and.b	r0h,r0h
    12f3:	00 05       	.word	H'0,H'5
    12f5:	6a 01 4b 00 	mov.b	@0x4b00:16,r1h
    12f9:	00 05       	.word	H'0,H'5
    12fb:	48 05       	.word	H'48,H'5
    12fd:	03 00       	ldc	r0h,ccr
    12ff:	ff da       	mov.b	#0xda,r7l
    1301:	d8 14       	xor.b	#0x14,r0l
    1303:	00 00       	nop	
    1305:	04 e7       	orc	#0xe7,ccr
    1307:	00 00       	nop	
    1309:	06 21       	andc	#0x21,ccr
    130b:	15 00       	xor.b	r0h,r0h
    130d:	00 00       	nop	
    130f:	3e 05       	mov.b	r6l,@0x5:8
    1311:	00 16       	.word	H'0,H'16
    1313:	00 00       	nop	
    1315:	00 83       	.word	H'0,H'83
    1317:	01 4c       	.word	H'1,H'4c
    1319:	00 00       	nop	
    131b:	06 11       	andc	#0x11,ccr
    131d:	05 03       	xorc	#0x3,ccr
    131f:	00 ff       	.word	H'0,H'ff
    1321:	d9 58       	xor.b	#0x58,r1l
    1323:	14 00       	or.b	r0h,r0h
    1325:	00 00       	nop	
    1327:	8f 00       	add.b	#0x0,r7l
    1329:	00 06       	.word	H'0,H'6
    132b:	42 15       	.word	H'42,H'15
    132d:	00 00       	nop	
    132f:	00 3e       	.word	H'0,H'3e
    1331:	03 00       	ldc	r0h,ccr
    1333:	16 00       	and.b	r0h,r0h
    1335:	00 05       	.word	H'0,H'5
    1337:	05 01       	xorc	#0x1,ccr
    1339:	4d 00       	blt	.0 (0x133b)
    133b:	00 06       	.word	H'0,H'6
    133d:	32 05       	mov.b	r2h,@0x5:8
    133f:	03 00       	ldc	r0h,ccr
    1341:	ff d9       	mov.b	#0xd9,r7l
    1343:	48 14       	bvc	.+20 (0x1359)
    1345:	00 00       	nop	
    1347:	05 b3       	xorc	#0xb3,ccr
    1349:	00 00       	nop	
    134b:	06 63       	andc	#0x63,ccr
    134d:	15 00       	xor.b	r0h,r0h
    134f:	00 00       	nop	
    1351:	3e 01       	mov.b	r6l,@0x1:8
    1353:	00 16       	.word	H'0,H'16
    1355:	00 00       	nop	
    1357:	07 04       	ldc	#0x4,ccr
    1359:	01 4e       	.word	H'1,H'4e
    135b:	00 00       	nop	
    135d:	06 53       	andc	#0x53,ccr
    135f:	05 03       	xorc	#0x3,ccr
    1361:	00 ff       	.word	H'0,H'ff
    1363:	d9 28       	xor.b	#0x28,r1l
    1365:	17 00       	not.b	r0h
    1367:	00 06       	.word	H'0,H'6
    1369:	b8 01       	subx	#0x1,r0l
    136b:	02 40       	.word	H'2,H'40
    136d:	00 ff       	.word	H'0,H'ff
    136f:	ce 2a       	or.b	#0x2a,r6l
    1371:	00 00       	nop	
    1373:	00 1a       	.word	H'0,H'1a
    1375:	01 9c       	.word	H'1,H'9c
    1377:	00 00       	nop	
    1379:	06 e6       	andc	#0xe6,ccr
    137b:	18 00       	sub.b	r0h,r0h
    137d:	00 00       	nop	
    137f:	f8 01       	mov.b	#0x1,r0l
    1381:	02 40       	.word	H'2,H'40
    1383:	00 00       	nop	
    1385:	01 46       	.word	H'1,H'46
    1387:	00 00       	nop	
    1389:	09 16       	add.w	r1,r6
    138b:	18 00       	sub.b	r0h,r0h
    138d:	00 05       	.word	H'0,H'5
    138f:	30 01       	mov.b	r0h,@0x1:8
    1391:	02 40       	.word	H'2,H'40
    1393:	00 00       	nop	
    1395:	04 42       	orc	#0x42,ccr
    1397:	00 00       	nop	
    1399:	09 37       	add.w	r3,r7
    139b:	19 00       	sub.w	r0,r0
    139d:	00 0a       	.word	H'0,H'a
    139f:	25 00       	mov.b	@0x0:8,r5h
    13a1:	ff ce       	mov.b	#0xce,r7l
    13a3:	30 00       	mov.b	r0h,@0x0:8
    13a5:	00 00       	nop	
    13a7:	0e 01       	addx	r0h,r1h
    13a9:	02 42       	.word	H'2,H'42
    13ab:	1a 00       	dec.b	r0h
    13ad:	00 0a       	.word	H'0,H'a
    13af:	3e 00       	mov.b	r6l,@0x0:8
    13b1:	00 09       	.word	H'0,H'9
    13b3:	58 1a       	.word	H'58,H'1a
    13b5:	00 00       	nop	
    13b7:	0a 32       	add.w	#0x3,r2
    13b9:	00 00       	nop	
    13bb:	09 79       	add.w	r7,e1
    13bd:	1b 00       	subs	#1,er0
    13bf:	ff ce       	mov.b	#0xce,r7l
    13c1:	3e 00       	mov.b	r6l,@0x0:8
    13c3:	00 0a       	.word	H'0,H'a
    13c5:	6d 1c       	mov.w	@er1+,e4
    13c7:	01 50       	.word	H'1,H'50
    13c9:	03 f3       	.word	H'3,H'f3
    13cb:	01 50       	.word	H'1,H'50
    13cd:	1c 01       	cmp.b	r0h,r1h
    13cf:	51 03       	divxu.b	r0h,r3
    13d1:	f3 01       	mov.b	#0x1,r3h
    13d3:	51 00       	divxu.b	r0h,r0
    13d5:	00 00       	nop	
    13d7:	17 00       	not.b	r0h
    13d9:	00 03       	.word	H'0,H'3
    13db:	dd 01       	xor.b	#0x1,r5l
    13dd:	02 38       	stmac	macl,er0
    13df:	00 ff       	.word	H'0,H'ff
    13e1:	ce 0a       	or.b	#0xa,r6l
    13e3:	00 00       	nop	
    13e5:	00 20       	.word	H'0,H'20
    13e7:	01 9c       	.word	H'1,H'9c
    13e9:	00 00       	nop	
    13eb:	07 19       	ldc	#0x19,ccr
    13ed:	1d 00       	cmp.w	r0,r0
    13ef:	00 00       	nop	
    13f1:	f8 01       	mov.b	#0x1,r0l
    13f3:	02 38       	stmac	macl,er0
    13f5:	00 00       	nop	
    13f7:	01 46       	.word	H'1,H'46
    13f9:	01 50       	.word	H'1,H'50
    13fb:	1d 00       	cmp.w	r0,r0
    13fd:	00 05       	.word	H'0,H'5
    13ff:	30 01       	mov.b	r0h,@0x1:8
    1401:	02 38       	stmac	macl,er0
    1403:	00 00       	nop	
    1405:	04 42       	orc	#0x42,ccr
    1407:	01 51       	.word	H'1,H'51
    1409:	00 17       	.word	H'0,H'17
    140b:	00 00       	nop	
    140d:	03 62       	ldc	er2,vbr
    140f:	01 02       	.word	H'1,H'2
    1411:	30 00       	mov.b	r0h,@0x0:8
    1413:	ff ca       	mov.b	#0xca,r7l
    1415:	fc 00       	mov.b	#0x0,r4l
    1417:	00 00       	nop	
    1419:	12 01       	rotxl.b	r1h
    141b:	9c 00       	addx	#0x0,r4l
    141d:	00 07       	.word	H'0,H'7
    141f:	43 1b       	.word	H'43,H'1b
    1421:	00 ff       	.word	H'0,H'ff
    1423:	cb 0c       	or.b	#0xc,r3l
    1425:	00 00       	nop	
    1427:	11 06       	shlr.b	r6h
    1429:	1c 01       	cmp.b	r0h,r1h
    142b:	50 05       	mulxu.b	r0h,r5
    142d:	03 00       	ldc	r0h,ccr
    142f:	ff d8       	mov.b	#0xd8,r7l
    1431:	8f 00       	add.b	#0x0,r7l
    1433:	00 17       	.word	H'0,H'17
    1435:	00 00       	nop	
    1437:	00 00       	nop	
    1439:	01 02       	.word	H'1,H'2
    143b:	12 00       	rotxl.b	r0h
    143d:	ff c9       	mov.b	#0xc9,r7l
    143f:	fe 00       	mov.b	#0x0,r6l
    1441:	00 00       	nop	
    1443:	fe 01       	mov.b	#0x1,r6l
    1445:	9c 00       	addx	#0x0,r4l
    1447:	00 08       	.word	H'0,H'8
    1449:	fb 18       	mov.b	#0x18,r3l
    144b:	00 00       	nop	
    144d:	04 4f       	orc	#0x4f,ccr
    144f:	01 02       	.word	H'1,H'2
    1451:	12 00       	rotxl.b	r0h
    1453:	00 00       	nop	
    1455:	50 00       	mulxu.b	r0h,r0
    1457:	00 09       	.word	H'0,H'9
    1459:	9a 18       	addx	#0x18,r2l
    145b:	00 00       	nop	
    145d:	04 ba       	orc	#0xba,ccr
    145f:	01 02       	.word	H'1,H'2
    1461:	12 00       	rotxl.b	r0h
    1463:	00 00       	nop	
    1465:	82 00       	add.b	#0x0,r2h
    1467:	00 09       	.word	H'0,H'9
    1469:	c6 18       	or.b	#0x18,r6h
    146b:	00 00       	nop	
    146d:	06 8e       	andc	#0x8e,ccr
    146f:	01 02       	.word	H'1,H'2
    1471:	12 00       	rotxl.b	r0h
    1473:	00 00       	nop	
    1475:	75 00       	bxor	#0x0,r0h
    1477:	00 09       	.word	H'0,H'9
    1479:	f2 1d       	mov.b	#0x1d,r2h
    147b:	00 00       	nop	
    147d:	03 e8       	.word	H'3,H'e8
    147f:	01 02       	.word	H'1,H'2
    1481:	12 00       	rotxl.b	r0h
    1483:	00 00       	nop	
    1485:	75 02       	bxor	#0x0,r2h
    1487:	91 02       	addx	#0x2,r1h
    1489:	1d 00       	cmp.w	r0,r0
    148b:	00 00       	nop	
    148d:	71 01       	bnot	#0x0,r1h
    148f:	02 13       	stc	exr,r3h
    1491:	00 00       	nop	
    1493:	00 75       	.word	H'0,H'75
    1495:	02 91       	.word	H'2,H'91
    1497:	06 1d       	andc	#0x1d,ccr
    1499:	00 00       	nop	
    149b:	00 95       	.word	H'0,H'95
    149d:	01 02       	.word	H'1,H'2
    149f:	13 00       	rotxr.b	r0h
    14a1:	00 00       	nop	
    14a3:	7c 02       	.word	H'7c,H'2
    14a5:	91 08       	addx	#0x8,r1h
    14a7:	1e 00       	subx	r0h,r0h
    14a9:	00 0d       	.word	H'0,H'd
    14ab:	20 00       	mov.b	@0x0:8,r0h
    14ad:	ff ca       	mov.b	#0xca,r7l
    14af:	6a 00 00 00 	mov.b	@0x0:16,r0h
    14b3:	20 01       	mov.b	@0x1:8,r0h
    14b5:	02 23       	stmac	mach,er3
    14b7:	00 00       	nop	
    14b9:	07 fe       	ldc	#0xfe,ccr
    14bb:	1f 00       	das	r0h
    14bd:	00 0d       	.word	H'0,H'd
    14bf:	3d 1a       	mov.b	r5l,@0x1a:8
    14c1:	00 00       	nop	
    14c3:	0d 31       	mov.w	r3,r1
    14c5:	00 00       	nop	
    14c7:	0a 13       	add.w	#0x1,r3
    14c9:	20 00       	mov.b	@0x0:8,r0h
    14cb:	ff ca       	mov.b	#0xca,r7l
    14cd:	78 00       	.word	H'78,H'0
    14cf:	00 11       	.word	H'0,H'11
    14d1:	11 00       	shlr.b	r0h
    14d3:	00 07       	.word	H'0,H'7
    14d5:	f4 1c       	mov.b	#0x1c,r4h
    14d7:	01 50       	.word	H'1,H'50
    14d9:	01 31       	.word	H'1,H'31
    14db:	1c 01       	cmp.b	r0h,r1h
    14dd:	51 05       	divxu.b	r0h,r5
    14df:	03 00       	ldc	r0h,ccr
    14e1:	ff cd       	mov.b	#0xcd,r7l
    14e3:	ac 00       	cmp.b	#0x0,r4l
    14e5:	21 00       	mov.b	@0x0:8,r1h
    14e7:	ff ca       	mov.b	#0xca,r7l
    14e9:	8a 00       	add.b	#0x0,r2l
    14eb:	00 10       	.word	H'0,H'10
    14ed:	bf 00       	subx	#0x0,r7l
    14ef:	1e 00       	subx	r0h,r0h
    14f1:	00 0d       	.word	H'0,H'd
    14f3:	20 00       	mov.b	@0x0:8,r0h
    14f5:	ff ca       	mov.b	#0xca,r7l
    14f7:	8a 00       	add.b	#0x0,r2l
    14f9:	00 00       	nop	
    14fb:	1e 01       	subx	r0h,r1h
    14fd:	02 24       	stmac	mach,er4
    14ff:	00 00       	nop	
    1501:	08 46       	add.b	r4h,r6h
    1503:	1f 00       	das	r0h
    1505:	00 0d       	.word	H'0,H'd
    1507:	3d 1a       	mov.b	r5l,@0x1a:8
    1509:	00 00       	nop	
    150b:	0d 31       	mov.w	r3,r1
    150d:	00 00       	nop	
    150f:	0a 27       	add.w	#0x2,r7
    1511:	20 00       	mov.b	@0x0:8,r0h
    1513:	ff ca       	mov.b	#0xca,r7l
    1515:	96 00       	addx	#0x0,r6h
    1517:	00 11       	.word	H'0,H'11
    1519:	11 00       	shlr.b	r0h
    151b:	00 08       	.word	H'0,H'8
    151d:	3c 1c       	mov.b	r4l,@0x1c:8
    151f:	01 50       	.word	H'1,H'50
    1521:	01 30       	.word	H'1,H'30
    1523:	1c 01       	cmp.b	r0h,r1h
    1525:	51 05       	divxu.b	r0h,r5
    1527:	03 00       	ldc	r0h,ccr
    1529:	ff cd       	mov.b	#0xcd,r7l
    152b:	ac 00       	cmp.b	#0x0,r4l
    152d:	21 00       	mov.b	@0x0:8,r1h
    152f:	ff ca       	mov.b	#0xca,r7l
    1531:	a8 00       	cmp.b	#0x0,r0l
    1533:	00 10       	.word	H'0,H'10
    1535:	bf 00       	subx	#0x0,r7l
    1537:	21 00       	mov.b	@0x0:8,r1h
    1539:	ff ca       	mov.b	#0xca,r7l
    153b:	1e 00       	subx	r0h,r0h
    153d:	00 11       	.word	H'0,H'11
    153f:	1c 20       	cmp.b	r2h,r0h
    1541:	00 ff       	.word	H'0,H'ff
    1543:	ca 38       	or.b	#0x38,r2l
    1545:	00 00       	nop	
    1547:	11 27       	shlr.w	#4,r7
    1549:	00 00       	nop	
    154b:	08 71       	add.b	r7h,r1h
    154d:	1c 01       	cmp.b	r0h,r1h
    154f:	50 05       	mulxu.b	r0h,r5
    1551:	03 00       	ldc	r0h,ccr
    1553:	ff da       	mov.b	#0xda,r7l
    1555:	dc 1c       	xor.b	#0x1c,r4l
    1557:	01 51       	.word	H'1,H'51
    1559:	01 30       	.word	H'1,H'30
    155b:	1c 01       	cmp.b	r0h,r1h
    155d:	52 02       	mulxu.w	r0,er2
    155f:	08 80       	add.b	r0l,r0h
    1561:	00 20       	.word	H'0,H'20
    1563:	00 ff       	.word	H'0,H'ff
    1565:	ca 4a       	or.b	#0x4a,r2l
    1567:	00 00       	nop	
    1569:	11 27       	shlr.w	#4,r7
    156b:	00 00       	nop	
    156d:	08 94       	add.b	r1l,r4h
    156f:	1c 01       	cmp.b	r0h,r1h
    1571:	50 05       	mulxu.b	r0h,r5
    1573:	03 00       	ldc	r0h,ccr
    1575:	ff d9       	mov.b	#0xd9,r7l
    1577:	58 1c       	.word	H'58,H'1c
    1579:	01 51       	.word	H'1,H'51
    157b:	01 30       	.word	H'1,H'30
    157d:	1c 01       	cmp.b	r0h,r1h
    157f:	52 03       	mulxu.w	r0,er3
    1581:	0a 01       	inc	r1h
    1583:	80 00       	add.b	#0x0,r0h
    1585:	20 00       	mov.b	@0x0:8,r0h
    1587:	ff ca       	mov.b	#0xca,r7l
    1589:	5a 00 00 11 	jmp	@0x11:24
    158d:	27 00       	mov.b	@0x0:8,r7h
    158f:	00 08       	.word	H'0,H'8
    1591:	b5 1c       	subx	#0x1c,r5h
    1593:	01 50       	.word	H'1,H'50
    1595:	05 03       	xorc	#0x3,ccr
    1597:	00 ff       	.word	H'0,H'ff
    1599:	d9 48       	xor.b	#0x48,r1l
    159b:	1c 01       	cmp.b	r0h,r1h
    159d:	51 01       	divxu.b	r0h,r1
    159f:	30 1c       	mov.b	r0h,@0x1c:8
    15a1:	01 52       	.word	H'1,H'52
    15a3:	01 40       	.word	H'1,H'40
    15a5:	00 20       	.word	H'0,H'20
    15a7:	00 ff       	.word	H'0,H'ff
    15a9:	ca 6a       	or.b	#0x6a,r2l
    15ab:	00 00       	nop	
    15ad:	11 27       	shlr.w	#4,r7
    15af:	00 00       	nop	
    15b1:	08 d7       	add.b	r5l,r7h
    15b3:	1c 01       	cmp.b	r0h,r1h
    15b5:	50 05       	mulxu.b	r0h,r5
    15b7:	03 00       	ldc	r0h,ccr
    15b9:	ff d9       	mov.b	#0xd9,r7l
    15bb:	28 1c       	mov.b	@0x1c:8,r0l
    15bd:	01 51       	.word	H'1,H'51
    15bf:	01 30       	.word	H'1,H'30
    15c1:	1c 01       	cmp.b	r0h,r1h
    15c3:	52 02       	mulxu.w	r0,er2
    15c5:	08 20       	add.b	r2h,r0h
    15c7:	00 20       	.word	H'0,H'20
    15c9:	00 ff       	.word	H'0,H'ff
    15cb:	ca d6       	or.b	#0xd6,r2l
    15cd:	00 00       	nop	
    15cf:	0f 55       	mov.w	#0x5,r5
    15d1:	00 00       	nop	
    15d3:	08 f1       	add.b	r7l,r1h
    15d5:	1c 01       	cmp.b	r0h,r1h
    15d7:	50 02       	mulxu.b	r0h,r2
    15d9:	74 00       	bor	#0x0,r0h
    15db:	1c 01       	cmp.b	r0h,r1h
    15dd:	51 02       	divxu.b	r0h,r2
    15df:	75 00       	bxor	#0x0,r0h
    15e1:	00 21       	.word	H'0,H'21
    15e3:	00 ff       	.word	H'0,H'ff
    15e5:	ca e8       	or.b	#0xe8,r2l
    15e7:	00 00       	nop	
    15e9:	11 32       	shlr.l	er2
    15eb:	00 22       	.word	H'0,H'22
    15ed:	00 00       	nop	
    15ef:	05 8b       	xorc	#0x8b,ccr
    15f1:	01 01       	.word	H'1,H'1
    15f3:	f8 00       	mov.b	#0x0,r0l
    15f5:	ff cd       	mov.b	#0xcd,r7l
    15f7:	ac 00       	cmp.b	#0x0,r4l
    15f9:	00 00       	nop	
    15fb:	5e 01 9c 00 	jsr	@0x19c00:24
    15ff:	00 09       	.word	H'0,H'9
    1601:	6b 18       	.word	H'6b,H'18
    1603:	00 00       	nop	
    1605:	00 f8       	.word	H'0,H'f8
    1607:	01 01       	.word	H'1,H'1
    1609:	f8 00       	mov.b	#0x0,r0l
    160b:	00 00       	nop	
    160d:	de 00       	xor.b	#0x0,r6l
    160f:	00 0a       	.word	H'0,H'a
    1611:	3b 23       	mov.b	r3l,@0x23:8
    1613:	73 70       	btst	#0x7,r0h
    1615:	00 01       	.word	H'0,H'1
    1617:	01 f8       	.word	H'1,H'f8
    1619:	00 00       	nop	
    161b:	00 3e       	.word	H'0,H'3e
    161d:	00 00       	nop	
    161f:	0a 5c       	add.w	#0x5,e4
    1621:	1e 00       	subx	r0h,r0h
    1623:	00 0a       	.word	H'0,H'a
    1625:	0d 00       	mov.w	r0,r0
    1627:	ff cd       	mov.b	#0xcd,r7l
    1629:	de 00       	xor.b	#0x0,r6l
    162b:	00 00       	nop	
    162d:	1c 01       	cmp.b	r0h,r1h
    162f:	02 08       	stc	ccr,r0l
    1631:	00 00       	nop	
    1633:	09 61       	add.w	r6,r1
    1635:	24 00       	mov.b	@0x0:8,r4h
    1637:	ff cd       	mov.b	#0xcd,r7l
    1639:	de 00       	xor.b	#0x0,r6l
    163b:	00 00       	nop	
    163d:	1c 25       	cmp.b	r2h,r5h
    163f:	00 00       	nop	
    1641:	0a 1a       	add.w	#0x1,e2
    1643:	00 00       	nop	
    1645:	0a 7d       	add.w	#0x7,e5
    1647:	21 00       	mov.b	@0x0:8,r1h
    1649:	ff cd       	mov.b	#0xcd,r7l
    164b:	f2 00       	mov.b	#0x0,r2h
    164d:	00 07       	.word	H'0,H'7
    164f:	19 00       	sub.w	r0,r0
    1651:	00 21       	.word	H'0,H'21
    1653:	00 ff       	.word	H'0,H'ff
    1655:	ce 04       	or.b	#0x4,r6l
    1657:	00 00       	nop	
    1659:	11 32       	shlr.l	er2
    165b:	00 26       	.word	H'0,H'26
    165d:	00 00       	nop	
    165f:	05 43       	xorc	#0x43,ccr
    1661:	01 01       	.word	H'1,H'1
    1663:	ef 00       	and.b	#0x0,r7l
    1665:	ff c7       	mov.b	#0xc7,r7l
    1667:	a0 00       	cmp.b	#0x0,r0h
    1669:	00 00       	nop	
    166b:	2c 01       	mov.b	@0x1:8,r4l
    166d:	9c 00       	addx	#0x0,r4l
    166f:	00 09       	.word	H'0,H'9
    1671:	b4 21       	subx	#0x21,r4h
    1673:	00 ff       	.word	H'0,H'ff
    1675:	c7 b4       	or.b	#0xb4,r7h
    1677:	00 00       	nop	
    1679:	11 06       	shlr.b	r6h
    167b:	20 00       	mov.b	@0x0:8,r0h
    167d:	ff c7       	mov.b	#0xc7,r7l
    167f:	be 00       	subx	#0x0,r6l
    1681:	00 11       	.word	H'0,H'11
    1683:	06 00       	andc	#0x0,ccr
    1685:	00 09       	.word	H'0,H'9
    1687:	a1 1c       	cmp.b	#0x1c,r1h
    1689:	01 50       	.word	H'1,H'50
    168b:	05 03       	xorc	#0x3,ccr
    168d:	00 ff       	.word	H'0,H'ff
    168f:	d8 87       	xor.b	#0x87,r0l
    1691:	00 21       	.word	H'0,H'21
    1693:	00 ff       	.word	H'0,H'ff
    1695:	c7 c2       	or.b	#0xc2,r7h
    1697:	00 00       	nop	
    1699:	10 d4       	shal.w	#2,r4
    169b:	21 00       	mov.b	@0x0:8,r1h
    169d:	ff c7       	mov.b	#0xc7,r7l
    169f:	c6 00       	or.b	#0x0,r6h
    16a1:	00 0f       	.word	H'0,H'f
    16a3:	06 00       	andc	#0x0,ccr
    16a5:	26 00       	mov.b	@0x0:8,r6h
    16a7:	00 05       	.word	H'0,H'5
    16a9:	7e 01       	.word	H'7e,H'1
    16ab:	01 ea       	.word	H'1,H'ea
    16ad:	00 ff       	.word	H'0,H'ff
    16af:	cd 72       	or.b	#0x72,r5l
    16b1:	00 00       	nop	
    16b3:	00 3a       	.word	H'0,H'3a
    16b5:	01 9c       	.word	H'1,H'9c
    16b7:	00 00       	nop	
    16b9:	0a 0d       	inc	r5l
    16bb:	19 00       	sub.w	r0,r0
    16bd:	00 0a       	.word	H'0,H'a
    16bf:	49 00       	bvs	.0 (0x16c1)
    16c1:	ff cd       	mov.b	#0xcd,r7l
    16c3:	92 00       	addx	#0x0,r2h
    16c5:	00 00       	nop	
    16c7:	0c 01       	mov.b	r0h,r1h
    16c9:	01 ec       	.word	H'1,H'ec
    16cb:	1a 00       	dec.b	r0h
    16cd:	00 0a       	.word	H'0,H'a
    16cf:	62 00       	bclr	r0h,r0h
    16d1:	00 0a       	.word	H'0,H'a
    16d3:	cd 1a       	or.b	#0x1a,r5l
    16d5:	00 00       	nop	
    16d7:	0a 56       	add.w	#0x5,r6
    16d9:	00 00       	nop	
    16db:	0a e0       	add.l	er6,er0
    16dd:	21 00       	mov.b	@0x0:8,r1h
    16df:	ff cd       	mov.b	#0xcd,r7l
    16e1:	96 00       	addx	#0x0,r6h
    16e3:	00 10       	.word	H'0,H'10
    16e5:	d4 1b       	xor.b	#0x1b,r4h
    16e7:	00 ff       	.word	H'0,H'ff
    16e9:	cd 9e       	or.b	#0x9e,r5l
    16eb:	00 00       	nop	
    16ed:	0a 6d       	add.w	#0x6,e5
    16ef:	1c 01       	cmp.b	r0h,r1h
    16f1:	50 02       	mulxu.b	r0h,r2
    16f3:	74 00       	bor	#0x0,r0h
    16f5:	1c 01       	cmp.b	r0h,r1h
    16f7:	51 02       	divxu.b	r0h,r2
    16f9:	75 00       	bxor	#0x0,r0h
    16fb:	00 00       	nop	
    16fd:	00 27       	.word	H'0,H'27
    16ff:	00 00       	nop	
    1701:	03 f7       	.word	H'3,H'f7
    1703:	01 01       	.word	H'1,H'1
    1705:	d8 01       	xor.b	#0x1,r0l
    1707:	00 00       	nop	
    1709:	0a 25       	add.w	#0x2,r5
    170b:	28 69       	mov.b	@0x69:8,r0l
    170d:	00 01       	.word	H'0,H'1
    170f:	01 da       	.word	H'1,H'da
    1711:	00 00       	nop	
    1713:	00 75       	.word	H'0,H'75
    1715:	00 27       	.word	H'0,H'27
    1717:	00 00       	nop	
    1719:	06 ab       	andc	#0xab,ccr
    171b:	01 01       	.word	H'1,H'1
    171d:	c8 01       	or.b	#0x1,r0l
    171f:	00 00       	nop	
    1721:	0a 49       	add.w	#0x4,e1
    1723:	29 00       	mov.b	@0x0:8,r1l
    1725:	00 00       	nop	
    1727:	f8 01       	mov.b	#0x1,r0l
    1729:	01 c8       	.word	H'1,H'c8
    172b:	00 00       	nop	
    172d:	01 46       	.word	H'1,H'46
    172f:	2a 70       	mov.b	@0x70:8,r2l
    1731:	00 01       	.word	H'0,H'1
    1733:	01 c8       	.word	H'1,H'c8
    1735:	00 00       	nop	
    1737:	04 42       	orc	#0x42,ccr
    1739:	00 27       	.word	H'0,H'27
    173b:	00 00       	nop	
    173d:	05 36       	xorc	#0x36,ccr
    173f:	01 01       	.word	H'1,H'1
    1741:	bb 01       	subx	#0x1,r3l
    1743:	00 00       	nop	
    1745:	0a 6d       	add.w	#0x6,e5
    1747:	29 00       	mov.b	@0x0:8,r1l
    1749:	00 00       	nop	
    174b:	f8 01       	mov.b	#0x1,r0l
    174d:	01 bb       	.word	H'1,H'bb
    174f:	00 00       	nop	
    1751:	01 46       	.word	H'1,H'46
    1753:	2a 70       	mov.b	@0x70:8,r2l
    1755:	00 01       	.word	H'0,H'1
    1757:	01 bb       	.word	H'1,H'bb
    1759:	00 00       	nop	
    175b:	04 42       	orc	#0x42,ccr
    175d:	00 26       	.word	H'0,H'26
    175f:	00 00       	nop	
    1761:	05 fb       	xorc	#0xfb,ccr
    1763:	01 01       	.word	H'1,H'1
    1765:	87 00       	add.b	#0x0,r7h
    1767:	ff cb       	mov.b	#0xcb,r7l
    1769:	0e 00       	addx	r0h,r0h
    176b:	00 02       	.word	H'0,H'2
    176d:	64 01       	or.w	r0,r1
    176f:	9c 00       	addx	#0x0,r4l
    1771:	00 0d       	.word	H'0,H'd
    1773:	20 18       	mov.b	@0x18:8,r0h
    1775:	00 00       	nop	
    1777:	00 f8       	.word	H'0,H'f8
    1779:	01 01       	.word	H'1,H'1
    177b:	87 00       	add.b	#0x0,r7h
    177d:	00 01       	.word	H'0,H'1
    177f:	46 00       	bne	.0 (0x1781)
    1781:	00 0a       	.word	H'0,H'a
    1783:	f3 23       	mov.b	#0x23,r3h
    1785:	70 00       	bset	#0x0,r0h
    1787:	01 01       	.word	H'1,H'1
    1789:	87 00       	add.b	#0x0,r7h
    178b:	00 04       	.word	H'0,H'4
    178d:	42 00       	bhi	.0 (0x178f)
    178f:	00 0b       	.word	H'0,H'b
    1791:	14 1e       	or.b	r1h,r6l
    1793:	00 00       	nop	
    1795:	0e fa       	addx	r7l,r2l
    1797:	00 ff       	.word	H'0,H'ff
    1799:	cb 86       	or.b	#0x86,r3l
    179b:	00 00       	nop	
    179d:	00 04       	.word	H'0,H'4
    179f:	01 01       	.word	H'1,H'1
    17a1:	95 00       	addx	#0x0,r5h
    17a3:	00 0a       	.word	H'0,H'a
    17a5:	bf 21       	subx	#0x21,r7l
    17a7:	00 ff       	.word	H'0,H'ff
    17a9:	cb 8a       	or.b	#0x8a,r3l
    17ab:	00 00       	nop	
    17ad:	10 bf       	.word	H'10,H'bf
    17af:	00 1e       	.word	H'0,H'1e
    17b1:	00 00       	nop	
    17b3:	0e d3       	addx	r5l,r3h
    17b5:	00 ff       	.word	H'0,H'ff
    17b7:	cb 96       	or.b	#0x96,r3l
    17b9:	00 00       	nop	
    17bb:	00 0e       	.word	H'0,H'e
    17bd:	01 01       	.word	H'1,H'1
    17bf:	9b 00       	addx	#0x0,r3l
    17c1:	00 0a       	.word	H'0,H'a
    17c3:	e6 1a       	and.b	#0x1a,r6h
    17c5:	00 00       	nop	
    17c7:	0e e3       	addx	r6l,r3h
    17c9:	00 00       	nop	
    17cb:	0c 32       	mov.b	r3h,r2h
    17cd:	21 00       	mov.b	@0x0:8,r1h
    17cf:	ff cb       	mov.b	#0xcb,r7l
    17d1:	9a 00       	addx	#0x0,r2l
    17d3:	00 10       	.word	H'0,H'10
    17d5:	bf 00       	subx	#0x0,r7l
    17d7:	1e 00       	subx	r0h,r0h
    17d9:	00 0e       	.word	H'0,H'e
    17db:	c7 00       	or.b	#0x0,r7h
    17dd:	ff cb       	mov.b	#0xcb,r7l
    17df:	a4 00       	cmp.b	#0x0,r4h
    17e1:	00 00       	nop	
    17e3:	04 01       	orc	#0x1,ccr
    17e5:	01 9e       	.word	H'1,H'9e
    17e7:	00 00       	nop	
    17e9:	0b 04       	adds	#1,er4
    17eb:	21 00       	mov.b	@0x0:8,r1h
    17ed:	ff cb       	mov.b	#0xcb,r7l
    17ef:	a8 00       	cmp.b	#0x0,r0l
    17f1:	00 10       	.word	H'0,H'10
    17f3:	bf 00       	subx	#0x0,r7l
    17f5:	1e 00       	subx	r0h,r0h
    17f7:	00 0e       	.word	H'0,H'e
    17f9:	9d 00       	addx	#0x0,r5l
    17fb:	ff cb       	mov.b	#0xcb,r7l
    17fd:	ba 00       	subx	#0x0,r2l
    17ff:	00 00       	nop	
    1801:	18 01       	sub.b	r0h,r1h
    1803:	01 a1       	.word	H'1,H'a1
    1805:	00 00       	nop	
    1807:	0b 3e       	.word	H'b,H'3e
    1809:	1a 00       	dec.b	r0h
    180b:	00 0e       	.word	H'0,H'e
    180d:	ae 00       	cmp.b	#0x0,r6l
    180f:	00 0c       	.word	H'0,H'c
    1811:	45 24       	bcs	.+36 (0x1837)
    1813:	00 ff       	.word	H'0,H'ff
    1815:	cb ba       	or.b	#0xba,r3l
    1817:	00 00       	nop	
    1819:	00 18       	.word	H'0,H'18
    181b:	25 00       	mov.b	@0x0:8,r5h
    181d:	00 0e       	.word	H'0,H'e
    181f:	ba 00       	subx	#0x0,r2l
    1821:	00 0c       	.word	H'0,H'c
    1823:	58 21       	.word	H'58,H'21
    1825:	00 ff       	.word	H'0,H'ff
    1827:	cb d2       	or.b	#0xd2,r3l
    1829:	00 00       	nop	
    182b:	10 bf       	.word	H'10,H'bf
    182d:	00 00       	nop	
    182f:	1e 00       	subx	r0h,r0h
    1831:	00 0e       	.word	H'0,H'e
    1833:	7f 00 ff cb 	bfst	r7l,#0xcb,@0x0:8
    1837:	dc 00       	xor.b	#0x0,r4l
    1839:	00 00       	nop	
    183b:	0a 01       	inc	r1h
    183d:	01 a4       	.word	H'1,H'a4
    183f:	00 00       	nop	
    1841:	0b 75       	inc.l	#1,er5
    1843:	1a 00       	dec.b	r0h
    1845:	00 0e       	.word	H'0,H'e
    1847:	90 00       	addx	#0x0,r0h
    1849:	00 0c       	.word	H'0,H'c
    184b:	6b 21 00 ff 	mov.w	@0xffcbe0:32,r1
    184f:	cb e0 
    1851:	00 00       	nop	
    1853:	10 bf       	.word	H'10,H'bf
    1855:	1b 00       	subs	#1,er0
    1857:	ff cb       	mov.b	#0xcb,r7l
    1859:	e6 00       	and.b	#0x0,r6h
    185b:	00 11       	.word	H'0,H'11
    185d:	3d 1c       	mov.b	r5l,@0x1c:8
    185f:	01 50       	.word	H'1,H'50
    1861:	02 75       	stc	sbr,er5
    1863:	00 00       	nop	
    1865:	00 1e       	.word	H'0,H'1e
    1867:	00 00       	nop	
    1869:	0e 63       	addx	r6h,r3h
    186b:	00 ff       	.word	H'0,H'ff
    186d:	cb f0       	or.b	#0xf0,r3l
    186f:	00 00       	nop	
    1871:	00 0c       	.word	H'0,H'c
    1873:	01 01       	.word	H'1,H'1
    1875:	a7 00       	cmp.b	#0x0,r7h
    1877:	00 0b       	.word	H'0,H'b
    1879:	a5 1a       	cmp.b	#0x1a,r5h
    187b:	00 00       	nop	
    187d:	0e 74       	addx	r7h,r4h
    187f:	00 00       	nop	
    1881:	0c 7e       	mov.b	r7h,r6l
    1883:	21 00       	mov.b	@0x0:8,r1h
    1885:	ff cb       	mov.b	#0xcb,r7l
    1887:	f8 00       	mov.b	#0x0,r0l
    1889:	00 11       	.word	H'0,H'11
    188b:	48 21       	.word	H'48,H'21
    188d:	00 ff       	.word	H'0,H'ff
    188f:	cb fc       	or.b	#0xfc,r3l
    1891:	00 00       	nop	
    1893:	10 bf       	.word	H'10,H'bf
    1895:	00 1e       	.word	H'0,H'1e
    1897:	00 00       	nop	
    1899:	0d 90       	mov.w	e1,r0
    189b:	00 ff       	.word	H'0,H'ff
    189d:	cc 16       	or.b	#0x16,r4l
    189f:	00 00       	nop	
    18a1:	00 a6       	.word	H'0,H'a6
    18a3:	01 01       	.word	H'1,H'1
    18a5:	aa 00       	cmp.b	#0x0,r2l
    18a7:	00 0c       	.word	H'0,H'c
    18a9:	6b 1a       	.word	H'6b,H'1a
    18ab:	00 00       	nop	
    18ad:	0d b8       	mov.w	e3,e0
    18af:	00 00       	nop	
    18b1:	0c 92       	mov.b	r1l,r2h
    18b3:	1a 00       	dec.b	r0h
    18b5:	00 0d       	.word	H'0,H'd
    18b7:	ac 00       	cmp.b	#0x0,r4l
    18b9:	00 0c       	.word	H'0,H'c
    18bb:	a5 1a       	cmp.b	#0x1a,r5h
    18bd:	00 00       	nop	
    18bf:	0d a1       	mov.w	e2,r1
    18c1:	00 00       	nop	
    18c3:	0c d0       	mov.b	r5l,r0h
    18c5:	24 00       	mov.b	@0x0:8,r4h
    18c7:	ff cc       	mov.b	#0xcc,r7l
    18c9:	16 00       	and.b	r0h,r0h
    18cb:	00 00       	nop	
    18cd:	a6 25       	cmp.b	#0x25,r6h
    18cf:	00 00       	nop	
    18d1:	0d c2       	mov.w	e4,r2
    18d3:	00 00       	nop	
    18d5:	0c f9       	mov.b	r7l,r1l
    18d7:	1e 00       	subx	r0h,r0h
    18d9:	00 0e       	.word	H'0,H'e
    18db:	1c 00       	cmp.b	r0h,r0h
    18dd:	ff cc       	mov.b	#0xcc,r7l
    18df:	28 00       	mov.b	@0x0:8,r0l
    18e1:	00 00       	nop	
    18e3:	76 01       	band	#0x0,r1h
    18e5:	01 52       	.word	H'1,H'52
    18e7:	00 00       	nop	
    18e9:	0c 4e       	mov.b	r4h,r6l
    18eb:	1a 00       	dec.b	r0h
    18ed:	00 0e       	.word	H'0,H'e
    18ef:	4d 00       	blt	.0 (0x18f1)
    18f1:	00 0d       	.word	H'0,H'd
    18f3:	4c 1a       	bge	.+26 (0x190f)
    18f5:	00 00       	nop	
    18f7:	0e 41       	addx	r4h,r1h
    18f9:	00 00       	nop	
    18fb:	0d 60       	mov.w	r6,r0
    18fd:	1a 00       	dec.b	r0h
    18ff:	00 0e       	.word	H'0,H'e
    1901:	35 00       	mov.b	r5h,@0x0:8
    1903:	00 0d       	.word	H'0,H'd
    1905:	80 1a       	add.b	#0x1a,r0h
    1907:	00 00       	nop	
    1909:	0e 29       	addx	r2h,r1l
    190b:	00 00       	nop	
    190d:	0d 93       	mov.w	e1,r3
    190f:	24 00       	mov.b	@0x0:8,r4h
    1911:	ff cc       	mov.b	#0xcc,r7l
    1913:	28 00       	mov.b	@0x0:8,r0l
    1915:	00 00       	nop	
    1917:	76 25       	band	#0x2,r5h
    1919:	00 00       	nop	
    191b:	0e 57       	addx	r5h,r7h
    191d:	00 00       	nop	
    191f:	0d e6       	mov.w	e6,r6
    1921:	20 00       	mov.b	@0x0:8,r0h
    1923:	ff cc       	mov.b	#0xcc,r7l
    1925:	36 00       	mov.b	r6h,@0x0:8
    1927:	00 11       	.word	H'0,H'11
    1929:	3d 00       	mov.b	r5l,@0x0:8
    192b:	00 0c       	.word	H'0,H'c
    192d:	43 1c       	bls	.+28 (0x194b)
    192f:	01 50       	.word	H'1,H'50
    1931:	01 40       	.word	H'1,H'40
    1933:	00 21       	.word	H'0,H'21
    1935:	00 ff       	.word	H'0,H'ff
    1937:	cc 4a       	or.b	#0x4a,r4l
    1939:	00 00       	nop	
    193b:	07 19       	ldc	#0x19,ccr
    193d:	00 00       	nop	
    193f:	21 00       	mov.b	@0x0:8,r1h
    1941:	ff cc       	mov.b	#0xcc,r7l
    1943:	20 00       	mov.b	@0x0:8,r0h
    1945:	00 10       	.word	H'0,H'10
    1947:	bf 21       	subx	#0x21,r7l
    1949:	00 ff       	.word	H'0,H'ff
    194b:	cc b8       	or.b	#0xb8,r4l
    194d:	00 00       	nop	
    194f:	0d cf       	mov.w	e4,e7
    1951:	21 00       	mov.b	@0x0:8,r1h
    1953:	ff cc       	mov.b	#0xcc,r7l
    1955:	bc 00       	subx	#0x0,r4l
    1957:	00 10       	.word	H'0,H'10
    1959:	bf 00       	subx	#0x0,r7l
    195b:	00 1e       	.word	H'0,H'1e
    195d:	00 00       	nop	
    195f:	0d 4a       	mov.w	r4,e2
    1961:	00 ff       	.word	H'0,H'ff
    1963:	cc c6       	or.b	#0xc6,r4l
    1965:	00 00       	nop	
    1967:	00 56       	.word	H'0,H'56
    1969:	01 01       	.word	H'1,H'1
    196b:	ae 00       	cmp.b	#0x0,r6l
    196d:	00 0c       	.word	H'0,H'c
    196f:	c0 1a       	or.b	#0x1a,r0h
    1971:	00 00       	nop	
    1973:	0d 66       	mov.w	r6,r6
    1975:	00 00       	nop	
    1977:	0e 04       	addx	r0h,r4h
    1979:	1a 00       	dec.b	r0h
    197b:	00 0d       	.word	H'0,H'd
    197d:	72 00       	bclr	#0x0,r0h
    197f:	00 0e       	.word	H'0,H'e
    1981:	24 1a       	mov.b	@0x1a:8,r4h
    1983:	00 00       	nop	
    1985:	0d 5b       	mov.w	r5,e3
    1987:	00 00       	nop	
    1989:	0e 44       	addx	r4h,r4h
    198b:	24 00       	mov.b	@0x0:8,r4h
    198d:	ff cc       	mov.b	#0xcc,r7l
    198f:	c6 00       	or.b	#0x0,r6h
    1991:	00 00       	nop	
    1993:	56 25       	rte/l	er3-er5
    1995:	00 00       	nop	
    1997:	0d 7d       	mov.w	r7,e5
    1999:	00 00       	nop	
    199b:	0e 6f       	addx	r6h,r7l
    199d:	21 00       	mov.b	@0x0:8,r1h
    199f:	ff cc       	mov.b	#0xcc,r7l
    19a1:	fe 00       	mov.b	#0x0,r6l
    19a3:	00 0d       	.word	H'0,H'd
    19a5:	cf 21       	or.b	#0x21,r7l
    19a7:	00 ff       	.word	H'0,H'ff
    19a9:	cd 02       	or.b	#0x2,r5l
    19ab:	00 00       	nop	
    19ad:	10 bf       	.word	H'10,H'bf
    19af:	00 00       	nop	
    19b1:	1e 00       	subx	r0h,r0h
    19b3:	00 0d       	.word	H'0,H'd
    19b5:	20 00       	mov.b	@0x0:8,r0h
    19b7:	ff cd       	mov.b	#0xcd,r7l
    19b9:	2c 00       	mov.b	@0x0:8,r4l
    19bb:	00 00       	nop	
    19bd:	2c 01       	mov.b	@0x1:8,r4l
    19bf:	01 b2       	.word	H'1,H'b2
    19c1:	00 00       	nop	
    19c3:	0d 0d       	mov.w	r0,e5
    19c5:	1a 00       	dec.b	r0h
    19c7:	00 0d       	.word	H'0,H'd
    19c9:	3d 00       	mov.b	r5l,@0x0:8
    19cb:	00 0e       	.word	H'0,H'e
    19cd:	db 1a       	xor.b	#0x1a,r3l
    19cf:	00 00       	nop	
    19d1:	0d 31       	mov.w	r3,r1
    19d3:	00 00       	nop	
    19d5:	0e ee       	addx	r6l,r6l
    19d7:	20 00       	mov.b	@0x0:8,r0h
    19d9:	ff cd       	mov.b	#0xcd,r7l
    19db:	3e 00       	mov.b	r6l,@0x0:8
    19dd:	00 11       	.word	H'0,H'11
    19df:	11 00       	shlr.b	r0h
    19e1:	00 0d       	.word	H'0,H'd
    19e3:	03 1c       	ldc	r4l,exr
    19e5:	01 50       	.word	H'1,H'50
    19e7:	02 75       	stc	sbr,er5
    19e9:	00 1c       	.word	H'0,H'1c
    19eb:	01 51       	.word	H'1,H'51
    19ed:	05 03       	xorc	#0x3,ccr
    19ef:	00 ff       	.word	H'0,H'ff
    19f1:	cd ac       	or.b	#0xac,r5l
    19f3:	00 21       	.word	H'0,H'21
    19f5:	00 ff       	.word	H'0,H'ff
    19f7:	cd 58       	or.b	#0x58,r5l
    19f9:	00 00       	nop	
    19fb:	10 bf       	.word	H'10,H'bf
    19fd:	00 21       	.word	H'0,H'21
    19ff:	00 ff       	.word	H'0,H'ff
    1a01:	cb 6e       	or.b	#0x6e,r3l
    1a03:	00 00       	nop	
    1a05:	0f 55       	mov.w	#0x5,r5
    1a07:	21 00       	mov.b	@0x0:8,r1h
    1a09:	ff cb       	mov.b	#0xcb,r7l
    1a0b:	82 00       	add.b	#0x0,r2h
    1a0d:	00 0f       	.word	H'0,H'f
    1a0f:	06 00       	andc	#0x0,ccr
    1a11:	2b 00       	mov.b	@0x0:8,r3l
    1a13:	00 03       	.word	H'0,H'3
    1a15:	82 01       	add.b	#0x1,r2h
    1a17:	01 78 00 00 	mov.b	@er0,@er0
    1a1b:	00 75       	.word	H'0,H'75
    1a1d:	01 00       	.word	H'1,H'0
    1a1f:	00 0d       	.word	H'0,H'd
    1a21:	4a 29       	.word	H'4a,H'29
    1a23:	00 00       	nop	
    1a25:	00 f8       	.word	H'0,H'f8
    1a27:	01 01       	.word	H'1,H'1
    1a29:	78 00       	.word	H'78,H'0
    1a2b:	00 00       	nop	
    1a2d:	de 29       	xor.b	#0x29,r6l
    1a2f:	00 00       	nop	
    1a31:	00 e0       	.word	H'0,H'e0
    1a33:	01 01       	.word	H'1,H'1
    1a35:	78 00       	.word	H'78,H'0
    1a37:	00 00       	nop	
    1a39:	8f 00       	add.b	#0x0,r7l
    1a3b:	2b 00       	mov.b	@0x0:8,r3l
    1a3d:	00 04       	.word	H'0,H'4
    1a3f:	24 01       	mov.b	@0x1:8,r4h
    1a41:	01 5f       	.word	H'1,H'5f
    1a43:	00 00       	nop	
    1a45:	00 45       	.word	H'0,H'45
    1a47:	01 00       	.word	H'1,H'0
    1a49:	00 0d       	.word	H'0,H'd
    1a4b:	8a 2a       	add.b	#0x2a,r2l
    1a4d:	69 64       	mov.w	@er6,r4
    1a4f:	00 01       	.word	H'0,H'1
    1a51:	01 5f       	.word	H'1,H'5f
    1a53:	00 00       	nop	
    1a55:	00 c8       	.word	H'0,H'c8
    1a57:	29 00       	mov.b	@0x0:8,r1l
    1a59:	00 03       	.word	H'0,H'3
    1a5b:	91 01       	addx	#0x1,r1h
    1a5d:	01 5f       	.word	H'1,H'5f
    1a5f:	00 00       	nop	
    1a61:	02 f2       	.word	H'2,H'f2
    1a63:	2a 70       	mov.b	@0x70:8,r2l
    1a65:	70 00       	bset	#0x0,r0h
    1a67:	01 01       	.word	H'1,H'1
    1a69:	5f 00       	jsr	@@0 (0x0)
    1a6b:	00 00       	nop	
    1a6d:	7c 2c       	.word	H'7c,H'2c
    1a6f:	00 00       	nop	
    1a71:	03 aa       	ldmac	er2,mach
    1a73:	01 01       	.word	H'1,H'1
    1a75:	61 00       	bnot	r0h,r0h
    1a77:	00 0d       	.word	H'0,H'd
    1a79:	8a 00       	add.b	#0x0,r2l
    1a7b:	04 04       	orc	#0x4,ccr
    1a7d:	00 00       	nop	
    1a7f:	05 b3       	xorc	#0xb3,ccr
    1a81:	2b 00       	mov.b	@0x0:8,r3l
    1a83:	00 05       	.word	H'0,H'5
    1a85:	24 01       	mov.b	@0x1:8,r4h
    1a87:	01 4d       	.word	H'1,H'4d
    1a89:	00 00       	nop	
    1a8b:	00 75       	.word	H'0,H'75
    1a8d:	01 00       	.word	H'1,H'0
    1a8f:	00 0d       	.word	H'0,H'd
    1a91:	cf 2a       	or.b	#0x2a,r7l
    1a93:	69 64       	mov.w	@er6,r4
    1a95:	00 01       	.word	H'0,H'1
    1a97:	01 4d       	.word	H'1,H'4d
    1a99:	00 00       	nop	
    1a9b:	00 c8       	.word	H'0,H'c8
    1a9d:	29 00       	mov.b	@0x0:8,r1l
    1a9f:	00 03       	.word	H'0,H'3
    1aa1:	ed 01       	and.b	#0x1,r5l
    1aa3:	01 4d       	.word	H'1,H'4d
    1aa5:	00 00       	nop	
    1aa7:	00 75       	.word	H'0,H'75
    1aa9:	2a 70       	mov.b	@0x70:8,r2l
    1aab:	00 01       	.word	H'0,H'1
    1aad:	01 4d       	.word	H'1,H'4d
    1aaf:	00 00       	nop	
    1ab1:	00 82       	.word	H'0,H'82
    1ab3:	2c 00       	mov.b	@0x0:8,r4l
    1ab5:	00 03       	.word	H'0,H'3
    1ab7:	aa 01       	cmp.b	#0x1,r2l
    1ab9:	01 4f       	.word	H'1,H'4f
    1abb:	00 00       	nop	
    1abd:	0d 8a       	mov.w	e0,e2
    1abf:	00 26       	.word	H'0,H'26
    1ac1:	00 00       	nop	
    1ac3:	06 cc       	andc	#0xcc,ccr
    1ac5:	01 01       	.word	H'1,H'1
    1ac7:	31 00       	mov.b	r1h,@0x0:8
    1ac9:	ff c7       	mov.b	#0xc7,r7l
    1acb:	cc 00       	or.b	#0x0,r4l
    1acd:	00 00       	nop	
    1acf:	74 01       	bor	#0x0,r1h
    1ad1:	9c 00       	addx	#0x0,r4l
    1ad3:	00 0e       	.word	H'0,H'e
    1ad5:	1c 18       	cmp.b	r1h,r0l
    1ad7:	00 00       	nop	
    1ad9:	03 aa       	ldmac	er2,mach
    1adb:	01 01       	.word	H'1,H'1
    1add:	31 00       	mov.b	r1h,@0x0:8
    1adf:	00 0d       	.word	H'0,H'd
    1ae1:	8a 00       	add.b	#0x0,r2l
    1ae3:	00 0f       	.word	H'0,H'f
    1ae5:	01 2d       	.word	H'1,H'2d
    1ae7:	6d 70       	mov.w	@er7+,r0
    1ae9:	00 01       	.word	H'0,H'1
    1aeb:	01 33       	.word	H'1,H'33
    1aed:	00 00       	nop	
    1aef:	05 96       	xorc	#0x96,ccr
    1af1:	00 00       	nop	
    1af3:	0f 22       	mov.w	#0x2,r2
    1af5:	2d 70       	mov.b	@0x70:8,r5l
    1af7:	00 01       	.word	H'0,H'1
    1af9:	01 34       	.word	H'1,H'34
    1afb:	00 00       	nop	
    1afd:	04 42       	orc	#0x42,ccr
    1aff:	00 00       	nop	
    1b01:	0f 35       	mov.w	#0x3,r5
    1b03:	21 00       	mov.b	@0x0:8,r1h
    1b05:	ff c8       	mov.b	#0xc8,r7l
    1b07:	36 00       	mov.b	r6h,@0x0:8
    1b09:	00 11       	.word	H'0,H'11
    1b0b:	48 00       	bvc	.0 (0x1b0d)
    1b0d:	27 00       	mov.b	@0x0:8,r7h
    1b0f:	00 05       	.word	H'0,H'5
    1b11:	97 01       	addx	#0x1,r7h
    1b13:	01 1a       	.word	H'1,H'1a
    1b15:	01 00       	.word	H'1,H'0
    1b17:	00 0e       	.word	H'0,H'e
    1b19:	63 29       	btst	r2h,r1l
    1b1b:	00 00       	nop	
    1b1d:	03 aa       	ldmac	er2,mach
    1b1f:	01 01       	.word	H'1,H'1
    1b21:	1a 00       	dec.b	r0h
    1b23:	00 0d       	.word	H'0,H'd
    1b25:	8a 2a       	add.b	#0x2a,r2l
    1b27:	74 68       	bor	#0x6,r0l
    1b29:	70 00       	bset	#0x0,r0h
    1b2b:	01 01       	.word	H'1,H'1
    1b2d:	1a 00       	dec.b	r0h
    1b2f:	00 05       	.word	H'0,H'5
    1b31:	48 29       	.word	H'48,H'29
    1b33:	00 00       	nop	
    1b35:	03 ed       	.word	H'3,H'ed
    1b37:	01 01       	.word	H'1,H'1
    1b39:	1a 00       	dec.b	r0h
    1b3b:	00 00       	nop	
    1b3d:	75 2a       	bxor	#0x2,r2l
    1b3f:	70 00       	bset	#0x0,r0h
    1b41:	01 01       	.word	H'1,H'1
    1b43:	1a 00       	dec.b	r0h
    1b45:	00 00       	nop	
    1b47:	82 28       	add.b	#0x28,r2h
    1b49:	6d 70       	mov.w	@er7+,r0
    1b4b:	00 01       	.word	H'0,H'1
    1b4d:	01 1c       	.word	H'1,H'1c
    1b4f:	00 00       	nop	
    1b51:	05 96       	xorc	#0x96,ccr
    1b53:	00 2b       	.word	H'0,H'2b
    1b55:	00 00       	nop	
    1b57:	06 64       	andc	#0x64,ccr
    1b59:	01 01       	.word	H'1,H'1
    1b5b:	12 00       	rotxl.b	r0h
    1b5d:	00 00       	nop	
    1b5f:	75 01       	bxor	#0x0,r1h
    1b61:	00 00       	nop	
    1b63:	0e 7f       	addx	r7h,r7l
    1b65:	2a 70       	mov.b	@0x70:8,r2l
    1b67:	00 01       	.word	H'0,H'1
    1b69:	01 12       	.word	H'1,H'12
    1b6b:	00 00       	nop	
    1b6d:	00 82       	.word	H'0,H'82
    1b6f:	00 2b       	.word	H'0,H'2b
    1b71:	00 00       	nop	
    1b73:	04 f6       	orc	#0xf6,ccr
    1b75:	01 01       	.word	H'1,H'1
    1b77:	0b 00       	adds	#1,er0
    1b79:	00 02       	.word	H'0,H'2
    1b7b:	64 01       	or.w	r0,r1
    1b7d:	00 00       	nop	
    1b7f:	0e 9d       	addx	r1l,r5l
    1b81:	29 00       	mov.b	@0x0:8,r1l
    1b83:	00 03       	.word	H'0,H'3
    1b85:	ed 01       	and.b	#0x1,r5l
    1b87:	01 0b       	.word	H'1,H'b
    1b89:	00 00       	nop	
    1b8b:	00 75       	.word	H'0,H'75
    1b8d:	00 2b       	.word	H'0,H'2b
    1b8f:	00 00       	nop	
    1b91:	04 9e       	orc	#0x9e,ccr
    1b93:	01 01       	.word	H'1,H'1
    1b95:	01 00       	.word	H'1,H'0
    1b97:	00 00       	nop	
    1b99:	75 01       	bxor	#0x0,r1h
    1b9b:	00 00       	nop	
    1b9d:	0e c7       	addx	r4l,r7h
    1b9f:	29 00       	mov.b	@0x0:8,r1l
    1ba1:	00 06       	.word	H'0,H'6
    1ba3:	8e 01       	add.b	#0x1,r6l
    1ba5:	01 01       	.word	H'1,H'1
    1ba7:	00 00       	nop	
    1ba9:	00 75       	.word	H'0,H'75
    1bab:	28 6f       	mov.b	@0x6f:8,r0l
    1bad:	6c 64       	mov.b	@er6+,r4h
    1baf:	00 01       	.word	H'0,H'1
    1bb1:	01 03       	.word	H'1,H'3
    1bb3:	00 00       	nop	
    1bb5:	00 75       	.word	H'0,H'75
    1bb7:	00 2e       	.word	H'0,H'2e
    1bb9:	00 00       	nop	
    1bbb:	04 5f       	orc	#0x5f,ccr
    1bbd:	01 fa       	.word	H'1,H'fa
    1bbf:	00 00       	nop	
    1bc1:	00 45       	.word	H'0,H'45
    1bc3:	01 2f       	.word	H'1,H'2f
    1bc5:	00 00       	nop	
    1bc7:	04 30       	orc	#0x30,ccr
    1bc9:	01 ed       	.word	H'1,H'ed
    1bcb:	00 00       	nop	
    1bcd:	00 75       	.word	H'0,H'75
    1bcf:	01 00       	.word	H'1,H'0
    1bd1:	00 0e       	.word	H'0,H'e
    1bd3:	ee 30       	and.b	#0x30,r6l
    1bd5:	69 64       	mov.w	@er6,r4
    1bd7:	00 01       	.word	H'0,H'1
    1bd9:	ed 00       	and.b	#0x0,r5l
    1bdb:	00 00       	nop	
    1bdd:	45 00       	bcs	.0 (0x1bdf)
    1bdf:	2e 00       	mov.b	@0x0:8,r6l
    1be1:	00 06       	.word	H'0,H'6
    1be3:	20 01       	mov.b	@0x1:8,r0h
    1be5:	e7 00       	and.b	#0x0,r7h
    1be7:	00 00       	nop	
    1be9:	75 01       	bxor	#0x0,r1h
    1beb:	2e 00       	mov.b	@0x0:8,r6l
    1bed:	00 04       	.word	H'0,H'4
    1bef:	d9 01       	xor.b	#0x1,r1l
    1bf1:	e0 00       	and.b	#0x0,r0h
    1bf3:	00 00       	nop	
    1bf5:	75 01       	bxor	#0x0,r1h
    1bf7:	31 00       	mov.b	r1h,@0x0:8
    1bf9:	00 05       	.word	H'0,H'5
    1bfb:	72 01       	bclr	#0x0,r1h
    1bfd:	d3 00       	xor.b	#0x0,r3h
    1bff:	00 00       	nop	
    1c01:	75 00       	bxor	#0x0,r0h
    1c03:	ff c7       	mov.b	#0xc7,r7l
    1c05:	68 00       	mov.b	@er0,r0h
    1c07:	00 00       	nop	
    1c09:	38 01       	mov.b	r0l,@0x1:8
    1c0b:	9c 00       	addx	#0x0,r4l
    1c0d:	00 0f       	.word	H'0,H'f
    1c0f:	55 21       	bsr	.+33 (0x1c32)
    1c11:	00 ff       	.word	H'0,H'ff
    1c13:	c7 7c       	or.b	#0x7c,r7h
    1c15:	00 00       	nop	
    1c17:	11 06       	shlr.b	r6h
    1c19:	20 00       	mov.b	@0x0:8,r0h
    1c1b:	ff c7       	mov.b	#0xc7,r7l
    1c1d:	86 00       	add.b	#0x0,r6h
    1c1f:	00 11       	.word	H'0,H'11
    1c21:	06 00       	andc	#0x0,ccr
    1c23:	00 0f       	.word	H'0,H'f
    1c25:	3f 1c       	mov.b	r7l,@0x1c:8
    1c27:	01 50       	.word	H'1,H'50
    1c29:	05 03       	xorc	#0x3,ccr
    1c2b:	00 ff       	.word	H'0,H'ff
    1c2d:	d8 7f       	xor.b	#0x7f,r0l
    1c2f:	00 1b       	.word	H'0,H'1b
    1c31:	00 ff       	.word	H'0,H'ff
    1c33:	c7 98       	or.b	#0x98,r7h
    1c35:	00 00       	nop	
    1c37:	11 27       	shlr.w	#4,r7
    1c39:	1c 01       	cmp.b	r0h,r1h
    1c3b:	51 01       	divxu.b	r0h,r1
    1c3d:	30 1c       	mov.b	r0h,@0x1c:8
    1c3f:	01 52       	.word	H'1,H'52
    1c41:	02 08       	stc	ccr,r0l
    1c43:	40 00       	bra	.0 (0x1c45)
    1c45:	00 31       	.word	H'0,H'31
    1c47:	00 00       	nop	
    1c49:	04 c4       	orc	#0xc4,ccr
    1c4b:	01 8d       	.word	H'1,H'8d
    1c4d:	00 00       	nop	
    1c4f:	00 45       	.word	H'0,H'45
    1c51:	00 ff       	.word	H'0,H'ff
    1c53:	c8 40       	or.b	#0x40,r0l
    1c55:	00 00       	nop	
    1c57:	01 8c       	.word	H'1,H'8c
    1c59:	01 9c       	.word	H'1,H'9c
    1c5b:	00 00       	nop	
    1c5d:	10 73       	shll.l	#2,er3
    1c5f:	32 00       	mov.b	r2h,@0x0:8
    1c61:	00 04       	.word	H'0,H'4
    1c63:	4f 01       	.word	H'4f,H'1
    1c65:	8d 00       	add.b	#0x0,r5l
    1c67:	00 00       	nop	
    1c69:	50 00       	mulxu.b	r0h,r0
    1c6b:	00 0f       	.word	H'0,H'f
    1c6d:	57 32       	.word	H'57,H'32
    1c6f:	00 00       	nop	
    1c71:	04 ba       	orc	#0xba,ccr
    1c73:	01 8d       	.word	H'1,H'8d
    1c75:	00 00       	nop	
    1c77:	00 82       	.word	H'0,H'82
    1c79:	00 00       	nop	
    1c7b:	0f 76       	mov.w	#0x7,r6
    1c7d:	32 00       	mov.b	r2h,@0x0:8
    1c7f:	00 06       	.word	H'0,H'6
    1c81:	8e 01       	add.b	#0x1,r6l
    1c83:	8d 00       	add.b	#0x0,r5l
    1c85:	00 00       	nop	
    1c87:	75 00       	bxor	#0x0,r0h
    1c89:	00 0f       	.word	H'0,H'f
    1c8b:	ac 33       	cmp.b	#0x33,r4l
    1c8d:	00 00       	nop	
    1c8f:	03 e8       	.word	H'3,H'e8
    1c91:	01 8e       	.word	H'1,H'8e
    1c93:	00 00       	nop	
    1c95:	00 75       	.word	H'0,H'75
    1c97:	02 91       	.word	H'2,H'91
    1c99:	02 33       	stmac	macl,er3
    1c9b:	00 00       	nop	
    1c9d:	00 71       	.word	H'0,H'71
    1c9f:	01 8e       	.word	H'1,H'8e
    1ca1:	00 00       	nop	
    1ca3:	00 75       	.word	H'0,H'75
    1ca5:	02 91       	.word	H'2,H'91
    1ca7:	06 33       	andc	#0x33,ccr
    1ca9:	00 00       	nop	
    1cab:	00 95       	.word	H'0,H'95
    1cad:	01 8e       	.word	H'1,H'8e
    1caf:	00 00       	nop	
    1cb1:	00 7c       	.word	H'0,H'7c
    1cb3:	02 91       	.word	H'2,H'91
    1cb5:	08 34       	add.b	r3h,r4h
    1cb7:	69 00       	mov.w	@er0,r0
    1cb9:	01 90       	.word	H'1,H'90
    1cbb:	00 00       	nop	
    1cbd:	00 75       	.word	H'0,H'75
    1cbf:	00 00       	nop	
    1cc1:	0f cb       	mov.l	#0x4,er3
    1cc3:	34 74       	mov.b	r4h,@0x74:8
    1cc5:	68 70       	mov.b	@er7,r0h
    1cc7:	00 01       	.word	H'0,H'1
    1cc9:	91 00       	addx	#0x0,r1h
    1ccb:	00 05       	.word	H'0,H'5
    1ccd:	48 00       	bvc	.0 (0x1ccf)
    1ccf:	00 10       	.word	H'0,H'10
    1cd1:	0d 34       	mov.w	r3,r4
    1cd3:	73 70       	btst	#0x7,r0h
    1cd5:	00 01       	.word	H'0,H'1
    1cd7:	92 00       	addx	#0x0,r2h
    1cd9:	00 10       	.word	H'0,H'10
    1cdb:	73 00       	btst	#0x0,r0h
    1cdd:	00 10       	.word	H'0,H'10
    1cdf:	96 0b       	addx	#0xb,r6h
    1ce1:	00 00       	nop	
    1ce3:	04 cf       	orc	#0xcf,ccr
    1ce5:	01 93       	.word	H'1,H'93
    1ce7:	00 00       	nop	
    1ce9:	00 88       	.word	H'0,H'88
    1ceb:	16 00       	and.b	r0h,r0h
    1ced:	00 04       	.word	H'0,H'4
    1cef:	00 01       	.word	H'0,H'1
    1cf1:	94 00       	addx	#0x0,r4h
    1cf3:	00 00       	nop	
    1cf5:	82 05       	add.b	#0x5,r2h
    1cf7:	03 00       	ldc	r0h,ccr
    1cf9:	ff d9       	mov.b	#0xd9,r7l
    1cfb:	08 21       	add.b	r2h,r1h
    1cfd:	00 ff       	.word	H'0,H'ff
    1cff:	c8 e4       	or.b	#0xe4,r0l
    1d01:	00 00       	nop	
    1d03:	10 bf       	.word	H'10,H'bf
    1d05:	21 00       	mov.b	@0x0:8,r1h
    1d07:	ff c8       	mov.b	#0xc8,r7l
    1d09:	f0 00       	mov.b	#0x0,r0h
    1d0b:	00 10       	.word	H'0,H'10
    1d0d:	bf 20       	subx	#0x20,r7l
    1d0f:	00 ff       	.word	H'0,H'ff
    1d11:	c9 20       	or.b	#0x20,r1l
    1d13:	00 00       	nop	
    1d15:	11 27       	shlr.w	#4,r7
    1d17:	00 00       	nop	
    1d19:	10 3c       	shll.l	#4,er4
    1d1b:	1c 01       	cmp.b	r0h,r1h
    1d1d:	50 02       	mulxu.b	r0h,r2
    1d1f:	74 00       	bor	#0x0,r0h
    1d21:	1c 01       	cmp.b	r0h,r1h
    1d23:	51 01       	divxu.b	r0h,r1
    1d25:	30 1c       	mov.b	r0h,@0x1c:8
    1d27:	01 52       	.word	H'1,H'52
    1d29:	02 08       	stc	ccr,r0l
    1d2b:	40 00       	bra	.0 (0x1d2d)
    1d2d:	20 00       	mov.b	@0x0:8,r0h
    1d2f:	ff c9       	mov.b	#0xc9,r7l
    1d31:	32 00       	mov.b	r2h,@0x0:8
    1d33:	00 11       	.word	H'0,H'11
    1d35:	53 00       	divxu.w	r0,er0
    1d37:	00 10       	.word	H'0,H'10
    1d39:	5d 1c       	jsr	@@624 (0x270)
    1d3b:	01 50       	.word	H'1,H'50
    1d3d:	08 75       	add.b	r7h,r5h
    1d3f:	00 03       	.word	H'0,H'3
    1d41:	00 ff       	.word	H'0,H'ff
    1d43:	d9 5c       	xor.b	#0x5c,r1l
    1d45:	22 1c       	mov.b	@0x1c:8,r2h
    1d47:	01 51       	.word	H'1,H'51
    1d49:	03 91       	.word	H'3,H'91
    1d4b:	60 06       	bset	r0h,r6h
    1d4d:	00 1b       	.word	H'0,H'1b
    1d4f:	00 ff       	.word	H'0,H'ff
    1d51:	c9 80       	or.b	#0x80,r1l
    1d53:	00 00       	nop	
    1d55:	11 27       	shlr.w	#4,r7
    1d57:	1c 01       	cmp.b	r0h,r1h
    1d59:	51 01       	divxu.b	r0h,r1
    1d5b:	30 1c       	mov.b	r0h,@0x1c:8
    1d5d:	01 52       	.word	H'1,H'52
    1d5f:	02 75       	stc	sbr,er5
    1d61:	00 00       	nop	
    1d63:	00 04       	.word	H'0,H'4
    1d65:	04 00       	orc	#0x0,ccr
    1d67:	00 00       	nop	
    1d69:	33 35       	mov.b	r3h,@0x35:8
    1d6b:	00 00       	nop	
    1d6d:	04 18       	orc	#0x18,ccr
    1d6f:	01 85       	.word	H'1,H'85
    1d71:	00 ff       	.word	H'0,H'ff
    1d73:	c9 dc       	or.b	#0xdc,r1l
    1d75:	00 00       	nop	
    1d77:	00 22       	.word	H'0,H'22
    1d79:	01 9c       	.word	H'1,H'9c
    1d7b:	00 00       	nop	
    1d7d:	10 b7       	shal.l	er7
    1d7f:	36 74       	mov.b	r6h,@0x74:8
    1d81:	68 70       	mov.b	@er7,r0h
    1d83:	00 01       	.word	H'0,H'1
    1d85:	85 00       	add.b	#0x0,r5h
    1d87:	00 05       	.word	H'0,H'5
    1d89:	48 00       	bvc	.0 (0x1d8b)
    1d8b:	00 11       	.word	H'0,H'11
    1d8d:	2b 37       	mov.b	@0x37:8,r3l
    1d8f:	00 00       	nop	
    1d91:	10 b7       	shal.l	er7
    1d93:	00 ff       	.word	H'0,H'ff
    1d95:	c9 f4       	or.b	#0xf4,r1l
    1d97:	00 00       	nop	
    1d99:	00 04       	.word	H'0,H'4
    1d9b:	01 89       	.word	H'1,H'89
    1d9d:	21 00       	mov.b	@0x0:8,r1h
    1d9f:	ff c9       	mov.b	#0xc9,r7l
    1da1:	f8 00       	mov.b	#0x0,r0l
    1da3:	00 11       	.word	H'0,H'11
    1da5:	5e 00 00 38 	jsr	@0x38:24
    1da9:	00 00       	nop	
    1dab:	06 44       	andc	#0x44,ccr
    1dad:	01 7f       	.word	H'1,H'7f
    1daf:	01 39       	.word	H'1,H'39
    1db1:	00 00       	nop	
    1db3:	04 54       	orc	#0x54,ccr
    1db5:	01 69       	.word	H'1,H'69
    1db7:	00 00       	nop	
    1db9:	00 75       	.word	H'0,H'75
    1dbb:	00 ff       	.word	H'0,H'ff
    1dbd:	c6 e8       	or.b	#0xe8,r6h
    1dbf:	00 00       	nop	
    1dc1:	00 80       	.word	H'0,H'80
    1dc3:	01 9c       	.word	H'1,H'9c
    1dc5:	39 00       	mov.b	r1l,@0x0:8
    1dc7:	00 05       	.word	H'0,H'5
    1dc9:	67 01       	bst	#0x0,r1h
    1dcb:	53 00       	divxu.w	r0,er0
    1dcd:	00 00       	nop	
    1dcf:	75 00       	bxor	#0x0,r0h
    1dd1:	ff c6       	mov.b	#0xc6,r7l
    1dd3:	8a 00       	add.b	#0x0,r2l
    1dd5:	00 00       	nop	
    1dd7:	5e 01 9c 3a 	jsr	@0x19c3a:24
    1ddb:	00 00       	nop	
    1ddd:	10 b7       	shal.l	er7
    1ddf:	00 ff       	.word	H'0,H'ff
    1de1:	c9 cc       	or.b	#0xcc,r1l
    1de3:	00 00       	nop	
    1de5:	00 10       	.word	H'0,H'10
    1de7:	01 9c       	.word	H'1,H'9c
    1de9:	00 00       	nop	
    1deb:	11 06       	shlr.b	r6h
    1ded:	21 00       	mov.b	@0x0:8,r1h
    1def:	ff c9       	mov.b	#0xc9,r7l
    1df1:	d6 00       	xor.b	#0x0,r6h
    1df3:	00 11       	.word	H'0,H'11
    1df5:	5e 00 3b 00 	jsr	@0x3b00:24
    1df9:	00 00       	nop	
    1dfb:	a2 00       	cmp.b	#0x0,r2h
    1dfd:	00 00       	nop	
    1dff:	a2 05       	cmp.b	#0x5,r2h
    1e01:	0e 3b       	addx	r3h,r3l
    1e03:	00 00       	nop	
    1e05:	00 e8       	.word	H'0,H'e8
    1e07:	00 00       	nop	
    1e09:	00 e8       	.word	H'0,H'e8
    1e0b:	03 15       	ldc	r5h,exr
    1e0d:	3b 00       	mov.b	r3l,@0x0:8
    1e0f:	00 04       	.word	H'0,H'4
    1e11:	8d 00       	add.b	#0x0,r5l
    1e13:	00 04       	.word	H'0,H'4
    1e15:	8d 06       	add.b	#0x6,r5l
    1e17:	04 3b       	orc	#0x3b,ccr
    1e19:	00 00       	nop	
    1e1b:	01 15       	.word	H'1,H'15
    1e1d:	00 00       	nop	
    1e1f:	01 15       	.word	H'1,H'15
    1e21:	05 04       	xorc	#0x4,ccr
    1e23:	3b 00       	mov.b	r3l,@0x0:8
    1e25:	00 05       	.word	H'0,H'5
    1e27:	0e 00       	addx	r0h,r0h
    1e29:	00 05       	.word	H'0,H'5
    1e2b:	0e 01       	addx	r0h,r1h
    1e2d:	50 3b       	mulxu.b	r3h,e3
    1e2f:	00 00       	nop	
    1e31:	06 38       	andc	#0x38,ccr
    1e33:	00 00       	nop	
    1e35:	06 38       	andc	#0x38,ccr
    1e37:	06 05       	andc	#0x5,ccr
    1e39:	3b 00       	mov.b	r3l,@0x0:8
    1e3b:	00 06       	.word	H'0,H'6
    1e3d:	83 00       	add.b	#0x0,r3h
    1e3f:	00 06       	.word	H'0,H'6
    1e41:	83 06       	add.b	#0x6,r3h
    1e43:	06 3b       	andc	#0x3b,ccr
    1e45:	00 00       	nop	
    1e47:	01 40       	.word	H'1,H'40
    1e49:	00 00       	nop	
    1e4b:	01 40       	.word	H'1,H'40
    1e4d:	05 08       	xorc	#0x8,ccr
    1e4f:	3b 00       	mov.b	r3l,@0x0:8
    1e51:	00 06       	.word	H'0,H'6
    1e53:	72 00       	bclr	#0x0,r0h
    1e55:	00 06       	.word	H'0,H'6
    1e57:	72 07       	bclr	#0x0,r7h
    1e59:	0b 00       	adds	#1,er0

00001e5b <.Ldebug_info0>:
    1e5b:	00 00       	nop	
    1e5d:	08 ed       	add.b	r6l,r5l
    1e5f:	00 04       	.word	H'0,H'4
    1e61:	00 00       	nop	
    1e63:	08 ef       	add.b	r6l,r7l
    1e65:	04 01       	orc	#0x1,ccr
    1e67:	00 00       	nop	
    1e69:	00 4b       	.word	H'0,H'4b
    1e6b:	0c 00       	mov.b	r0h,r0h
    1e6d:	00 07       	.word	H'0,H'7
    1e6f:	77 00       	bld	#0x0,r0h
    1e71:	00 00       	nop	
    1e73:	12 00       	rotxl.b	r0h
    1e75:	ff ce       	mov.b	#0xce,r7l
    1e77:	44 00       	bcc	.0 (0x1e79)
    1e79:	00 03       	.word	H'0,H'3
    1e7b:	38 00       	mov.b	r0l,@0x0:8
    1e7d:	00 0f       	.word	H'0,H'f
    1e7f:	1a 02       	dec.b	r2h
    1e81:	01 08 00 00 	mov.l	@er0,@er0
    1e85:	00 18       	.word	H'0,H'18
    1e87:	02 02       	stc	ccr,r2h
    1e89:	07 00       	ldc	#0x0,ccr
    1e8b:	00 00       	nop	
    1e8d:	38 03       	mov.b	r0l,@0x3:8
    1e8f:	00 00       	nop	
    1e91:	05 d4       	xorc	#0xd4,ccr
    1e93:	02 09       	stc	ccr,r1l
    1e95:	00 00       	nop	
    1e97:	00 3e       	.word	H'0,H'3e
    1e99:	02 04       	stc	ccr,r4h
    1e9b:	07 00       	ldc	#0x0,ccr
    1e9d:	00 00       	nop	
    1e9f:	26 03       	mov.b	@0x3:8,r6h
    1ea1:	00 00       	nop	
    1ea3:	04 ab       	orc	#0xab,ccr
    1ea5:	02 0b       	stc	ccr,r3l
    1ea7:	00 00       	nop	
    1ea9:	00 33       	.word	H'0,H'33
    1eab:	03 00       	ldc	r0h,ccr
    1ead:	00 04       	.word	H'0,H'4
    1eaf:	45 02       	bcs	.+2 (0x1eb3)
    1eb1:	0c 00       	mov.b	r0h,r0h
    1eb3:	00 00       	nop	
    1eb5:	5b 04       	jmp	@@4 (0x4)
    1eb7:	04 00       	orc	#0x0,ccr
    1eb9:	00 00       	nop	
    1ebb:	61 05       	bnot	r0h,r5h
    1ebd:	00 00       	nop	
    1ebf:	00 75       	.word	H'0,H'75
    1ec1:	00 00       	nop	
    1ec3:	00 75       	.word	H'0,H'75
    1ec5:	06 00       	andc	#0x0,ccr
    1ec7:	00 00       	nop	
    1ec9:	75 06       	bxor	#0x0,r6h
    1ecb:	00 00       	nop	
    1ecd:	00 7c       	.word	H'0,H'7c
    1ecf:	00 07       	.word	H'0,H'7
    1ed1:	02 05       	stc	ccr,r5h
    1ed3:	69 6e       	mov.w	@er6,e6
    1ed5:	74 00       	bor	#0x0,r0h
    1ed7:	04 04       	orc	#0x4,ccr
    1ed9:	00 00       	nop	
    1edb:	00 82       	.word	H'0,H'82
    1edd:	04 04       	orc	#0x4,ccr
    1edf:	00 00       	nop	
    1ee1:	00 88       	.word	H'0,H'88
    1ee3:	02 01       	stc	ccr,r1h
    1ee5:	08 00       	add.b	r0h,r0h
    1ee7:	00 00       	nop	
    1ee9:	21 03       	mov.b	@0x3:8,r1h
    1eeb:	00 00       	nop	
    1eed:	05 17       	xorc	#0x17,ccr
    1eef:	02 0d       	stc	ccr,r5l
    1ef1:	00 00       	nop	
    1ef3:	00 9a       	.word	H'0,H'9a
    1ef5:	04 04       	orc	#0x4,ccr
    1ef7:	00 00       	nop	
    1ef9:	00 a0       	.word	H'0,H'a0
    1efb:	08 09       	add.b	r0h,r1l
    1efd:	07 02       	ldc	#0x2,ccr
    1eff:	00 00       	nop	
    1f01:	00 c1       	.word	H'0,H'c1
    1f03:	02 0f       	stc	ccr,r7l
    1f05:	00 00       	nop	
    1f07:	00 c1       	.word	H'0,H'c1
    1f09:	0a 00       	inc	r0h
    1f0b:	00 06       	.word	H'0,H'6
    1f0d:	97 00       	addx	#0x0,r7h
    1f0f:	0a 00       	inc	r0h
    1f11:	00 06       	.word	H'0,H'6
    1f13:	4f 01       	.word	H'4f,H'1
    1f15:	0a 00       	inc	r0h
    1f17:	00 05       	.word	H'0,H'5
    1f19:	ed 02       	and.b	#0x2,r5l
    1f1b:	00 02       	.word	H'0,H'2
    1f1d:	02 07       	stc	ccr,r7h
    1f1f:	00 00       	nop	
    1f21:	00 2b       	.word	H'0,H'2b
    1f23:	03 00       	ldc	r0h,ccr
    1f25:	00 03       	.word	H'0,H'3
    1f27:	3d 02       	mov.b	r5l,@0x2:8
    1f29:	13 00       	rotxr.b	r0h
    1f2b:	00 00       	nop	
    1f2d:	a1 0b       	cmp.b	#0xb,r1h
    1f2f:	00 00       	nop	
    1f31:	00 9a       	.word	H'0,H'9a
    1f33:	03 05       	ldc	r5h,ccr
    1f35:	00 00       	nop	
    1f37:	00 88       	.word	H'0,H'88
    1f39:	03 00       	ldc	r0h,ccr
    1f3b:	00 00       	nop	
    1f3d:	c4 03       	or.b	#0x3,r4h
    1f3f:	08 00       	add.b	r0h,r0h
    1f41:	00 00       	nop	
    1f43:	e9 02       	and.b	#0x2,r1l
    1f45:	02 05       	stc	ccr,r5h
    1f47:	00 00       	nop	
    1f49:	00 8b       	.word	H'0,H'8b
    1f4b:	09 07       	add.w	r0,r7
    1f4d:	02 00       	stc	ccr,r0h
    1f4f:	00 00       	nop	
    1f51:	c1 04       	or.b	#0x4,r1h
    1f53:	08 00       	add.b	r0h,r0h
    1f55:	00 01       	.word	H'0,H'1
    1f57:	46 0a       	bne	.+10 (0x1f63)
    1f59:	00 00       	nop	
    1f5b:	06 f0       	andc	#0xf0,ccr
    1f5d:	00 0a       	.word	H'0,H'a
    1f5f:	00 00       	nop	
    1f61:	03 6d       	ldc	er5,vbr
    1f63:	01 0a       	.word	H'1,H'a
    1f65:	00 00       	nop	
    1f67:	04 78       	orc	#0x78,ccr
    1f69:	02 0a       	stc	ccr,r2l
    1f6b:	00 00       	nop	
    1f6d:	03 27       	ldmac	er7,mach
    1f6f:	03 0a       	ldc	r2l,ccr
    1f71:	00 00       	nop	
    1f73:	06 d4       	andc	#0xd4,ccr
    1f75:	04 0a       	orc	#0xa,ccr
    1f77:	00 00       	nop	
    1f79:	06 0a       	andc	#0xa,ccr
    1f7b:	05 0a       	xorc	#0xa,ccr
    1f7d:	00 00       	nop	
    1f7f:	03 4c       	.word	H'3,H'4c
    1f81:	06 0a       	andc	#0xa,ccr
    1f83:	00 00       	nop	
    1f85:	05 9f       	xorc	#0x9f,ccr
    1f87:	07 0a       	ldc	#0xa,ccr
    1f89:	00 00       	nop	
    1f8b:	05 50       	xorc	#0x50,ccr
    1f8d:	08 0a       	add.b	r0h,r2l
    1f8f:	00 00       	nop	
    1f91:	03 b0       	ldmac	er0,macl
    1f93:	09 0a       	add.w	r0,e2
    1f95:	00 00       	nop	
    1f97:	05 bf       	xorc	#0xbf,ccr
    1f99:	0a 0a       	inc	r2l
    1f9b:	00 00       	nop	
    1f9d:	03 c5       	.word	H'3,H'c5
    1f9f:	0b 00       	adds	#1,er0
    1fa1:	0c 18       	mov.b	r1h,r0l
    1fa3:	04 1a       	orc	#0x1a,ccr
    1fa5:	00 00       	nop	
    1fa7:	01 a3       	.word	H'1,H'a3
    1fa9:	0d 00       	mov.w	r0,r0
    1fab:	00 04       	.word	H'0,H'4
    1fad:	4f 04       	ble	.+4 (0x1fb3)
    1faf:	1b 00       	subs	#1,er0
    1fb1:	00 00       	nop	
    1fb3:	50 00       	mulxu.b	r0h,r0
    1fb5:	0d 00       	mov.w	r0,r0
    1fb7:	00 04       	.word	H'0,H'4
    1fb9:	ba 04       	subx	#0x4,r2l
    1fbb:	1c 00       	cmp.b	r0h,r0h
    1fbd:	00 00       	nop	
    1fbf:	82 04       	add.b	#0x4,r2h
    1fc1:	0d 00       	mov.w	r0,r0
    1fc3:	00 06       	.word	H'0,H'6
    1fc5:	8e 04       	add.b	#0x4,r6l
    1fc7:	1d 00       	cmp.w	r0,r0
    1fc9:	00 00       	nop	
    1fcb:	75 08       	bxor	#0x0,r0l
    1fcd:	0d 00       	mov.w	r0,r0
    1fcf:	00 03       	.word	H'0,H'3
    1fd1:	e8 04       	and.b	#0x4,r0l
    1fd3:	1e 00       	subx	r0h,r0h
    1fd5:	00 00       	nop	
    1fd7:	75 0a       	bxor	#0x0,r2l
    1fd9:	0d 00       	mov.w	r0,r0
    1fdb:	00 00       	nop	
    1fdd:	71 04       	bnot	#0x0,r4h
    1fdf:	1f 00       	das	r0h
    1fe1:	00 00       	nop	
    1fe3:	75 0c       	bxor	#0x0,r4l
    1fe5:	0d 00       	mov.w	r0,r0
    1fe7:	00 00       	nop	
    1fe9:	95 04       	addx	#0x4,r5h
    1feb:	20 00       	mov.b	@0x0:8,r0h
    1fed:	00 00       	nop	
    1fef:	7c 10       	.word	H'7c,H'10
    1ff1:	0e 72       	addx	r7h,r2h
    1ff3:	65 74       	xor.w	r7,r4
    1ff5:	00 04       	.word	H'0,H'4
    1ff7:	21 00       	mov.b	@0x0:8,r1h
    1ff9:	00 00       	nop	
    1ffb:	45 14       	bcs	.+20 (0x2011)
    1ffd:	00 0c       	.word	H'0,H'c
    1fff:	02 04       	stc	ccr,r4h
    2001:	23 00       	mov.b	@0x0:8,r3h
    2003:	00 01       	.word	H'0,H'1
    2005:	b8 0d       	subx	#0xd,r0l
    2007:	00 00       	nop	
    2009:	04 98       	orc	#0x98,ccr
    200b:	04 24       	orc	#0x24,ccr
    200d:	00 00       	nop	
    200f:	00 75       	.word	H'0,H'75
    2011:	00 00       	nop	
    2013:	0c 02       	mov.b	r0h,r2h
    2015:	04 26       	orc	#0x26,ccr
    2017:	00 00       	nop	
    2019:	01 cd       	.word	H'1,H'cd
    201b:	0e 72       	addx	r7h,r2h
    201d:	65 74       	xor.w	r7,r4
    201f:	00 04       	.word	H'0,H'4
    2021:	27 00       	mov.b	@0x0:8,r7h
    2023:	00 00       	nop	
    2025:	75 00       	bxor	#0x0,r0h
    2027:	00 0c       	.word	H'0,H'c
    2029:	02 04       	stc	ccr,r4h
    202b:	29 00       	mov.b	@0x0:8,r1l
    202d:	00 01       	.word	H'0,H'1
    202f:	e2 0e       	and.b	#0xe,r2h
    2031:	72 65       	bclr	#0x6,r5h
    2033:	74 00       	bor	#0x0,r0h
    2035:	04 2a       	orc	#0x2a,ccr
    2037:	00 00       	nop	
    2039:	00 75       	.word	H'0,H'75
    203b:	00 00       	nop	
    203d:	0c 08       	mov.b	r0h,r0l
    203f:	04 2c       	orc	#0x2c,ccr
    2041:	00 00       	nop	
    2043:	02 02       	stc	ccr,r2h
    2045:	0e 69       	addx	r6h,r1l
    2047:	64 00       	or.w	r0,r0
    2049:	04 2d       	orc	#0x2d,ccr
    204b:	00 00       	nop	
    204d:	00 45       	.word	H'0,H'45
    204f:	00 0e       	.word	H'0,H'e
    2051:	72 65       	bclr	#0x6,r5h
    2053:	74 00       	bor	#0x0,r0h
    2055:	04 2e       	orc	#0x2e,ccr
    2057:	00 00       	nop	
    2059:	00 75       	.word	H'0,H'75
    205b:	04 00       	orc	#0x0,ccr
    205d:	0c 04       	mov.b	r0h,r4h
    205f:	04 30       	orc	#0x30,ccr
    2061:	00 00       	nop	
    2063:	02 17       	stc	exr,r7h
    2065:	0e 72       	addx	r7h,r2h
    2067:	65 74       	xor.w	r7,r4
    2069:	00 04       	.word	H'0,H'4
    206b:	31 00       	mov.b	r1h,@0x0:8
    206d:	00 00       	nop	
    206f:	45 00       	bcs	.0 (0x2071)
    2071:	00 0c       	.word	H'0,H'c
    2073:	04 04       	orc	#0x4,ccr
    2075:	33 00       	mov.b	r3h,@0x0:8
    2077:	00 02       	.word	H'0,H'2
    2079:	38 0d       	mov.b	r0l,@0xd:8
    207b:	00 00       	nop	
    207d:	06 8e       	andc	#0x8e,ccr
    207f:	04 34       	orc	#0x34,ccr
    2081:	00 00       	nop	
    2083:	00 75       	.word	H'0,H'75
    2085:	00 0e       	.word	H'0,H'e
    2087:	72 65       	bclr	#0x6,r5h
    2089:	74 00       	bor	#0x0,r0h
    208b:	04 35       	orc	#0x35,ccr
    208d:	00 00       	nop	
    208f:	00 75       	.word	H'0,H'75
    2091:	02 00       	stc	ccr,r0h
    2093:	0c 08       	mov.b	r0h,r0l
    2095:	04 37       	orc	#0x37,ccr
    2097:	00 00       	nop	
    2099:	02 59       	.word	H'2,H'59
    209b:	0d 00       	mov.w	r0,r0
    209d:	00 03       	.word	H'0,H'3
    209f:	ed 04       	and.b	#0x4,r5l
    20a1:	38 00       	mov.b	r0l,@0x0:8
    20a3:	00 00       	nop	
    20a5:	75 00       	bxor	#0x0,r0h
    20a7:	0e 72       	addx	r7h,r2h
    20a9:	65 74       	xor.w	r7,r4
    20ab:	00 04       	.word	H'0,H'4
    20ad:	39 00       	mov.b	r1l,@0x0:8
    20af:	00 02       	.word	H'0,H'2
    20b1:	59 04       	.word	H'59,H'4
    20b3:	00 0f       	.word	H'0,H'f
    20b5:	04 0c       	orc	#0xc,ccr
    20b7:	08 04       	add.b	r0h,r4h
    20b9:	3b 00       	mov.b	r3l,@0x0:8
    20bb:	00 02       	.word	H'0,H'2
    20bd:	7a 0e 70 00 	mov.l	#0x7000,er6
    20c1:	04 3c       	orc	#0x3c,ccr
    20c3:	00 00       	nop	
    20c5:	00 82       	.word	H'0,H'82
    20c7:	00 0e       	.word	H'0,H'e
    20c9:	72 65       	bclr	#0x6,r5h
    20cb:	74 00       	bor	#0x0,r0h
    20cd:	04 3d       	orc	#0x3d,ccr
    20cf:	00 00       	nop	
    20d1:	00 75       	.word	H'0,H'75
    20d3:	04 00       	orc	#0x0,ccr
    20d5:	0c 0c       	mov.b	r0h,r4l
    20d7:	04 3f       	orc	#0x3f,ccr
    20d9:	00 00       	nop	
    20db:	02 b0       	stmac	macl,er0
    20dd:	0e 69       	addx	r6h,r1l
    20df:	64 00       	or.w	r0,r0
    20e1:	04 40       	orc	#0x40,ccr
    20e3:	00 00       	nop	
    20e5:	00 c8       	.word	H'0,H'c8
    20e7:	00 0d       	.word	H'0,H'd
    20e9:	00 00       	nop	
    20eb:	03 ed       	.word	H'3,H'ed
    20ed:	04 41       	orc	#0x41,ccr
    20ef:	00 00       	nop	
    20f1:	00 75       	.word	H'0,H'75
    20f3:	02 0e       	stc	ccr,r6l
    20f5:	70 00       	bset	#0x0,r0h
    20f7:	04 42       	orc	#0x42,ccr
    20f9:	00 00       	nop	
    20fb:	00 82       	.word	H'0,H'82
    20fd:	04 0e       	orc	#0xe,ccr
    20ff:	72 65       	bclr	#0x6,r5h
    2101:	74 00       	bor	#0x0,r0h
    2103:	04 43       	orc	#0x43,ccr
    2105:	00 00       	nop	
    2107:	00 75       	.word	H'0,H'75
    2109:	08 00       	add.b	r0h,r0h
    210b:	0c 10       	mov.b	r1h,r0h
    210d:	04 45       	orc	#0x45,ccr
    210f:	00 00       	nop	
    2111:	02 e7       	.word	H'2,H'e7
    2113:	0e 69       	addx	r6h,r1l
    2115:	64 00       	or.w	r0,r0
    2117:	04 46       	orc	#0x46,ccr
    2119:	00 00       	nop	
    211b:	00 c8       	.word	H'0,H'c8
    211d:	00 0d       	.word	H'0,H'd
    211f:	00 00       	nop	
    2121:	03 91       	.word	H'3,H'91
    2123:	04 47       	orc	#0x47,ccr
    2125:	00 00       	nop	
    2127:	02 e7       	.word	H'2,H'e7
    2129:	04 0e       	orc	#0xe,ccr
    212b:	70 70       	bset	#0x7,r0h
    212d:	00 04       	.word	H'0,H'4
    212f:	48 00       	bvc	.0 (0x2131)
    2131:	00 00       	nop	
    2133:	7c 08       	.word	H'7c,H'8
    2135:	0e 72       	addx	r7h,r2h
    2137:	65 74       	xor.w	r7,r4
    2139:	00 04       	.word	H'0,H'4
    213b:	49 00       	bvs	.0 (0x213d)
    213d:	00 00       	nop	
    213f:	45 0c       	bcs	.+12 (0x214d)
    2141:	00 04       	.word	H'0,H'4
    2143:	04 00       	orc	#0x0,ccr
    2145:	00 00       	nop	
    2147:	75 0c       	bxor	#0x0,r4l
    2149:	0c 04       	mov.b	r0h,r4h
    214b:	4b 00       	bmi	.0 (0x214d)
    214d:	00 03       	.word	H'0,H'3
    214f:	1a 0d       	dec.b	r5l
    2151:	00 00       	nop	
    2153:	00 f8       	.word	H'0,H'f8
    2155:	04 4c       	orc	#0x4c,ccr
    2157:	00 00       	nop	
    2159:	00 de       	.word	H'0,H'de
    215b:	00 0d       	.word	H'0,H'd
    215d:	00 00       	nop	
    215f:	00 e0       	.word	H'0,H'e0
    2161:	04 4d       	orc	#0x4d,ccr
    2163:	00 00       	nop	
    2165:	00 8f       	.word	H'0,H'8f
    2167:	04 0e       	orc	#0xe,ccr
    2169:	72 65       	bclr	#0x6,r5h
    216b:	74 00       	bor	#0x0,r0h
    216d:	04 4e       	orc	#0x4e,ccr
    216f:	00 00       	nop	
    2171:	00 75       	.word	H'0,H'75
    2173:	08 00       	add.b	r0h,r0h
    2175:	10 18       	shll.w	e0
    2177:	04 19       	orc	#0x19,ccr
    2179:	00 00       	nop	
    217b:	03 a7       	ldmac	er7,mach
    217d:	11 72       	shlr.l	#2,er2
    217f:	75 6e       	bxor	#0x6,r6l
    2181:	00 04       	.word	H'0,H'4
    2183:	22 00       	mov.b	@0x0:8,r2h
    2185:	00 01       	.word	H'0,H'1
    2187:	46 12       	bne	.+18 (0x219b)
    2189:	00 00       	nop	
    218b:	05 79       	xorc	#0x79,ccr
    218d:	04 25       	orc	#0x25,ccr
    218f:	00 00       	nop	
    2191:	01 a3       	.word	H'1,H'a3
    2193:	12 00       	rotxl.b	r0h
    2195:	00 04       	.word	H'0,H'4
    2197:	e0 04       	and.b	#0x4,r0h
    2199:	28 00       	mov.b	@0x0:8,r0l
    219b:	00 01       	.word	H'0,H'1
    219d:	b8 12       	subx	#0x12,r0l
    219f:	00 00       	nop	
    21a1:	06 27       	andc	#0x27,ccr
    21a3:	04 2b       	orc	#0x2b,ccr
    21a5:	00 00       	nop	
    21a7:	01 cd       	.word	H'1,H'cd
    21a9:	12 00       	rotxl.b	r0h
    21ab:	00 04       	.word	H'0,H'4
    21ad:	37 04       	mov.b	r7h,@0x4:8
    21af:	2f 00       	mov.b	@0x0:8,r7l
    21b1:	00 01       	.word	H'0,H'1
    21b3:	e2 12       	and.b	#0x12,r2h
    21b5:	00 00       	nop	
    21b7:	04 66       	orc	#0x66,ccr
    21b9:	04 32       	orc	#0x32,ccr
    21bb:	00 00       	nop	
    21bd:	02 02       	stc	ccr,r2h
    21bf:	12 00       	rotxl.b	r0h
    21c1:	00 04       	.word	H'0,H'4
    21c3:	a5 04       	cmp.b	#0x4,r5h
    21c5:	36 00       	mov.b	r6h,@0x0:8
    21c7:	00 02       	.word	H'0,H'2
    21c9:	17 12       	not.w	r2
    21cb:	00 00       	nop	
    21cd:	04 fd       	orc	#0xfd,ccr
    21cf:	04 3a       	orc	#0x3a,ccr
    21d1:	00 00       	nop	
    21d3:	02 38       	stmac	macl,er0
    21d5:	12 00       	rotxl.b	r0h
    21d7:	00 06       	.word	H'0,H'6
    21d9:	6b 04 3e 00 	mov.w	@0x3e00:16,r4
    21dd:	00 02       	.word	H'0,H'2
    21df:	5b 12       	jmp	@@18 (0x12)
    21e1:	00 00       	nop	
    21e3:	05 2b       	xorc	#0x2b,ccr
    21e5:	04 44       	orc	#0x44,ccr
    21e7:	00 00       	nop	
    21e9:	02 7a       	stc	sbr,er2
    21eb:	12 00       	rotxl.b	r0h
    21ed:	00 04       	.word	H'0,H'4
    21ef:	2b 04       	mov.b	@0x4:8,r3l
    21f1:	4a 00       	bpl	.0 (0x21f3)
    21f3:	00 02       	.word	H'0,H'2
    21f5:	b0 12       	subx	#0x12,r0h
    21f7:	00 00       	nop	
    21f9:	00 f0       	.word	H'0,H'f0
    21fb:	04 4f       	orc	#0x4f,ccr
    21fd:	00 00       	nop	
    21ff:	02 ed       	.word	H'2,H'ed
    2201:	00 0c       	.word	H'0,H'c
    2203:	18 04       	sub.b	r0h,r4h
    2205:	18 00       	sub.b	r0h,r0h
    2207:	00 03       	.word	H'0,H'3
    2209:	bb 0e       	subx	#0xe,r3l
    220b:	75 6e       	bxor	#0x6,r6l
    220d:	00 04       	.word	H'0,H'4
    220f:	50 00       	mulxu.b	r0h,r0
    2211:	00 03       	.word	H'0,H'3
    2213:	1a 00       	dec.b	r0h
    2215:	00 03       	.word	H'0,H'3
    2217:	00 00       	nop	
    2219:	03 97       	.word	H'3,H'97
    221b:	04 51       	orc	#0x51,ccr
    221d:	00 00       	nop	
    221f:	03 a7       	ldmac	er7,mach
    2221:	13 00       	rotxr.b	r0h
    2223:	00 07       	.word	H'0,H'7
    2225:	81 01       	add.b	#0x1,r1h
    2227:	87 00       	add.b	#0x0,r7h
    2229:	00 00       	nop	
    222b:	75 00       	bxor	#0x0,r0h
    222d:	ff d1       	mov.b	#0xd1,r7l
    222f:	42 00       	bhi	.0 (0x2231)
    2231:	00 00       	nop	
    2233:	3a 01       	mov.b	r2l,@0x1:8
    2235:	9c 00       	addx	#0x0,r4l
    2237:	00 04       	.word	H'0,H'4
    2239:	2d 14       	mov.b	@0x14:8,r5l
    223b:	69 64       	mov.w	@er6,r4
    223d:	00 01       	.word	H'0,H'1
    223f:	87 00       	add.b	#0x0,r7h
    2241:	00 00       	nop	
    2243:	c8 00       	or.b	#0x0,r0l
    2245:	00 11       	.word	H'0,H'11
    2247:	4c 15       	.word	H'4c,H'15
    2249:	00 00       	nop	
    224b:	03 ed       	.word	H'3,H'ed
    224d:	01 87       	.word	H'1,H'87
    224f:	00 00       	nop	
    2251:	00 75       	.word	H'0,H'75
    2253:	00 00       	nop	
    2255:	11 79       	shlr.l	#8,er1
    2257:	14 70       	or.b	r7h,r0h
    2259:	00 01       	.word	H'0,H'1
    225b:	87 00       	add.b	#0x0,r7h
    225d:	00 00       	nop	
    225f:	82 00       	add.b	#0x0,r2h
    2261:	00 11       	.word	H'0,H'11
    2263:	a6 16       	cmp.b	#0x16,r6h
    2265:	00 00       	nop	
    2267:	05 30       	xorc	#0x30,ccr
    2269:	01 89       	.word	H'1,H'89
    226b:	00 00       	nop	
    226d:	03 bb       	ldmac	er3,macl
    226f:	02 91       	.word	H'2,H'91
    2271:	60 17       	bset	r1h,r7h
    2273:	00 ff       	.word	H'0,H'ff
    2275:	d1 6c       	xor.b	#0x6c,r1h
    2277:	00 00       	nop	
    2279:	08 da       	add.b	r5l,r2l
    227b:	18 01       	sub.b	r0h,r1h
    227d:	50 01       	mulxu.b	r0h,r1
    227f:	39 18       	mov.b	r1l,@0x18:8
    2281:	01 51       	.word	H'1,H'51
    2283:	02 76       	stc	sbr,er6
    2285:	68 00       	mov.b	@er0,r0h
    2287:	00 13       	.word	H'0,H'13
    2289:	00 00       	nop	
    228b:	07 6d       	ldc	#0x6d,ccr
    228d:	01 7f       	.word	H'1,H'7f
    228f:	00 00       	nop	
    2291:	00 75       	.word	H'0,H'75
    2293:	00 ff       	.word	H'0,H'ff
    2295:	d1 10       	xor.b	#0x10,r1h
    2297:	00 00       	nop	
    2299:	00 32       	.word	H'0,H'32
    229b:	01 9c       	.word	H'1,H'9c
    229d:	00 00       	nop	
    229f:	04 77       	orc	#0x77,ccr
    22a1:	14 70       	or.b	r7h,r0h
    22a3:	00 01       	.word	H'0,H'1
    22a5:	7f 00       	.word	H'7f,H'0
    22a7:	00 02       	.word	H'0,H'2
    22a9:	59 00       	jmp	@er0
    22ab:	00 11       	.word	H'0,H'11
    22ad:	c7 16       	or.b	#0x16,r7h
    22af:	00 00       	nop	
    22b1:	05 30       	xorc	#0x30,ccr
    22b3:	01 81       	.word	H'1,H'81
    22b5:	00 00       	nop	
    22b7:	03 bb       	ldmac	er3,macl
    22b9:	02 91       	.word	H'2,H'91
    22bb:	60 17       	bset	r1h,r7h
    22bd:	00 ff       	.word	H'0,H'ff
    22bf:	d1 32       	xor.b	#0x32,r1h
    22c1:	00 00       	nop	
    22c3:	08 da       	add.b	r5l,r2l
    22c5:	18 01       	sub.b	r0h,r1h
    22c7:	50 01       	mulxu.b	r0h,r1
    22c9:	38 18       	mov.b	r0l,@0x18:8
    22cb:	01 51       	.word	H'1,H'51
    22cd:	02 76       	stc	sbr,er6
    22cf:	68 00       	mov.b	@er0,r0h
    22d1:	00 13       	.word	H'0,H'13
    22d3:	00 00       	nop	
    22d5:	07 47       	ldc	#0x47,ccr
    22d7:	01 77       	.word	H'1,H'77
    22d9:	00 00       	nop	
    22db:	02 59       	.word	H'2,H'59
    22dd:	00 ff       	.word	H'0,H'ff
    22df:	d0 de       	xor.b	#0xde,r0h
    22e1:	00 00       	nop	
    22e3:	00 32       	.word	H'0,H'32
    22e5:	01 9c       	.word	H'1,H'9c
    22e7:	00 00       	nop	
    22e9:	04 c3       	orc	#0xc3,ccr
    22eb:	15 00       	xor.b	r0h,r0h
    22ed:	00 03       	.word	H'0,H'3
    22ef:	ed 01       	and.b	#0x1,r5l
    22f1:	77 00       	bld	#0x0,r0h
    22f3:	00 00       	nop	
    22f5:	75 00       	bxor	#0x0,r0h
    22f7:	00 11       	.word	H'0,H'11
    22f9:	f4 16       	mov.b	#0x16,r4h
    22fb:	00 00       	nop	
    22fd:	05 30       	xorc	#0x30,ccr
    22ff:	01 79       	.word	H'1,H'79
    2301:	00 00       	nop	
    2303:	03 bb       	ldmac	er3,macl
    2305:	02 91       	.word	H'2,H'91
    2307:	60 17       	bset	r1h,r7h
    2309:	00 ff       	.word	H'0,H'ff
    230b:	d0 fe       	xor.b	#0xfe,r0h
    230d:	00 00       	nop	
    230f:	08 da       	add.b	r5l,r2l
    2311:	18 01       	sub.b	r0h,r1h
    2313:	50 01       	mulxu.b	r0h,r1
    2315:	37 18       	mov.b	r7h,@0x18:8
    2317:	01 51       	.word	H'1,H'51
    2319:	02 76       	stc	sbr,er6
    231b:	68 00       	mov.b	@er0,r0h
    231d:	00 13       	.word	H'0,H'13
    231f:	00 00       	nop	
    2321:	07 15       	ldc	#0x15,ccr
    2323:	01 6f       	.word	H'1,H'6f
    2325:	00 00       	nop	
    2327:	00 75       	.word	H'0,H'75
    2329:	00 ff       	.word	H'0,H'ff
    232b:	d0 ac       	xor.b	#0xac,r0h
    232d:	00 00       	nop	
    232f:	00 32       	.word	H'0,H'32
    2331:	01 9c       	.word	H'1,H'9c
    2333:	00 00       	nop	
    2335:	05 0e       	xorc	#0xe,ccr
    2337:	14 69       	or.b	r6h,r1l
    2339:	64 00       	or.w	r0,r0
    233b:	01 6f       	.word	H'1,H'6f
    233d:	00 00       	nop	
    233f:	00 45       	.word	H'0,H'45
    2341:	00 00       	nop	
    2343:	12 21       	.word	H'12,H'21
    2345:	16 00       	and.b	r0h,r0h
    2347:	00 05       	.word	H'0,H'5
    2349:	30 01       	mov.b	r0h,@0x1:8
    234b:	71 00       	bnot	#0x0,r0h
    234d:	00 03       	.word	H'0,H'3
    234f:	bb 02       	subx	#0x2,r3l
    2351:	91 60       	addx	#0x60,r1h
    2353:	17 00       	not.b	r0h
    2355:	ff d0       	mov.b	#0xd0,r7l
    2357:	ce 00       	or.b	#0x0,r6l
    2359:	00 08       	.word	H'0,H'8
    235b:	da 18       	xor.b	#0x18,r2l
    235d:	01 50       	.word	H'1,H'50
    235f:	01 34       	.word	H'1,H'34
    2361:	18 01       	sub.b	r0h,r1h
    2363:	51 02       	divxu.b	r0h,r2
    2365:	76 68       	band	#0x6,r0l
    2367:	00 00       	nop	
    2369:	13 00       	rotxr.b	r0h
    236b:	00 07       	.word	H'0,H'7
    236d:	5a 01 64 00 	jmp	@0x16400:24
    2371:	00 00       	nop	
    2373:	75 00       	bxor	#0x0,r0h
    2375:	ff d0       	mov.b	#0xd0,r7l
    2377:	76 00       	band	#0x0,r0h
    2379:	00 00       	nop	
    237b:	36 01       	mov.b	r6h,@0x1:8
    237d:	9c 00       	addx	#0x0,r4l
    237f:	00 05       	.word	H'0,H'5
    2381:	69 15       	mov.w	@er1,r5
    2383:	00 00       	nop	
    2385:	00 f8       	.word	H'0,H'f8
    2387:	01 64       	.word	H'1,H'64
    2389:	00 00       	nop	
    238b:	00 de       	.word	H'0,H'de
    238d:	00 00       	nop	
    238f:	12 4e       	rotxl.b	#2,r6l
    2391:	15 00       	xor.b	r0h,r0h
    2393:	00 00       	nop	
    2395:	e0 01       	and.b	#0x1,r0h
    2397:	64 00       	or.w	r0,r0
    2399:	00 00       	nop	
    239b:	8f 00       	add.b	#0x0,r7l
    239d:	00 12       	.word	H'0,H'12
    239f:	7b 16       	.word	H'7b,H'16
    23a1:	00 00       	nop	
    23a3:	05 30       	xorc	#0x30,ccr
    23a5:	01 66       	.word	H'1,H'66
    23a7:	00 00       	nop	
    23a9:	03 bb       	ldmac	er3,macl
    23ab:	02 91       	.word	H'2,H'91
    23ad:	60 17       	bset	r1h,r7h
    23af:	00 ff       	.word	H'0,H'ff
    23b1:	d0 9c       	xor.b	#0x9c,r0h
    23b3:	00 00       	nop	
    23b5:	08 e5       	add.b	r6l,r5h
    23b7:	18 01       	sub.b	r0h,r1h
    23b9:	50 01       	mulxu.b	r0h,r1
    23bb:	3b 18       	mov.b	r3l,@0x18:8
    23bd:	01 51       	.word	H'1,H'51
    23bf:	02 76       	stc	sbr,er6
    23c1:	68 00       	mov.b	@er0,r0h
    23c3:	00 13       	.word	H'0,H'13
    23c5:	00 00       	nop	
    23c7:	07 65       	ldc	#0x65,ccr
    23c9:	01 5a       	.word	H'1,H'5a
    23cb:	00 00       	nop	
    23cd:	00 45       	.word	H'0,H'45
    23cf:	00 ff       	.word	H'0,H'ff
    23d1:	d0 38       	xor.b	#0x38,r0h
    23d3:	00 00       	nop	
    23d5:	00 3e       	.word	H'0,H'3e
    23d7:	01 9c       	.word	H'1,H'9c
    23d9:	00 00       	nop	
    23db:	05 d1       	xorc	#0xd1,ccr
    23dd:	14 69       	or.b	r6h,r1l
    23df:	64 00       	or.w	r0,r0
    23e1:	01 5a       	.word	H'1,H'5a
    23e3:	00 00       	nop	
    23e5:	00 c8       	.word	H'0,H'c8
    23e7:	00 00       	nop	
    23e9:	12 a8       	.word	H'12,H'a8
    23eb:	15 00       	xor.b	r0h,r0h
    23ed:	00 03       	.word	H'0,H'3
    23ef:	91 01       	addx	#0x1,r1h
    23f1:	5a 00 00 02 	jmp	@0x2:24
    23f5:	e7 00       	and.b	#0x0,r7h
    23f7:	00 12       	.word	H'0,H'12
    23f9:	d5 14       	xor.b	#0x14,r5h
    23fb:	70 70       	bset	#0x7,r0h
    23fd:	00 01       	.word	H'0,H'1
    23ff:	5a 00 00 00 	jmp	@0x0:24
    2403:	7c 00       	.word	H'7c,H'0
    2405:	00 13       	.word	H'0,H'13
    2407:	02 16       	stc	exr,r6h
    2409:	00 00       	nop	
    240b:	05 30       	xorc	#0x30,ccr
    240d:	01 5c       	.word	H'1,H'5c
    240f:	00 00       	nop	
    2411:	03 bb       	ldmac	er3,macl
    2413:	02 91       	.word	H'2,H'91
    2415:	60 17       	bset	r1h,r7h
    2417:	00 ff       	.word	H'0,H'ff
    2419:	d0 64       	xor.b	#0x64,r0h
    241b:	00 00       	nop	
    241d:	08 e5       	add.b	r6l,r5h
    241f:	18 01       	sub.b	r0h,r1h
    2421:	50 01       	mulxu.b	r0h,r1
    2423:	3a 18       	mov.b	r2l,@0x18:8
    2425:	01 51       	.word	H'1,H'51
    2427:	02 76       	stc	sbr,er6
    2429:	68 00       	mov.b	@er0,r0h
    242b:	00 13       	.word	H'0,H'13
    242d:	00 00       	nop	
    242f:	07 52       	ldc	#0x52,ccr
    2431:	01 50       	.word	H'1,H'50
    2433:	00 00       	nop	
    2435:	00 75       	.word	H'0,H'75
    2437:	00 ff       	.word	H'0,H'ff
    2439:	cf fe       	or.b	#0xfe,r7l
    243b:	00 00       	nop	
    243d:	00 3a       	.word	H'0,H'3a
    243f:	01 9c       	.word	H'1,H'9c
    2441:	00 00       	nop	
    2443:	06 38       	andc	#0x38,ccr
    2445:	14 69       	or.b	r6h,r1l
    2447:	64 00       	or.w	r0,r0
    2449:	01 50       	.word	H'1,H'50
    244b:	00 00       	nop	
    244d:	00 c8       	.word	H'0,H'c8
    244f:	00 00       	nop	
    2451:	13 23       	.word	H'13,H'23
    2453:	15 00       	xor.b	r0h,r0h
    2455:	00 03       	.word	H'0,H'3
    2457:	ed 01       	and.b	#0x1,r5l
    2459:	50 00       	mulxu.b	r0h,r0
    245b:	00 00       	nop	
    245d:	75 00       	bxor	#0x0,r0h
    245f:	00 13       	.word	H'0,H'13
    2461:	50 14       	mulxu.b	r1h,r4
    2463:	70 00       	bset	#0x0,r0h
    2465:	01 50       	.word	H'1,H'50
    2467:	00 00       	nop	
    2469:	00 82       	.word	H'0,H'82
    246b:	00 00       	nop	
    246d:	13 7d       	.word	H'13,H'7d
    246f:	16 00       	and.b	r0h,r0h
    2471:	00 05       	.word	H'0,H'5
    2473:	30 01       	mov.b	r0h,@0x1:8
    2475:	52 00       	mulxu.w	r0,er0
    2477:	00 03       	.word	H'0,H'3
    2479:	bb 02       	subx	#0x2,r3l
    247b:	91 60       	addx	#0x60,r1h
    247d:	17 00       	not.b	r0h
    247f:	ff d0       	mov.b	#0xd0,r7l
    2481:	28 00       	mov.b	@0x0:8,r0l
    2483:	00 08       	.word	H'0,H'8
    2485:	e5 18       	and.b	#0x18,r5h
    2487:	01 50       	.word	H'1,H'50
    2489:	01 39       	.word	H'1,H'39
    248b:	18 01       	sub.b	r0h,r1h
    248d:	51 02       	divxu.b	r0h,r2
    248f:	76 68       	band	#0x6,r0l
    2491:	00 00       	nop	
    2493:	13 00       	rotxr.b	r0h
    2495:	00 07       	.word	H'0,H'7
    2497:	33 01       	mov.b	r3h,@0x1:8
    2499:	48 00       	bvc	.0 (0x249b)
    249b:	00 00       	nop	
    249d:	75 00       	bxor	#0x0,r0h
    249f:	ff cf       	mov.b	#0xcf,r7l
    24a1:	cc 00       	or.b	#0x0,r4l
    24a3:	00 00       	nop	
    24a5:	32 01       	mov.b	r2h,@0x1:8
    24a7:	9c 00       	addx	#0x0,r4l
    24a9:	00 06       	.word	H'0,H'6
    24ab:	82 14       	add.b	#0x14,r2h
    24ad:	70 00       	bset	#0x0,r0h
    24af:	01 48       	.word	H'1,H'48
    24b1:	00 00       	nop	
    24b3:	02 59       	.word	H'2,H'59
    24b5:	00 00       	nop	
    24b7:	13 9e       	rotr.w	e6
    24b9:	16 00       	and.b	r0h,r0h
    24bb:	00 05       	.word	H'0,H'5
    24bd:	30 01       	mov.b	r0h,@0x1:8
    24bf:	4a 00       	bpl	.0 (0x24c1)
    24c1:	00 03       	.word	H'0,H'3
    24c3:	bb 02       	subx	#0x2,r3l
    24c5:	91 60       	addx	#0x60,r1h
    24c7:	17 00       	not.b	r0h
    24c9:	ff cf       	mov.b	#0xcf,r7l
    24cb:	ee 00       	and.b	#0x0,r6l
    24cd:	00 08       	.word	H'0,H'8
    24cf:	e5 18       	and.b	#0x18,r5h
    24d1:	01 50       	.word	H'1,H'50
    24d3:	01 38       	.word	H'1,H'38
    24d5:	18 01       	sub.b	r0h,r1h
    24d7:	51 02       	divxu.b	r0h,r2
    24d9:	76 68       	band	#0x6,r0l
    24db:	00 00       	nop	
    24dd:	13 00       	rotxr.b	r0h
    24df:	00 07       	.word	H'0,H'7
    24e1:	1f 01       	das	r1h
    24e3:	40 00       	bra	.0 (0x24e5)
    24e5:	00 02       	.word	H'0,H'2
    24e7:	59 00       	jmp	@er0
    24e9:	ff cf       	mov.b	#0xcf,r7l
    24eb:	9a 00       	addx	#0x0,r2l
    24ed:	00 00       	nop	
    24ef:	32 01       	mov.b	r2h,@0x1:8
    24f1:	9c 00       	addx	#0x0,r4l
    24f3:	00 06       	.word	H'0,H'6
    24f5:	ce 15       	or.b	#0x15,r6l
    24f7:	00 00       	nop	
    24f9:	03 ed       	.word	H'3,H'ed
    24fb:	01 40       	.word	H'1,H'40
    24fd:	00 00       	nop	
    24ff:	00 75       	.word	H'0,H'75
    2501:	00 00       	nop	
    2503:	13 cb       	rotr.b	#2,r3l
    2505:	16 00       	and.b	r0h,r0h
    2507:	00 05       	.word	H'0,H'5
    2509:	30 01       	mov.b	r0h,@0x1:8
    250b:	42 00       	bhi	.0 (0x250d)
    250d:	00 03       	.word	H'0,H'3
    250f:	bb 02       	subx	#0x2,r3l
    2511:	91 60       	addx	#0x60,r1h
    2513:	17 00       	not.b	r0h
    2515:	ff cf       	mov.b	#0xcf,r7l
    2517:	ba 00       	subx	#0x0,r2l
    2519:	00 08       	.word	H'0,H'8
    251b:	e5 18       	and.b	#0x18,r5h
    251d:	01 50       	.word	H'1,H'50
    251f:	01 37       	.word	H'1,H'37
    2521:	18 01       	sub.b	r0h,r1h
    2523:	51 02       	divxu.b	r0h,r2
    2525:	76 68       	band	#0x6,r0l
    2527:	00 00       	nop	
    2529:	13 00       	rotxr.b	r0h
    252b:	00 00       	nop	
    252d:	09 01       	add.w	r0,r1
    252f:	38 00       	mov.b	r0l,@0x0:8
    2531:	00 00       	nop	
    2533:	75 00       	bxor	#0x0,r0h
    2535:	ff cf       	mov.b	#0xcf,r7l
    2537:	6a 00 00 00 	mov.b	@0x0:16,r0h
    253b:	30 01       	mov.b	r0h,@0x1:8
    253d:	9c 00       	addx	#0x0,r4l
    253f:	00 07       	.word	H'0,H'7
    2541:	1a 15       	sub.w	#0x1,r5
    2543:	00 00       	nop	
    2545:	06 8e       	andc	#0x8e,ccr
    2547:	01 38       	.word	H'1,H'38
    2549:	00 00       	nop	
    254b:	00 75       	.word	H'0,H'75
    254d:	00 00       	nop	
    254f:	13 f8       	.word	H'13,H'f8
    2551:	16 00       	and.b	r0h,r0h
    2553:	00 05       	.word	H'0,H'5
    2555:	30 01       	mov.b	r0h,@0x1:8
    2557:	3a 00       	mov.b	r2l,@0x0:8
    2559:	00 03       	.word	H'0,H'3
    255b:	bb 02       	subx	#0x2,r3l
    255d:	91 60       	addx	#0x60,r1h
    255f:	17 00       	not.b	r0h
    2561:	ff cf       	mov.b	#0xcf,r7l
    2563:	8a 00       	add.b	#0x0,r2l
    2565:	00 08       	.word	H'0,H'8
    2567:	e5 18       	and.b	#0x18,r5h
    2569:	01 50       	.word	H'1,H'50
    256b:	01 36       	.word	H'1,H'36
    256d:	18 01       	sub.b	r0h,r1h
    256f:	51 02       	divxu.b	r0h,r2
    2571:	76 68       	band	#0x6,r0l
    2573:	00 00       	nop	
    2575:	13 00       	rotxr.b	r0h
    2577:	00 07       	.word	H'0,H'7
    2579:	89 01       	add.b	#0x1,r1l
    257b:	31 00       	mov.b	r1h,@0x0:8
    257d:	00 00       	nop	
    257f:	45 00       	bcs	.0 (0x2581)
    2581:	ff cf       	mov.b	#0xcf,r7l
    2583:	3c 00       	mov.b	r4l,@0x0:8
    2585:	00 00       	nop	
    2587:	2e 01       	mov.b	@0x1:8,r6l
    2589:	9c 00       	addx	#0x0,r4l
    258b:	00 07       	.word	H'0,H'7
    258d:	57 16       	.word	H'57,H'16
    258f:	00 00       	nop	
    2591:	05 30       	xorc	#0x30,ccr
    2593:	01 33       	.word	H'1,H'33
    2595:	00 00       	nop	
    2597:	03 bb       	ldmac	er3,macl
    2599:	02 91       	.word	H'2,H'91
    259b:	60 17       	bset	r1h,r7h
    259d:	00 ff       	.word	H'0,H'ff
    259f:	cf 58       	or.b	#0x58,r7l
    25a1:	00 00       	nop	
    25a3:	08 e5       	add.b	r6l,r5h
    25a5:	18 01       	sub.b	r0h,r1h
    25a7:	50 01       	mulxu.b	r0h,r1
    25a9:	35 18       	mov.b	r5h,@0x18:8
    25ab:	01 51       	.word	H'1,H'51
    25ad:	02 76       	stc	sbr,er6
    25af:	68 00       	mov.b	@er0,r0h
    25b1:	00 13       	.word	H'0,H'13
    25b3:	00 00       	nop	
    25b5:	07 3d       	ldc	#0x3d,ccr
    25b7:	01 29       	.word	H'1,H'29
    25b9:	00 00       	nop	
    25bb:	00 75       	.word	H'0,H'75
    25bd:	00 ff       	.word	H'0,H'ff
    25bf:	cf 0a       	or.b	#0xa,r7l
    25c1:	00 00       	nop	
    25c3:	00 32       	.word	H'0,H'32
    25c5:	01 9c       	.word	H'1,H'9c
    25c7:	00 00       	nop	
    25c9:	07 a2       	ldc	#0xa2,ccr
    25cb:	14 69       	or.b	r6h,r1l
    25cd:	64 00       	or.w	r0,r0
    25cf:	01 29       	.word	H'1,H'29
    25d1:	00 00       	nop	
    25d3:	00 45       	.word	H'0,H'45
    25d5:	00 00       	nop	
    25d7:	14 25       	or.b	r2h,r5h
    25d9:	16 00       	and.b	r0h,r0h
    25db:	00 05       	.word	H'0,H'5
    25dd:	30 01       	mov.b	r0h,@0x1:8
    25df:	2b 00       	mov.b	@0x0:8,r3l
    25e1:	00 03       	.word	H'0,H'3
    25e3:	bb 02       	subx	#0x2,r3l
    25e5:	91 60       	addx	#0x60,r1h
    25e7:	17 00       	not.b	r0h
    25e9:	ff cf       	mov.b	#0xcf,r7l
    25eb:	2c 00       	mov.b	@0x0:8,r4l
    25ed:	00 08       	.word	H'0,H'8
    25ef:	e5 18       	and.b	#0x18,r5h
    25f1:	01 50       	.word	H'1,H'50
    25f3:	01 34       	.word	H'1,H'34
    25f5:	18 01       	sub.b	r0h,r1h
    25f7:	51 02       	divxu.b	r0h,r2
    25f9:	76 68       	band	#0x6,r0l
    25fb:	00 00       	nop	
    25fd:	13 00       	rotxr.b	r0h
    25ff:	00 07       	.word	H'0,H'7
    2601:	2a 01       	mov.b	@0x1:8,r2l
    2603:	22 00       	mov.b	@0x0:8,r2h
    2605:	00 00       	nop	
    2607:	75 00       	bxor	#0x0,r0h
    2609:	ff ce       	mov.b	#0xce,r7l
    260b:	de 00       	xor.b	#0x0,r6l
    260d:	00 00       	nop	
    260f:	2c 01       	mov.b	@0x1:8,r4l
    2611:	9c 00       	addx	#0x0,r4l
    2613:	00 07       	.word	H'0,H'7
    2615:	df 16       	xor.b	#0x16,r7l
    2617:	00 00       	nop	
    2619:	05 30       	xorc	#0x30,ccr
    261b:	01 24       	.word	H'1,H'24
    261d:	00 00       	nop	
    261f:	03 bb       	ldmac	er3,macl
    2621:	02 91       	.word	H'2,H'91
    2623:	60 17       	bset	r1h,r7h
    2625:	00 ff       	.word	H'0,H'ff
    2627:	ce fa       	or.b	#0xfa,r6l
    2629:	00 00       	nop	
    262b:	08 e5       	add.b	r6l,r5h
    262d:	18 01       	sub.b	r0h,r1h
    262f:	50 01       	mulxu.b	r0h,r1
    2631:	33 18       	mov.b	r3h,@0x18:8
    2633:	01 51       	.word	H'1,H'51
    2635:	02 76       	stc	sbr,er6
    2637:	68 00       	mov.b	@er0,r0h
    2639:	00 13       	.word	H'0,H'13
    263b:	00 00       	nop	
    263d:	07 0d       	ldc	#0xd,ccr
    263f:	01 1b       	.word	H'1,H'1b
    2641:	00 00       	nop	
    2643:	00 75       	.word	H'0,H'75
    2645:	00 ff       	.word	H'0,H'ff
    2647:	ce b2       	or.b	#0xb2,r6l
    2649:	00 00       	nop	
    264b:	00 2c       	.word	H'0,H'2c
    264d:	01 9c       	.word	H'1,H'9c
    264f:	00 00       	nop	
    2651:	08 1c       	add.b	r1h,r4l
    2653:	16 00       	and.b	r0h,r0h
    2655:	00 05       	.word	H'0,H'5
    2657:	30 01       	mov.b	r0h,@0x1:8
    2659:	1d 00       	cmp.w	r0,r0
    265b:	00 03       	.word	H'0,H'3
    265d:	bb 02       	subx	#0x2,r3l
    265f:	91 60       	addx	#0x60,r1h
    2661:	17 00       	not.b	r0h
    2663:	ff ce       	mov.b	#0xce,r7l
    2665:	ce 00       	or.b	#0x0,r6l
    2667:	00 08       	.word	H'0,H'8
    2669:	e5 18       	and.b	#0x18,r5h
    266b:	01 50       	.word	H'1,H'50
    266d:	01 32       	.word	H'1,H'32
    266f:	18 01       	sub.b	r0h,r1h
    2671:	51 02       	divxu.b	r0h,r2
    2673:	76 68       	band	#0x6,r0l
    2675:	00 00       	nop	
    2677:	19 00       	sub.w	r0,r0
    2679:	00 06       	.word	H'0,H'6
    267b:	72 01       	bclr	#0x0,r1h
    267d:	16 00       	and.b	r0h,r0h
    267f:	ff ce       	mov.b	#0xce,r7l
    2681:	9c 00       	addx	#0x0,r4l
    2683:	00 00       	nop	
    2685:	16 01       	and.b	r0h,r1h
    2687:	9c 00       	addx	#0x0,r4l
    2689:	00 08       	.word	H'0,H'8
    268b:	46 17       	.word	H'46,H'17
    268d:	00 ff       	.word	H'0,H'ff
    268f:	ce ac       	or.b	#0xac,r6l
    2691:	00 00       	nop	
    2693:	08 e5       	add.b	r6l,r5h
    2695:	18 01       	sub.b	r0h,r1h
    2697:	50 01       	mulxu.b	r0h,r1
    2699:	31 18       	mov.b	r1h,@0x18:8
    269b:	01 51       	.word	H'1,H'51
    269d:	01 30       	.word	H'1,H'30
    269f:	00 00       	nop	
    26a1:	13 00       	rotxr.b	r0h
    26a3:	00 00       	nop	
    26a5:	a7 01       	cmp.b	#0x1,r7h
    26a7:	08 00       	add.b	r0h,r0h
    26a9:	00 00       	nop	
    26ab:	45 00       	bcs	.0 (0x26ad)
    26ad:	ff ce       	mov.b	#0xce,r7l
    26af:	44 00       	bcc	.0 (0x26b1)
    26b1:	00 00       	nop	
    26b3:	58 01       	.word	H'58,H'1
    26b5:	9c 00       	addx	#0x0,r4l
    26b7:	00 08       	.word	H'0,H'8
    26b9:	da 15       	xor.b	#0x15,r2l
    26bb:	00 00       	nop	
    26bd:	04 4f       	orc	#0x4f,ccr
    26bf:	01 08 00 00 	mov.l	@er0,@er0
    26c3:	00 50       	.word	H'0,H'50
    26c5:	00 00       	nop	
    26c7:	14 52       	or.b	r5h,r2h
    26c9:	15 00       	xor.b	r0h,r0h
    26cb:	00 04       	.word	H'0,H'4
    26cd:	ba 01       	subx	#0x1,r2l
    26cf:	08 00       	add.b	r0h,r0h
    26d1:	00 00       	nop	
    26d3:	82 00       	add.b	#0x0,r2h
    26d5:	00 14       	.word	H'0,H'14
    26d7:	7f 15       	.word	H'7f,H'15
    26d9:	00 00       	nop	
    26db:	06 8e       	andc	#0x8e,ccr
    26dd:	01 08 00 00 	mov.l	@er0,@er0
    26e1:	00 75       	.word	H'0,H'75
    26e3:	00 00       	nop	
    26e5:	14 ac       	or.b	r2l,r4l
    26e7:	1a 00       	dec.b	r0h
    26e9:	00 03       	.word	H'0,H'3
    26eb:	e8 01       	and.b	#0x1,r0l
    26ed:	08 00       	add.b	r0h,r0h
    26ef:	00 00       	nop	
    26f1:	75 02       	bxor	#0x0,r2h
    26f3:	91 02       	addx	#0x2,r1h
    26f5:	1a 00       	dec.b	r0h
    26f7:	00 00       	nop	
    26f9:	71 01       	bnot	#0x0,r1h
    26fb:	09 00       	add.w	r0,r0
    26fd:	00 00       	nop	
    26ff:	75 02       	bxor	#0x0,r2h
    2701:	91 06       	addx	#0x6,r1h
    2703:	1a 00       	dec.b	r0h
    2705:	00 00       	nop	
    2707:	95 01       	addx	#0x1,r5h
    2709:	09 00       	add.w	r0,r0
    270b:	00 00       	nop	
    270d:	7c 02       	.word	H'7c,H'2
    270f:	91 08       	addx	#0x8,r1h
    2711:	16 00       	and.b	r0h,r0h
    2713:	00 05       	.word	H'0,H'5
    2715:	30 01       	mov.b	r0h,@0x1:8
    2717:	0b 00       	adds	#1,er0
    2719:	00 03       	.word	H'0,H'3
    271b:	bb 02       	subx	#0x2,r3l
    271d:	91 60       	addx	#0x60,r1h
    271f:	17 00       	not.b	r0h
    2721:	ff ce       	mov.b	#0xce,r7l
    2723:	8a 00       	add.b	#0x0,r2l
    2725:	00 08       	.word	H'0,H'8
    2727:	e5 18       	and.b	#0x18,r5h
    2729:	01 50       	.word	H'1,H'50
    272b:	01 30       	.word	H'1,H'30
    272d:	18 01       	sub.b	r0h,r1h
    272f:	51 02       	divxu.b	r0h,r2
    2731:	91 60       	addx	#0x60,r1h
    2733:	00 00       	nop	
    2735:	1b 00       	subs	#1,er0
    2737:	00 06       	.word	H'0,H'6
    2739:	b8 00       	subx	#0x0,r0l
    273b:	00 06       	.word	H'0,H'6
    273d:	b8 05       	subx	#0x5,r0l
    273f:	22 1b       	mov.b	@0x1b:8,r2h
    2741:	00 00       	nop	
    2743:	03 dd       	.word	H'3,H'dd
    2745:	00 00       	nop	
    2747:	03 dd       	.word	H'3,H'dd
    2749:	05 21       	xorc	#0x21,ccr
	...

0000274c <.Ldebug_info0>:
    274c:	00 00       	nop	
    274e:	02 a5       	stmac	mach,er5
    2750:	00 04       	.word	H'0,H'4
    2752:	00 00       	nop	
    2754:	0a 66       	add.w	#0x6,r6
    2756:	04 01       	orc	#0x1,ccr
    2758:	00 00       	nop	
    275a:	00 4b       	.word	H'0,H'4b
    275c:	0c 00       	mov.b	r0h,r0h
    275e:	00 07       	.word	H'0,H'7
    2760:	92 00       	addx	#0x0,r2h
    2762:	00 00       	nop	
    2764:	12 00       	rotxl.b	r0h
    2766:	ff d1       	mov.b	#0xd1,r7l
    2768:	7c 00       	.word	H'7c,H'0
    276a:	00 01       	.word	H'0,H'1
    276c:	90 00       	addx	#0x0,r0h
    276e:	00 11       	.word	H'0,H'11
    2770:	c3 02       	or.b	#0x2,r3h
    2772:	01 08 00 00 	mov.l	@er0,@er0
    2776:	00 18       	.word	H'0,H'18
    2778:	02 02       	stc	ccr,r2h
    277a:	07 00       	ldc	#0x0,ccr
    277c:	00 00       	nop	
    277e:	38 02       	mov.b	r0l,@0x2:8
    2780:	04 07       	orc	#0x7,ccr
    2782:	00 00       	nop	
    2784:	00 26       	.word	H'0,H'26
    2786:	03 02       	ldc	r2h,ccr
    2788:	05 69       	xorc	#0x69,ccr
    278a:	6e 74 00 04 	mov.b	@(0x4:16,er7),r4h
    278e:	04 00       	orc	#0x0,ccr
    2790:	00 00       	nop	
    2792:	47 02       	beq	.+2 (0x2796)
    2794:	01 08 00 00 	mov.l	@er0,@er0
    2798:	00 21       	.word	H'0,H'21
    279a:	02 02       	stc	ccr,r2h
    279c:	07 00       	ldc	#0x0,ccr
    279e:	00 00       	nop	
    27a0:	2b 05       	mov.b	@0x5:8,r3l
    27a2:	00 00       	nop	
    27a4:	00 9a       	.word	H'0,H'9a
    27a6:	02 05       	stc	ccr,r5h
    27a8:	00 00       	nop	
    27aa:	00 47       	.word	H'0,H'47
    27ac:	02 02       	stc	ccr,r2h
    27ae:	05 00       	xorc	#0x0,ccr
    27b0:	00 00       	nop	
    27b2:	8b 06       	add.b	#0x6,r3l
    27b4:	04 07       	orc	#0x7,ccr
    27b6:	00 00       	nop	
    27b8:	07 9b       	ldc	#0x9b,ccr
    27ba:	08 01       	add.b	r0h,r1h
    27bc:	0a 00       	inc	r0h
    27be:	00 00       	nop	
    27c0:	8e 08       	add.b	#0x8,r6l
    27c2:	00 00       	nop	
    27c4:	06 eb       	andc	#0xeb,ccr
    27c6:	01 0b       	.word	H'1,H'b
    27c8:	00 00       	nop	
    27ca:	00 8e       	.word	H'0,H'8e
    27cc:	00 08       	.word	H'0,H'8
    27ce:	00 00       	nop	
    27d0:	03 ed       	.word	H'3,H'ed
    27d2:	01 0c       	.word	H'1,H'c
    27d4:	00 00       	nop	
    27d6:	00 3a       	.word	H'0,H'3a
    27d8:	04 00       	orc	#0x0,ccr
    27da:	04 04       	orc	#0x4,ccr
    27dc:	00 00       	nop	
    27de:	00 69       	.word	H'0,H'69
    27e0:	09 00       	add.w	r0,r0
    27e2:	00 07       	.word	H'0,H'7
    27e4:	9c 01       	addx	#0x1,r4l
    27e6:	0d 00       	mov.w	r0,r0
    27e8:	00 00       	nop	
    27ea:	69 07       	mov.w	@er0,r7
    27ec:	00 00       	nop	
    27ee:	07 a8       	ldc	#0xa8,ccr
    27f0:	08 01       	add.b	r0h,r1h
    27f2:	10 00       	shll.b	r0h
    27f4:	00 00       	nop	
    27f6:	d0 08       	xor.b	#0x8,r0h
    27f8:	00 00       	nop	
    27fa:	03 ed       	.word	H'3,H'ed
    27fc:	01 11       	.word	H'1,H'11
    27fe:	00 00       	nop	
    2800:	00 3a       	.word	H'0,H'3a
    2802:	00 0a       	.word	H'0,H'a
    2804:	6e 75 6d 00 	mov.b	@(0x6d00:16,er7),r5h
    2808:	01 12       	.word	H'1,H'12
    280a:	00 00       	nop	
    280c:	00 3a       	.word	H'0,H'3a
    280e:	02 08       	stc	ccr,r0l
    2810:	00 00       	nop	
    2812:	06 89       	andc	#0x89,ccr
    2814:	01 13       	.word	H'1,H'13
    2816:	00 00       	nop	
    2818:	00 d0       	.word	H'0,H'd0
    281a:	04 00       	orc	#0x0,ccr
    281c:	04 04       	orc	#0x4,ccr
    281e:	00 00       	nop	
    2820:	00 94       	.word	H'0,H'94
    2822:	09 00       	add.w	r0,r0
    2824:	00 07       	.word	H'0,H'7
    2826:	a9 01       	cmp.b	#0x1,r1l
    2828:	14 00       	or.b	r0h,r0h
    282a:	00 00       	nop	
    282c:	9f 0b       	addx	#0xb,r7l
    282e:	00 00       	nop	
    2830:	00 d6       	.word	H'0,H'd6
    2832:	00 00       	nop	
    2834:	00 f1       	.word	H'0,H'f1
    2836:	0c 00       	mov.b	r0h,r0h
    2838:	00 00       	nop	
    283a:	33 02       	mov.b	r3h,@0x2:8
    283c:	00 0d       	.word	H'0,H'd
    283e:	00 00       	nop	
    2840:	07 af       	ldc	#0xaf,ccr
    2842:	01 17       	.word	H'1,H'17
    2844:	00 00       	nop	
    2846:	00 e1       	.word	H'0,H'e1
    2848:	05 03       	xorc	#0x3,ccr
    284a:	00 ff       	.word	H'0,H'ff
    284c:	d9 10       	xor.b	#0x10,r1l
    284e:	0e 00       	addx	r0h,r0h
    2850:	00 06       	.word	H'0,H'6
    2852:	83 01       	add.b	#0x1,r3h
    2854:	61 00       	bnot	r0h,r0h
    2856:	ff d2       	mov.b	#0xd2,r7l
    2858:	a0 00       	cmp.b	#0x0,r0h
    285a:	00 00       	nop	
    285c:	6c 01       	mov.b	@er0+,r1h
    285e:	9c 00       	addx	#0x0,r4l
    2860:	00 01       	.word	H'0,H'1
    2862:	58 0f       	.word	H'58,H'f
    2864:	6d 65       	mov.w	@er6+,r5
    2866:	6d 00       	mov.w	@er0+,r0
    2868:	01 61       	.word	H'1,H'61
    286a:	00 00       	nop	
    286c:	00 67       	.word	H'0,H'67
    286e:	00 00       	nop	
    2870:	14 d9       	or.b	r5l,r1l
    2872:	10 69       	shll.w	#8,e1
    2874:	00 01       	.word	H'0,H'1
    2876:	63 00       	btst	r0h,r0h
    2878:	00 00       	nop	
    287a:	3a 00       	mov.b	r2l,@0x0:8
    287c:	00 15       	.word	H'0,H'15
    287e:	2d 10       	mov.b	@0x10:8,r5l
    2880:	6d 70       	mov.w	@er7+,r0
    2882:	00 01       	.word	H'0,H'1
    2884:	64 00       	or.w	r0,r0
    2886:	00 00       	nop	
    2888:	d0 00       	xor.b	#0x0,r0h
    288a:	00 15       	.word	H'0,H'15
    288c:	89 10       	add.b	#0x10,r1l
    288e:	70 00       	bset	#0x0,r0h
    2890:	01 65       	.word	H'1,H'65
    2892:	00 00       	nop	
    2894:	01 58 00 00 	mov.w	@er0,@er0
    2898:	15 e3       	xor.b	r6l,r3h
    289a:	11 00       	shlr.b	r0h
    289c:	ff d2       	mov.b	#0xd2,r7l
    289e:	d4 00       	xor.b	#0x0,r4h
    28a0:	00 02       	.word	H'0,H'2
    28a2:	92 00       	addx	#0x0,r2h
    28a4:	04 04       	orc	#0x4,ccr
    28a6:	00 00       	nop	
    28a8:	00 d6       	.word	H'0,H'd6
    28aa:	12 00       	rotxl.b	r0h
    28ac:	00 06       	.word	H'0,H'6
    28ae:	38 01       	mov.b	r0l,@0x1:8
    28b0:	41 00       	brn	.0 (0x28b2)
    28b2:	00 00       	nop	
    28b4:	67 00       	bst	#0x0,r0h
    28b6:	ff d2       	mov.b	#0xd2,r7l
    28b8:	24 00       	mov.b	@0x0:8,r4h
    28ba:	00 00       	nop	
    28bc:	7c 01       	.word	H'7c,H'1
    28be:	9c 00       	addx	#0x0,r4l
    28c0:	00 01       	.word	H'0,H'1
    28c2:	b8 13       	subx	#0x13,r0l
    28c4:	00 00       	nop	
    28c6:	03 ed       	.word	H'3,H'ed
    28c8:	01 41       	.word	H'1,H'41
    28ca:	00 00       	nop	
    28cc:	00 3a       	.word	H'0,H'3a
    28ce:	00 00       	nop	
    28d0:	16 4b       	and.b	r4h,r3l
    28d2:	10 69       	shll.w	#8,e1
    28d4:	00 01       	.word	H'0,H'1
    28d6:	43 00       	bls	.0 (0x28d8)
    28d8:	00 00       	nop	
    28da:	3a 00       	mov.b	r2l,@0x0:8
    28dc:	00 16       	.word	H'0,H'16
    28de:	6c 10       	mov.b	@er1+,r0h
    28e0:	6d 70       	mov.w	@er7+,r0
    28e2:	00 01       	.word	H'0,H'1
    28e4:	44 00       	bcc	.0 (0x28e6)
    28e6:	00 00       	nop	
    28e8:	d0 00       	xor.b	#0x0,r0h
    28ea:	00 16       	.word	H'0,H'16
    28ec:	b0 10       	subx	#0x10,r0h
    28ee:	70 00       	bset	#0x0,r0h
    28f0:	01 45       	.word	H'1,H'45
    28f2:	00 00       	nop	
    28f4:	01 58 00 00 	mov.w	@er0,@er0
    28f8:	16 d0       	and.b	r5l,r0h
    28fa:	11 00       	shlr.b	r0h
    28fc:	ff d2       	mov.b	#0xd2,r7l
    28fe:	84 00       	add.b	#0x0,r4h
    2900:	00 02       	.word	H'0,H'2
    2902:	92 00       	addx	#0x0,r2h
    2904:	12 00       	rotxl.b	r0h
    2906:	00 04       	.word	H'0,H'4
    2908:	8d 01       	add.b	#0x1,r5l
    290a:	37 00       	mov.b	r7h,@0x0:8
    290c:	00 00       	nop	
    290e:	3a 00       	mov.b	r2l,@0x0:8
    2910:	ff d1       	mov.b	#0xd1,r7l
    2912:	7c 00       	.word	H'7c,H'0
    2914:	00 00       	nop	
    2916:	a8 01       	cmp.b	#0x1,r0l
    2918:	9c 00       	addx	#0x0,r4l
    291a:	00 02       	.word	H'0,H'2
    291c:	38 10       	mov.b	r0l,@0x10:8
    291e:	69 00       	mov.w	@er0,r0
    2920:	01 39       	.word	H'1,H'39
    2922:	00 00       	nop	
    2924:	00 3a       	.word	H'0,H'3a
    2926:	00 00       	nop	
    2928:	17 28       	.word	H'17,H'28
    292a:	14 00       	or.b	r0h,r0h
    292c:	00 02       	.word	H'0,H'2
    292e:	38 00       	mov.b	r0l,@0x0:8
    2930:	ff d1       	mov.b	#0xd1,r7l
    2932:	9e 00       	addx	#0x0,r6l
    2934:	00 00       	nop	
    2936:	6a 01 3b 15 	mov.b	@0x3b15:16,r1h
    293a:	00 00       	nop	
    293c:	02 48       	.word	H'2,H'48
    293e:	16 00       	and.b	r0h,r0h
    2940:	ff d1       	mov.b	#0xd1,r7l
    2942:	9e 00       	addx	#0x0,r6l
    2944:	00 00       	nop	
    2946:	6a 17       	.word	H'6a,H'17
    2948:	00 00       	nop	
    294a:	02 51       	.word	H'2,H'51
    294c:	00 00       	nop	
    294e:	17 3c       	.word	H'17,H'3c
    2950:	17 00       	not.b	r0h
    2952:	00 02       	.word	H'0,H'2
    2954:	5a 00 00 17 	jmp	@0x17:24
    2958:	7e 17       	.word	H'7e,H'17
    295a:	00 00       	nop	
    295c:	02 64       	stc	vbr,er4
    295e:	00 00       	nop	
    2960:	17 91       	neg.w	r1
    2962:	18 00       	sub.b	r0h,r0h
    2964:	00 02       	.word	H'0,H'2
    2966:	6f 19 00 ff 	mov.w	@(0xff:16,er1),e1
    296a:	d1 c8       	xor.b	#0xc8,r1h
    296c:	00 00       	nop	
    296e:	02 9d       	.word	H'2,H'9d
    2970:	1a 01       	dec.b	r1h
    2972:	50 02       	mulxu.b	r0h,r2
    2974:	75 00       	bxor	#0x0,r0h
    2976:	1a 01       	dec.b	r1h
    2978:	51 01       	divxu.b	r0h,r1
    297a:	30 1a       	mov.b	r0h,@0x1a:8
    297c:	01 52       	.word	H'1,H'52
    297e:	01 38       	.word	H'1,H'38
    2980:	00 00       	nop	
    2982:	00 00       	nop	
    2984:	1b 00       	subs	#1,er0
    2986:	00 07       	.word	H'0,H'7
    2988:	b4 01       	subx	#0x1,r4h
    298a:	1e 00       	subx	r0h,r0h
    298c:	00 00       	nop	
    298e:	3a 01       	mov.b	r2l,@0x1:8
    2990:	00 00       	nop	
    2992:	02 8c       	.word	H'2,H'8c
    2994:	1c 70       	cmp.b	r7h,r0h
    2996:	00 01       	.word	H'0,H'1
    2998:	1e 00       	subx	r0h,r0h
    299a:	00 01       	.word	H'0,H'1
    299c:	58 1d       	.word	H'58,H'1d
    299e:	69 00       	mov.w	@er0,r0
    29a0:	01 20       	.word	H'1,H'20
    29a2:	00 00       	nop	
    29a4:	00 3a       	.word	H'0,H'3a
    29a6:	1d 6d       	cmp.w	r6,e5
    29a8:	70 00       	bset	#0x0,r0h
    29aa:	01 21       	.word	H'1,H'21
    29ac:	00 00       	nop	
    29ae:	00 d0       	.word	H'0,H'd0
    29b0:	1d 6d       	cmp.w	r6,e5
    29b2:	70 70       	bset	#0x7,r0h
    29b4:	00 01       	.word	H'0,H'1
    29b6:	22 00       	mov.b	@0x0:8,r2h
    29b8:	00 02       	.word	H'0,H'2
    29ba:	8c 05       	add.b	#0x5,r4l
    29bc:	00 00       	nop	
    29be:	07 c4       	ldc	#0xc4,ccr
    29c0:	01 23       	.word	H'1,H'23
    29c2:	00 00       	nop	
    29c4:	00 47       	.word	H'0,H'47
    29c6:	0d 00       	mov.w	r0,r0
    29c8:	00 07       	.word	H'0,H'7
    29ca:	c8 01       	or.b	#0x1,r0l
    29cc:	24 00       	mov.b	@0x0:8,r4h
    29ce:	00 00       	nop	
    29d0:	41 05       	.word	H'41,H'5
    29d2:	03 00       	ldc	r0h,ccr
    29d4:	ff d9       	mov.b	#0xd9,r7l
    29d6:	0c 00       	mov.b	r0h,r0h
    29d8:	04 04       	orc	#0x4,ccr
    29da:	00 00       	nop	
    29dc:	00 d0       	.word	H'0,H'd0
    29de:	1e 00       	subx	r0h,r0h
    29e0:	00 03       	.word	H'0,H'3
    29e2:	62 00       	bclr	r0h,r0h
    29e4:	00 03       	.word	H'0,H'3
    29e6:	62 03       	bclr	r0h,r3h
    29e8:	20 1e       	mov.b	@0x1e:8,r0h
    29ea:	00 00       	nop	
    29ec:	01 15       	.word	H'1,H'15
    29ee:	00 00       	nop	
    29f0:	01 15       	.word	H'1,H'15
    29f2:	04 04       	orc	#0x4,ccr
	...

000029f5 <.Ldebug_info0>:
    29f5:	00 00       	nop	
    29f7:	06 06       	andc	#0x6,ccr
    29f9:	00 04       	.word	H'0,H'4
    29fb:	00 00       	nop	
    29fd:	0c 00       	mov.b	r0h,r0h
    29ff:	04 01       	orc	#0x1,ccr
    2a01:	00 00       	nop	
    2a03:	00 4b       	.word	H'0,H'4b
    2a05:	0c 00       	mov.b	r0h,r0h
    2a07:	00 08       	.word	H'0,H'8
    2a09:	39 00       	mov.b	r1l,@0x0:8
    2a0b:	00 00       	nop	
    2a0d:	12 00       	rotxl.b	r0h
    2a0f:	ff d3       	mov.b	#0xd3,r7l
    2a11:	0c 00       	mov.b	r0h,r0h
    2a13:	00 02       	.word	H'0,H'2
    2a15:	f2 00       	mov.b	#0x0,r2h
    2a17:	00 13       	.word	H'0,H'13
    2a19:	24 02       	mov.b	@0x2:8,r4h
    2a1b:	01 08 00 00 	mov.l	@er0,@er0
    2a1f:	00 18       	.word	H'0,H'18
    2a21:	02 02       	stc	ccr,r2h
    2a23:	07 00       	ldc	#0x0,ccr
    2a25:	00 00       	nop	
    2a27:	38 03       	mov.b	r0l,@0x3:8
    2a29:	00 00       	nop	
    2a2b:	05 d4       	xorc	#0xd4,ccr
    2a2d:	02 09       	stc	ccr,r1l
    2a2f:	00 00       	nop	
    2a31:	00 3e       	.word	H'0,H'3e
    2a33:	02 04       	stc	ccr,r4h
    2a35:	07 00       	ldc	#0x0,ccr
    2a37:	00 00       	nop	
    2a39:	26 03       	mov.b	@0x3:8,r6h
    2a3b:	00 00       	nop	
    2a3d:	04 ab       	orc	#0xab,ccr
    2a3f:	02 0b       	stc	ccr,r3l
    2a41:	00 00       	nop	
    2a43:	00 33       	.word	H'0,H'33
    2a45:	04 02       	orc	#0x2,ccr
    2a47:	05 69       	xorc	#0x69,ccr
    2a49:	6e 74 00 05 	mov.b	@(0x5:16,er7),r4h
    2a4d:	04 00       	orc	#0x0,ccr
    2a4f:	00 00       	nop	
    2a51:	5d 05       	bsr	r0l.b
    2a53:	04 00       	orc	#0x0,ccr
    2a55:	00 00       	nop	
    2a57:	63 02       	btst	r0h,r2h
    2a59:	01 08 00 00 	mov.l	@er0,@er0
    2a5d:	00 21       	.word	H'0,H'21
    2a5f:	06 07       	andc	#0x7,ccr
    2a61:	02 00       	stc	ccr,r0h
    2a63:	00 00       	nop	
    2a65:	8a 02       	add.b	#0x2,r2l
    2a67:	0f 00       	daa	r0h
    2a69:	00 00       	nop	
    2a6b:	8a 07       	add.b	#0x7,r2l
    2a6d:	00 00       	nop	
    2a6f:	06 97       	andc	#0x97,ccr
    2a71:	00 07       	.word	H'0,H'7
    2a73:	00 00       	nop	
    2a75:	06 4f       	andc	#0x4f,ccr
    2a77:	01 07       	.word	H'1,H'7
    2a79:	00 00       	nop	
    2a7b:	05 ed       	xorc	#0xed,ccr
    2a7d:	02 00       	stc	ccr,r0h
    2a7f:	02 02       	stc	ccr,r2h
    2a81:	07 00       	ldc	#0x0,ccr
    2a83:	00 00       	nop	
    2a85:	2b 08       	mov.b	@0x8:8,r3l
    2a87:	00 00       	nop	
    2a89:	00 9a       	.word	H'0,H'9a
    2a8b:	06 05       	andc	#0x5,ccr
    2a8d:	00 00       	nop	
    2a8f:	00 63       	.word	H'0,H'63
    2a91:	02 02       	stc	ccr,r2h
    2a93:	05 00       	xorc	#0x0,ccr
    2a95:	00 00       	nop	
    2a97:	8b 09       	add.b	#0x9,r3l
    2a99:	00 00       	nop	
    2a9b:	08 59       	add.b	r5h,r1l
    2a9d:	20 01       	mov.b	@0x1:8,r0h
    2a9f:	0b 00       	adds	#1,er0
    2aa1:	00 01       	.word	H'0,H'1
    2aa3:	03 0a       	ldc	r2l,ccr
    2aa5:	69 64       	mov.w	@er6,r4
    2aa7:	00 01       	.word	H'0,H'1
    2aa9:	0c 00       	mov.b	r0h,r0h
    2aab:	00 00       	nop	
    2aad:	45 00       	bcs	.0 (0x2aaf)
    2aaf:	0b 00       	adds	#1,er0
    2ab1:	00 02       	.word	H'0,H'2
    2ab3:	0d 01       	mov.w	r0,r1
    2ab5:	0d 00       	mov.w	r0,r0
    2ab7:	00 00       	nop	
    2ab9:	50 04       	mulxu.b	r0h,r4
    2abb:	0b 00       	adds	#1,er0
    2abd:	00 08       	.word	H'0,H'8
    2abf:	50 01       	mulxu.b	r0h,r1
    2ac1:	0f 00       	daa	r0h
    2ac3:	00 00       	nop	
    2ac5:	5d 08 0b 00 	jsr	@0xb000008:32
    2ac9:	00 08 
    2acb:	1e 01       	subx	r0h,r1h
    2acd:	10 00       	shll.b	r0h
    2acf:	00 00       	nop	
    2ad1:	5d 0c       	jsr	@@560 (0x230)
    2ad3:	0b 00       	adds	#1,er0
    2ad5:	00 08       	.word	H'0,H'8
    2ad7:	27 01       	mov.b	@0x1:8,r7h
    2ad9:	11 00       	shlr.b	r0h
    2adb:	00 00       	nop	
    2add:	50 10       	mulxu.b	r1h,r0
    2adf:	0b 00       	adds	#1,er0
    2ae1:	00 08       	.word	H'0,H'8
    2ae3:	30 01       	mov.b	r0h,@0x1:8
    2ae5:	12 00       	rotxl.b	r0h
    2ae7:	00 00       	nop	
    2ae9:	50 12       	mulxu.b	r1h,r2
    2aeb:	0b 00       	adds	#1,er0
    2aed:	00 04       	.word	H'0,H'4
    2aef:	98 01       	addx	#0x1,r0l
    2af1:	15 00       	xor.b	r0h,r0h
    2af3:	00 01       	.word	H'0,H'1
    2af5:	03 14       	ldc	r4h,exr
    2af7:	00 0c       	.word	H'0,H'c
    2af9:	00 00       	nop	
    2afb:	01 13       	.word	H'1,H'13
    2afd:	00 00       	nop	
    2aff:	01 13       	.word	H'1,H'13
    2b01:	0d 00       	mov.w	r0,r0
    2b03:	00 00       	nop	
    2b05:	3e 02       	mov.b	r6l,@0x2:8
    2b07:	00 02       	.word	H'0,H'2
    2b09:	04 05       	orc	#0x5,ccr
    2b0b:	00 00       	nop	
    2b0d:	01 7c       	.word	H'1,H'7c
    2b0f:	0c 00       	mov.b	r0h,r0h
    2b11:	00 00       	nop	
    2b13:	a3 00       	cmp.b	#0x0,r3h
    2b15:	00 01       	.word	H'0,H'1
    2b17:	2a 0d       	mov.b	@0xd:8,r2l
    2b19:	00 00       	nop	
    2b1b:	00 3e       	.word	H'0,H'3e
    2b1d:	00 00       	nop	
    2b1f:	0e 00       	addx	r0h,r0h
    2b21:	00 08       	.word	H'0,H'8
    2b23:	59 01       	.word	H'59,H'1
    2b25:	16 00       	and.b	r0h,r0h
    2b27:	00 01       	.word	H'0,H'1
    2b29:	1a 05       	dec.b	r5h
    2b2b:	03 00       	ldc	r0h,ccr
    2b2d:	ff db       	mov.b	#0xdb,r7l
    2b2f:	5c 0f       	.word	H'5c,H'f
    2b31:	00 00       	nop	
    2b33:	08 43       	add.b	r4h,r3h
    2b35:	01 aa       	.word	H'1,H'aa
    2b37:	00 00       	nop	
    2b39:	00 50       	.word	H'0,H'50
    2b3b:	00 ff       	.word	H'0,H'ff
    2b3d:	d5 0e       	xor.b	#0xe,r5h
    2b3f:	00 00       	nop	
    2b41:	00 f0       	.word	H'0,H'f0
    2b43:	01 9c       	.word	H'1,H'9c
    2b45:	00 00       	nop	
    2b47:	02 b1       	stmac	macl,er1
    2b49:	10 00       	shll.b	r0h
    2b4b:	00 00       	nop	
    2b4d:	71 01       	bnot	#0x0,r1h
    2b4f:	aa 00       	cmp.b	#0x0,r2l
    2b51:	00 00       	nop	
    2b53:	50 00       	mulxu.b	r0h,r0
    2b55:	00 17       	.word	H'0,H'17
    2b57:	ba 10       	subx	#0x10,r2l
    2b59:	00 00       	nop	
    2b5b:	00 95       	.word	H'0,H'95
    2b5d:	01 aa       	.word	H'1,H'aa
    2b5f:	00 00       	nop	
    2b61:	00 57       	.word	H'0,H'57
    2b63:	00 00       	nop	
    2b65:	17 db       	exts.w	e3
    2b67:	0e 00       	addx	r0h,r0h
    2b69:	00 03       	.word	H'0,H'3
    2b6b:	ed 01       	and.b	#0x1,r5l
    2b6d:	ac 00       	cmp.b	#0x0,r4l
    2b6f:	00 00       	nop	
    2b71:	50 02       	mulxu.b	r0h,r2
    2b73:	91 76       	addx	#0x76,r1h
    2b75:	11 00       	shlr.b	r0h
    2b77:	00 02       	.word	H'0,H'2
    2b79:	0d 01       	mov.w	r0,r1
    2b7b:	ac 00       	cmp.b	#0x0,r4l
    2b7d:	00 00       	nop	
    2b7f:	50 00       	mulxu.b	r0h,r0
    2b81:	00 17       	.word	H'0,H'17
    2b83:	fc 12       	mov.b	#0x12,r4l
    2b85:	69 64       	mov.w	@er6,r4
    2b87:	00 01       	.word	H'0,H'1
    2b89:	ad 00       	cmp.b	#0x0,r5l
    2b8b:	00 00       	nop	
    2b8d:	45 00       	bcs	.0 (0x2b8f)
    2b8f:	00 18       	.word	H'0,H'18
    2b91:	2f 13       	mov.b	@0x13:8,r7l
    2b93:	70 00       	bset	#0x0,r0h
    2b95:	01 ae       	.word	H'1,H'ae
    2b97:	00 00       	nop	
    2b99:	00 5d       	.word	H'0,H'5d
    2b9b:	02 91       	.word	H'2,H'91
    2b9d:	78 14       	.word	H'78,H'14
    2b9f:	00 00       	nop	
    2ba1:	02 fe       	.word	H'2,H'fe
    2ba3:	00 ff       	.word	H'0,H'ff
    2ba5:	d5 1a       	xor.b	#0x1a,r5h
    2ba7:	00 00       	nop	
    2ba9:	00 10       	.word	H'0,H'10
    2bab:	01 b0       	.word	H'1,H'b0
    2bad:	00 00       	nop	
    2baf:	01 db       	.word	H'1,H'db
    2bb1:	15 00       	xor.b	r0h,r0h
    2bb3:	ff d5       	mov.b	#0xd5,r7l
    2bb5:	2a 00       	mov.b	@0x0:8,r2l
    2bb7:	00 05       	.word	H'0,H'5
    2bb9:	4e 16       	bgt	.+22 (0x2bd1)
    2bbb:	01 50       	.word	H'1,H'50
    2bbd:	05 03       	xorc	#0x3,ccr
    2bbf:	00 ff       	.word	H'0,H'ff
    2bc1:	db 5c       	xor.b	#0x5c,r3l
    2bc3:	16 01       	and.b	r0h,r1h
    2bc5:	51 01       	divxu.b	r0h,r1
    2bc7:	30 16       	mov.b	r0h,@0x16:8
    2bc9:	01 52       	.word	H'1,H'52
    2bcb:	02 08       	stc	ccr,r0l
    2bcd:	20 00       	mov.b	@0x0:8,r0h
    2bcf:	00 17       	.word	H'0,H'17
    2bd1:	00 00       	nop	
    2bd3:	02 b1       	stmac	macl,er1
    2bd5:	00 ff       	.word	H'0,H'ff
    2bd7:	d5 52       	xor.b	#0x52,r5h
    2bd9:	00 00       	nop	
    2bdb:	00 30       	.word	H'0,H'30
    2bdd:	01 b6       	.word	H'1,H'b6
    2bdf:	00 00       	nop	
    2be1:	02 6c       	stc	vbr,er4
    2be3:	18 00       	sub.b	r0h,r0h
    2be5:	00 02       	.word	H'0,H'2
    2be7:	d6 00       	xor.b	#0x0,r6h
    2be9:	00 17       	.word	H'0,H'17
    2beb:	fc 18       	mov.b	#0x18,r4l
    2bed:	00 00       	nop	
    2bef:	02 ec       	.word	H'2,H'ec
    2bf1:	00 00       	nop	
    2bf3:	18 59       	sub.b	r5h,r1l
    2bf5:	18 00       	sub.b	r0h,r0h
    2bf7:	00 02       	.word	H'0,H'2
    2bf9:	e1 00       	and.b	#0x0,r1h
    2bfb:	00 18       	.word	H'0,H'18
    2bfd:	8b 18       	add.b	#0x18,r3l
    2bff:	00 00       	nop	
    2c01:	02 cc       	.word	H'2,H'cc
    2c03:	00 00       	nop	
    2c05:	18 b5       	sub.b	r3l,r5h
    2c07:	18 00       	sub.b	r0h,r0h
    2c09:	00 02       	.word	H'0,H'2
    2c0b:	c1 00       	or.b	#0x0,r1h
    2c0d:	00 18       	.word	H'0,H'18
    2c0f:	df 19       	xor.b	#0x19,r7l
    2c11:	00 ff       	.word	H'0,H'ff
    2c13:	d5 96       	xor.b	#0x96,r5h
    2c15:	00 00       	nop	
    2c17:	05 59       	xorc	#0x59,ccr
    2c19:	00 00       	nop	
    2c1b:	02 2e       	stmac	mach,er6
    2c1d:	16 01       	and.b	r0h,r1h
    2c1f:	50 01       	mulxu.b	r0h,r1
    2c21:	48 00       	bvc	.0 (0x2c23)
    2c23:	19 00       	sub.w	r0,r0
    2c25:	ff d5       	mov.b	#0xd5,r7l
    2c27:	a4 00       	cmp.b	#0x0,r4h
    2c29:	00 05       	.word	H'0,H'5
    2c2b:	59 00       	jmp	@er0
    2c2d:	00 02       	.word	H'0,H'2
    2c2f:	41 16       	brn	.+22 (0x2c47)
    2c31:	01 50       	.word	H'1,H'50
    2c33:	01 48       	.word	H'1,H'48
    2c35:	00 1a       	.word	H'0,H'1a
    2c37:	00 ff       	.word	H'0,H'ff
    2c39:	d5 c2       	xor.b	#0xc2,r5h
    2c3b:	00 00       	nop	
    2c3d:	05 64       	xorc	#0x64,ccr
    2c3f:	1a 00       	dec.b	r0h
    2c41:	ff d5       	mov.b	#0xd5,r7l
    2c43:	ce 00       	or.b	#0x0,r6l
    2c45:	00 05       	.word	H'0,H'5
    2c47:	6f 15 00 ff 	mov.w	@(0xff:16,er1),r5
    2c4b:	d5 f0       	xor.b	#0xf0,r5h
    2c4d:	00 00       	nop	
    2c4f:	04 46       	orc	#0x46,ccr
    2c51:	16 01       	and.b	r0h,r1h
    2c53:	50 0a       	mulxu.b	r0h,e2
    2c55:	74 00       	bor	#0x0,r0h
    2c57:	35 24       	mov.b	r5h,@0x24:8
    2c59:	03 00       	ldc	r0h,ccr
    2c5b:	ff db       	mov.b	#0xdb,r7l
    2c5d:	5c 22       	.word	H'5c,H'22
    2c5f:	00 00       	nop	
    2c61:	19 00       	sub.w	r0,r0
    2c63:	ff d5       	mov.b	#0xd5,r7l
    2c65:	38 00       	mov.b	r0l,@0x0:8
    2c67:	00 05       	.word	H'0,H'5
    2c69:	7a 00 00 02 	mov.l	#0x28816,er0
    2c6d:	88 16 
    2c6f:	01 50       	.word	H'1,H'50
    2c71:	01 32       	.word	H'1,H'32
    2c73:	16 01       	and.b	r0h,r1h
    2c75:	51 05       	divxu.b	r0h,r5
    2c77:	03 00       	ldc	r0h,ccr
    2c79:	ff d3       	mov.b	#0xd3,r7l
    2c7b:	ea 00       	and.b	#0x0,r2l
    2c7d:	19 00       	sub.w	r0,r0
    2c7f:	ff d5       	mov.b	#0xd5,r7l
    2c81:	46 00       	bne	.0 (0x2c83)
    2c83:	00 05       	.word	H'0,H'5
    2c85:	85 00       	add.b	#0x0,r5h
    2c87:	00 02       	.word	H'0,H'2
    2c89:	a7 16       	cmp.b	#0x16,r7h
    2c8b:	01 50       	.word	H'1,H'50
    2c8d:	01 31       	.word	H'1,H'31
    2c8f:	16 01       	and.b	r0h,r1h
    2c91:	51 02       	divxu.b	r0h,r2
    2c93:	76 7e       	band	#0x7,r6l
    2c95:	16 01       	and.b	r0h,r1h
    2c97:	52 02       	mulxu.w	r0,er2
    2c99:	76 00       	band	#0x0,r0h
    2c9b:	00 1a       	.word	H'0,H'1a
    2c9d:	00 ff       	.word	H'0,H'ff
    2c9f:	d5 fa       	xor.b	#0xfa,r5h
    2ca1:	00 00       	nop	
    2ca3:	05 90       	xorc	#0x90,ccr
    2ca5:	00 1b       	.word	H'0,H'1b
    2ca7:	00 00       	nop	
    2ca9:	07 d9       	ldc	#0xd9,ccr
    2cab:	01 8a       	.word	H'1,H'8a
    2cad:	00 00       	nop	
    2caf:	00 50       	.word	H'0,H'50
    2cb1:	01 00       	.word	H'1,H'0
    2cb3:	00 02       	.word	H'0,H'2
    2cb5:	f8 1c       	mov.b	#0x1c,r0l
    2cb7:	00 00       	nop	
    2cb9:	08 61       	add.b	r6h,r1h
    2cbb:	01 8a       	.word	H'1,H'8a
    2cbd:	00 00       	nop	
    2cbf:	02 f8       	.word	H'2,H'f8
    2cc1:	1d 69       	cmp.w	r6,e1
    2cc3:	64 00       	or.w	r0,r0
    2cc5:	01 8a       	.word	H'1,H'8a
    2cc7:	00 00       	nop	
    2cc9:	00 45       	.word	H'0,H'45
    2ccb:	1c 00       	cmp.b	r0h,r0h
    2ccd:	00 02       	.word	H'0,H'2
    2ccf:	0d 01       	mov.w	r0,r1
    2cd1:	8b 00       	add.b	#0x0,r3l
    2cd3:	00 00       	nop	
    2cd5:	50 1c       	mulxu.b	r1h,e4
    2cd7:	00 00       	nop	
    2cd9:	03 ed       	.word	H'3,H'ed
    2cdb:	01 8b       	.word	H'1,H'8b
    2cdd:	00 00       	nop	
    2cdf:	00 50       	.word	H'0,H'50
    2ce1:	1c 00       	cmp.b	r0h,r0h
    2ce3:	00 07       	.word	H'0,H'7
    2ce5:	e1 01       	and.b	#0x1,r1h
    2ce7:	8b 00       	add.b	#0x0,r3l
    2ce9:	00 00       	nop	
    2ceb:	5d 00       	jsr	@er0
    2ced:	05 04       	xorc	#0x4,ccr
    2cef:	00 00       	nop	
    2cf1:	00 a3       	.word	H'0,H'a3
    2cf3:	1e 00       	subx	r0h,r0h
    2cf5:	00 08       	.word	H'0,H'8
    2cf7:	11 01       	shlr.b	r1h
    2cf9:	83 00       	add.b	#0x0,r3h
    2cfb:	00 00       	nop	
    2cfd:	50 01       	mulxu.b	r0h,r1
    2cff:	1f 00       	das	r0h
    2d01:	00 08       	.word	H'0,H'8
    2d03:	04 01       	orc	#0x1,ccr
    2d05:	73 00       	btst	#0x0,r0h
    2d07:	ff d3       	mov.b	#0xd3,r7l
    2d09:	ea 00       	and.b	#0x0,r2l
    2d0b:	00 01       	.word	H'0,H'1
    2d0d:	24 01       	mov.b	@0x1:8,r4h
    2d0f:	9c 00       	addx	#0x0,r4l
    2d11:	00 04       	.word	H'0,H'4
    2d13:	18 12       	sub.b	r1h,r2h
    2d15:	69 00       	mov.w	@er0,r0
    2d17:	01 75       	.word	H'1,H'75
    2d19:	00 00       	nop	
    2d1b:	00 50       	.word	H'0,H'50
    2d1d:	00 00       	nop	
    2d1f:	19 3a       	sub.w	r3,e2
    2d21:	0e 00       	addx	r0h,r0h
    2d23:	00 08       	.word	H'0,H'8
    2d25:	61 01       	bnot	r0h,r1h
    2d27:	76 00       	band	#0x0,r0h
    2d29:	00 02       	.word	H'0,H'2
    2d2b:	f8 06       	mov.b	#0x6,r0l
    2d2d:	03 00       	ldc	r0h,ccr
    2d2f:	ff db       	mov.b	#0xdb,r7l
    2d31:	5c 9f       	.word	H'5c,H'9f
    2d33:	17 00       	not.b	r0h
    2d35:	00 04       	.word	H'0,H'4
    2d37:	18 00       	sub.b	r0h,r0h
    2d39:	ff d4       	mov.b	#0xd4,r7l
    2d3b:	16 00       	and.b	r0h,r0h
    2d3d:	00 00       	nop	
    2d3f:	18 01       	sub.b	r0h,r1h
    2d41:	7e 00       	.word	H'7e,H'0
    2d43:	00 04       	.word	H'0,H'4
    2d45:	05 18       	xorc	#0x18,ccr
    2d47:	00 00       	nop	
    2d49:	04 28       	orc	#0x28,ccr
    2d4b:	00 00       	nop	
    2d4d:	19 4e       	sub.w	r4,e6
    2d4f:	20 00       	mov.b	@0x0:8,r0h
    2d51:	00 00       	nop	
    2d53:	18 21       	sub.b	r2h,r1h
    2d55:	00 00       	nop	
    2d57:	04 33       	orc	#0x33,ccr
    2d59:	02 91       	.word	H'2,H'91
    2d5b:	6f 22 00 00 	mov.w	@(0x0:16,er2),r2
    2d5f:	04 3c       	orc	#0x3c,ccr
    2d61:	00 00       	nop	
    2d63:	19 76       	sub.w	r7,r6
    2d65:	1a 00       	dec.b	r0h
    2d67:	ff d4       	mov.b	#0xd4,r7l
    2d69:	20 00       	mov.b	@0x0:8,r0h
    2d6b:	00 05       	.word	H'0,H'5
    2d6d:	9b 1a       	addx	#0x1a,r3l
    2d6f:	00 ff       	.word	H'0,H'ff
    2d71:	d4 44       	xor.b	#0x44,r4h
    2d73:	00 00       	nop	
    2d75:	05 a6       	xorc	#0xa6,ccr
    2d77:	19 00       	sub.w	r0,r0
    2d79:	ff d4       	mov.b	#0xd4,r7l
    2d7b:	6a 00 00 04 	mov.b	@0x4:16,r0h
    2d7f:	46 00       	bne	.0 (0x2d81)
    2d81:	00 03       	.word	H'0,H'3
    2d83:	a1 16       	cmp.b	#0x16,r1h
    2d85:	01 50       	.word	H'1,H'50
    2d87:	02 74       	stc	sbr,er4
    2d89:	00 16       	.word	H'0,H'16
    2d8b:	01 51       	.word	H'1,H'51
    2d8d:	02 76       	stc	sbr,er6
    2d8f:	77 16       	bld	#0x1,r6h
    2d91:	01 52       	.word	H'1,H'52
    2d93:	01 31       	.word	H'1,H'31
    2d95:	00 19       	.word	H'0,H'19
    2d97:	00 ff       	.word	H'0,H'ff
    2d99:	d4 a0       	xor.b	#0xa0,r4h
    2d9b:	00 00       	nop	
    2d9d:	05 b1       	xorc	#0xb1,ccr
    2d9f:	00 00       	nop	
    2da1:	03 b4       	ldmac	er4,macl
    2da3:	16 01       	and.b	r0h,r1h
    2da5:	50 01       	mulxu.b	r0h,r1
    2da7:	48 00       	bvc	.0 (0x2da9)
    2da9:	19 00       	sub.w	r0,r0
    2dab:	ff d4       	mov.b	#0xd4,r7l
    2dad:	b6 00       	subx	#0x0,r6h
    2daf:	00 05       	.word	H'0,H'5
    2db1:	bc 00       	subx	#0x0,r4l
    2db3:	00 03       	.word	H'0,H'3
    2db5:	c8 16       	or.b	#0x16,r0l
    2db7:	01 50       	.word	H'1,H'50
    2db9:	02 75       	stc	sbr,er5
    2dbb:	00 00       	nop	
    2dbd:	19 00       	sub.w	r0,r0
    2dbf:	ff d4       	mov.b	#0xd4,r7l
    2dc1:	c4 00       	or.b	#0x0,r4h
    2dc3:	00 05       	.word	H'0,H'5
    2dc5:	c7 00       	or.b	#0x0,r7h
    2dc7:	00 03       	.word	H'0,H'3
    2dc9:	e1 16       	and.b	#0x16,r1h
    2dcb:	01 50       	.word	H'1,H'50
    2dcd:	01 30       	.word	H'1,H'30
    2dcf:	16 01       	and.b	r0h,r1h
    2dd1:	52 02       	mulxu.w	r0,er2
    2dd3:	75 00       	bxor	#0x0,r0h
    2dd5:	00 1a       	.word	H'0,H'1a
    2dd7:	00 ff       	.word	H'0,H'ff
    2dd9:	d4 d6       	xor.b	#0xd6,r4h
    2ddb:	00 00       	nop	
    2ddd:	05 d2       	xorc	#0xd2,ccr
    2ddf:	1a 00       	dec.b	r0h
    2de1:	ff d4       	mov.b	#0xd4,r7l
    2de3:	f2 00       	mov.b	#0x0,r2h
    2de5:	00 05       	.word	H'0,H'5
    2de7:	dd 15       	xor.b	#0x15,r5l
    2de9:	00 ff       	.word	H'0,H'ff
    2deb:	d4 fe       	xor.b	#0xfe,r4h
    2ded:	00 00       	nop	
    2def:	04 7d       	orc	#0x7d,ccr
    2df1:	16 01       	and.b	r0h,r1h
    2df3:	50 02       	mulxu.b	r0h,r2
    2df5:	74 00       	bor	#0x0,r0h
    2df7:	00 00       	nop	
    2df9:	00 1a       	.word	H'0,H'1a
    2dfb:	00 ff       	.word	H'0,H'ff
    2dfd:	d4 12       	xor.b	#0x12,r4h
    2dff:	00 00       	nop	
    2e01:	05 d2       	xorc	#0xd2,ccr
    2e03:	1a 00       	dec.b	r0h
    2e05:	ff d4       	mov.b	#0xd4,r7l
    2e07:	32 00       	mov.b	r2h,@0x0:8
    2e09:	00 05       	.word	H'0,H'5
    2e0b:	9b 00       	addx	#0x0,r3l
    2e0d:	1b 00       	subs	#1,er0
    2e0f:	00 07       	.word	H'0,H'7
    2e11:	f3 01       	mov.b	#0x1,r3h
    2e13:	47 00       	beq	.0 (0x2e15)
    2e15:	00 00       	nop	
    2e17:	50 01       	mulxu.b	r0h,r1
    2e19:	00 00       	nop	
    2e1b:	04 46       	orc	#0x46,ccr
    2e1d:	1c 00       	cmp.b	r0h,r0h
    2e1f:	00 08       	.word	H'0,H'8
    2e21:	61 01       	bnot	r0h,r1h
    2e23:	47 00       	beq	.0 (0x2e25)
    2e25:	00 02       	.word	H'0,H'2
    2e27:	f8 23       	mov.b	#0x23,r0l
    2e29:	63 00       	btst	r0h,r0h
    2e2b:	01 49       	.word	H'1,H'49
    2e2d:	00 00       	nop	
    2e2f:	00 25       	.word	H'0,H'25
    2e31:	23 70       	mov.b	@0x70:8,r3h
    2e33:	00 01       	.word	H'0,H'1
    2e35:	4a 00       	bpl	.0 (0x2e37)
    2e37:	00 00       	nop	
    2e39:	5d 00       	jsr	@er0
    2e3b:	24 00       	mov.b	@0x0:8,r4h
    2e3d:	00 07       	.word	H'0,H'7
    2e3f:	cd 01       	or.b	#0x1,r5l
    2e41:	2a 01       	mov.b	@0x1:8,r2l
    2e43:	00 00       	nop	
    2e45:	04 7d       	orc	#0x7d,ccr
    2e47:	1c 00       	cmp.b	r0h,r0h
    2e49:	00 08       	.word	H'0,H'8
    2e4b:	61 01       	bnot	r0h,r1h
    2e4d:	2a 00       	mov.b	@0x0:8,r2l
    2e4f:	00 02       	.word	H'0,H'2
    2e51:	f8 1d       	mov.b	#0x1d,r0l
    2e53:	73 74       	btst	#0x7,r4h
    2e55:	72 00       	bclr	#0x0,r0h
    2e57:	01 2a       	.word	H'1,H'2a
    2e59:	00 00       	nop	
    2e5b:	00 5d       	.word	H'0,H'5d
    2e5d:	1d 6c       	cmp.w	r6,e4
    2e5f:	65 6e       	xor.w	r6,e6
    2e61:	00 01       	.word	H'0,H'1
    2e63:	2a 00       	mov.b	@0x0:8,r2l
    2e65:	00 00       	nop	
    2e67:	50 23       	mulxu.b	r2h,r3
    2e69:	69 00       	mov.w	@er0,r0
    2e6b:	01 2c       	.word	H'1,H'2c
    2e6d:	00 00       	nop	
    2e6f:	00 50       	.word	H'0,H'50
    2e71:	00 1f       	.word	H'0,H'1f
    2e73:	00 00       	nop	
    2e75:	07 e9       	ldc	#0xe9,ccr
    2e77:	01 1f       	.word	H'1,H'1f
    2e79:	00 ff       	.word	H'0,H'ff
    2e7b:	d3 0c       	xor.b	#0xc,r3h
    2e7d:	00 00       	nop	
    2e7f:	00 52       	.word	H'0,H'52
    2e81:	01 9c       	.word	H'1,H'9c
    2e83:	00 00       	nop	
    2e85:	04 b8       	orc	#0xb8,ccr
    2e87:	10 00       	shll.b	r0h
    2e89:	00 08       	.word	H'0,H'8
    2e8b:	61 01       	bnot	r0h,r1h
    2e8d:	1f 00       	das	r0h
    2e8f:	00 02       	.word	H'0,H'2
    2e91:	f8 00       	mov.b	#0x0,r0l
    2e93:	00 19       	.word	H'0,H'19
    2e95:	94 12       	addx	#0x12,r4h
    2e97:	69 00       	mov.w	@er0,r0
    2e99:	01 21       	.word	H'1,H'21
    2e9b:	00 00       	nop	
    2e9d:	00 50       	.word	H'0,H'50
    2e9f:	00 00       	nop	
    2ea1:	19 c0       	sub.w	e4,r0
    2ea3:	1a 00       	dec.b	r0h
    2ea5:	ff d3       	mov.b	#0xd3,r7l
    2ea7:	28 00       	mov.b	@0x0:8,r0l
    2ea9:	00 05       	.word	H'0,H'5
    2eab:	e8 00       	and.b	#0x0,r0l
    2ead:	25 00       	mov.b	@0x0:8,r5h
    2eaf:	00 04       	.word	H'0,H'4
    2eb1:	46 00       	bne	.0 (0x2eb3)
    2eb3:	ff d3       	mov.b	#0xd3,r7l
    2eb5:	5e 00 00 00 	jsr	@0x0:24
    2eb9:	8c 01       	add.b	#0x1,r4l
    2ebb:	9c 00       	addx	#0x0,r4l
    2ebd:	00 05       	.word	H'0,H'5
    2ebf:	4e 18       	bgt	.+24 (0x2ed9)
    2ec1:	00 00       	nop	
    2ec3:	04 52       	orc	#0x52,ccr
    2ec5:	00 00       	nop	
    2ec7:	19 e1       	sub.w	e6,r1
    2ec9:	18 00       	sub.b	r0h,r0h
    2ecb:	00 04       	.word	H'0,H'4
    2ecd:	5d 00       	jsr	@er0
    2ecf:	00 1a       	.word	H'0,H'1a
    2ed1:	0d 18       	mov.w	r1,e0
    2ed3:	00 00       	nop	
    2ed5:	04 68       	orc	#0x68,ccr
    2ed7:	00 00       	nop	
    2ed9:	1a 2e       	sub.w	#0x2,e6
    2edb:	22 00       	mov.b	@0x0:8,r2h
    2edd:	00 04       	.word	H'0,H'4
    2edf:	73 00       	btst	#0x0,r0h
    2ee1:	00 1a       	.word	H'0,H'1a
    2ee3:	4f 26       	ble	.+38 (0x2f0b)
    2ee5:	00 00       	nop	
    2ee7:	04 46       	orc	#0x46,ccr
    2ee9:	00 ff       	.word	H'0,H'ff
    2eeb:	d3 cc       	xor.b	#0xcc,r3h
    2eed:	00 00       	nop	
    2eef:	00 0e       	.word	H'0,H'e
    2ef1:	00 00       	nop	
    2ef3:	05 44       	xorc	#0x44,ccr
    2ef5:	18 00       	sub.b	r0h,r0h
    2ef7:	00 04       	.word	H'0,H'4
    2ef9:	5d 00       	jsr	@er0
    2efb:	00 1a       	.word	H'0,H'1a
    2efd:	6e 18 00 00 	mov.b	@(0x0:16,er1),r0l
    2f01:	04 68       	orc	#0x68,ccr
    2f03:	00 00       	nop	
    2f05:	1a 84       	sub.l	er0,er4
    2f07:	18 00       	sub.b	r0h,r0h
    2f09:	00 04       	.word	H'0,H'4
    2f0b:	52 00       	mulxu.w	r0,er0
    2f0d:	00 1a       	.word	H'0,H'1a
    2f0f:	9a 27       	addx	#0x27,r2l
    2f11:	00 ff       	.word	H'0,H'ff
    2f13:	d3 cc       	xor.b	#0xcc,r3h
    2f15:	00 00       	nop	
    2f17:	00 0e       	.word	H'0,H'e
    2f19:	28 00       	mov.b	@0x0:8,r0l
    2f1b:	00 04       	.word	H'0,H'4
    2f1d:	e6 1a       	and.b	#0x1a,r6h
    2f1f:	00 ff       	.word	H'0,H'ff
    2f21:	d3 d4       	xor.b	#0xd4,r3h
    2f23:	00 00       	nop	
    2f25:	05 f3       	xorc	#0xf3,ccr
    2f27:	15 00       	xor.b	r0h,r0h
    2f29:	ff d3       	mov.b	#0xd3,r7l
    2f2b:	da 00       	xor.b	#0x0,r2l
    2f2d:	00 04       	.word	H'0,H'4
    2f2f:	7d 16       	.word	H'7d,H'16
    2f31:	01 50       	.word	H'1,H'50
    2f33:	02 74       	stc	sbr,er4
    2f35:	00 00       	nop	
    2f37:	00 00       	nop	
    2f39:	1a 00       	dec.b	r0h
    2f3b:	ff d3       	mov.b	#0xd3,r7l
    2f3d:	c8 00       	or.b	#0x0,r0l
    2f3f:	00 05       	.word	H'0,H'5
    2f41:	fe 00       	mov.b	#0x0,r6l
    2f43:	29 00       	mov.b	@0x0:8,r1l
    2f45:	00 01       	.word	H'0,H'1
    2f47:	15 00       	xor.b	r0h,r0h
    2f49:	00 01       	.word	H'0,H'1
    2f4b:	15 03       	xor.b	r0h,r3h
    2f4d:	04 29       	orc	#0x29,ccr
    2f4f:	00 00       	nop	
    2f51:	07 1f       	ldc	#0x1f,ccr
    2f53:	00 00       	nop	
    2f55:	07 1f       	ldc	#0x1f,ccr
    2f57:	04 11       	orc	#0x11,ccr
    2f59:	29 00       	mov.b	@0x0:8,r1l
    2f5b:	00 01       	.word	H'0,H'1
    2f5d:	96 00       	addx	#0x0,r6h
    2f5f:	00 01       	.word	H'0,H'1
    2f61:	96 05       	addx	#0x5,r6h
    2f63:	04 29       	orc	#0x29,ccr
    2f65:	00 00       	nop	
    2f67:	02 5c       	.word	H'2,H'5c
    2f69:	00 00       	nop	
    2f6b:	02 5c       	.word	H'2,H'5c
    2f6d:	05 0d       	xorc	#0xd,ccr
    2f6f:	29 00       	mov.b	@0x0:8,r1l
    2f71:	00 07       	.word	H'0,H'7
    2f73:	5a 00 00 07 	jmp	@0x7:24
    2f77:	5a 04 15 29 	jmp	@0x41529:24
    2f7b:	00 00       	nop	
    2f7d:	07 65       	ldc	#0x65,ccr
    2f7f:	00 00       	nop	
    2f81:	07 65       	ldc	#0x65,ccr
    2f83:	04 14       	orc	#0x14,ccr
    2f85:	29 00       	mov.b	@0x0:8,r1l
    2f87:	00 07       	.word	H'0,H'7
    2f89:	33 00       	mov.b	r3h,@0x0:8
    2f8b:	00 07       	.word	H'0,H'7
    2f8d:	33 04       	mov.b	r3h,@0x4:8
    2f8f:	12 29       	.word	H'12,H'29
    2f91:	00 00       	nop	
    2f93:	01 f7       	.word	H'1,H'f7
    2f95:	00 00       	nop	
    2f97:	01 f7       	.word	H'1,H'f7
    2f99:	05 07       	xorc	#0x7,ccr
    2f9b:	29 00       	mov.b	@0x0:8,r1l
    2f9d:	00 01       	.word	H'0,H'1
    2f9f:	1c 00       	cmp.b	r0h,r0h
    2fa1:	00 01       	.word	H'0,H'1
    2fa3:	1c 05       	cmp.b	r0h,r5h
    2fa5:	08 29       	add.b	r2h,r1l
    2fa7:	00 00       	nop	
    2fa9:	07 47       	ldc	#0x47,ccr
    2fab:	00 00       	nop	
    2fad:	07 47       	ldc	#0x47,ccr
    2faf:	04 19       	orc	#0x19,ccr
    2fb1:	29 00       	mov.b	@0x0:8,r1l
    2fb3:	00 01       	.word	H'0,H'1
    2fb5:	68 00       	mov.b	@er0,r0h
    2fb7:	00 01       	.word	H'0,H'1
    2fb9:	68 03       	mov.b	@er0,r3h
    2fbb:	05 29       	xorc	#0x29,ccr
    2fbd:	00 00       	nop	
    2fbf:	07 81       	ldc	#0x81,ccr
    2fc1:	00 00       	nop	
    2fc3:	07 81       	ldc	#0x81,ccr
    2fc5:	04 1b       	orc	#0x1b,ccr
    2fc7:	29 00       	mov.b	@0x0:8,r1l
    2fc9:	00 02       	.word	H'0,H'2
    2fcb:	13 00       	rotxr.b	r0h
    2fcd:	00 02       	.word	H'0,H'2
    2fcf:	13 05       	rotxr.b	r5h
    2fd1:	05 29       	xorc	#0x29,ccr
    2fd3:	00 00       	nop	
    2fd5:	01 a2       	.word	H'1,H'a2
    2fd7:	00 00       	nop	
    2fd9:	01 a2       	.word	H'1,H'a2
    2fdb:	05 0b       	xorc	#0xb,ccr
    2fdd:	29 00       	mov.b	@0x0:8,r1l
    2fdf:	00 01       	.word	H'0,H'1
    2fe1:	85 00       	add.b	#0x0,r5h
    2fe3:	00 01       	.word	H'0,H'1
    2fe5:	85 05       	add.b	#0x5,r5h
    2fe7:	06 29       	andc	#0x29,ccr
    2fe9:	00 00       	nop	
    2feb:	02 44       	.word	H'2,H'44
    2fed:	00 00       	nop	
    2fef:	02 44       	.word	H'2,H'44
    2ff1:	05 0a       	xorc	#0xa,ccr
    2ff3:	29 00       	mov.b	@0x0:8,r1l
    2ff5:	00 01       	.word	H'0,H'1
    2ff7:	d3 00       	xor.b	#0x0,r3h
    2ff9:	00 01       	.word	H'0,H'1
    2ffb:	d3 05       	xor.b	#0x5,r3h
    2ffd:	09 00       	add.w	r0,r0

00002fff <.Ldebug_info0>:
    2fff:	00 00       	nop	
    3001:	04 98       	orc	#0x98,ccr
    3003:	00 04       	.word	H'0,H'4
    3005:	00 00       	nop	
    3007:	0e 38       	addx	r3h,r0l
    3009:	04 01       	orc	#0x1,ccr
    300b:	00 00       	nop	
    300d:	00 4b       	.word	H'0,H'4b
    300f:	0c 00       	mov.b	r0h,r0h
    3011:	00 08       	.word	H'0,H'8
    3013:	92 00       	addx	#0x0,r2h
    3015:	00 00       	nop	
    3017:	12 00       	rotxl.b	r0h
    3019:	ff d5       	mov.b	#0xd5,r7l
    301b:	fe 00       	mov.b	#0x0,r6l
    301d:	00 01       	.word	H'0,H'1
    301f:	b8 00       	subx	#0x0,r0l
    3021:	00 15       	.word	H'0,H'15
    3023:	bd 02       	subx	#0x2,r5l
    3025:	01 08 00 00 	mov.l	@er0,@er0
    3029:	00 18       	.word	H'0,H'18
    302b:	02 02       	stc	ccr,r2h
    302d:	07 00       	ldc	#0x0,ccr
    302f:	00 00       	nop	
    3031:	38 02       	mov.b	r0l,@0x2:8
    3033:	04 07       	orc	#0x7,ccr
    3035:	00 00       	nop	
    3037:	00 26       	.word	H'0,H'26
    3039:	03 02       	ldc	r2h,ccr
    303b:	05 69       	xorc	#0x69,ccr
    303d:	6e 74 00 04 	mov.b	@(0x4:16,er7),r4h
    3041:	04 00       	orc	#0x0,ccr
    3043:	00 00       	nop	
    3045:	47 04       	beq	.+4 (0x304b)
    3047:	04 00       	orc	#0x0,ccr
    3049:	00 00       	nop	
    304b:	4d 02       	blt	.+2 (0x304f)
    304d:	01 08 00 00 	mov.l	@er0,@er0
    3051:	00 21       	.word	H'0,H'21
    3053:	05 07       	xorc	#0x7,ccr
    3055:	02 00       	stc	ccr,r0h
    3057:	00 00       	nop	
    3059:	74 06       	bor	#0x0,r6h
    305b:	0f 00       	daa	r0h
    305d:	00 00       	nop	
    305f:	74 06       	bor	#0x0,r6h
    3061:	00 00       	nop	
    3063:	06 97       	andc	#0x97,ccr
    3065:	00 06       	.word	H'0,H'6
    3067:	00 00       	nop	
    3069:	06 4f       	andc	#0x4f,ccr
    306b:	01 06       	.word	H'1,H'6
    306d:	00 00       	nop	
    306f:	05 ed       	xorc	#0xed,ccr
    3071:	02 00       	stc	ccr,r0h
    3073:	02 02       	stc	ccr,r2h
    3075:	07 00       	ldc	#0x0,ccr
    3077:	00 00       	nop	
    3079:	2b 07       	mov.b	@0x7:8,r3l
    307b:	00 00       	nop	
    307d:	00 9a       	.word	H'0,H'9a
    307f:	04 05       	orc	#0x5,ccr
    3081:	00 00       	nop	
    3083:	00 4d       	.word	H'0,H'4d
    3085:	08 00       	add.b	r0h,r0h
    3087:	00 00       	nop	
    3089:	c4 04       	or.b	#0x4,r4h
    308b:	08 00       	add.b	r0h,r0h
    308d:	00 00       	nop	
    308f:	91 02       	addx	#0x2,r1h
    3091:	02 05       	stc	ccr,r5h
    3093:	00 00       	nop	
    3095:	00 8b       	.word	H'0,H'8b
    3097:	09 00       	add.w	r0,r0
    3099:	00 08       	.word	H'0,H'8
    309b:	7a 01 2f 00 	mov.l	#0x2f000000,er1
    309f:	00 00 
    30a1:	3a 00       	mov.b	r2l,@0x0:8
    30a3:	ff d6       	mov.b	#0xd6,r7l
    30a5:	b0 00       	subx	#0x0,r0h
    30a7:	00 01       	.word	H'0,H'1
    30a9:	06 01       	andc	#0x1,ccr
    30ab:	9c 00       	addx	#0x0,r4l
    30ad:	00 02       	.word	H'0,H'2
    30af:	74 0a       	bor	#0x0,r2l
    30b1:	00 00       	nop	
    30b3:	00 71       	.word	H'0,H'71
    30b5:	01 2f       	.word	H'1,H'2f
    30b7:	00 00       	nop	
    30b9:	00 3a       	.word	H'0,H'3a
    30bb:	00 00       	nop	
    30bd:	1a ad       	sub.l	#0x2,er5
    30bf:	0a 00       	inc	r0h
    30c1:	00 00       	nop	
    30c3:	95 01       	addx	#0x1,r5h
    30c5:	2f 00       	mov.b	@0x0:8,r7l
    30c7:	00 00       	nop	
    30c9:	41 00       	brn	.0 (0x30cb)
    30cb:	00 1a       	.word	H'0,H'1a
    30cd:	ce 0b       	or.b	#0xb,r6l
    30cf:	70 00       	bset	#0x0,r0h
    30d1:	01 31       	.word	H'1,H'31
    30d3:	00 00       	nop	
    30d5:	00 47       	.word	H'0,H'47
    30d7:	02 91       	.word	H'2,H'91
    30d9:	78 0c       	.word	H'78,H'c
    30db:	00 00       	nop	
    30dd:	03 ed       	.word	H'3,H'ed
    30df:	01 32       	.word	H'1,H'32
    30e1:	00 00       	nop	
    30e3:	00 3a       	.word	H'0,H'3a
    30e5:	02 91       	.word	H'2,H'91
    30e7:	76 0d       	band	#0x0,r5l
    30e9:	00 00       	nop	
    30eb:	03 2f       	ldmac	er7,mach
    30ed:	00 ff       	.word	H'0,H'ff
    30ef:	d6 bc       	xor.b	#0xbc,r6h
    30f1:	00 00       	nop	
    30f3:	00 26       	.word	H'0,H'26
    30f5:	01 34       	.word	H'1,H'34
    30f7:	00 00       	nop	
    30f9:	01 3d       	.word	H'1,H'3d
    30fb:	0e 00       	addx	r0h,r0h
    30fd:	00 03       	.word	H'0,H'3
    30ff:	3b 01       	mov.b	r3l,@0x1:8
    3101:	0f 00       	daa	r0h
    3103:	ff d6       	mov.b	#0xd6,r7l
    3105:	bc 00       	subx	#0x0,r4l
    3107:	00 00       	nop	
    3109:	26 10       	mov.b	@0x10:8,r6h
    310b:	00 00       	nop	
    310d:	03 46       	.word	H'3,H'46
    310f:	00 00       	nop	
    3111:	1a ef       	sub.l	#0x6,er7
    3113:	11 00       	shlr.b	r0h
    3115:	ff d6       	mov.b	#0xd6,r7l
    3117:	c4 00       	or.b	#0x0,r4h
    3119:	00 04       	.word	H'0,H'4
    311b:	0c 00       	mov.b	r0h,r0h
    311d:	00 01       	.word	H'0,H'1
    311f:	27 12       	mov.b	@0x12:8,r7h
    3121:	01 50       	.word	H'1,H'50
    3123:	01 33       	.word	H'1,H'33
    3125:	00 13       	.word	H'0,H'13
    3127:	00 ff       	.word	H'0,H'ff
    3129:	d6 e2       	xor.b	#0xe2,r6h
    312b:	00 00       	nop	
    312d:	04 17       	orc	#0x17,ccr
    312f:	12 01       	rotxl.b	r1h
    3131:	50 01       	mulxu.b	r0h,r1
    3133:	31 12       	mov.b	r1h,@0x12:8
    3135:	01 51       	.word	H'1,H'51
    3137:	01 33       	.word	H'1,H'33
    3139:	00 00       	nop	
    313b:	00 11       	.word	H'0,H'11
    313d:	00 ff       	.word	H'0,H'ff
    313f:	d6 ec       	xor.b	#0xec,r6h
    3141:	00 00       	nop	
    3143:	02 96       	.word	H'2,H'96
    3145:	00 00       	nop	
    3147:	01 54       	.word	H'1,H'54
    3149:	12 01       	rotxl.b	r1h
    314b:	50 05       	mulxu.b	r0h,r5
    314d:	03 00       	ldc	r0h,ccr
    314f:	ff d8       	mov.b	#0xd8,r7l
    3151:	c2 00       	or.b	#0x0,r2h
    3153:	11 00       	shlr.b	r0h
    3155:	ff d6       	mov.b	#0xd6,r7l
    3157:	f8 00       	mov.b	#0x0,r0l
    3159:	00 04       	.word	H'0,H'4
    315b:	22 00       	mov.b	@0x0:8,r2h
    315d:	00 01       	.word	H'0,H'1
    315f:	73 12       	btst	#0x1,r2h
    3161:	01 50       	.word	H'1,H'50
    3163:	01 30       	.word	H'1,H'30
    3165:	12 01       	rotxl.b	r1h
    3167:	51 02       	divxu.b	r0h,r2
    3169:	76 7e       	band	#0x7,r6l
    316b:	12 01       	rotxl.b	r1h
    316d:	52 02       	mulxu.w	r0,er2
    316f:	76 00       	band	#0x0,r0h
    3171:	00 11       	.word	H'0,H'11
    3173:	00 ff       	.word	H'0,H'ff
    3175:	d7 1c       	xor.b	#0x1c,r7h
    3177:	00 00       	nop	
    3179:	04 2d       	orc	#0x2d,ccr
    317b:	00 00       	nop	
    317d:	01 8f       	.word	H'1,H'8f
    317f:	12 01       	rotxl.b	r1h
    3181:	51 05       	divxu.b	r0h,r5
    3183:	03 00       	ldc	r0h,ccr
    3185:	ff d8       	mov.b	#0xd8,r7l
    3187:	cc 12       	or.b	#0x12,r4l
    3189:	01 52       	.word	H'1,H'52
    318b:	01 34       	.word	H'1,H'34
    318d:	00 14       	.word	H'0,H'14
    318f:	00 ff       	.word	H'0,H'ff
    3191:	d7 2c       	xor.b	#0x2c,r7h
    3193:	00 00       	nop	
    3195:	02 96       	.word	H'2,H'96
    3197:	11 00       	shlr.b	r0h
    3199:	ff d7       	mov.b	#0xd7,r7l
    319b:	44 00       	bcc	.0 (0x319d)
    319d:	00 04       	.word	H'0,H'4
    319f:	2d 00       	mov.b	@0x0:8,r5l
    31a1:	00 01       	.word	H'0,H'1
    31a3:	b4 12       	subx	#0x12,r4h
    31a5:	01 51       	.word	H'1,H'51
    31a7:	05 03       	xorc	#0x3,ccr
    31a9:	00 ff       	.word	H'0,H'ff
    31ab:	d8 d1       	xor.b	#0xd1,r0l
    31ad:	12 01       	rotxl.b	r1h
    31af:	52 01       	mulxu.w	r0,er1
    31b1:	35 00       	mov.b	r5h,@0x0:8
    31b3:	11 00       	shlr.b	r0h
    31b5:	ff d7       	mov.b	#0xd7,r7l
    31b7:	56 00       	rte/l	er0
    31b9:	00 04       	.word	H'0,H'4
    31bb:	38 00       	mov.b	r0l,@0x0:8
    31bd:	00 01       	.word	H'0,H'1
    31bf:	d0 12       	xor.b	#0x12,r0h
    31c1:	01 50       	.word	H'1,H'50
    31c3:	01 33       	.word	H'1,H'33
    31c5:	12 01       	rotxl.b	r1h
    31c7:	51 05       	divxu.b	r0h,r5
    31c9:	03 00       	ldc	r0h,ccr
    31cb:	ff d6       	mov.b	#0xd6,r7l
    31cd:	6c 00       	mov.b	@er0+,r0h
    31cf:	11 00       	shlr.b	r0h
    31d1:	ff d7       	mov.b	#0xd7,r7l
    31d3:	60 00       	bset	r0h,r0h
    31d5:	00 04       	.word	H'0,H'4
    31d7:	43 00       	bls	.0 (0x31d9)
    31d9:	00 01       	.word	H'0,H'1
    31db:	e7 12       	and.b	#0x12,r7h
    31dd:	01 50       	.word	H'1,H'50
    31df:	05 03       	xorc	#0x3,ccr
    31e1:	00 ff       	.word	H'0,H'ff
    31e3:	d8 d7       	xor.b	#0xd7,r0l
    31e5:	00 11       	.word	H'0,H'11
    31e7:	00 ff       	.word	H'0,H'ff
    31e9:	d7 6a       	xor.b	#0x6a,r7h
    31eb:	00 00       	nop	
    31ed:	04 4e       	orc	#0x4e,ccr
    31ef:	00 00       	nop	
    31f1:	02 01       	stc	ccr,r1h
    31f3:	12 01       	rotxl.b	r1h
    31f5:	50 01       	mulxu.b	r0h,r1
    31f7:	30 12       	mov.b	r0h,@0x12:8
    31f9:	01 51       	.word	H'1,H'51
    31fb:	03 0a       	ldc	r2l,ccr
    31fd:	0b b8       	.word	H'b,H'b8
    31ff:	00 11       	.word	H'0,H'11
    3201:	00 ff       	.word	H'0,H'ff
    3203:	d7 76       	xor.b	#0x76,r7h
    3205:	00 00       	nop	
    3207:	04 4e       	orc	#0x4e,ccr
    3209:	00 00       	nop	
    320b:	02 1b       	stc	exr,r3l
    320d:	12 01       	rotxl.b	r1h
    320f:	50 01       	mulxu.b	r0h,r1
    3211:	31 12       	mov.b	r1h,@0x12:8
    3213:	01 51       	.word	H'1,H'51
    3215:	03 0a       	ldc	r2l,ccr
    3217:	11 94       	shar.w	r4
    3219:	00 11       	.word	H'0,H'11
    321b:	00 ff       	.word	H'0,H'ff
    321d:	d7 8a       	xor.b	#0x8a,r7h
    321f:	00 00       	nop	
    3221:	04 2d       	orc	#0x2d,ccr
    3223:	00 00       	nop	
    3225:	02 37       	stmac	macl,er7
    3227:	12 01       	rotxl.b	r1h
    3229:	51 05       	divxu.b	r0h,r5
    322b:	03 00       	ldc	r0h,ccr
    322d:	ff d8       	mov.b	#0xd8,r7l
    322f:	e5 12       	and.b	#0x12,r5h
    3231:	01 52       	.word	H'1,H'52
    3233:	01 36       	.word	H'1,H'36
    3235:	00 11       	.word	H'0,H'11
    3237:	00 ff       	.word	H'0,H'ff
    3239:	d7 98       	xor.b	#0x98,r7h
    323b:	00 00       	nop	
    323d:	04 43       	orc	#0x43,ccr
    323f:	00 00       	nop	
    3241:	02 4e       	.word	H'2,H'4e
    3243:	12 01       	rotxl.b	r1h
    3245:	50 05       	mulxu.b	r0h,r5
    3247:	03 00       	ldc	r0h,ccr
    3249:	ff d8       	mov.b	#0xd8,r7l
    324b:	ec 00       	and.b	#0x0,r4l
    324d:	11 00       	shlr.b	r0h
    324f:	ff d7       	mov.b	#0xd7,r7l
    3251:	9e 00       	addx	#0x0,r6l
    3253:	00 04       	.word	H'0,H'4
    3255:	59 00       	jmp	@er0
    3257:	00 02       	.word	H'0,H'2
    3259:	61 12       	bnot	r1h,r2h
    325b:	01 50       	.word	H'1,H'50
    325d:	01 30       	.word	H'1,H'30
    325f:	00 14       	.word	H'0,H'14
    3261:	00 ff       	.word	H'0,H'ff
    3263:	d7 aa       	xor.b	#0xaa,r7h
    3265:	00 00       	nop	
    3267:	02 96       	.word	H'2,H'96
    3269:	14 00       	or.b	r0h,r0h
    326b:	ff d7       	mov.b	#0xd7,r7l
    326d:	b2 00       	subx	#0x0,r2h
    326f:	00 04       	.word	H'0,H'4
    3271:	64 00       	or.w	r0,r0
    3273:	15 00       	xor.b	r0h,r0h
    3275:	00 08       	.word	H'0,H'8
    3277:	6f 01 23 01 	mov.w	@(0x2301:16,er0),r1
    327b:	00 00       	nop	
    327d:	02 96       	.word	H'2,H'96
    327f:	16 00       	and.b	r0h,r0h
    3281:	00 00       	nop	
    3283:	f8 01       	mov.b	#0x1,r0l
    3285:	23 00       	mov.b	@0x0:8,r3h
    3287:	00 00       	nop	
    3289:	86 17       	add.b	#0x17,r6h
    328b:	73 70       	btst	#0x7,r0h
    328d:	00 01       	.word	H'0,H'1
    328f:	23 00       	mov.b	@0x0:8,r3h
    3291:	00 00       	nop	
    3293:	33 00       	mov.b	r3h,@0x0:8
    3295:	18 00       	sub.b	r0h,r0h
    3297:	00 08       	.word	H'0,H'8
    3299:	87 01       	add.b	#0x1,r7h
    329b:	17 00       	not.b	r0h
    329d:	ff d5       	mov.b	#0xd5,r7l
    329f:	fe 00       	mov.b	#0x0,r6l
    32a1:	00 00       	nop	
    32a3:	6e 01 9c 00 	mov.b	@(0x9c00:16,er0),r1h
    32a7:	00 03       	.word	H'0,H'3
    32a9:	2f 19       	mov.b	@0x19:8,r7l
    32ab:	73 74       	btst	#0x7,r4h
    32ad:	72 00       	bclr	#0x0,r0h
    32af:	01 17       	.word	H'1,H'17
    32b1:	00 00       	nop	
    32b3:	00 47       	.word	H'0,H'47
    32b5:	00 00       	nop	
    32b7:	1b 0d       	subs	#1,er5
    32b9:	1a 70       	sub.w	#0x7,r0
    32bb:	00 01       	.word	H'0,H'1
    32bd:	19 00       	sub.w	r0,r0
    32bf:	00 00       	nop	
    32c1:	47 00       	beq	.0 (0x32c3)
    32c3:	00 1b       	.word	H'0,H'1b
    32c5:	2e 1a       	mov.b	@0x1a:8,r6l
    32c7:	6c 65       	mov.b	@er6+,r5h
    32c9:	6e 00 01 1a 	mov.b	@(0x11a:16,er0),r0h
    32cd:	00 00       	nop	
    32cf:	00 3a       	.word	H'0,H'3a
    32d1:	00 00       	nop	
    32d3:	1b 4c       	.word	H'1b,H'4c
    32d5:	11 00       	shlr.b	r0h
    32d7:	ff d6       	mov.b	#0xd6,r7l
    32d9:	1c 00       	cmp.b	r0h,r0h
    32db:	00 04       	.word	H'0,H'4
    32dd:	6f 00 00 02 	mov.w	@(0x2:16,er0),r0
    32e1:	eb 12       	and.b	#0x12,r3l
    32e3:	01 50       	.word	H'1,H'50
    32e5:	03 f3       	.word	H'3,H'f3
    32e7:	01 50       	.word	H'1,H'50
    32e9:	00 11       	.word	H'0,H'11
    32eb:	00 ff       	.word	H'0,H'ff
    32ed:	d6 2e       	xor.b	#0x2e,r6h
    32ef:	00 00       	nop	
    32f1:	04 0c       	orc	#0xc,ccr
    32f3:	00 00       	nop	
    32f5:	02 ff       	.word	H'2,H'ff
    32f7:	12 01       	rotxl.b	r1h
    32f9:	50 02       	mulxu.b	r0h,r2
    32fb:	75 00       	bxor	#0x0,r0h
    32fd:	00 11       	.word	H'0,H'11
    32ff:	00 ff       	.word	H'0,H'ff
    3301:	d6 4e       	xor.b	#0x4e,r6h
    3303:	00 00       	nop	
    3305:	04 7a       	orc	#0x7a,ccr
    3307:	00 00       	nop	
    3309:	03 13       	ldc	r3h,exr
    330b:	12 01       	rotxl.b	r1h
    330d:	50 02       	mulxu.b	r0h,r2
    330f:	74 02       	bor	#0x0,r2h
    3311:	00 13       	.word	H'0,H'13
    3313:	00 ff       	.word	H'0,H'ff
    3315:	d6 5a       	xor.b	#0x5a,r6h
    3317:	00 00       	nop	
    3319:	04 17       	orc	#0x17,ccr
    331b:	12 01       	rotxl.b	r1h
    331d:	50 01       	mulxu.b	r0h,r1
    331f:	31 12       	mov.b	r1h,@0x12:8
    3321:	01 51       	.word	H'1,H'51
    3323:	02 75       	stc	sbr,er5
    3325:	00 12       	.word	H'0,H'12
    3327:	01 52       	.word	H'1,H'52
    3329:	02 74       	stc	sbr,er4
    332b:	00 00       	nop	
    332d:	00 1b       	.word	H'0,H'1b
    332f:	00 00       	nop	
    3331:	08 66       	add.b	r6h,r6h
    3333:	01 0c       	.word	H'1,H'c
    3335:	01 00       	.word	H'1,H'0
    3337:	00 03       	.word	H'0,H'3
    3339:	50 16       	mulxu.b	r1h,r6
    333b:	00 00       	nop	
    333d:	02 0d       	stc	ccr,r5l
    333f:	01 0c       	.word	H'1,H'c
    3341:	00 00       	nop	
    3343:	00 3a       	.word	H'0,H'3a
    3345:	1c 70       	cmp.b	r7h,r0h
    3347:	00 01       	.word	H'0,H'1
    3349:	0e 00       	addx	r0h,r0h
    334b:	00 00       	nop	
    334d:	47 00       	beq	.0 (0x334f)
    334f:	1d 00       	cmp.w	r0,r0
    3351:	00 02       	.word	H'0,H'2
    3353:	74 00       	bor	#0x0,r0h
    3355:	ff d6       	mov.b	#0xd6,r7l
    3357:	6c 00       	mov.b	@er0+,r0h
    3359:	00 00       	nop	
    335b:	44 01       	.word	H'44,H'1
    335d:	9c 00       	addx	#0x0,r4l
    335f:	00 04       	.word	H'0,H'4
    3361:	0c 1e       	mov.b	r1h,r6l
    3363:	00 00       	nop	
    3365:	02 80       	.word	H'2,H'80
    3367:	00 00       	nop	
    3369:	1b 77       	dec.l	#1,er7
    336b:	1e 00       	subx	r0h,r0h
    336d:	00 02       	.word	H'0,H'2
    336f:	8b 00       	add.b	#0x0,r3l
    3371:	00 1b       	.word	H'0,H'1b
    3373:	98 1f       	addx	#0x1f,r0l
    3375:	00 00       	nop	
    3377:	02 74       	stc	sbr,er4
    3379:	00 ff       	.word	H'0,H'ff
    337b:	d6 98       	xor.b	#0x98,r6h
    337d:	00 00       	nop	
    337f:	00 12       	.word	H'0,H'12
    3381:	00 00       	nop	
    3383:	03 bf       	ldmac	er7,macl
    3385:	1e 00       	subx	r0h,r0h
    3387:	00 02       	.word	H'0,H'2
    3389:	80 00       	add.b	#0x0,r0h
    338b:	00 1b       	.word	H'0,H'1b
    338d:	b9 1e       	subx	#0x1e,r1l
    338f:	00 00       	nop	
    3391:	02 8b       	.word	H'2,H'8b
    3393:	00 00       	nop	
    3395:	1b cf       	.word	H'1b,H'cf
    3397:	11 00       	shlr.b	r0h
    3399:	ff d6       	mov.b	#0xd6,r7l
    339b:	a2 00       	cmp.b	#0x0,r2h
    339d:	00 04       	.word	H'0,H'4
    339f:	43 00       	bls	.0 (0x33a1)
    33a1:	00 03       	.word	H'0,H'3
    33a3:	af 12       	cmp.b	#0x12,r7l
    33a5:	01 50       	.word	H'1,H'50
    33a7:	05 03       	xorc	#0x3,ccr
    33a9:	00 ff       	.word	H'0,H'ff
    33ab:	d8 b0       	xor.b	#0xb0,r0l
    33ad:	00 13       	.word	H'0,H'13
    33af:	00 ff       	.word	H'0,H'ff
    33b1:	d6 aa       	xor.b	#0xaa,r6h
    33b3:	00 00       	nop	
    33b5:	04 59       	orc	#0x59,ccr
    33b7:	12 01       	rotxl.b	r1h
    33b9:	50 01       	mulxu.b	r0h,r1
    33bb:	31 00       	mov.b	r1h,@0x0:8
    33bd:	00 11       	.word	H'0,H'11
    33bf:	00 ff       	.word	H'0,H'ff
    33c1:	d6 78       	xor.b	#0x78,r6h
    33c3:	00 00       	nop	
    33c5:	04 85       	orc	#0x85,ccr
    33c7:	00 00       	nop	
    33c9:	03 d2       	.word	H'3,H'd2
    33cb:	12 01       	rotxl.b	r1h
    33cd:	50 01       	mulxu.b	r0h,r1
    33cf:	30 00       	mov.b	r0h,@0x0:8
    33d1:	11 00       	shlr.b	r0h
    33d3:	ff d6       	mov.b	#0xd6,r7l
    33d5:	86 00       	add.b	#0x0,r6h
    33d7:	00 04       	.word	H'0,H'4
    33d9:	43 00       	bls	.0 (0x33db)
    33db:	00 03       	.word	H'0,H'3
    33dd:	e9 12       	and.b	#0x12,r1l
    33df:	01 50       	.word	H'1,H'50
    33e1:	05 03       	xorc	#0x3,ccr
    33e3:	00 ff       	.word	H'0,H'ff
    33e5:	d8 9e       	xor.b	#0x9e,r0l
    33e7:	00 11       	.word	H'0,H'11
    33e9:	00 ff       	.word	H'0,H'ff
    33eb:	d6 8c       	xor.b	#0x8c,r6h
    33ed:	00 00       	nop	
    33ef:	04 90       	orc	#0x90,ccr
    33f1:	00 00       	nop	
    33f3:	03 fc       	.word	H'3,H'fc
    33f5:	12 01       	rotxl.b	r1h
    33f7:	50 01       	mulxu.b	r0h,r1
    33f9:	30 00       	mov.b	r0h,@0x0:8
    33fb:	13 00       	rotxr.b	r0h
    33fd:	ff d6       	mov.b	#0xd6,r7l
    33ff:	94 00       	addx	#0x0,r4h
    3401:	00 04       	.word	H'0,H'4
    3403:	85 12       	add.b	#0x12,r5h
    3405:	01 50       	.word	H'1,H'50
    3407:	01 31       	.word	H'1,H'31
    3409:	00 00       	nop	
    340b:	20 00       	mov.b	@0x0:8,r0h
    340d:	00 07       	.word	H'0,H'7
    340f:	1f 00       	das	r0h
    3411:	00 07       	.word	H'0,H'7
    3413:	1f 02       	das	r2h
    3415:	11 20       	shlr.w	#4,r0
    3417:	00 00       	nop	
    3419:	07 52       	ldc	#0x52,ccr
    341b:	00 00       	nop	
    341d:	07 52       	ldc	#0x52,ccr
    341f:	02 13       	stc	exr,r3h
    3421:	20 00       	mov.b	@0x0:8,r0h
    3423:	00 07       	.word	H'0,H'7
    3425:	65 00       	xor.w	r0,r0
    3427:	00 07       	.word	H'0,H'7
    3429:	65 02       	xor.w	r0,r2
    342b:	14 20       	or.b	r2h,r0h
    342d:	00 00       	nop	
    342f:	01 6f       	.word	H'1,H'6f
    3431:	00 00       	nop	
    3433:	01 6f       	.word	H'1,H'6f
    3435:	03 0a       	ldc	r2l,ccr
    3437:	20 00       	mov.b	@0x0:8,r0h
    3439:	00 00       	nop	
    343b:	e8 00       	and.b	#0x0,r0l
    343d:	00 00       	nop	
    343f:	e8 04       	and.b	#0x4,r0l
    3441:	15 20       	xor.b	r2h,r0h
    3443:	00 00       	nop	
    3445:	00 a2       	.word	H'0,H'a2
    3447:	00 00       	nop	
    3449:	00 a2       	.word	H'0,H'a2
    344b:	03 0e       	ldc	r6l,ccr
    344d:	20 00       	mov.b	@0x0:8,r0h
    344f:	00 02       	.word	H'0,H'2
    3451:	d8 00       	xor.b	#0x0,r0l
    3453:	00 02       	.word	H'0,H'2
    3455:	d8 05       	xor.b	#0x5,r0l
    3457:	04 20       	orc	#0x20,ccr
    3459:	00 00       	nop	
    345b:	02 b5       	stmac	macl,er5
    345d:	00 00       	nop	
    345f:	02 b5       	stmac	macl,er5
    3461:	05 07       	xorc	#0x7,ccr
    3463:	20 00       	mov.b	@0x0:8,r0h
    3465:	00 07       	.word	H'0,H'7
    3467:	33 00       	mov.b	r3h,@0x0:8
    3469:	00 07       	.word	H'0,H'7
    346b:	33 02       	mov.b	r3h,@0x2:8
    346d:	12 20       	.word	H'12,H'20
    346f:	00 00       	nop	
    3471:	01 34       	.word	H'1,H'34
    3473:	00 00       	nop	
    3475:	01 34       	.word	H'1,H'34
    3477:	03 07       	ldc	r7h,ccr
    3479:	20 00       	mov.b	@0x0:8,r0h
    347b:	00 01       	.word	H'0,H'1
    347d:	68 00       	mov.b	@er0,r0h
    347f:	00 01       	.word	H'0,H'1
    3481:	68 03       	mov.b	@er0,r3h
    3483:	05 20       	xorc	#0x20,ccr
    3485:	00 00       	nop	
    3487:	02 92       	.word	H'2,H'92
    3489:	00 00       	nop	
    348b:	02 92       	.word	H'2,H'92
    348d:	05 05       	xorc	#0x5,ccr
    348f:	20 00       	mov.b	@0x0:8,r0h
    3491:	00 02       	.word	H'0,H'2
    3493:	ef 00       	and.b	#0x0,r7l
    3495:	00 02       	.word	H'0,H'2
    3497:	ef 05       	and.b	#0x5,r7l
    3499:	06 00       	andc	#0x0,ccr

Disassembly of section .debug_abbrev:

00000000 <.Ldebug_abbrev0>:
.Ldebug_abbrev0():
       0:	01 11       	.word	H'1,H'11
       2:	01 25       	.word	H'1,H'25
       4:	0e 13       	addx	r1h,r3h
       6:	0b 03       	adds	#1,er3
       8:	0e 1b       	addx	r1h,r3l
       a:	0e 55       	addx	r5h,r5h
       c:	17 11       	not.w	r1
       e:	01 10       	.word	H'1,H'10
      10:	17 00       	not.b	r0h
      12:	00 02       	.word	H'0,H'2
      14:	24 00       	mov.b	@0x0:8,r4h
      16:	0b 0b       	adds	#1,er3
      18:	3e 0b       	mov.b	r6l,@0xb:8
      1a:	03 0e       	ldc	r6l,ccr
      1c:	00 00       	nop	
      1e:	03 24       	ldmac	er4,mach
      20:	00 0b       	.word	H'0,H'b
      22:	0b 3e       	.word	H'b,H'3e
      24:	0b 03       	adds	#1,er3
      26:	08 00       	add.b	r0h,r0h
      28:	00 04       	.word	H'0,H'4
      2a:	0f 00       	daa	r0h
      2c:	0b 0b       	adds	#1,er3
      2e:	49 13       	.word	H'49,H'13
      30:	00 00       	nop	
      32:	05 34       	xorc	#0x34,ccr
      34:	00 03       	.word	H'0,H'3
      36:	0e 3a       	addx	r3h,r2l
      38:	0b 3b       	.word	H'b,H'3b
      3a:	0b 49       	.word	H'b,H'49
      3c:	13 3f       	.word	H'13,H'3f
      3e:	19 3c       	sub.w	r3,e4
      40:	19 00       	sub.w	r0,r0
      42:	00 06       	.word	H'0,H'6
      44:	2e 01       	mov.b	@0x1:8,r6l
      46:	3f 19       	mov.b	r7l,@0x19:8
      48:	03 0e       	ldc	r6l,ccr
      4a:	3a 0b       	mov.b	r2l,@0xb:8
      4c:	3b 0b       	mov.b	r3l,@0xb:8
      4e:	27 19       	mov.b	@0x19:8,r7h
      50:	49 13       	.word	H'49,H'13
      52:	11 01       	shlr.b	r1h
      54:	12 06       	rotxl.b	r6h
      56:	40 18       	bra	.+24 (0x70)
      58:	97 42       	addx	#0x42,r7h
      5a:	19 01       	sub.w	r0,r1
      5c:	13 00       	rotxr.b	r0h
      5e:	00 07       	.word	H'0,H'7
      60:	89 82       	add.b	#0x82,r1l
      62:	01 01       	.word	H'1,H'1
      64:	11 01       	shlr.b	r1h
      66:	31 13       	mov.b	r1h,@0x13:8
      68:	01 13       	.word	H'1,H'13
      6a:	00 00       	nop	
      6c:	08 8a       	add.b	r0l,r2l
      6e:	82 01       	add.b	#0x1,r2h
      70:	00 02       	.word	H'0,H'2
      72:	18 91       	sub.b	r1l,r1h
      74:	42 18       	bhi	.+24 (0x8e)
      76:	00 00       	nop	
      78:	09 89       	add.w	e0,e1
      7a:	82 01       	add.b	#0x1,r2h
      7c:	01 11       	.word	H'1,H'11
      7e:	01 31       	.word	H'1,H'31
      80:	13 00       	rotxr.b	r0h
      82:	00 0a       	.word	H'0,H'a
      84:	2e 01       	mov.b	@0x1:8,r6l
      86:	03 0e       	ldc	r6l,ccr
      88:	3a 0b       	mov.b	r2l,@0xb:8
      8a:	3b 0b       	mov.b	r3l,@0xb:8
      8c:	27 19       	mov.b	@0x19:8,r7h
      8e:	49 13       	.word	H'49,H'13
      90:	11 01       	shlr.b	r1h
      92:	12 06       	rotxl.b	r6h
      94:	40 18       	bra	.+24 (0xae)
      96:	97 42       	addx	#0x42,r7h
      98:	19 01       	sub.w	r0,r1
      9a:	13 00       	rotxr.b	r0h
      9c:	00 0b       	.word	H'0,H'b
      9e:	05 00       	xorc	#0x0,ccr
      a0:	03 0e       	ldc	r6l,ccr
      a2:	3a 0b       	mov.b	r2l,@0xb:8
      a4:	3b 0b       	mov.b	r3l,@0xb:8
      a6:	49 13       	.word	H'49,H'13
      a8:	02 17       	stc	exr,r7h
      aa:	00 00       	nop	
      ac:	0c 2e       	mov.b	r2h,r6l
      ae:	00 3f       	.word	H'0,H'3f
      b0:	19 3c       	sub.w	r3,e4
      b2:	19 6e       	sub.w	r6,e6
      b4:	0e 03       	addx	r0h,r3h
      b6:	0e 3a       	addx	r3h,r2l
      b8:	0b 3b       	.word	H'b,H'3b
      ba:	0b 00       	adds	#1,er0
	...

000000be <.Ldebug_abbrev0>:
      be:	01 11       	.word	H'1,H'11
      c0:	01 25       	.word	H'1,H'25
      c2:	0e 13       	addx	r1h,r3h
      c4:	0b 03       	adds	#1,er3
      c6:	0e 1b       	addx	r1h,r3l
      c8:	0e 11       	addx	r1h,r1h
      ca:	01 12       	.word	H'1,H'12
      cc:	06 10       	andc	#0x10,ccr
      ce:	17 00       	not.b	r0h
      d0:	00 02       	.word	H'0,H'2
      d2:	24 00       	mov.b	@0x0:8,r4h
      d4:	0b 0b       	adds	#1,er3
      d6:	3e 0b       	mov.b	r6l,@0xb:8
      d8:	03 0e       	ldc	r6l,ccr
      da:	00 00       	nop	
      dc:	03 24       	ldmac	er4,mach
      de:	00 0b       	.word	H'0,H'b
      e0:	0b 3e       	.word	H'b,H'3e
      e2:	0b 03       	adds	#1,er3
      e4:	08 00       	add.b	r0h,r0h
      e6:	00 04       	.word	H'0,H'4
      e8:	34 00       	mov.b	r4h,@0x0:8
      ea:	03 0e       	ldc	r6l,ccr
      ec:	3a 0b       	mov.b	r2l,@0xb:8
      ee:	3b 0b       	mov.b	r3l,@0xb:8
      f0:	49 13       	.word	H'49,H'13
      f2:	3f 19       	mov.b	r7l,@0x19:8
      f4:	3c 19       	mov.b	r4l,@0x19:8
      f6:	00 00       	nop	
      f8:	05 16       	xorc	#0x16,ccr
      fa:	00 03       	.word	H'0,H'3
      fc:	0e 3a       	addx	r3h,r2l
      fe:	0b 3b       	.word	H'b,H'3b
     100:	0b 49       	.word	H'b,H'49
     102:	13 00       	rotxr.b	r0h
     104:	00 06       	.word	H'0,H'6
     106:	0f 00       	daa	r0h
     108:	0b 0b       	adds	#1,er3
     10a:	49 13       	.word	H'49,H'13
     10c:	00 00       	nop	
     10e:	07 15       	ldc	#0x15,ccr
     110:	01 27       	.word	H'1,H'27
     112:	19 01       	sub.w	r0,r1
     114:	13 00       	rotxr.b	r0h
     116:	00 08       	.word	H'0,H'8
     118:	05 00       	xorc	#0x0,ccr
     11a:	49 13       	.word	H'49,H'13
     11c:	00 00       	nop	
     11e:	09 2e       	add.w	r2,e6
     120:	01 3f       	.word	H'1,H'3f
     122:	19 03       	sub.w	r0,r3
     124:	0e 3a       	addx	r3h,r2l
     126:	0b 3b       	.word	H'b,H'3b
     128:	0b 27       	.word	H'b,H'27
     12a:	19 11       	sub.w	r1,r1
     12c:	01 12       	.word	H'1,H'12
     12e:	06 40       	andc	#0x40,ccr
     130:	18 97       	sub.b	r1l,r7h
     132:	42 19       	.word	H'42,H'19
     134:	01 13       	.word	H'1,H'13
     136:	00 00       	nop	
     138:	0a 05       	inc	r5h
     13a:	00 03       	.word	H'0,H'3
     13c:	0e 3a       	addx	r3h,r2l
     13e:	0b 3b       	.word	H'b,H'3b
     140:	0b 49       	.word	H'b,H'49
     142:	13 02       	rotxr.b	r2h
     144:	17 00       	not.b	r0h
     146:	00 0b       	.word	H'0,H'b
     148:	05 00       	xorc	#0x0,ccr
     14a:	03 08       	ldc	r0l,ccr
     14c:	3a 0b       	mov.b	r2l,@0xb:8
     14e:	3b 0b       	mov.b	r3l,@0xb:8
     150:	49 13       	.word	H'49,H'13
     152:	02 17       	stc	exr,r7h
     154:	00 00       	nop	
     156:	0c 34       	mov.b	r3h,r4h
     158:	00 03       	.word	H'0,H'3
     15a:	0e 3a       	addx	r3h,r2l
     15c:	0b 3b       	.word	H'b,H'3b
     15e:	0b 49       	.word	H'b,H'49
     160:	13 02       	rotxr.b	r2h
     162:	17 00       	not.b	r0h
     164:	00 0d       	.word	H'0,H'd
     166:	89 82       	add.b	#0x82,r1l
     168:	01 01       	.word	H'1,H'1
     16a:	11 01       	shlr.b	r1h
     16c:	00 00       	nop	
     16e:	0e 8a       	addx	r0l,r2l
     170:	82 01       	add.b	#0x1,r2h
     172:	00 02       	.word	H'0,H'2
     174:	18 91       	sub.b	r1l,r1h
     176:	42 18       	bhi	.+24 (0x190)
     178:	00 00       	nop	
     17a:	0f 2e       	mov.w	#0x2,e6
     17c:	01 3f       	.word	H'1,H'3f
     17e:	19 03       	sub.w	r0,r3
     180:	0e 3a       	addx	r3h,r2l
     182:	0b 3b       	.word	H'b,H'3b
     184:	0b 27       	.word	H'b,H'27
     186:	19 49       	sub.w	r4,e1
     188:	13 20       	.word	H'13,H'20
     18a:	0b 01       	adds	#1,er1
     18c:	13 00       	rotxr.b	r0h
     18e:	00 10       	.word	H'0,H'10
     190:	05 00       	xorc	#0x0,ccr
     192:	03 0e       	ldc	r6l,ccr
     194:	3a 0b       	mov.b	r2l,@0xb:8
     196:	3b 0b       	mov.b	r3l,@0xb:8
     198:	49 13       	.word	H'49,H'13
     19a:	00 00       	nop	
     19c:	11 2e       	shlr.w	#4,e6
     19e:	01 3f       	.word	H'1,H'3f
     1a0:	19 03       	sub.w	r0,r3
     1a2:	0e 3a       	addx	r3h,r2l
     1a4:	0b 3b       	.word	H'b,H'3b
     1a6:	0b 27       	.word	H'b,H'27
     1a8:	19 49       	sub.w	r4,e1
     1aa:	13 11       	rotxr.w	r1
     1ac:	01 12       	.word	H'1,H'12
     1ae:	06 40       	andc	#0x40,ccr
     1b0:	18 97       	sub.b	r1l,r7h
     1b2:	42 19       	.word	H'42,H'19
     1b4:	01 13       	.word	H'1,H'13
     1b6:	00 00       	nop	
     1b8:	12 1d       	rotxl.w	e5
     1ba:	01 31       	.word	H'1,H'31
     1bc:	13 11       	rotxr.w	r1
     1be:	01 12       	.word	H'1,H'12
     1c0:	06 58       	andc	#0x58,ccr
     1c2:	0b 59       	inc.w	#1,e1
     1c4:	0b 00       	adds	#1,er0
     1c6:	00 13       	.word	H'0,H'13
     1c8:	05 00       	xorc	#0x0,ccr
     1ca:	31 13       	mov.b	r1h,@0x13:8
     1cc:	02 17       	stc	exr,r7h
     1ce:	00 00       	nop	
     1d0:	14 2e       	or.b	r2h,r6l
     1d2:	01 31       	.word	H'1,H'31
     1d4:	13 11       	rotxr.w	r1
     1d6:	01 12       	.word	H'1,H'12
     1d8:	06 40       	andc	#0x40,ccr
     1da:	18 97       	sub.b	r1l,r7h
     1dc:	42 19       	.word	H'42,H'19
     1de:	00 00       	nop	
     1e0:	15 05       	xor.b	r0h,r5h
     1e2:	00 31       	.word	H'0,H'31
     1e4:	13 02       	rotxr.b	r2h
     1e6:	18 00       	sub.b	r0h,r0h
	...

000001ea <.Ldebug_abbrev0>:
     1ea:	01 11       	.word	H'1,H'11
     1ec:	01 25       	.word	H'1,H'25
     1ee:	0e 13       	addx	r1h,r3h
     1f0:	0b 03       	adds	#1,er3
     1f2:	0e 1b       	addx	r1h,r3l
     1f4:	0e 11       	addx	r1h,r1h
     1f6:	01 12       	.word	H'1,H'12
     1f8:	06 10       	andc	#0x10,ccr
     1fa:	17 00       	not.b	r0h
     1fc:	00 02       	.word	H'0,H'2
     1fe:	24 00       	mov.b	@0x0:8,r4h
     200:	0b 0b       	adds	#1,er3
     202:	3e 0b       	mov.b	r6l,@0xb:8
     204:	03 0e       	ldc	r6l,ccr
     206:	00 00       	nop	
     208:	03 24       	ldmac	er4,mach
     20a:	00 0b       	.word	H'0,H'b
     20c:	0b 3e       	.word	H'b,H'3e
     20e:	0b 03       	adds	#1,er3
     210:	08 00       	add.b	r0h,r0h
     212:	00 04       	.word	H'0,H'4
     214:	0f 00       	daa	r0h
     216:	0b 0b       	adds	#1,er3
     218:	49 13       	.word	H'49,H'13
     21a:	00 00       	nop	
     21c:	05 26       	xorc	#0x26,ccr
     21e:	00 49       	.word	H'0,H'49
     220:	13 00       	rotxr.b	r0h
     222:	00 06       	.word	H'0,H'6
     224:	2e 01       	mov.b	@0x1:8,r6l
     226:	3f 19       	mov.b	r7l,@0x19:8
     228:	03 0e       	ldc	r6l,ccr
     22a:	3a 0b       	mov.b	r2l,@0xb:8
     22c:	3b 0b       	mov.b	r3l,@0xb:8
     22e:	27 19       	mov.b	@0x19:8,r7h
     230:	49 13       	.word	H'49,H'13
     232:	11 01       	shlr.b	r1h
     234:	12 06       	rotxl.b	r6h
     236:	40 18       	bra	.+24 (0x250)
     238:	97 42       	addx	#0x42,r7h
     23a:	19 01       	sub.w	r0,r1
     23c:	13 00       	rotxr.b	r0h
     23e:	00 07       	.word	H'0,H'7
     240:	05 00       	xorc	#0x0,ccr
     242:	03 0e       	ldc	r6l,ccr
     244:	3a 0b       	mov.b	r2l,@0xb:8
     246:	3b 0b       	mov.b	r3l,@0xb:8
     248:	49 13       	.word	H'49,H'13
     24a:	02 17       	stc	exr,r7h
     24c:	00 00       	nop	
     24e:	08 34       	add.b	r3h,r4h
     250:	00 03       	.word	H'0,H'3
     252:	08 3a       	add.b	r3h,r2l
     254:	0b 3b       	.word	H'b,H'3b
     256:	0b 49       	.word	H'b,H'49
     258:	13 02       	rotxr.b	r2h
     25a:	18 00       	sub.b	r0h,r0h
     25c:	00 09       	.word	H'0,H'9
     25e:	34 00       	mov.b	r4h,@0x0:8
     260:	03 08       	ldc	r0l,ccr
     262:	3a 0b       	mov.b	r2l,@0xb:8
     264:	3b 0b       	mov.b	r3l,@0xb:8
     266:	49 13       	.word	H'49,H'13
     268:	02 17       	stc	exr,r7h
     26a:	00 00       	nop	
     26c:	0a 89       	.word	H'a,H'89
     26e:	82 01       	add.b	#0x1,r2h
     270:	00 11       	.word	H'0,H'11
     272:	01 31       	.word	H'1,H'31
     274:	13 00       	rotxr.b	r0h
     276:	00 0b       	.word	H'0,H'b
     278:	01 01       	.word	H'1,H'1
     27a:	49 13       	.word	H'49,H'13
     27c:	01 13       	.word	H'1,H'13
     27e:	00 00       	nop	
     280:	0c 21       	mov.b	r2h,r1h
     282:	00 49       	.word	H'0,H'49
     284:	13 2f       	.word	H'13,H'2f
     286:	0b 00       	adds	#1,er0
     288:	00 0d       	.word	H'0,H'd
     28a:	05 00       	xorc	#0x0,ccr
     28c:	03 08       	ldc	r0l,ccr
     28e:	3a 0b       	mov.b	r2l,@0xb:8
     290:	3b 0b       	mov.b	r3l,@0xb:8
     292:	49 13       	.word	H'49,H'13
     294:	02 17       	stc	exr,r7h
     296:	00 00       	nop	
     298:	0e 89       	addx	r0l,r1l
     29a:	82 01       	add.b	#0x1,r2h
     29c:	01 11       	.word	H'1,H'11
     29e:	01 31       	.word	H'1,H'31
     2a0:	13 01       	rotxr.b	r1h
     2a2:	13 00       	rotxr.b	r0h
     2a4:	00 0f       	.word	H'0,H'f
     2a6:	8a 82       	add.b	#0x82,r2l
     2a8:	01 00       	.word	H'1,H'0
     2aa:	02 18       	stc	exr,r0l
     2ac:	91 42       	addx	#0x42,r1h
     2ae:	18 00       	sub.b	r0h,r0h
     2b0:	00 10       	.word	H'0,H'10
     2b2:	89 82       	add.b	#0x82,r1l
     2b4:	01 01       	.word	H'1,H'1
     2b6:	11 01       	shlr.b	r1h
     2b8:	31 13       	mov.b	r1h,@0x13:8
     2ba:	00 00       	nop	
     2bc:	11 26       	shlr.w	#4,r6
     2be:	00 00       	nop	
     2c0:	00 12       	.word	H'0,H'12
     2c2:	05 00       	xorc	#0x0,ccr
     2c4:	03 08       	ldc	r0l,ccr
     2c6:	3a 0b       	mov.b	r2l,@0xb:8
     2c8:	3b 0b       	mov.b	r3l,@0xb:8
     2ca:	49 13       	.word	H'49,H'13
     2cc:	02 18       	stc	exr,r0l
     2ce:	00 00       	nop	
     2d0:	13 0f       	rotxr.b	r7l
     2d2:	00 0b       	.word	H'0,H'b
     2d4:	0b 00       	adds	#1,er0
     2d6:	00 14       	.word	H'0,H'14
     2d8:	2e 00       	mov.b	@0x0:8,r6l
     2da:	3f 19       	mov.b	r7l,@0x19:8
     2dc:	3c 19       	mov.b	r4l,@0x19:8
     2de:	6e 0e 03 0e 	mov.b	@(0x30e:16,er0),r6l
     2e2:	3a 0b       	mov.b	r2l,@0xb:8
     2e4:	3b 0b       	mov.b	r3l,@0xb:8
     2e6:	00 00       	nop	
	...

000002e9 <.Ldebug_abbrev0>:
     2e9:	01 11       	.word	H'1,H'11
     2eb:	01 25       	.word	H'1,H'25
     2ed:	0e 13       	addx	r1h,r3h
     2ef:	0b 03       	adds	#1,er3
     2f1:	0e 1b       	addx	r1h,r3l
     2f3:	0e 11       	addx	r1h,r1h
     2f5:	01 12       	.word	H'1,H'12
     2f7:	06 10       	andc	#0x10,ccr
     2f9:	17 00       	not.b	r0h
     2fb:	00 02       	.word	H'0,H'2
     2fd:	16 00       	and.b	r0h,r0h
     2ff:	03 0e       	ldc	r6l,ccr
     301:	3a 0b       	mov.b	r2l,@0xb:8
     303:	3b 0b       	mov.b	r3l,@0xb:8
     305:	49 13       	.word	H'49,H'13
     307:	00 00       	nop	
     309:	03 35       	ldmac	er5,macl
     30b:	00 49       	.word	H'0,H'49
     30d:	13 00       	rotxr.b	r0h
     30f:	00 04       	.word	H'0,H'4
     311:	24 00       	mov.b	@0x0:8,r4h
     313:	0b 0b       	adds	#1,er3
     315:	3e 0b       	mov.b	r6l,@0xb:8
     317:	03 0e       	ldc	r6l,ccr
     319:	00 00       	nop	
     31b:	05 24       	xorc	#0x24,ccr
     31d:	00 0b       	.word	H'0,H'b
     31f:	0b 3e       	.word	H'b,H'3e
     321:	0b 03       	adds	#1,er3
     323:	08 00       	add.b	r0h,r0h
     325:	00 06       	.word	H'0,H'6
     327:	13 01       	rotxr.b	r1h
     329:	03 0e       	ldc	r6l,ccr
     32b:	0b 0b       	adds	#1,er3
     32d:	3a 0b       	mov.b	r2l,@0xb:8
     32f:	3b 0b       	mov.b	r3l,@0xb:8
     331:	01 13       	.word	H'1,H'13
     333:	00 00       	nop	
     335:	07 0d       	ldc	#0xd,ccr
     337:	00 03       	.word	H'0,H'3
     339:	08 3a       	add.b	r3h,r2l
     33b:	0b 3b       	.word	H'b,H'3b
     33d:	0b 49       	.word	H'b,H'49
     33f:	13 38       	.word	H'13,H'38
     341:	0b 00       	adds	#1,er0
     343:	00 08       	.word	H'0,H'8
     345:	0d 00       	mov.w	r0,r0
     347:	03 0e       	ldc	r6l,ccr
     349:	3a 0b       	mov.b	r2l,@0xb:8
     34b:	3b 0b       	mov.b	r3l,@0xb:8
     34d:	49 13       	.word	H'49,H'13
     34f:	38 0b       	mov.b	r0l,@0xb:8
     351:	00 00       	nop	
     353:	09 13       	add.w	r1,r3
     355:	01 0b       	.word	H'1,H'b
     357:	0b 3a       	.word	H'b,H'3a
     359:	0b 3b       	.word	H'b,H'3b
     35b:	0b 01       	adds	#1,er1
     35d:	13 00       	rotxr.b	r0h
     35f:	00 0a       	.word	H'0,H'a
     361:	0f 00       	daa	r0h
     363:	0b 0b       	adds	#1,er3
     365:	49 13       	.word	H'49,H'13
     367:	00 00       	nop	
     369:	0b 01       	adds	#1,er1
     36b:	01 49       	.word	H'1,H'49
     36d:	13 01       	rotxr.b	r1h
     36f:	13 00       	rotxr.b	r0h
     371:	00 0c       	.word	H'0,H'c
     373:	21 00       	mov.b	@0x0:8,r1h
     375:	49 13       	.word	H'49,H'13
     377:	2f 0b       	mov.b	@0xb:8,r7l
     379:	00 00       	nop	
     37b:	0d 34       	mov.w	r3,r4
     37d:	00 03       	.word	H'0,H'3
     37f:	0e 3a       	addx	r3h,r2l
     381:	0b 3b       	.word	H'b,H'3b
     383:	0b 49       	.word	H'b,H'49
     385:	13 02       	rotxr.b	r2h
     387:	18 00       	sub.b	r0h,r0h
     389:	00 0e       	.word	H'0,H'e
     38b:	2e 01       	mov.b	@0x1:8,r6l
     38d:	3f 19       	mov.b	r7l,@0x19:8
     38f:	03 0e       	ldc	r6l,ccr
     391:	3a 0b       	mov.b	r2l,@0xb:8
     393:	3b 0b       	mov.b	r3l,@0xb:8
     395:	27 19       	mov.b	@0x19:8,r7h
     397:	11 01       	shlr.b	r1h
     399:	12 06       	rotxl.b	r6h
     39b:	40 18       	bra	.+24 (0x3b5)
     39d:	97 42       	addx	#0x42,r7h
     39f:	19 01       	sub.w	r0,r1
     3a1:	13 00       	rotxr.b	r0h
     3a3:	00 0f       	.word	H'0,H'f
     3a5:	05 00       	xorc	#0x0,ccr
     3a7:	03 0e       	ldc	r6l,ccr
     3a9:	3a 0b       	mov.b	r2l,@0xb:8
     3ab:	3b 0b       	mov.b	r3l,@0xb:8
     3ad:	49 13       	.word	H'49,H'13
     3af:	02 17       	stc	exr,r7h
     3b1:	00 00       	nop	
     3b3:	10 34       	shll.l	er4
     3b5:	00 03       	.word	H'0,H'3
     3b7:	08 3a       	add.b	r3h,r2l
     3b9:	0b 3b       	.word	H'b,H'3b
     3bb:	0b 49       	.word	H'b,H'49
     3bd:	13 02       	rotxr.b	r2h
     3bf:	18 00       	sub.b	r0h,r0h
     3c1:	00 11       	.word	H'0,H'11
     3c3:	2e 01       	mov.b	@0x1:8,r6l
     3c5:	3f 19       	mov.b	r7l,@0x19:8
     3c7:	03 0e       	ldc	r6l,ccr
     3c9:	3a 0b       	mov.b	r2l,@0xb:8
     3cb:	3b 0b       	mov.b	r3l,@0xb:8
     3cd:	27 19       	mov.b	@0x19:8,r7h
     3cf:	49 13       	.word	H'49,H'13
     3d1:	11 01       	shlr.b	r1h
     3d3:	12 06       	rotxl.b	r6h
     3d5:	40 18       	bra	.+24 (0x3ef)
     3d7:	97 42       	addx	#0x42,r7h
     3d9:	19 01       	sub.w	r0,r1
     3db:	13 00       	rotxr.b	r0h
     3dd:	00 12       	.word	H'0,H'12
     3df:	1d 01       	cmp.w	r0,r1
     3e1:	31 13       	mov.b	r1h,@0x13:8
     3e3:	11 01       	shlr.b	r1h
     3e5:	12 06       	rotxl.b	r6h
     3e7:	58 0b       	.word	H'58,H'b
     3e9:	59 0b       	.word	H'59,H'b
     3eb:	00 00       	nop	
     3ed:	13 05       	rotxr.b	r5h
     3ef:	00 31       	.word	H'0,H'31
     3f1:	13 02       	rotxr.b	r2h
     3f3:	17 00       	not.b	r0h
     3f5:	00 14       	.word	H'0,H'14
     3f7:	0b 01       	adds	#1,er1
     3f9:	11 01       	shlr.b	r1h
     3fb:	12 06       	rotxl.b	r6h
     3fd:	00 00       	nop	
     3ff:	15 34       	xor.b	r3h,r4h
     401:	00 31       	.word	H'0,H'31
     403:	13 00       	rotxr.b	r0h
     405:	00 16       	.word	H'0,H'16
     407:	2e 01       	mov.b	@0x1:8,r6l
     409:	3f 19       	mov.b	r7l,@0x19:8
     40b:	03 0e       	ldc	r6l,ccr
     40d:	3a 0b       	mov.b	r2l,@0xb:8
     40f:	3b 0b       	mov.b	r3l,@0xb:8
     411:	27 19       	mov.b	@0x19:8,r7h
     413:	49 13       	.word	H'49,H'13
     415:	20 0b       	mov.b	@0xb:8,r0h
     417:	01 13       	.word	H'1,H'13
     419:	00 00       	nop	
     41b:	17 05       	not.b	r5h
     41d:	00 03       	.word	H'0,H'3
     41f:	0e 3a       	addx	r3h,r2l
     421:	0b 3b       	.word	H'b,H'3b
     423:	0b 49       	.word	H'b,H'49
     425:	13 00       	rotxr.b	r0h
     427:	00 18       	.word	H'0,H'18
     429:	34 00       	mov.b	r4h,@0x0:8
     42b:	03 08       	ldc	r0l,ccr
     42d:	3a 0b       	mov.b	r2l,@0xb:8
     42f:	3b 0b       	mov.b	r3l,@0xb:8
     431:	49 13       	.word	H'49,H'13
     433:	00 00       	nop	
     435:	19 05       	sub.w	r0,r5
     437:	00 03       	.word	H'0,H'3
     439:	08 3a       	add.b	r3h,r2l
     43b:	0b 3b       	.word	H'b,H'3b
     43d:	0b 49       	.word	H'b,H'49
     43f:	13 02       	rotxr.b	r2h
     441:	18 00       	sub.b	r0h,r0h
     443:	00 1a       	.word	H'0,H'1a
     445:	2e 01       	mov.b	@0x1:8,r6l
     447:	31 13       	mov.b	r1h,@0x13:8
     449:	11 01       	shlr.b	r1h
     44b:	12 06       	rotxl.b	r6h
     44d:	40 18       	bra	.+24 (0x467)
     44f:	97 42       	addx	#0x42,r7h
     451:	19 01       	sub.w	r0,r1
     453:	13 00       	rotxr.b	r0h
     455:	00 1b       	.word	H'0,H'1b
     457:	34 00       	mov.b	r4h,@0x0:8
     459:	31 13       	mov.b	r1h,@0x13:8
     45b:	02 18       	stc	exr,r0l
     45d:	00 00       	nop	
     45f:	1c 2e       	cmp.b	r2h,r6l
     461:	01 31       	.word	H'1,H'31
     463:	13 11       	rotxr.w	r1
     465:	01 12       	.word	H'1,H'12
     467:	06 40       	andc	#0x40,ccr
     469:	18 97       	sub.b	r1l,r7h
     46b:	42 19       	.word	H'42,H'19
     46d:	00 00       	nop	
	...

00000470 <.Ldebug_abbrev0>:
     470:	01 11       	.word	H'1,H'11
     472:	01 25       	.word	H'1,H'25
     474:	0e 13       	addx	r1h,r3h
     476:	0b 03       	adds	#1,er3
     478:	0e 1b       	addx	r1h,r3l
     47a:	0e 11       	addx	r1h,r1h
     47c:	01 12       	.word	H'1,H'12
     47e:	06 10       	andc	#0x10,ccr
     480:	17 00       	not.b	r0h
     482:	00 02       	.word	H'0,H'2
     484:	16 00       	and.b	r0h,r0h
     486:	03 0e       	ldc	r6l,ccr
     488:	3a 0b       	mov.b	r2l,@0xb:8
     48a:	3b 0b       	mov.b	r3l,@0xb:8
     48c:	49 13       	.word	H'49,H'13
     48e:	00 00       	nop	
     490:	03 35       	ldmac	er5,macl
     492:	00 49       	.word	H'0,H'49
     494:	13 00       	rotxr.b	r0h
     496:	00 04       	.word	H'0,H'4
     498:	24 00       	mov.b	@0x0:8,r4h
     49a:	0b 0b       	adds	#1,er3
     49c:	3e 0b       	mov.b	r6l,@0xb:8
     49e:	03 0e       	ldc	r6l,ccr
     4a0:	00 00       	nop	
     4a2:	05 24       	xorc	#0x24,ccr
     4a4:	00 0b       	.word	H'0,H'b
     4a6:	0b 3e       	.word	H'b,H'3e
     4a8:	0b 03       	adds	#1,er3
     4aa:	08 00       	add.b	r0h,r0h
     4ac:	00 06       	.word	H'0,H'6
     4ae:	13 01       	rotxr.b	r1h
     4b0:	03 0e       	ldc	r6l,ccr
     4b2:	0b 0b       	adds	#1,er3
     4b4:	3a 0b       	mov.b	r2l,@0xb:8
     4b6:	3b 0b       	mov.b	r3l,@0xb:8
     4b8:	01 13       	.word	H'1,H'13
     4ba:	00 00       	nop	
     4bc:	07 0d       	ldc	#0xd,ccr
     4be:	00 03       	.word	H'0,H'3
     4c0:	0e 3a       	addx	r3h,r2l
     4c2:	0b 3b       	.word	H'b,H'3b
     4c4:	0b 49       	.word	H'b,H'49
     4c6:	13 38       	.word	H'13,H'38
     4c8:	0b 00       	adds	#1,er0
     4ca:	00 08       	.word	H'0,H'8
     4cc:	13 01       	rotxr.b	r1h
     4ce:	0b 0b       	adds	#1,er3
     4d0:	3a 0b       	mov.b	r2l,@0xb:8
     4d2:	3b 0b       	mov.b	r3l,@0xb:8
     4d4:	01 13       	.word	H'1,H'13
     4d6:	00 00       	nop	
     4d8:	09 0d       	add.w	r0,e5
     4da:	00 03       	.word	H'0,H'3
     4dc:	08 3a       	add.b	r3h,r2l
     4de:	0b 3b       	.word	H'b,H'3b
     4e0:	0b 49       	.word	H'b,H'49
     4e2:	13 38       	.word	H'13,H'38
     4e4:	0b 00       	adds	#1,er0
     4e6:	00 0a       	.word	H'0,H'a
     4e8:	0f 00       	daa	r0h
     4ea:	0b 0b       	adds	#1,er3
     4ec:	49 13       	.word	H'49,H'13
     4ee:	00 00       	nop	
     4f0:	0b 01       	adds	#1,er1
     4f2:	01 49       	.word	H'1,H'49
     4f4:	13 01       	rotxr.b	r1h
     4f6:	13 00       	rotxr.b	r0h
     4f8:	00 0c       	.word	H'0,H'c
     4fa:	21 00       	mov.b	@0x0:8,r1h
     4fc:	49 13       	.word	H'49,H'13
     4fe:	2f 0b       	mov.b	@0xb:8,r7l
     500:	00 00       	nop	
     502:	0d 34       	mov.w	r3,r4
     504:	00 03       	.word	H'0,H'3
     506:	0e 3a       	addx	r3h,r2l
     508:	0b 3b       	.word	H'b,H'3b
     50a:	0b 49       	.word	H'b,H'49
     50c:	13 02       	rotxr.b	r2h
     50e:	18 00       	sub.b	r0h,r0h
     510:	00 0e       	.word	H'0,H'e
     512:	2e 01       	mov.b	@0x1:8,r6l
     514:	3f 19       	mov.b	r7l,@0x19:8
     516:	03 0e       	ldc	r6l,ccr
     518:	3a 0b       	mov.b	r2l,@0xb:8
     51a:	3b 0b       	mov.b	r3l,@0xb:8
     51c:	27 19       	mov.b	@0x19:8,r7h
     51e:	49 13       	.word	H'49,H'13
     520:	11 01       	shlr.b	r1h
     522:	12 06       	rotxl.b	r6h
     524:	40 18       	bra	.+24 (0x53e)
     526:	97 42       	addx	#0x42,r7h
     528:	19 01       	sub.w	r0,r1
     52a:	13 00       	rotxr.b	r0h
     52c:	00 0f       	.word	H'0,H'f
     52e:	05 00       	xorc	#0x0,ccr
     530:	03 0e       	ldc	r6l,ccr
     532:	3a 0b       	mov.b	r2l,@0xb:8
     534:	3b 0b       	mov.b	r3l,@0xb:8
     536:	49 13       	.word	H'49,H'13
     538:	02 17       	stc	exr,r7h
     53a:	00 00       	nop	
     53c:	10 34       	shll.l	er4
     53e:	00 03       	.word	H'0,H'3
     540:	08 3a       	add.b	r3h,r2l
     542:	0b 3b       	.word	H'b,H'3b
     544:	0b 49       	.word	H'b,H'49
     546:	13 02       	rotxr.b	r2h
     548:	17 00       	not.b	r0h
     54a:	00 11       	.word	H'0,H'11
     54c:	89 82       	add.b	#0x82,r1l
     54e:	01 01       	.word	H'1,H'1
     550:	11 01       	shlr.b	r1h
     552:	31 13       	mov.b	r1h,@0x13:8
     554:	00 00       	nop	
     556:	12 8a       	rotl.b	r2l
     558:	82 01       	add.b	#0x1,r2h
     55a:	00 02       	.word	H'0,H'2
     55c:	18 91       	sub.b	r1l,r1h
     55e:	42 18       	bhi	.+24 (0x578)
     560:	00 00       	nop	
     562:	13 34       	rotxr.l	er4
     564:	00 03       	.word	H'0,H'3
     566:	08 3a       	add.b	r3h,r2l
     568:	0b 3b       	.word	H'b,H'3b
     56a:	0b 49       	.word	H'b,H'49
     56c:	13 02       	rotxr.b	r2h
     56e:	18 00       	sub.b	r0h,r0h
     570:	00 14       	.word	H'0,H'14
     572:	2e 01       	mov.b	@0x1:8,r6l
     574:	3f 19       	mov.b	r7l,@0x19:8
     576:	03 0e       	ldc	r6l,ccr
     578:	3a 0b       	mov.b	r2l,@0xb:8
     57a:	3b 0b       	mov.b	r3l,@0xb:8
     57c:	27 19       	mov.b	@0x19:8,r7h
     57e:	49 13       	.word	H'49,H'13
     580:	11 01       	shlr.b	r1h
     582:	12 06       	rotxl.b	r6h
     584:	40 18       	bra	.+24 (0x59e)
     586:	97 42       	addx	#0x42,r7h
     588:	19 00       	sub.w	r0,r0
     58a:	00 15       	.word	H'0,H'15
     58c:	34 00       	mov.b	r4h,@0x0:8
     58e:	03 0e       	ldc	r6l,ccr
     590:	3a 0b       	mov.b	r2l,@0xb:8
     592:	3b 0b       	mov.b	r3l,@0xb:8
     594:	49 13       	.word	H'49,H'13
     596:	02 17       	stc	exr,r7h
     598:	00 00       	nop	
	...

0000059b <.Ldebug_abbrev0>:
     59b:	01 11       	.word	H'1,H'11
     59d:	01 25       	.word	H'1,H'25
     59f:	0e 13       	addx	r1h,r3h
     5a1:	0b 03       	adds	#1,er3
     5a3:	0e 1b       	addx	r1h,r3l
     5a5:	0e 11       	addx	r1h,r1h
     5a7:	01 12       	.word	H'1,H'12
     5a9:	06 10       	andc	#0x10,ccr
     5ab:	17 00       	not.b	r0h
     5ad:	00 02       	.word	H'0,H'2
     5af:	24 00       	mov.b	@0x0:8,r4h
     5b1:	0b 0b       	adds	#1,er3
     5b3:	3e 0b       	mov.b	r6l,@0xb:8
     5b5:	03 0e       	ldc	r6l,ccr
     5b7:	00 00       	nop	
     5b9:	03 16       	ldc	r6h,exr
     5bb:	00 03       	.word	H'0,H'3
     5bd:	0e 3a       	addx	r3h,r2l
     5bf:	0b 3b       	.word	H'b,H'3b
     5c1:	0b 49       	.word	H'b,H'49
     5c3:	13 00       	rotxr.b	r0h
     5c5:	00 04       	.word	H'0,H'4
     5c7:	0f 00       	daa	r0h
     5c9:	0b 0b       	adds	#1,er3
     5cb:	49 13       	.word	H'49,H'13
     5cd:	00 00       	nop	
     5cf:	05 15       	xorc	#0x15,ccr
     5d1:	01 27       	.word	H'1,H'27
     5d3:	19 49       	sub.w	r4,e1
     5d5:	13 01       	rotxr.b	r1h
     5d7:	13 00       	rotxr.b	r0h
     5d9:	00 06       	.word	H'0,H'6
     5db:	05 00       	xorc	#0x0,ccr
     5dd:	49 13       	.word	H'49,H'13
     5df:	00 00       	nop	
     5e1:	07 24       	ldc	#0x24,ccr
     5e3:	00 0b       	.word	H'0,H'b
     5e5:	0b 3e       	.word	H'b,H'3e
     5e7:	0b 03       	adds	#1,er3
     5e9:	08 00       	add.b	r0h,r0h
     5eb:	00 08       	.word	H'0,H'8
     5ed:	15 00       	xor.b	r0h,r0h
     5ef:	27 19       	mov.b	@0x19:8,r7h
     5f1:	00 00       	nop	
     5f3:	09 04       	add.w	r0,r4
     5f5:	01 3e       	.word	H'1,H'3e
     5f7:	0b 0b       	adds	#1,er3
     5f9:	0b 49       	.word	H'b,H'49
     5fb:	13 3a       	.word	H'13,H'3a
     5fd:	0b 3b       	.word	H'b,H'3b
     5ff:	0b 01       	adds	#1,er1
     601:	13 00       	rotxr.b	r0h
     603:	00 0a       	.word	H'0,H'a
     605:	28 00       	mov.b	@0x0:8,r0l
     607:	03 0e       	ldc	r6l,ccr
     609:	1c 0b       	cmp.b	r0h,r3l
     60b:	00 00       	nop	
     60d:	0b 34       	.word	H'b,H'34
     60f:	00 03       	.word	H'0,H'3
     611:	0e 3a       	addx	r3h,r2l
     613:	0b 3b       	.word	H'b,H'3b
     615:	0b 49       	.word	H'b,H'49
     617:	13 3f       	.word	H'13,H'3f
     619:	19 3c       	sub.w	r3,e4
     61b:	19 00       	sub.w	r0,r0
     61d:	00 0c       	.word	H'0,H'c
     61f:	13 01       	rotxr.b	r1h
     621:	0b 0b       	adds	#1,er3
     623:	3a 0b       	mov.b	r2l,@0xb:8
     625:	3b 0b       	mov.b	r3l,@0xb:8
     627:	01 13       	.word	H'1,H'13
     629:	00 00       	nop	
     62b:	0d 0d       	mov.w	r0,e5
     62d:	00 03       	.word	H'0,H'3
     62f:	0e 3a       	addx	r3h,r2l
     631:	0b 3b       	.word	H'b,H'3b
     633:	0b 49       	.word	H'b,H'49
     635:	13 38       	.word	H'13,H'38
     637:	0b 00       	adds	#1,er0
     639:	00 0e       	.word	H'0,H'e
     63b:	0d 00       	mov.w	r0,r0
     63d:	03 08       	ldc	r0l,ccr
     63f:	3a 0b       	mov.b	r2l,@0xb:8
     641:	3b 0b       	mov.b	r3l,@0xb:8
     643:	49 13       	.word	H'49,H'13
     645:	38 0b       	mov.b	r0l,@0xb:8
     647:	00 00       	nop	
     649:	0f 0f       	daa	r7l
     64b:	00 0b       	.word	H'0,H'b
     64d:	0b 00       	adds	#1,er0
     64f:	00 10       	.word	H'0,H'10
     651:	17 01       	not.b	r1h
     653:	0b 0b       	adds	#1,er3
     655:	3a 0b       	mov.b	r2l,@0xb:8
     657:	3b 0b       	mov.b	r3l,@0xb:8
     659:	01 13       	.word	H'1,H'13
     65b:	00 00       	nop	
     65d:	11 0d       	shlr.b	r5l
     65f:	00 03       	.word	H'0,H'3
     661:	08 3a       	add.b	r3h,r2l
     663:	0b 3b       	.word	H'b,H'3b
     665:	0b 49       	.word	H'b,H'49
     667:	13 00       	rotxr.b	r0h
     669:	00 12       	.word	H'0,H'12
     66b:	0d 00       	mov.w	r0,r0
     66d:	03 0e       	ldc	r6l,ccr
     66f:	3a 0b       	mov.b	r2l,@0xb:8
     671:	3b 0b       	mov.b	r3l,@0xb:8
     673:	49 13       	.word	H'49,H'13
     675:	00 00       	nop	
     677:	13 13       	rotxr.w	r3
     679:	01 03       	.word	H'1,H'3
     67b:	0e 0b       	addx	r0h,r3l
     67d:	0b 3a       	.word	H'b,H'3a
     67f:	0b 3b       	.word	H'b,H'3b
     681:	0b 01       	adds	#1,er1
     683:	13 00       	rotxr.b	r0h
     685:	00 14       	.word	H'0,H'14
     687:	01 01       	.word	H'1,H'1
     689:	49 13       	.word	H'49,H'13
     68b:	01 13       	.word	H'1,H'13
     68d:	00 00       	nop	
     68f:	15 21       	xor.b	r2h,r1h
     691:	00 49       	.word	H'0,H'49
     693:	13 2f       	.word	H'13,H'2f
     695:	0b 00       	adds	#1,er0
     697:	00 16       	.word	H'0,H'16
     699:	34 00       	mov.b	r4h,@0x0:8
     69b:	03 0e       	ldc	r6l,ccr
     69d:	3a 0b       	mov.b	r2l,@0xb:8
     69f:	3b 0b       	mov.b	r3l,@0xb:8
     6a1:	49 13       	.word	H'49,H'13
     6a3:	02 18       	stc	exr,r0l
     6a5:	00 00       	nop	
     6a7:	17 2e       	.word	H'17,H'2e
     6a9:	01 3f       	.word	H'1,H'3f
     6ab:	19 03       	sub.w	r0,r3
     6ad:	0e 3a       	addx	r3h,r2l
     6af:	0b 3b       	.word	H'b,H'3b
     6b1:	05 27       	xorc	#0x27,ccr
     6b3:	19 11       	sub.w	r1,r1
     6b5:	01 12       	.word	H'1,H'12
     6b7:	06 40       	andc	#0x40,ccr
     6b9:	18 97       	sub.b	r1l,r7h
     6bb:	42 19       	.word	H'42,H'19
     6bd:	01 13       	.word	H'1,H'13
     6bf:	00 00       	nop	
     6c1:	18 05       	sub.b	r0h,r5h
     6c3:	00 03       	.word	H'0,H'3
     6c5:	0e 3a       	addx	r3h,r2l
     6c7:	0b 3b       	.word	H'b,H'3b
     6c9:	05 49       	xorc	#0x49,ccr
     6cb:	13 02       	rotxr.b	r2h
     6cd:	17 00       	not.b	r0h
     6cf:	00 19       	.word	H'0,H'19
     6d1:	1d 01       	cmp.w	r0,r1
     6d3:	31 13       	mov.b	r1h,@0x13:8
     6d5:	11 01       	shlr.b	r1h
     6d7:	12 06       	rotxl.b	r6h
     6d9:	58 0b       	.word	H'58,H'b
     6db:	59 05       	bra	r0l.b
     6dd:	00 00       	nop	
     6df:	1a 05       	dec.b	r5h
     6e1:	00 31       	.word	H'0,H'31
     6e3:	13 02       	rotxr.b	r2h
     6e5:	17 00       	not.b	r0h
     6e7:	00 1b       	.word	H'0,H'1b
     6e9:	89 82       	add.b	#0x82,r1l
     6eb:	01 01       	.word	H'1,H'1
     6ed:	11 01       	shlr.b	r1h
     6ef:	31 13       	mov.b	r1h,@0x13:8
     6f1:	00 00       	nop	
     6f3:	1c 8a       	cmp.b	r0l,r2l
     6f5:	82 01       	add.b	#0x1,r2h
     6f7:	00 02       	.word	H'0,H'2
     6f9:	18 91       	sub.b	r1l,r1h
     6fb:	42 18       	bhi	.+24 (0x715)
     6fd:	00 00       	nop	
     6ff:	1d 05       	cmp.w	r0,r5
     701:	00 03       	.word	H'0,H'3
     703:	0e 3a       	addx	r3h,r2l
     705:	0b 3b       	.word	H'b,H'3b
     707:	05 49       	xorc	#0x49,ccr
     709:	13 02       	rotxr.b	r2h
     70b:	18 00       	sub.b	r0h,r0h
     70d:	00 1e       	.word	H'0,H'1e
     70f:	1d 01       	cmp.w	r0,r1
     711:	31 13       	mov.b	r1h,@0x13:8
     713:	11 01       	shlr.b	r1h
     715:	12 06       	rotxl.b	r6h
     717:	58 0b       	.word	H'58,H'b
     719:	59 05       	bra	r0l.b
     71b:	01 13       	.word	H'1,H'13
     71d:	00 00       	nop	
     71f:	1f 05       	das	r5h
     721:	00 31       	.word	H'0,H'31
     723:	13 00       	rotxr.b	r0h
     725:	00 20       	.word	H'0,H'20
     727:	89 82       	add.b	#0x82,r1l
     729:	01 01       	.word	H'1,H'1
     72b:	11 01       	shlr.b	r1h
     72d:	31 13       	mov.b	r1h,@0x13:8
     72f:	01 13       	.word	H'1,H'13
     731:	00 00       	nop	
     733:	21 89       	mov.b	@0x89:8,r1h
     735:	82 01       	add.b	#0x1,r2h
     737:	00 11       	.word	H'0,H'11
     739:	01 31       	.word	H'1,H'31
     73b:	13 00       	rotxr.b	r0h
     73d:	00 22       	.word	H'0,H'22
     73f:	2e 01       	mov.b	@0x1:8,r6l
     741:	03 0e       	ldc	r6l,ccr
     743:	3a 0b       	mov.b	r2l,@0xb:8
     745:	3b 05       	mov.b	r3l,@0x5:8
     747:	27 19       	mov.b	@0x19:8,r7h
     749:	11 01       	shlr.b	r1h
     74b:	12 06       	rotxl.b	r6h
     74d:	40 18       	bra	.+24 (0x767)
     74f:	96 42       	addx	#0x42,r6h
     751:	19 01       	sub.w	r0,r1
     753:	13 00       	rotxr.b	r0h
     755:	00 23       	.word	H'0,H'23
     757:	05 00       	xorc	#0x0,ccr
     759:	03 08       	ldc	r0l,ccr
     75b:	3a 0b       	mov.b	r2l,@0xb:8
     75d:	3b 05       	mov.b	r3l,@0x5:8
     75f:	49 13       	.word	H'49,H'13
     761:	02 17       	stc	exr,r7h
     763:	00 00       	nop	
     765:	24 0b       	mov.b	@0xb:8,r4h
     767:	01 11       	.word	H'1,H'11
     769:	01 12       	.word	H'1,H'12
     76b:	06 00       	andc	#0x0,ccr
     76d:	00 25       	.word	H'0,H'25
     76f:	34 00       	mov.b	r4h,@0x0:8
     771:	31 13       	mov.b	r1h,@0x13:8
     773:	02 17       	stc	exr,r7h
     775:	00 00       	nop	
     777:	26 2e       	mov.b	@0x2e:8,r6h
     779:	01 03       	.word	H'1,H'3
     77b:	0e 3a       	addx	r3h,r2l
     77d:	0b 3b       	.word	H'b,H'3b
     77f:	05 27       	xorc	#0x27,ccr
     781:	19 11       	sub.w	r1,r1
     783:	01 12       	.word	H'1,H'12
     785:	06 40       	andc	#0x40,ccr
     787:	18 97       	sub.b	r1l,r7h
     789:	42 19       	.word	H'42,H'19
     78b:	01 13       	.word	H'1,H'13
     78d:	00 00       	nop	
     78f:	27 2e       	mov.b	@0x2e:8,r7h
     791:	01 03       	.word	H'1,H'3
     793:	0e 3a       	addx	r3h,r2l
     795:	0b 3b       	.word	H'b,H'3b
     797:	05 27       	xorc	#0x27,ccr
     799:	19 20       	sub.w	r2,r0
     79b:	0b 01       	adds	#1,er1
     79d:	13 00       	rotxr.b	r0h
     79f:	00 28       	.word	H'0,H'28
     7a1:	34 00       	mov.b	r4h,@0x0:8
     7a3:	03 08       	ldc	r0l,ccr
     7a5:	3a 0b       	mov.b	r2l,@0xb:8
     7a7:	3b 05       	mov.b	r3l,@0x5:8
     7a9:	49 13       	.word	H'49,H'13
     7ab:	00 00       	nop	
     7ad:	29 05       	mov.b	@0x5:8,r1l
     7af:	00 03       	.word	H'0,H'3
     7b1:	0e 3a       	addx	r3h,r2l
     7b3:	0b 3b       	.word	H'b,H'3b
     7b5:	05 49       	xorc	#0x49,ccr
     7b7:	13 00       	rotxr.b	r0h
     7b9:	00 2a       	.word	H'0,H'2a
     7bb:	05 00       	xorc	#0x0,ccr
     7bd:	03 08       	ldc	r0l,ccr
     7bf:	3a 0b       	mov.b	r2l,@0xb:8
     7c1:	3b 05       	mov.b	r3l,@0x5:8
     7c3:	49 13       	.word	H'49,H'13
     7c5:	00 00       	nop	
     7c7:	2b 2e       	mov.b	@0x2e:8,r3l
     7c9:	01 03       	.word	H'1,H'3
     7cb:	0e 3a       	addx	r3h,r2l
     7cd:	0b 3b       	.word	H'b,H'3b
     7cf:	05 27       	xorc	#0x27,ccr
     7d1:	19 49       	sub.w	r4,e1
     7d3:	13 20       	.word	H'13,H'20
     7d5:	0b 01       	adds	#1,er1
     7d7:	13 00       	rotxr.b	r0h
     7d9:	00 2c       	.word	H'0,H'2c
     7db:	34 00       	mov.b	r4h,@0x0:8
     7dd:	03 0e       	ldc	r6l,ccr
     7df:	3a 0b       	mov.b	r2l,@0xb:8
     7e1:	3b 05       	mov.b	r3l,@0x5:8
     7e3:	49 13       	.word	H'49,H'13
     7e5:	00 00       	nop	
     7e7:	2d 34       	mov.b	@0x34:8,r5l
     7e9:	00 03       	.word	H'0,H'3
     7eb:	08 3a       	add.b	r3h,r2l
     7ed:	0b 3b       	.word	H'b,H'3b
     7ef:	05 49       	xorc	#0x49,ccr
     7f1:	13 02       	rotxr.b	r2h
     7f3:	17 00       	not.b	r0h
     7f5:	00 2e       	.word	H'0,H'2e
     7f7:	2e 00       	mov.b	@0x0:8,r6l
     7f9:	03 0e       	ldc	r6l,ccr
     7fb:	3a 0b       	mov.b	r2l,@0xb:8
     7fd:	3b 0b       	mov.b	r3l,@0xb:8
     7ff:	27 19       	mov.b	@0x19:8,r7h
     801:	49 13       	.word	H'49,H'13
     803:	20 0b       	mov.b	@0xb:8,r0h
     805:	00 00       	nop	
     807:	2f 2e       	mov.b	@0x2e:8,r7l
     809:	01 03       	.word	H'1,H'3
     80b:	0e 3a       	addx	r3h,r2l
     80d:	0b 3b       	.word	H'b,H'3b
     80f:	0b 27       	.word	H'b,H'27
     811:	19 49       	sub.w	r4,e1
     813:	13 20       	.word	H'13,H'20
     815:	0b 01       	adds	#1,er1
     817:	13 00       	rotxr.b	r0h
     819:	00 30       	.word	H'0,H'30
     81b:	05 00       	xorc	#0x0,ccr
     81d:	03 08       	ldc	r0l,ccr
     81f:	3a 0b       	mov.b	r2l,@0xb:8
     821:	3b 0b       	mov.b	r3l,@0xb:8
     823:	49 13       	.word	H'49,H'13
     825:	00 00       	nop	
     827:	31 2e       	mov.b	r1h,@0x2e:8
     829:	01 03       	.word	H'1,H'3
     82b:	0e 3a       	addx	r3h,r2l
     82d:	0b 3b       	.word	H'b,H'3b
     82f:	0b 27       	.word	H'b,H'27
     831:	19 49       	sub.w	r4,e1
     833:	13 11       	rotxr.w	r1
     835:	01 12       	.word	H'1,H'12
     837:	06 40       	andc	#0x40,ccr
     839:	18 97       	sub.b	r1l,r7h
     83b:	42 19       	.word	H'42,H'19
     83d:	01 13       	.word	H'1,H'13
     83f:	00 00       	nop	
     841:	32 05       	mov.b	r2h,@0x5:8
     843:	00 03       	.word	H'0,H'3
     845:	0e 3a       	addx	r3h,r2l
     847:	0b 3b       	.word	H'b,H'3b
     849:	0b 49       	.word	H'b,H'49
     84b:	13 02       	rotxr.b	r2h
     84d:	17 00       	not.b	r0h
     84f:	00 33       	.word	H'0,H'33
     851:	05 00       	xorc	#0x0,ccr
     853:	03 0e       	ldc	r6l,ccr
     855:	3a 0b       	mov.b	r2l,@0xb:8
     857:	3b 0b       	mov.b	r3l,@0xb:8
     859:	49 13       	.word	H'49,H'13
     85b:	02 18       	stc	exr,r0l
     85d:	00 00       	nop	
     85f:	34 34       	mov.b	r4h,@0x34:8
     861:	00 03       	.word	H'0,H'3
     863:	08 3a       	add.b	r3h,r2l
     865:	0b 3b       	.word	H'b,H'3b
     867:	0b 49       	.word	H'b,H'49
     869:	13 02       	rotxr.b	r2h
     86b:	17 00       	not.b	r0h
     86d:	00 35       	.word	H'0,H'35
     86f:	2e 01       	mov.b	@0x1:8,r6l
     871:	03 0e       	ldc	r6l,ccr
     873:	3a 0b       	mov.b	r2l,@0xb:8
     875:	3b 0b       	mov.b	r3l,@0xb:8
     877:	27 19       	mov.b	@0x19:8,r7h
     879:	11 01       	shlr.b	r1h
     87b:	12 06       	rotxl.b	r6h
     87d:	40 18       	bra	.+24 (0x897)
     87f:	96 42       	addx	#0x42,r6h
     881:	19 01       	sub.w	r0,r1
     883:	13 00       	rotxr.b	r0h
     885:	00 36       	.word	H'0,H'36
     887:	05 00       	xorc	#0x0,ccr
     889:	03 08       	ldc	r0l,ccr
     88b:	3a 0b       	mov.b	r2l,@0xb:8
     88d:	3b 0b       	mov.b	r3l,@0xb:8
     88f:	49 13       	.word	H'49,H'13
     891:	02 17       	stc	exr,r7h
     893:	00 00       	nop	
     895:	37 1d       	mov.b	r7h,@0x1d:8
     897:	01 31       	.word	H'1,H'31
     899:	13 11       	rotxr.w	r1
     89b:	01 12       	.word	H'1,H'12
     89d:	06 58       	andc	#0x58,ccr
     89f:	0b 59       	inc.w	#1,e1
     8a1:	0b 00       	adds	#1,er0
     8a3:	00 38       	.word	H'0,H'38
     8a5:	2e 00       	mov.b	@0x0:8,r6l
     8a7:	03 0e       	ldc	r6l,ccr
     8a9:	3a 0b       	mov.b	r2l,@0xb:8
     8ab:	3b 0b       	mov.b	r3l,@0xb:8
     8ad:	27 19       	mov.b	@0x19:8,r7h
     8af:	20 0b       	mov.b	@0xb:8,r0h
     8b1:	00 00       	nop	
     8b3:	39 2e       	mov.b	r1l,@0x2e:8
     8b5:	00 03       	.word	H'0,H'3
     8b7:	0e 3a       	addx	r3h,r2l
     8b9:	0b 3b       	.word	H'b,H'3b
     8bb:	0b 27       	.word	H'b,H'27
     8bd:	19 49       	sub.w	r4,e1
     8bf:	13 11       	rotxr.w	r1
     8c1:	01 12       	.word	H'1,H'12
     8c3:	06 40       	andc	#0x40,ccr
     8c5:	18 97       	sub.b	r1l,r7h
     8c7:	42 19       	.word	H'42,H'19
     8c9:	00 00       	nop	
     8cb:	3a 2e       	mov.b	r2l,@0x2e:8
     8cd:	01 31       	.word	H'1,H'31
     8cf:	13 11       	rotxr.w	r1
     8d1:	01 12       	.word	H'1,H'12
     8d3:	06 40       	andc	#0x40,ccr
     8d5:	18 97       	sub.b	r1l,r7h
     8d7:	42 19       	.word	H'42,H'19
     8d9:	01 13       	.word	H'1,H'13
     8db:	00 00       	nop	
     8dd:	3b 2e       	mov.b	r3l,@0x2e:8
     8df:	00 3f       	.word	H'0,H'3f
     8e1:	19 3c       	sub.w	r3,e4
     8e3:	19 6e       	sub.w	r6,e6
     8e5:	0e 03       	addx	r0h,r3h
     8e7:	0e 3a       	addx	r3h,r2l
     8e9:	0b 3b       	.word	H'b,H'3b
     8eb:	0b 00       	adds	#1,er0
	...

000008ef <.Ldebug_abbrev0>:
     8ef:	01 11       	.word	H'1,H'11
     8f1:	01 25       	.word	H'1,H'25
     8f3:	0e 13       	addx	r1h,r3h
     8f5:	0b 03       	adds	#1,er3
     8f7:	0e 1b       	addx	r1h,r3l
     8f9:	0e 11       	addx	r1h,r1h
     8fb:	01 12       	.word	H'1,H'12
     8fd:	06 10       	andc	#0x10,ccr
     8ff:	17 00       	not.b	r0h
     901:	00 02       	.word	H'0,H'2
     903:	24 00       	mov.b	@0x0:8,r4h
     905:	0b 0b       	adds	#1,er3
     907:	3e 0b       	mov.b	r6l,@0xb:8
     909:	03 0e       	ldc	r6l,ccr
     90b:	00 00       	nop	
     90d:	03 16       	ldc	r6h,exr
     90f:	00 03       	.word	H'0,H'3
     911:	0e 3a       	addx	r3h,r2l
     913:	0b 3b       	.word	H'b,H'3b
     915:	0b 49       	.word	H'b,H'49
     917:	13 00       	rotxr.b	r0h
     919:	00 04       	.word	H'0,H'4
     91b:	0f 00       	daa	r0h
     91d:	0b 0b       	adds	#1,er3
     91f:	49 13       	.word	H'49,H'13
     921:	00 00       	nop	
     923:	05 15       	xorc	#0x15,ccr
     925:	01 27       	.word	H'1,H'27
     927:	19 49       	sub.w	r4,e1
     929:	13 01       	rotxr.b	r1h
     92b:	13 00       	rotxr.b	r0h
     92d:	00 06       	.word	H'0,H'6
     92f:	05 00       	xorc	#0x0,ccr
     931:	49 13       	.word	H'49,H'13
     933:	00 00       	nop	
     935:	07 24       	ldc	#0x24,ccr
     937:	00 0b       	.word	H'0,H'b
     939:	0b 3e       	.word	H'b,H'3e
     93b:	0b 03       	adds	#1,er3
     93d:	08 00       	add.b	r0h,r0h
     93f:	00 08       	.word	H'0,H'8
     941:	15 00       	xor.b	r0h,r0h
     943:	27 19       	mov.b	@0x19:8,r7h
     945:	00 00       	nop	
     947:	09 04       	add.w	r0,r4
     949:	01 3e       	.word	H'1,H'3e
     94b:	0b 0b       	adds	#1,er3
     94d:	0b 49       	.word	H'b,H'49
     94f:	13 3a       	.word	H'13,H'3a
     951:	0b 3b       	.word	H'b,H'3b
     953:	0b 01       	adds	#1,er1
     955:	13 00       	rotxr.b	r0h
     957:	00 0a       	.word	H'0,H'a
     959:	28 00       	mov.b	@0x0:8,r0l
     95b:	03 0e       	ldc	r6l,ccr
     95d:	1c 0b       	cmp.b	r0h,r3l
     95f:	00 00       	nop	
     961:	0b 34       	.word	H'b,H'34
     963:	00 03       	.word	H'0,H'3
     965:	0e 3a       	addx	r3h,r2l
     967:	0b 3b       	.word	H'b,H'3b
     969:	0b 49       	.word	H'b,H'49
     96b:	13 3f       	.word	H'13,H'3f
     96d:	19 3c       	sub.w	r3,e4
     96f:	19 00       	sub.w	r0,r0
     971:	00 0c       	.word	H'0,H'c
     973:	13 01       	rotxr.b	r1h
     975:	0b 0b       	adds	#1,er3
     977:	3a 0b       	mov.b	r2l,@0xb:8
     979:	3b 0b       	mov.b	r3l,@0xb:8
     97b:	01 13       	.word	H'1,H'13
     97d:	00 00       	nop	
     97f:	0d 0d       	mov.w	r0,e5
     981:	00 03       	.word	H'0,H'3
     983:	0e 3a       	addx	r3h,r2l
     985:	0b 3b       	.word	H'b,H'3b
     987:	0b 49       	.word	H'b,H'49
     989:	13 38       	.word	H'13,H'38
     98b:	0b 00       	adds	#1,er0
     98d:	00 0e       	.word	H'0,H'e
     98f:	0d 00       	mov.w	r0,r0
     991:	03 08       	ldc	r0l,ccr
     993:	3a 0b       	mov.b	r2l,@0xb:8
     995:	3b 0b       	mov.b	r3l,@0xb:8
     997:	49 13       	.word	H'49,H'13
     999:	38 0b       	mov.b	r0l,@0xb:8
     99b:	00 00       	nop	
     99d:	0f 0f       	daa	r7l
     99f:	00 0b       	.word	H'0,H'b
     9a1:	0b 00       	adds	#1,er0
     9a3:	00 10       	.word	H'0,H'10
     9a5:	17 01       	not.b	r1h
     9a7:	0b 0b       	adds	#1,er3
     9a9:	3a 0b       	mov.b	r2l,@0xb:8
     9ab:	3b 0b       	mov.b	r3l,@0xb:8
     9ad:	01 13       	.word	H'1,H'13
     9af:	00 00       	nop	
     9b1:	11 0d       	shlr.b	r5l
     9b3:	00 03       	.word	H'0,H'3
     9b5:	08 3a       	add.b	r3h,r2l
     9b7:	0b 3b       	.word	H'b,H'3b
     9b9:	0b 49       	.word	H'b,H'49
     9bb:	13 00       	rotxr.b	r0h
     9bd:	00 12       	.word	H'0,H'12
     9bf:	0d 00       	mov.w	r0,r0
     9c1:	03 0e       	ldc	r6l,ccr
     9c3:	3a 0b       	mov.b	r2l,@0xb:8
     9c5:	3b 0b       	mov.b	r3l,@0xb:8
     9c7:	49 13       	.word	H'49,H'13
     9c9:	00 00       	nop	
     9cb:	13 2e       	.word	H'13,H'2e
     9cd:	01 3f       	.word	H'1,H'3f
     9cf:	19 03       	sub.w	r0,r3
     9d1:	0e 3a       	addx	r3h,r2l
     9d3:	0b 3b       	.word	H'b,H'3b
     9d5:	0b 27       	.word	H'b,H'27
     9d7:	19 49       	sub.w	r4,e1
     9d9:	13 11       	rotxr.w	r1
     9db:	01 12       	.word	H'1,H'12
     9dd:	06 40       	andc	#0x40,ccr
     9df:	18 97       	sub.b	r1l,r7h
     9e1:	42 19       	.word	H'42,H'19
     9e3:	01 13       	.word	H'1,H'13
     9e5:	00 00       	nop	
     9e7:	14 05       	or.b	r0h,r5h
     9e9:	00 03       	.word	H'0,H'3
     9eb:	08 3a       	add.b	r3h,r2l
     9ed:	0b 3b       	.word	H'b,H'3b
     9ef:	0b 49       	.word	H'b,H'49
     9f1:	13 02       	rotxr.b	r2h
     9f3:	17 00       	not.b	r0h
     9f5:	00 15       	.word	H'0,H'15
     9f7:	05 00       	xorc	#0x0,ccr
     9f9:	03 0e       	ldc	r6l,ccr
     9fb:	3a 0b       	mov.b	r2l,@0xb:8
     9fd:	3b 0b       	mov.b	r3l,@0xb:8
     9ff:	49 13       	.word	H'49,H'13
     a01:	02 17       	stc	exr,r7h
     a03:	00 00       	nop	
     a05:	16 34       	and.b	r3h,r4h
     a07:	00 03       	.word	H'0,H'3
     a09:	0e 3a       	addx	r3h,r2l
     a0b:	0b 3b       	.word	H'b,H'3b
     a0d:	0b 49       	.word	H'b,H'49
     a0f:	13 02       	rotxr.b	r2h
     a11:	18 00       	sub.b	r0h,r0h
     a13:	00 17       	.word	H'0,H'17
     a15:	89 82       	add.b	#0x82,r1l
     a17:	01 01       	.word	H'1,H'1
     a19:	11 01       	shlr.b	r1h
     a1b:	31 13       	mov.b	r1h,@0x13:8
     a1d:	00 00       	nop	
     a1f:	18 8a       	sub.b	r0l,r2l
     a21:	82 01       	add.b	#0x1,r2h
     a23:	00 02       	.word	H'0,H'2
     a25:	18 91       	sub.b	r1l,r1h
     a27:	42 18       	bhi	.+24 (0xa41)
     a29:	00 00       	nop	
     a2b:	19 2e       	sub.w	r2,e6
     a2d:	01 3f       	.word	H'1,H'3f
     a2f:	19 03       	sub.w	r0,r3
     a31:	0e 3a       	addx	r3h,r2l
     a33:	0b 3b       	.word	H'b,H'3b
     a35:	0b 27       	.word	H'b,H'27
     a37:	19 11       	sub.w	r1,r1
     a39:	01 12       	.word	H'1,H'12
     a3b:	06 40       	andc	#0x40,ccr
     a3d:	18 97       	sub.b	r1l,r7h
     a3f:	42 19       	.word	H'42,H'19
     a41:	01 13       	.word	H'1,H'13
     a43:	00 00       	nop	
     a45:	1a 05       	dec.b	r5h
     a47:	00 03       	.word	H'0,H'3
     a49:	0e 3a       	addx	r3h,r2l
     a4b:	0b 3b       	.word	H'b,H'3b
     a4d:	0b 49       	.word	H'b,H'49
     a4f:	13 02       	rotxr.b	r2h
     a51:	18 00       	sub.b	r0h,r0h
     a53:	00 1b       	.word	H'0,H'1b
     a55:	2e 00       	mov.b	@0x0:8,r6l
     a57:	3f 19       	mov.b	r7l,@0x19:8
     a59:	3c 19       	mov.b	r4l,@0x19:8
     a5b:	6e 0e 03 0e 	mov.b	@(0x30e:16,er0),r6l
     a5f:	3a 0b       	mov.b	r2l,@0xb:8
     a61:	3b 0b       	mov.b	r3l,@0xb:8
     a63:	00 00       	nop	
	...

00000a66 <.Ldebug_abbrev0>:
     a66:	01 11       	.word	H'1,H'11
     a68:	01 25       	.word	H'1,H'25
     a6a:	0e 13       	addx	r1h,r3h
     a6c:	0b 03       	adds	#1,er3
     a6e:	0e 1b       	addx	r1h,r3l
     a70:	0e 11       	addx	r1h,r1h
     a72:	01 12       	.word	H'1,H'12
     a74:	06 10       	andc	#0x10,ccr
     a76:	17 00       	not.b	r0h
     a78:	00 02       	.word	H'0,H'2
     a7a:	24 00       	mov.b	@0x0:8,r4h
     a7c:	0b 0b       	adds	#1,er3
     a7e:	3e 0b       	mov.b	r6l,@0xb:8
     a80:	03 0e       	ldc	r6l,ccr
     a82:	00 00       	nop	
     a84:	03 24       	ldmac	er4,mach
     a86:	00 0b       	.word	H'0,H'b
     a88:	0b 3e       	.word	H'b,H'3e
     a8a:	0b 03       	adds	#1,er3
     a8c:	08 00       	add.b	r0h,r0h
     a8e:	00 04       	.word	H'0,H'4
     a90:	0f 00       	daa	r0h
     a92:	0b 0b       	adds	#1,er3
     a94:	49 13       	.word	H'49,H'13
     a96:	00 00       	nop	
     a98:	05 34       	xorc	#0x34,ccr
     a9a:	00 03       	.word	H'0,H'3
     a9c:	0e 3a       	addx	r3h,r2l
     a9e:	0b 3b       	.word	H'b,H'3b
     aa0:	0b 49       	.word	H'b,H'49
     aa2:	13 3f       	.word	H'13,H'3f
     aa4:	19 3c       	sub.w	r3,e4
     aa6:	19 00       	sub.w	r0,r0
     aa8:	00 06       	.word	H'0,H'6
     aaa:	0f 00       	daa	r0h
     aac:	0b 0b       	adds	#1,er3
     aae:	00 00       	nop	
     ab0:	07 13       	ldc	#0x13,ccr
     ab2:	01 03       	.word	H'1,H'3
     ab4:	0e 0b       	addx	r0h,r3l
     ab6:	0b 3a       	.word	H'b,H'3a
     ab8:	0b 3b       	.word	H'b,H'3b
     aba:	0b 01       	adds	#1,er1
     abc:	13 00       	rotxr.b	r0h
     abe:	00 08       	.word	H'0,H'8
     ac0:	0d 00       	mov.w	r0,r0
     ac2:	03 0e       	ldc	r6l,ccr
     ac4:	3a 0b       	mov.b	r2l,@0xb:8
     ac6:	3b 0b       	mov.b	r3l,@0xb:8
     ac8:	49 13       	.word	H'49,H'13
     aca:	38 0b       	mov.b	r0l,@0xb:8
     acc:	00 00       	nop	
     ace:	09 16       	add.w	r1,r6
     ad0:	00 03       	.word	H'0,H'3
     ad2:	0e 3a       	addx	r3h,r2l
     ad4:	0b 3b       	.word	H'b,H'3b
     ad6:	0b 49       	.word	H'b,H'49
     ad8:	13 00       	rotxr.b	r0h
     ada:	00 0a       	.word	H'0,H'a
     adc:	0d 00       	mov.w	r0,r0
     ade:	03 08       	ldc	r0l,ccr
     ae0:	3a 0b       	mov.b	r2l,@0xb:8
     ae2:	3b 0b       	mov.b	r3l,@0xb:8
     ae4:	49 13       	.word	H'49,H'13
     ae6:	38 0b       	mov.b	r0l,@0xb:8
     ae8:	00 00       	nop	
     aea:	0b 01       	adds	#1,er1
     aec:	01 49       	.word	H'1,H'49
     aee:	13 01       	rotxr.b	r1h
     af0:	13 00       	rotxr.b	r0h
     af2:	00 0c       	.word	H'0,H'c
     af4:	21 00       	mov.b	@0x0:8,r1h
     af6:	49 13       	.word	H'49,H'13
     af8:	2f 0b       	mov.b	@0xb:8,r7l
     afa:	00 00       	nop	
     afc:	0d 34       	mov.w	r3,r4
     afe:	00 03       	.word	H'0,H'3
     b00:	0e 3a       	addx	r3h,r2l
     b02:	0b 3b       	.word	H'b,H'3b
     b04:	0b 49       	.word	H'b,H'49
     b06:	13 02       	rotxr.b	r2h
     b08:	18 00       	sub.b	r0h,r0h
     b0a:	00 0e       	.word	H'0,H'e
     b0c:	2e 01       	mov.b	@0x1:8,r6l
     b0e:	3f 19       	mov.b	r7l,@0x19:8
     b10:	03 0e       	ldc	r6l,ccr
     b12:	3a 0b       	mov.b	r2l,@0xb:8
     b14:	3b 0b       	mov.b	r3l,@0xb:8
     b16:	27 19       	mov.b	@0x19:8,r7h
     b18:	11 01       	shlr.b	r1h
     b1a:	12 06       	rotxl.b	r6h
     b1c:	40 18       	bra	.+24 (0xb36)
     b1e:	97 42       	addx	#0x42,r7h
     b20:	19 01       	sub.w	r0,r1
     b22:	13 00       	rotxr.b	r0h
     b24:	00 0f       	.word	H'0,H'f
     b26:	05 00       	xorc	#0x0,ccr
     b28:	03 08       	ldc	r0l,ccr
     b2a:	3a 0b       	mov.b	r2l,@0xb:8
     b2c:	3b 0b       	mov.b	r3l,@0xb:8
     b2e:	49 13       	.word	H'49,H'13
     b30:	02 17       	stc	exr,r7h
     b32:	00 00       	nop	
     b34:	10 34       	shll.l	er4
     b36:	00 03       	.word	H'0,H'3
     b38:	08 3a       	add.b	r3h,r2l
     b3a:	0b 3b       	.word	H'b,H'3b
     b3c:	0b 49       	.word	H'b,H'49
     b3e:	13 02       	rotxr.b	r2h
     b40:	17 00       	not.b	r0h
     b42:	00 11       	.word	H'0,H'11
     b44:	89 82       	add.b	#0x82,r1l
     b46:	01 00       	.word	H'1,H'0
     b48:	11 01       	shlr.b	r1h
     b4a:	31 13       	mov.b	r1h,@0x13:8
     b4c:	00 00       	nop	
     b4e:	12 2e       	.word	H'12,H'2e
     b50:	01 3f       	.word	H'1,H'3f
     b52:	19 03       	sub.w	r0,r3
     b54:	0e 3a       	addx	r3h,r2l
     b56:	0b 3b       	.word	H'b,H'3b
     b58:	0b 27       	.word	H'b,H'27
     b5a:	19 49       	sub.w	r4,e1
     b5c:	13 11       	rotxr.w	r1
     b5e:	01 12       	.word	H'1,H'12
     b60:	06 40       	andc	#0x40,ccr
     b62:	18 97       	sub.b	r1l,r7h
     b64:	42 19       	.word	H'42,H'19
     b66:	01 13       	.word	H'1,H'13
     b68:	00 00       	nop	
     b6a:	13 05       	rotxr.b	r5h
     b6c:	00 03       	.word	H'0,H'3
     b6e:	0e 3a       	addx	r3h,r2l
     b70:	0b 3b       	.word	H'b,H'3b
     b72:	0b 49       	.word	H'b,H'49
     b74:	13 02       	rotxr.b	r2h
     b76:	17 00       	not.b	r0h
     b78:	00 14       	.word	H'0,H'14
     b7a:	1d 01       	cmp.w	r0,r1
     b7c:	31 13       	mov.b	r1h,@0x13:8
     b7e:	11 01       	shlr.b	r1h
     b80:	12 06       	rotxl.b	r6h
     b82:	58 0b       	.word	H'58,H'b
     b84:	59 0b       	.word	H'59,H'b
     b86:	00 00       	nop	
     b88:	15 05       	xor.b	r0h,r5h
     b8a:	00 31       	.word	H'0,H'31
     b8c:	13 00       	rotxr.b	r0h
     b8e:	00 16       	.word	H'0,H'16
     b90:	0b 01       	adds	#1,er1
     b92:	11 01       	shlr.b	r1h
     b94:	12 06       	rotxl.b	r6h
     b96:	00 00       	nop	
     b98:	17 34       	not.l	er4
     b9a:	00 31       	.word	H'0,H'31
     b9c:	13 02       	rotxr.b	r2h
     b9e:	17 00       	not.b	r0h
     ba0:	00 18       	.word	H'0,H'18
     ba2:	34 00       	mov.b	r4h,@0x0:8
     ba4:	31 13       	mov.b	r1h,@0x13:8
     ba6:	3c 19       	mov.b	r4l,@0x19:8
     ba8:	00 00       	nop	
     baa:	19 89       	sub.w	e0,e1
     bac:	82 01       	add.b	#0x1,r2h
     bae:	01 11       	.word	H'1,H'11
     bb0:	01 31       	.word	H'1,H'31
     bb2:	13 00       	rotxr.b	r0h
     bb4:	00 1a       	.word	H'0,H'1a
     bb6:	8a 82       	add.b	#0x82,r2l
     bb8:	01 00       	.word	H'1,H'0
     bba:	02 18       	stc	exr,r0l
     bbc:	91 42       	addx	#0x42,r1h
     bbe:	18 00       	sub.b	r0h,r0h
     bc0:	00 1b       	.word	H'0,H'1b
     bc2:	2e 01       	mov.b	@0x1:8,r6l
     bc4:	03 0e       	ldc	r6l,ccr
     bc6:	3a 0b       	mov.b	r2l,@0xb:8
     bc8:	3b 0b       	mov.b	r3l,@0xb:8
     bca:	27 19       	mov.b	@0x19:8,r7h
     bcc:	49 13       	.word	H'49,H'13
     bce:	20 0b       	mov.b	@0xb:8,r0h
     bd0:	01 13       	.word	H'1,H'13
     bd2:	00 00       	nop	
     bd4:	1c 05       	cmp.b	r0h,r5h
     bd6:	00 03       	.word	H'0,H'3
     bd8:	08 3a       	add.b	r3h,r2l
     bda:	0b 3b       	.word	H'b,H'3b
     bdc:	0b 49       	.word	H'b,H'49
     bde:	13 00       	rotxr.b	r0h
     be0:	00 1d       	.word	H'0,H'1d
     be2:	34 00       	mov.b	r4h,@0x0:8
     be4:	03 08       	ldc	r0l,ccr
     be6:	3a 0b       	mov.b	r2l,@0xb:8
     be8:	3b 0b       	mov.b	r3l,@0xb:8
     bea:	49 13       	.word	H'49,H'13
     bec:	00 00       	nop	
     bee:	1e 2e       	subx	r2h,r6l
     bf0:	00 3f       	.word	H'0,H'3f
     bf2:	19 3c       	sub.w	r3,e4
     bf4:	19 6e       	sub.w	r6,e6
     bf6:	0e 03       	addx	r0h,r3h
     bf8:	0e 3a       	addx	r3h,r2l
     bfa:	0b 3b       	.word	H'b,H'3b
     bfc:	0b 00       	adds	#1,er0
	...

00000c00 <.Ldebug_abbrev0>:
     c00:	01 11       	.word	H'1,H'11
     c02:	01 25       	.word	H'1,H'25
     c04:	0e 13       	addx	r1h,r3h
     c06:	0b 03       	adds	#1,er3
     c08:	0e 1b       	addx	r1h,r3l
     c0a:	0e 11       	addx	r1h,r1h
     c0c:	01 12       	.word	H'1,H'12
     c0e:	06 10       	andc	#0x10,ccr
     c10:	17 00       	not.b	r0h
     c12:	00 02       	.word	H'0,H'2
     c14:	24 00       	mov.b	@0x0:8,r4h
     c16:	0b 0b       	adds	#1,er3
     c18:	3e 0b       	mov.b	r6l,@0xb:8
     c1a:	03 0e       	ldc	r6l,ccr
     c1c:	00 00       	nop	
     c1e:	03 16       	ldc	r6h,exr
     c20:	00 03       	.word	H'0,H'3
     c22:	0e 3a       	addx	r3h,r2l
     c24:	0b 3b       	.word	H'b,H'3b
     c26:	0b 49       	.word	H'b,H'49
     c28:	13 00       	rotxr.b	r0h
     c2a:	00 04       	.word	H'0,H'4
     c2c:	24 00       	mov.b	@0x0:8,r4h
     c2e:	0b 0b       	adds	#1,er3
     c30:	3e 0b       	mov.b	r6l,@0xb:8
     c32:	03 08       	ldc	r0l,ccr
     c34:	00 00       	nop	
     c36:	05 0f       	xorc	#0xf,ccr
     c38:	00 0b       	.word	H'0,H'b
     c3a:	0b 49       	.word	H'b,H'49
     c3c:	13 00       	rotxr.b	r0h
     c3e:	00 06       	.word	H'0,H'6
     c40:	04 01       	orc	#0x1,ccr
     c42:	3e 0b       	mov.b	r6l,@0xb:8
     c44:	0b 0b       	adds	#1,er3
     c46:	49 13       	.word	H'49,H'13
     c48:	3a 0b       	mov.b	r2l,@0xb:8
     c4a:	3b 0b       	mov.b	r3l,@0xb:8
     c4c:	01 13       	.word	H'1,H'13
     c4e:	00 00       	nop	
     c50:	07 28       	ldc	#0x28,ccr
     c52:	00 03       	.word	H'0,H'3
     c54:	0e 1c       	addx	r1h,r4l
     c56:	0b 00       	adds	#1,er0
     c58:	00 08       	.word	H'0,H'8
     c5a:	34 00       	mov.b	r4h,@0x0:8
     c5c:	03 0e       	ldc	r6l,ccr
     c5e:	3a 0b       	mov.b	r2l,@0xb:8
     c60:	3b 0b       	mov.b	r3l,@0xb:8
     c62:	49 13       	.word	H'49,H'13
     c64:	3f 19       	mov.b	r7l,@0x19:8
     c66:	3c 19       	mov.b	r4l,@0x19:8
     c68:	00 00       	nop	
     c6a:	09 13       	add.w	r1,r3
     c6c:	01 03       	.word	H'1,H'3
     c6e:	0e 0b       	addx	r0h,r3l
     c70:	0b 3a       	.word	H'b,H'3a
     c72:	0b 3b       	.word	H'b,H'3b
     c74:	0b 01       	adds	#1,er1
     c76:	13 00       	rotxr.b	r0h
     c78:	00 0a       	.word	H'0,H'a
     c7a:	0d 00       	mov.w	r0,r0
     c7c:	03 08       	ldc	r0l,ccr
     c7e:	3a 0b       	mov.b	r2l,@0xb:8
     c80:	3b 0b       	mov.b	r3l,@0xb:8
     c82:	49 13       	.word	H'49,H'13
     c84:	38 0b       	mov.b	r0l,@0xb:8
     c86:	00 00       	nop	
     c88:	0b 0d       	adds	#1,er5
     c8a:	00 03       	.word	H'0,H'3
     c8c:	0e 3a       	addx	r3h,r2l
     c8e:	0b 3b       	.word	H'b,H'3b
     c90:	0b 49       	.word	H'b,H'49
     c92:	13 38       	.word	H'13,H'38
     c94:	0b 00       	adds	#1,er0
     c96:	00 0c       	.word	H'0,H'c
     c98:	01 01       	.word	H'1,H'1
     c9a:	49 13       	.word	H'49,H'13
     c9c:	01 13       	.word	H'1,H'13
     c9e:	00 00       	nop	
     ca0:	0d 21       	mov.w	r2,r1
     ca2:	00 49       	.word	H'0,H'49
     ca4:	13 2f       	.word	H'13,H'2f
     ca6:	0b 00       	adds	#1,er0
     ca8:	00 0e       	.word	H'0,H'e
     caa:	34 00       	mov.b	r4h,@0x0:8
     cac:	03 0e       	ldc	r6l,ccr
     cae:	3a 0b       	mov.b	r2l,@0xb:8
     cb0:	3b 0b       	mov.b	r3l,@0xb:8
     cb2:	49 13       	.word	H'49,H'13
     cb4:	02 18       	stc	exr,r0l
     cb6:	00 00       	nop	
     cb8:	0f 2e       	mov.w	#0x2,e6
     cba:	01 3f       	.word	H'1,H'3f
     cbc:	19 03       	sub.w	r0,r3
     cbe:	0e 3a       	addx	r3h,r2l
     cc0:	0b 3b       	.word	H'b,H'3b
     cc2:	0b 27       	.word	H'b,H'27
     cc4:	19 49       	sub.w	r4,e1
     cc6:	13 11       	rotxr.w	r1
     cc8:	01 12       	.word	H'1,H'12
     cca:	06 40       	andc	#0x40,ccr
     ccc:	18 97       	sub.b	r1l,r7h
     cce:	42 19       	.word	H'42,H'19
     cd0:	01 13       	.word	H'1,H'13
     cd2:	00 00       	nop	
     cd4:	10 05       	shll.b	r5h
     cd6:	00 03       	.word	H'0,H'3
     cd8:	0e 3a       	addx	r3h,r2l
     cda:	0b 3b       	.word	H'b,H'3b
     cdc:	0b 49       	.word	H'b,H'49
     cde:	13 02       	rotxr.b	r2h
     ce0:	17 00       	not.b	r0h
     ce2:	00 11       	.word	H'0,H'11
     ce4:	34 00       	mov.b	r4h,@0x0:8
     ce6:	03 0e       	ldc	r6l,ccr
     ce8:	3a 0b       	mov.b	r2l,@0xb:8
     cea:	3b 0b       	mov.b	r3l,@0xb:8
     cec:	49 13       	.word	H'49,H'13
     cee:	02 17       	stc	exr,r7h
     cf0:	00 00       	nop	
     cf2:	12 34       	rotxl.l	er4
     cf4:	00 03       	.word	H'0,H'3
     cf6:	08 3a       	add.b	r3h,r2l
     cf8:	0b 3b       	.word	H'b,H'3b
     cfa:	0b 49       	.word	H'b,H'49
     cfc:	13 02       	rotxr.b	r2h
     cfe:	17 00       	not.b	r0h
     d00:	00 13       	.word	H'0,H'13
     d02:	34 00       	mov.b	r4h,@0x0:8
     d04:	03 08       	ldc	r0l,ccr
     d06:	3a 0b       	mov.b	r2l,@0xb:8
     d08:	3b 0b       	mov.b	r3l,@0xb:8
     d0a:	49 13       	.word	H'49,H'13
     d0c:	02 18       	stc	exr,r0l
     d0e:	00 00       	nop	
     d10:	14 1d       	or.b	r1h,r5l
     d12:	01 31       	.word	H'1,H'31
     d14:	13 11       	rotxr.w	r1
     d16:	01 12       	.word	H'1,H'12
     d18:	06 58       	andc	#0x58,ccr
     d1a:	0b 59       	inc.w	#1,e1
     d1c:	0b 01       	adds	#1,er1
     d1e:	13 00       	rotxr.b	r0h
     d20:	00 15       	.word	H'0,H'15
     d22:	89 82       	add.b	#0x82,r1l
     d24:	01 01       	.word	H'1,H'1
     d26:	11 01       	shlr.b	r1h
     d28:	31 13       	mov.b	r1h,@0x13:8
     d2a:	00 00       	nop	
     d2c:	16 8a       	and.b	r0l,r2l
     d2e:	82 01       	add.b	#0x1,r2h
     d30:	00 02       	.word	H'0,H'2
     d32:	18 91       	sub.b	r1l,r1h
     d34:	42 18       	bhi	.+24 (0xd4e)
     d36:	00 00       	nop	
     d38:	17 1d       	not.w	e5
     d3a:	01 31       	.word	H'1,H'31
     d3c:	13 52       	rotxr.w	#2,r2
     d3e:	01 55       	.word	H'1,H'55
     d40:	17 58       	extu.w	e0
     d42:	0b 59       	inc.w	#1,e1
     d44:	0b 01       	adds	#1,er1
     d46:	13 00       	rotxr.b	r0h
     d48:	00 18       	.word	H'0,H'18
     d4a:	05 00       	xorc	#0x0,ccr
     d4c:	31 13       	mov.b	r1h,@0x13:8
     d4e:	02 17       	stc	exr,r7h
     d50:	00 00       	nop	
     d52:	19 89       	sub.w	e0,e1
     d54:	82 01       	add.b	#0x1,r2h
     d56:	01 11       	.word	H'1,H'11
     d58:	01 31       	.word	H'1,H'31
     d5a:	13 01       	rotxr.b	r1h
     d5c:	13 00       	rotxr.b	r0h
     d5e:	00 1a       	.word	H'0,H'1a
     d60:	89 82       	add.b	#0x82,r1l
     d62:	01 00       	.word	H'1,H'0
     d64:	11 01       	shlr.b	r1h
     d66:	31 13       	mov.b	r1h,@0x13:8
     d68:	00 00       	nop	
     d6a:	1b 2e       	.word	H'1b,H'2e
     d6c:	01 03       	.word	H'1,H'3
     d6e:	0e 3a       	addx	r3h,r2l
     d70:	0b 3b       	.word	H'b,H'3b
     d72:	0b 27       	.word	H'b,H'27
     d74:	19 49       	sub.w	r4,e1
     d76:	13 20       	.word	H'13,H'20
     d78:	0b 01       	adds	#1,er1
     d7a:	13 00       	rotxr.b	r0h
     d7c:	00 1c       	.word	H'0,H'1c
     d7e:	05 00       	xorc	#0x0,ccr
     d80:	03 0e       	ldc	r6l,ccr
     d82:	3a 0b       	mov.b	r2l,@0xb:8
     d84:	3b 0b       	mov.b	r3l,@0xb:8
     d86:	49 13       	.word	H'49,H'13
     d88:	00 00       	nop	
     d8a:	1d 05       	cmp.w	r0,r5
     d8c:	00 03       	.word	H'0,H'3
     d8e:	08 3a       	add.b	r3h,r2l
     d90:	0b 3b       	.word	H'b,H'3b
     d92:	0b 49       	.word	H'b,H'49
     d94:	13 00       	rotxr.b	r0h
     d96:	00 1e       	.word	H'0,H'1e
     d98:	2e 00       	mov.b	@0x0:8,r6l
     d9a:	03 0e       	ldc	r6l,ccr
     d9c:	3a 0b       	mov.b	r2l,@0xb:8
     d9e:	3b 0b       	mov.b	r3l,@0xb:8
     da0:	27 19       	mov.b	@0x19:8,r7h
     da2:	49 13       	.word	H'49,H'13
     da4:	20 0b       	mov.b	@0xb:8,r0h
     da6:	00 00       	nop	
     da8:	1f 2e       	cmp.w	#0x2,e6
     daa:	01 03       	.word	H'1,H'3
     dac:	0e 3a       	addx	r3h,r2l
     dae:	0b 3b       	.word	H'b,H'3b
     db0:	0b 27       	.word	H'b,H'27
     db2:	19 11       	sub.w	r1,r1
     db4:	01 12       	.word	H'1,H'12
     db6:	06 40       	andc	#0x40,ccr
     db8:	18 97       	sub.b	r1l,r7h
     dba:	42 19       	.word	H'42,H'19
     dbc:	01 13       	.word	H'1,H'13
     dbe:	00 00       	nop	
     dc0:	20 0b       	mov.b	@0xb:8,r0h
     dc2:	01 55       	.word	H'1,H'55
     dc4:	17 00       	not.b	r0h
     dc6:	00 21       	.word	H'0,H'21
     dc8:	34 00       	mov.b	r4h,@0x0:8
     dca:	31 13       	mov.b	r1h,@0x13:8
     dcc:	02 18       	stc	exr,r0l
     dce:	00 00       	nop	
     dd0:	22 34       	mov.b	@0x34:8,r2h
     dd2:	00 31       	.word	H'0,H'31
     dd4:	13 02       	rotxr.b	r2h
     dd6:	17 00       	not.b	r0h
     dd8:	00 23       	.word	H'0,H'23
     dda:	34 00       	mov.b	r4h,@0x0:8
     ddc:	03 08       	ldc	r0l,ccr
     dde:	3a 0b       	mov.b	r2l,@0xb:8
     de0:	3b 0b       	mov.b	r3l,@0xb:8
     de2:	49 13       	.word	H'49,H'13
     de4:	00 00       	nop	
     de6:	24 2e       	mov.b	@0x2e:8,r4h
     de8:	01 03       	.word	H'1,H'3
     dea:	0e 3a       	addx	r3h,r2l
     dec:	0b 3b       	.word	H'b,H'3b
     dee:	0b 27       	.word	H'b,H'27
     df0:	19 20       	sub.w	r2,r0
     df2:	0b 01       	adds	#1,er1
     df4:	13 00       	rotxr.b	r0h
     df6:	00 25       	.word	H'0,H'25
     df8:	2e 01       	mov.b	@0x1:8,r6l
     dfa:	31 13       	mov.b	r1h,@0x13:8
     dfc:	11 01       	shlr.b	r1h
     dfe:	12 06       	rotxl.b	r6h
     e00:	40 18       	bra	.+24 (0xe1a)
     e02:	97 42       	addx	#0x42,r7h
     e04:	19 01       	sub.w	r0,r1
     e06:	13 00       	rotxr.b	r0h
     e08:	00 26       	.word	H'0,H'26
     e0a:	0b 01       	adds	#1,er1
     e0c:	31 13       	mov.b	r1h,@0x13:8
     e0e:	11 01       	shlr.b	r1h
     e10:	12 06       	rotxl.b	r6h
     e12:	01 13       	.word	H'1,H'13
     e14:	00 00       	nop	
     e16:	27 0b       	mov.b	@0xb:8,r7h
     e18:	01 11       	.word	H'1,H'11
     e1a:	01 12       	.word	H'1,H'12
     e1c:	06 00       	andc	#0x0,ccr
     e1e:	00 28       	.word	H'0,H'28
     e20:	34 00       	mov.b	r4h,@0x0:8
     e22:	31 13       	mov.b	r1h,@0x13:8
     e24:	00 00       	nop	
     e26:	29 2e       	mov.b	@0x2e:8,r1l
     e28:	00 3f       	.word	H'0,H'3f
     e2a:	19 3c       	sub.w	r3,e4
     e2c:	19 6e       	sub.w	r6,e6
     e2e:	0e 03       	addx	r0h,r3h
     e30:	0e 3a       	addx	r3h,r2l
     e32:	0b 3b       	.word	H'b,H'3b
     e34:	0b 00       	adds	#1,er0
	...

00000e38 <.Ldebug_abbrev0>:
     e38:	01 11       	.word	H'1,H'11
     e3a:	01 25       	.word	H'1,H'25
     e3c:	0e 13       	addx	r1h,r3h
     e3e:	0b 03       	adds	#1,er3
     e40:	0e 1b       	addx	r1h,r3l
     e42:	0e 11       	addx	r1h,r1h
     e44:	01 12       	.word	H'1,H'12
     e46:	06 10       	andc	#0x10,ccr
     e48:	17 00       	not.b	r0h
     e4a:	00 02       	.word	H'0,H'2
     e4c:	24 00       	mov.b	@0x0:8,r4h
     e4e:	0b 0b       	adds	#1,er3
     e50:	3e 0b       	mov.b	r6l,@0xb:8
     e52:	03 0e       	ldc	r6l,ccr
     e54:	00 00       	nop	
     e56:	03 24       	ldmac	er4,mach
     e58:	00 0b       	.word	H'0,H'b
     e5a:	0b 3e       	.word	H'b,H'3e
     e5c:	0b 03       	adds	#1,er3
     e5e:	08 00       	add.b	r0h,r0h
     e60:	00 04       	.word	H'0,H'4
     e62:	0f 00       	daa	r0h
     e64:	0b 0b       	adds	#1,er3
     e66:	49 13       	.word	H'49,H'13
     e68:	00 00       	nop	
     e6a:	05 04       	xorc	#0x4,ccr
     e6c:	01 3e       	.word	H'1,H'3e
     e6e:	0b 0b       	adds	#1,er3
     e70:	0b 49       	.word	H'b,H'49
     e72:	13 3a       	.word	H'13,H'3a
     e74:	0b 3b       	.word	H'b,H'3b
     e76:	0b 01       	adds	#1,er1
     e78:	13 00       	rotxr.b	r0h
     e7a:	00 06       	.word	H'0,H'6
     e7c:	28 00       	mov.b	@0x0:8,r0l
     e7e:	03 0e       	ldc	r6l,ccr
     e80:	1c 0b       	cmp.b	r0h,r3l
     e82:	00 00       	nop	
     e84:	07 34       	ldc	#0x34,ccr
     e86:	00 03       	.word	H'0,H'3
     e88:	0e 3a       	addx	r3h,r2l
     e8a:	0b 3b       	.word	H'b,H'3b
     e8c:	0b 49       	.word	H'b,H'49
     e8e:	13 3f       	.word	H'13,H'3f
     e90:	19 3c       	sub.w	r3,e4
     e92:	19 00       	sub.w	r0,r0
     e94:	00 08       	.word	H'0,H'8
     e96:	16 00       	and.b	r0h,r0h
     e98:	03 0e       	ldc	r6l,ccr
     e9a:	3a 0b       	mov.b	r2l,@0xb:8
     e9c:	3b 0b       	mov.b	r3l,@0xb:8
     e9e:	49 13       	.word	H'49,H'13
     ea0:	00 00       	nop	
     ea2:	09 2e       	add.w	r2,e6
     ea4:	01 3f       	.word	H'1,H'3f
     ea6:	19 03       	sub.w	r0,r3
     ea8:	0e 3a       	addx	r3h,r2l
     eaa:	0b 3b       	.word	H'b,H'3b
     eac:	0b 27       	.word	H'b,H'27
     eae:	19 49       	sub.w	r4,e1
     eb0:	13 11       	rotxr.w	r1
     eb2:	01 12       	.word	H'1,H'12
     eb4:	06 40       	andc	#0x40,ccr
     eb6:	18 97       	sub.b	r1l,r7h
     eb8:	42 19       	.word	H'42,H'19
     eba:	01 13       	.word	H'1,H'13
     ebc:	00 00       	nop	
     ebe:	0a 05       	inc	r5h
     ec0:	00 03       	.word	H'0,H'3
     ec2:	0e 3a       	addx	r3h,r2l
     ec4:	0b 3b       	.word	H'b,H'3b
     ec6:	0b 49       	.word	H'b,H'49
     ec8:	13 02       	rotxr.b	r2h
     eca:	17 00       	not.b	r0h
     ecc:	00 0b       	.word	H'0,H'b
     ece:	34 00       	mov.b	r4h,@0x0:8
     ed0:	03 08       	ldc	r0l,ccr
     ed2:	3a 0b       	mov.b	r2l,@0xb:8
     ed4:	3b 0b       	mov.b	r3l,@0xb:8
     ed6:	49 13       	.word	H'49,H'13
     ed8:	02 18       	stc	exr,r0l
     eda:	00 00       	nop	
     edc:	0c 34       	mov.b	r3h,r4h
     ede:	00 03       	.word	H'0,H'3
     ee0:	0e 3a       	addx	r3h,r2l
     ee2:	0b 3b       	.word	H'b,H'3b
     ee4:	0b 49       	.word	H'b,H'49
     ee6:	13 02       	rotxr.b	r2h
     ee8:	18 00       	sub.b	r0h,r0h
     eea:	00 0d       	.word	H'0,H'd
     eec:	1d 01       	cmp.w	r0,r1
     eee:	31 13       	mov.b	r1h,@0x13:8
     ef0:	11 01       	shlr.b	r1h
     ef2:	12 06       	rotxl.b	r6h
     ef4:	58 0b       	.word	H'58,H'b
     ef6:	59 0b       	.word	H'59,H'b
     ef8:	01 13       	.word	H'1,H'13
     efa:	00 00       	nop	
     efc:	0e 05       	addx	r0h,r5h
     efe:	00 31       	.word	H'0,H'31
     f00:	13 1c       	rotxr.w	e4
     f02:	0b 00       	adds	#1,er0
     f04:	00 0f       	.word	H'0,H'f
     f06:	0b 01       	adds	#1,er1
     f08:	11 01       	shlr.b	r1h
     f0a:	12 06       	rotxl.b	r6h
     f0c:	00 00       	nop	
     f0e:	10 34       	shll.l	er4
     f10:	00 31       	.word	H'0,H'31
     f12:	13 02       	rotxr.b	r2h
     f14:	17 00       	not.b	r0h
     f16:	00 11       	.word	H'0,H'11
     f18:	89 82       	add.b	#0x82,r1l
     f1a:	01 01       	.word	H'1,H'1
     f1c:	11 01       	shlr.b	r1h
     f1e:	31 13       	mov.b	r1h,@0x13:8
     f20:	01 13       	.word	H'1,H'13
     f22:	00 00       	nop	
     f24:	12 8a       	rotl.b	r2l
     f26:	82 01       	add.b	#0x1,r2h
     f28:	00 02       	.word	H'0,H'2
     f2a:	18 91       	sub.b	r1l,r1h
     f2c:	42 18       	bhi	.+24 (0xf46)
     f2e:	00 00       	nop	
     f30:	13 89       	rotr.b	r1l
     f32:	82 01       	add.b	#0x1,r2h
     f34:	01 11       	.word	H'1,H'11
     f36:	01 31       	.word	H'1,H'31
     f38:	13 00       	rotxr.b	r0h
     f3a:	00 14       	.word	H'0,H'14
     f3c:	89 82       	add.b	#0x82,r1l
     f3e:	01 00       	.word	H'1,H'0
     f40:	11 01       	shlr.b	r1h
     f42:	31 13       	mov.b	r1h,@0x13:8
     f44:	00 00       	nop	
     f46:	15 2e       	xor.b	r2h,r6l
     f48:	01 3f       	.word	H'1,H'3f
     f4a:	19 03       	sub.w	r0,r3
     f4c:	0e 3a       	addx	r3h,r2l
     f4e:	0b 3b       	.word	H'b,H'3b
     f50:	0b 27       	.word	H'b,H'27
     f52:	19 20       	sub.w	r2,r0
     f54:	0b 01       	adds	#1,er1
     f56:	13 00       	rotxr.b	r0h
     f58:	00 16       	.word	H'0,H'16
     f5a:	05 00       	xorc	#0x0,ccr
     f5c:	03 0e       	ldc	r6l,ccr
     f5e:	3a 0b       	mov.b	r2l,@0xb:8
     f60:	3b 0b       	mov.b	r3l,@0xb:8
     f62:	49 13       	.word	H'49,H'13
     f64:	00 00       	nop	
     f66:	17 05       	not.b	r5h
     f68:	00 03       	.word	H'0,H'3
     f6a:	08 3a       	add.b	r3h,r2l
     f6c:	0b 3b       	.word	H'b,H'3b
     f6e:	0b 49       	.word	H'b,H'49
     f70:	13 00       	rotxr.b	r0h
     f72:	00 18       	.word	H'0,H'18
     f74:	2e 01       	mov.b	@0x1:8,r6l
     f76:	03 0e       	ldc	r6l,ccr
     f78:	3a 0b       	mov.b	r2l,@0xb:8
     f7a:	3b 0b       	mov.b	r3l,@0xb:8
     f7c:	27 19       	mov.b	@0x19:8,r7h
     f7e:	11 01       	shlr.b	r1h
     f80:	12 06       	rotxl.b	r6h
     f82:	40 18       	bra	.+24 (0xf9c)
     f84:	97 42       	addx	#0x42,r7h
     f86:	19 01       	sub.w	r0,r1
     f88:	13 00       	rotxr.b	r0h
     f8a:	00 19       	.word	H'0,H'19
     f8c:	05 00       	xorc	#0x0,ccr
     f8e:	03 08       	ldc	r0l,ccr
     f90:	3a 0b       	mov.b	r2l,@0xb:8
     f92:	3b 0b       	mov.b	r3l,@0xb:8
     f94:	49 13       	.word	H'49,H'13
     f96:	02 17       	stc	exr,r7h
     f98:	00 00       	nop	
     f9a:	1a 34       	sub.w	#0x3,r4
     f9c:	00 03       	.word	H'0,H'3
     f9e:	08 3a       	add.b	r3h,r2l
     fa0:	0b 3b       	.word	H'b,H'3b
     fa2:	0b 49       	.word	H'b,H'49
     fa4:	13 02       	rotxr.b	r2h
     fa6:	17 00       	not.b	r0h
     fa8:	00 1b       	.word	H'0,H'1b
     faa:	2e 01       	mov.b	@0x1:8,r6l
     fac:	03 0e       	ldc	r6l,ccr
     fae:	3a 0b       	mov.b	r2l,@0xb:8
     fb0:	3b 0b       	mov.b	r3l,@0xb:8
     fb2:	27 19       	mov.b	@0x19:8,r7h
     fb4:	20 0b       	mov.b	@0xb:8,r0h
     fb6:	01 13       	.word	H'1,H'13
     fb8:	00 00       	nop	
     fba:	1c 34       	cmp.b	r3h,r4h
     fbc:	00 03       	.word	H'0,H'3
     fbe:	08 3a       	add.b	r3h,r2l
     fc0:	0b 3b       	.word	H'b,H'3b
     fc2:	0b 49       	.word	H'b,H'49
     fc4:	13 00       	rotxr.b	r0h
     fc6:	00 1d       	.word	H'0,H'1d
     fc8:	2e 01       	mov.b	@0x1:8,r6l
     fca:	31 13       	mov.b	r1h,@0x13:8
     fcc:	11 01       	shlr.b	r1h
     fce:	12 06       	rotxl.b	r6h
     fd0:	40 18       	bra	.+24 (0xfea)
     fd2:	97 42       	addx	#0x42,r7h
     fd4:	19 01       	sub.w	r0,r1
     fd6:	13 00       	rotxr.b	r0h
     fd8:	00 1e       	.word	H'0,H'1e
     fda:	05 00       	xorc	#0x0,ccr
     fdc:	31 13       	mov.b	r1h,@0x13:8
     fde:	02 17       	stc	exr,r7h
     fe0:	00 00       	nop	
     fe2:	1f 0b       	das	r3l
     fe4:	01 31       	.word	H'1,H'31
     fe6:	13 11       	rotxr.w	r1
     fe8:	01 12       	.word	H'1,H'12
     fea:	06 01       	andc	#0x1,ccr
     fec:	13 00       	rotxr.b	r0h
     fee:	00 20       	.word	H'0,H'20
     ff0:	2e 00       	mov.b	@0x0:8,r6l
     ff2:	3f 19       	mov.b	r7l,@0x19:8
     ff4:	3c 19       	mov.b	r4l,@0x19:8
     ff6:	6e 0e 03 0e 	mov.b	@(0x30e:16,er0),r6l
     ffa:	3a 0b       	mov.b	r2l,@0xb:8
     ffc:	3b 0b       	mov.b	r3l,@0xb:8
     ffe:	00 00       	nop	
	...

Disassembly of section .debug_loc:

00000000 <.LLST0>:
.LLST0():
       0:	00 ff       	.word	H'0,H'ff
       2:	c0 4e       	or.b	#0x4e,r0h
       4:	00 ff       	.word	H'0,H'ff
       6:	c0 7a       	or.b	#0x7a,r0h
       8:	00 01       	.word	H'0,H'1
       a:	50 00       	mulxu.b	r0h,r0
       c:	ff c0       	mov.b	#0xc0,r7l
       e:	7a 00 ff c0 	mov.l	#0xffc0b600,er0
      12:	b6 00 
      14:	04 f3       	orc	#0xf3,ccr
      16:	01 50       	.word	H'1,H'50
      18:	9f 00       	addx	#0x0,r7l
      1a:	00 00       	nop	
      1c:	00 00       	nop	
      1e:	00 00       	nop	
	...

00000021 <.LLST1>:
.LLST1():
      21:	00 ff       	.word	H'0,H'ff
      23:	c0 4e       	or.b	#0x4e,r0h
      25:	00 ff       	.word	H'0,H'ff
      27:	c0 74       	or.b	#0x74,r0h
      29:	00 01       	.word	H'0,H'1
      2b:	51 00       	divxu.b	r0h,r0
      2d:	ff c0       	mov.b	#0xc0,r7l
      2f:	74 00       	bor	#0x0,r0h
      31:	ff c0       	mov.b	#0xc0,r7l
      33:	b6 00       	subx	#0x0,r6h
      35:	04 f3       	orc	#0xf3,ccr
      37:	01 51       	.word	H'1,H'51
      39:	9f 00       	addx	#0x0,r7l
      3b:	00 00       	nop	
      3d:	00 00       	nop	
      3f:	00 00       	nop	
	...

00000042 <.LLST4>:
.LLST4():
      42:	00 00       	nop	
      44:	00 8e       	.word	H'0,H'8e
      46:	00 00       	nop	
      48:	00 a9       	.word	H'0,H'a9
      4a:	00 01       	.word	H'0,H'1
      4c:	50 00       	mulxu.b	r0h,r0
      4e:	00 00       	nop	
      50:	a9 00       	cmp.b	#0x0,r1l
      52:	00 00       	nop	
      54:	b0 00       	subx	#0x0,r0h
      56:	04 f3       	orc	#0xf3,ccr
      58:	01 50       	.word	H'1,H'50
      5a:	9f 00       	addx	#0x0,r7l
      5c:	00 00       	nop	
      5e:	00 00       	nop	
      60:	00 00       	nop	
	...

00000063 <.LLST5>:
.LLST5():
      63:	00 00       	nop	
      65:	00 8e       	.word	H'0,H'8e
      67:	00 00       	nop	
      69:	00 a9       	.word	H'0,H'a9
      6b:	00 01       	.word	H'0,H'1
      6d:	51 00       	divxu.b	r0h,r0
      6f:	00 00       	nop	
      71:	a9 00       	cmp.b	#0x0,r1l
      73:	00 00       	nop	
      75:	b0 00       	subx	#0x0,r0h
      77:	04 f3       	orc	#0xf3,ccr
      79:	01 51       	.word	H'1,H'51
      7b:	9f 00       	addx	#0x0,r7l
      7d:	00 00       	nop	
      7f:	00 00       	nop	
      81:	00 00       	nop	
	...

00000084 <.LLST6>:
.LLST6():
      84:	00 00       	nop	
      86:	00 a6       	.word	H'0,H'a6
      88:	00 00       	nop	
      8a:	00 a9       	.word	H'0,H'a9
      8c:	00 01       	.word	H'0,H'1
      8e:	52 00       	mulxu.w	r0,er0
      90:	00 00       	nop	
      92:	00 00       	nop	
      94:	00 00       	nop	
	...

00000097 <.LLST0>:
.LLST0():
      97:	00 00       	nop	
      99:	00 06       	.word	H'0,H'6
      9b:	00 00       	nop	
      9d:	00 20       	.word	H'0,H'20
      9f:	00 02       	.word	H'0,H'2
      a1:	30 9f       	mov.b	r0h,@0x9f:8
      a3:	00 00       	nop	
      a5:	00 20       	.word	H'0,H'20
      a7:	00 00       	nop	
      a9:	00 38       	.word	H'0,H'38
      ab:	00 02       	.word	H'0,H'2
      ad:	31 9f       	mov.b	r1h,@0x9f:8
      af:	00 00       	nop	
      b1:	00 38       	.word	H'0,H'38
      b3:	00 00       	nop	
      b5:	00 50       	.word	H'0,H'50
      b7:	00 02       	.word	H'0,H'2
      b9:	32 9f       	mov.b	r2h,@0x9f:8
      bb:	00 00       	nop	
      bd:	00 50       	.word	H'0,H'50
      bf:	00 00       	nop	
      c1:	00 68       	.word	H'0,H'68
      c3:	00 02       	.word	H'0,H'2
      c5:	33 9f       	mov.b	r3h,@0x9f:8
      c7:	00 00       	nop	
      c9:	00 68       	.word	H'0,H'68
      cb:	00 00       	nop	
      cd:	00 70       	.word	H'0,H'70
      cf:	00 02       	.word	H'0,H'2
      d1:	34 9f       	mov.b	r4h,@0x9f:8
	...

000000db <.LLST1>:
.LLST1():
      db:	00 00       	nop	
      dd:	00 06       	.word	H'0,H'6
      df:	00 00       	nop	
      e1:	00 68       	.word	H'0,H'68
      e3:	00 02       	.word	H'0,H'2
      e5:	30 9f       	mov.b	r0h,@0x9f:8
	...

000000ef <.LLST2>:
.LLST2():
      ef:	00 00       	nop	
      f1:	00 06       	.word	H'0,H'6
      f3:	00 00       	nop	
      f5:	00 20       	.word	H'0,H'20
      f7:	00 02       	.word	H'0,H'2
      f9:	30 9f       	mov.b	r0h,@0x9f:8
      fb:	00 00       	nop	
      fd:	00 20       	.word	H'0,H'20
      ff:	00 00       	nop	
     101:	00 38       	.word	H'0,H'38
     103:	00 02       	.word	H'0,H'2
     105:	31 9f       	mov.b	r1h,@0x9f:8
     107:	00 00       	nop	
     109:	00 38       	.word	H'0,H'38
     10b:	00 00       	nop	
     10d:	00 50       	.word	H'0,H'50
     10f:	00 02       	.word	H'0,H'2
     111:	32 9f       	mov.b	r2h,@0x9f:8
     113:	00 00       	nop	
     115:	00 50       	.word	H'0,H'50
     117:	00 00       	nop	
     119:	00 68       	.word	H'0,H'68
     11b:	00 02       	.word	H'0,H'2
     11d:	33 9f       	mov.b	r3h,@0x9f:8
	...

00000127 <.LLST3>:
.LLST3():
     127:	00 00       	nop	
     129:	00 70       	.word	H'0,H'70
     12b:	00 00       	nop	
     12d:	00 7c       	.word	H'0,H'7c
     12f:	00 01       	.word	H'0,H'1
     131:	50 00       	mulxu.b	r0h,r0
     133:	00 00       	nop	
     135:	7c 00       	.word	H'7c,H'0
     137:	00 00       	nop	
     139:	8e 00       	add.b	#0x0,r6l
     13b:	04 f3       	orc	#0xf3,ccr
     13d:	01 50       	.word	H'1,H'50
     13f:	9f 00       	addx	#0x0,r7l
     141:	00 00       	nop	
     143:	00 00       	nop	
     145:	00 00       	nop	
	...

00000148 <.LLST24>:
.LLST24():
     148:	00 00       	nop	
     14a:	02 18       	stc	exr,r0l
     14c:	00 00       	nop	
     14e:	02 48       	.word	H'2,H'48
     150:	00 01       	.word	H'0,H'1
     152:	50 00       	mulxu.b	r0h,r0
     154:	00 02       	.word	H'0,H'2
     156:	5c 00 00 02 	bsr	.+2 (0x15c)
     15a:	68 00       	mov.b	@er0,r0h
     15c:	01 50       	.word	H'1,H'50
     15e:	00 00       	nop	
     160:	02 68       	stc	vbr,er0
     162:	00 00       	nop	
     164:	02 86       	.word	H'2,H'86
     166:	00 02       	.word	H'0,H'2
     168:	30 9f       	mov.b	r0h,@0x9f:8
	...

00000172 <.LLST25>:
.LLST25():
     172:	00 00       	nop	
     174:	02 18       	stc	exr,r0l
     176:	00 00       	nop	
     178:	02 3a       	stmac	macl,er2
     17a:	00 01       	.word	H'0,H'1
     17c:	51 00       	divxu.b	r0h,r0
     17e:	00 02       	.word	H'0,H'2
     180:	3a 00       	mov.b	r2l,@0x0:8
     182:	00 02       	.word	H'0,H'2
     184:	48 00       	bvc	.0 (0x186)
     186:	04 f3       	orc	#0xf3,ccr
     188:	01 51       	.word	H'1,H'51
     18a:	9f 00       	addx	#0x0,r7l
     18c:	00 02       	.word	H'0,H'2
     18e:	48 00       	bvc	.0 (0x190)
     190:	00 02       	.word	H'0,H'2
     192:	73 00       	btst	#0x0,r0h
     194:	01 51       	.word	H'1,H'51
	...

0000019e <.LLST26>:
.LLST26():
     19e:	00 00       	nop	
     1a0:	02 28       	stmac	mach,er0
     1a2:	00 00       	nop	
     1a4:	02 48       	.word	H'2,H'48
     1a6:	00 03       	.word	H'0,H'3
     1a8:	76 7a       	band	#0x7,r2l
     1aa:	9f 00       	addx	#0x0,r7l
     1ac:	00 02       	.word	H'0,H'2
     1ae:	48 00       	bvc	.0 (0x1b0)
     1b0:	00 02       	.word	H'0,H'2
     1b2:	64 00       	or.w	r0,r0
     1b4:	03 72       	ldc	er2,sbr
     1b6:	7f 9f       	.word	H'7f,H'9f
     1b8:	00 00       	nop	
     1ba:	02 64       	stc	vbr,er4
     1bc:	00 00       	nop	
     1be:	02 73       	stc	sbr,er3
     1c0:	00 01       	.word	H'0,H'1
     1c2:	52 00       	mulxu.w	r0,er0
     1c4:	00 00       	nop	
     1c6:	00 00       	nop	
     1c8:	00 00       	nop	
	...

000001cb <.LLST21>:
.LLST21():
     1cb:	00 00       	nop	
     1cd:	01 d2       	.word	H'1,H'd2
     1cf:	00 00       	nop	
     1d1:	01 e6       	.word	H'1,H'e6
     1d3:	00 01       	.word	H'0,H'1
     1d5:	50 00       	mulxu.b	r0h,r0
     1d7:	00 01       	.word	H'0,H'1
     1d9:	e6 00       	and.b	#0x0,r6h
     1db:	00 02       	.word	H'0,H'2
     1dd:	0e 00       	addx	r0h,r0h
     1df:	01 55       	.word	H'1,H'55
     1e1:	00 00       	nop	
     1e3:	02 0e       	stc	ccr,r6l
     1e5:	00 00       	nop	
     1e7:	02 18       	stc	exr,r0l
     1e9:	00 04       	.word	H'0,H'4
     1eb:	f3 01       	mov.b	#0x1,r3h
     1ed:	50 9f       	mulxu.b	r1l,e7
	...

000001f7 <.LLST22>:
.LLST22():
     1f7:	00 00       	nop	
     1f9:	01 e4       	.word	H'1,H'e4
     1fb:	00 00       	nop	
     1fd:	01 e6       	.word	H'1,H'e6
     1ff:	00 02       	.word	H'0,H'2
     201:	30 9f       	mov.b	r0h,@0x9f:8
     203:	00 00       	nop	
     205:	01 ea       	.word	H'1,H'ea
     207:	00 00       	nop	
     209:	01 f3       	.word	H'1,H'f3
     20b:	00 01       	.word	H'0,H'1
     20d:	52 00       	mulxu.w	r0,er0
     20f:	00 01       	.word	H'0,H'1
     211:	f3 00       	mov.b	#0x0,r3h
     213:	00 02       	.word	H'0,H'2
     215:	00 00       	nop	
     217:	06 74       	andc	#0x74,ccr
     219:	00 75       	.word	H'0,H'75
     21b:	00 1c       	.word	H'0,H'1c
     21d:	9f 00       	addx	#0x0,r7l
     21f:	00 02       	.word	H'0,H'2
     221:	00 00       	nop	
     223:	00 02       	.word	H'0,H'2
     225:	02 00       	stc	ccr,r0h
     227:	08 74       	add.b	r7h,r4h
     229:	00 75       	.word	H'0,H'75
     22b:	00 1c       	.word	H'0,H'1c
     22d:	23 01       	mov.b	@0x1:8,r3h
     22f:	9f 00       	addx	#0x0,r7l
     231:	00 02       	.word	H'0,H'2
     233:	02 00       	stc	ccr,r0h
     235:	00 02       	.word	H'0,H'2
     237:	04 00       	orc	#0x0,ccr
     239:	08 74       	add.b	r7h,r4h
     23b:	00 75       	.word	H'0,H'75
     23d:	00 1c       	.word	H'0,H'1c
     23f:	23 02       	mov.b	@0x2:8,r3h
     241:	9f 00       	addx	#0x0,r7l
     243:	00 02       	.word	H'0,H'2
     245:	04 00       	orc	#0x0,ccr
     247:	00 02       	.word	H'0,H'2
     249:	0e 00       	addx	r0h,r0h
     24b:	08 74       	add.b	r7h,r4h
     24d:	00 75       	.word	H'0,H'75
     24f:	00 1c       	.word	H'0,H'1c
     251:	23 01       	mov.b	@0x1:8,r3h
     253:	9f 00       	addx	#0x0,r7l
     255:	00 02       	.word	H'0,H'2
     257:	0e 00       	addx	r0h,r0h
     259:	00 02       	.word	H'0,H'2
     25b:	12 00       	rotxl.b	r0h
     25d:	09 74       	add.w	r7,r4
     25f:	00 f3       	.word	H'0,H'f3
     261:	01 50       	.word	H'1,H'50
     263:	1c 23       	cmp.b	r2h,r3h
     265:	01 9f       	.word	H'1,H'9f
	...

0000026f <.LLST23>:
.LLST23():
     26f:	00 00       	nop	
     271:	01 f4       	.word	H'1,H'f4
     273:	00 00       	nop	
     275:	02 06       	stc	ccr,r6h
     277:	00 01       	.word	H'0,H'1
     279:	50 00       	mulxu.b	r0h,r0
     27b:	00 02       	.word	H'0,H'2
     27d:	06 00       	andc	#0x0,ccr
     27f:	00 02       	.word	H'0,H'2
     281:	18 00       	sub.b	r0h,r0h
     283:	02 30       	stmac	macl,er0
     285:	9f 00       	addx	#0x0,r7l
     287:	00 00       	nop	
     289:	00 00       	nop	
     28b:	00 00       	nop	
	...

0000028e <.LLST20>:
.LLST20():
     28e:	00 00       	nop	
     290:	01 ae       	.word	H'1,H'ae
     292:	00 00       	nop	
     294:	01 bc       	.word	H'1,H'bc
     296:	00 01       	.word	H'0,H'1
     298:	50 00       	mulxu.b	r0h,r0
     29a:	00 01       	.word	H'0,H'1
     29c:	bc 00       	subx	#0x0,r4l
     29e:	00 01       	.word	H'0,H'1
     2a0:	cc 00       	or.b	#0x0,r4l
     2a2:	01 54       	.word	H'1,H'54
	...

000002ac <.LLST19>:
.LLST19():
     2ac:	00 00       	nop	
     2ae:	01 96       	.word	H'1,H'96
     2b0:	00 00       	nop	
     2b2:	01 9c       	.word	H'1,H'9c
     2b4:	00 01       	.word	H'0,H'1
     2b6:	50 00       	mulxu.b	r0h,r0
     2b8:	00 01       	.word	H'0,H'1
     2ba:	9c 00       	addx	#0x0,r4l
     2bc:	00 01       	.word	H'0,H'1
     2be:	a8 00       	cmp.b	#0x0,r0l
     2c0:	01 54       	.word	H'1,H'54
     2c2:	00 00       	nop	
     2c4:	01 a8       	.word	H'1,H'a8
     2c6:	00 00       	nop	
     2c8:	01 ae       	.word	H'1,H'ae
     2ca:	00 01       	.word	H'0,H'1
     2cc:	50 00       	mulxu.b	r0h,r0
     2ce:	00 00       	nop	
     2d0:	00 00       	nop	
     2d2:	00 00       	nop	
	...

000002d5 <.LLST18>:
.LLST18():
     2d5:	00 00       	nop	
     2d7:	01 54       	.word	H'1,H'54
     2d9:	00 00       	nop	
     2db:	01 6a       	.word	H'1,H'6a
     2dd:	00 01       	.word	H'0,H'1
     2df:	50 00       	mulxu.b	r0h,r0
     2e1:	00 01       	.word	H'0,H'1
     2e3:	6a 00 00 01 	mov.b	@0x1:16,r0h
     2e7:	7c 00       	.word	H'7c,H'0
     2e9:	01 54       	.word	H'1,H'54
     2eb:	00 00       	nop	
     2ed:	01 7c       	.word	H'1,H'7c
     2ef:	00 00       	nop	
     2f1:	01 82       	.word	H'1,H'82
     2f3:	00 04       	.word	H'0,H'4
     2f5:	f3 01       	mov.b	#0x1,r3h
     2f7:	50 9f       	mulxu.b	r1l,e7
	...

00000301 <.LLST15>:
.LLST15():
     301:	00 00       	nop	
     303:	01 06       	.word	H'1,H'6
     305:	00 00       	nop	
     307:	01 1e       	.word	H'1,H'1e
     309:	00 01       	.word	H'0,H'1
     30b:	50 00       	mulxu.b	r0h,r0
     30d:	00 01       	.word	H'0,H'1
     30f:	20 00       	mov.b	@0x0:8,r0h
     311:	00 01       	.word	H'0,H'1
     313:	36 00       	mov.b	r6h,@0x0:8
     315:	01 50       	.word	H'1,H'50
     317:	00 00       	nop	
     319:	01 38       	.word	H'1,H'38
     31b:	00 00       	nop	
     31d:	01 3c       	.word	H'1,H'3c
     31f:	00 01       	.word	H'0,H'1
     321:	50 00       	mulxu.b	r0h,r0
     323:	00 01       	.word	H'0,H'1
     325:	3e 00       	mov.b	r6l,@0x0:8
     327:	00 01       	.word	H'0,H'1
     329:	42 00       	bhi	.0 (0x32b)
     32b:	01 50       	.word	H'1,H'50
	...

00000335 <.LLST16>:
.LLST16():
     335:	00 00       	nop	
     337:	01 06       	.word	H'1,H'6
     339:	00 00       	nop	
     33b:	01 24       	.word	H'1,H'24
     33d:	00 01       	.word	H'0,H'1
     33f:	51 00       	divxu.b	r0h,r0
     341:	00 01       	.word	H'0,H'1
     343:	24 00       	mov.b	@0x0:8,r4h
     345:	00 01       	.word	H'0,H'1
     347:	54 00       	rts/l	er0
     349:	01 51       	.word	H'1,H'51
	...

00000353 <.LLST17>:
.LLST17():
     353:	00 00       	nop	
     355:	01 06       	.word	H'1,H'6
     357:	00 00       	nop	
     359:	01 26       	.word	H'1,H'26
     35b:	00 01       	.word	H'0,H'1
     35d:	52 00       	mulxu.w	r0,er0
     35f:	00 01       	.word	H'0,H'1
     361:	26 00       	mov.b	@0x0:8,r6h
     363:	00 01       	.word	H'0,H'1
     365:	54 00       	rts/l	er0
     367:	01 52       	.word	H'1,H'52
	...

00000371 <.LLST13>:
.LLST13():
     371:	00 00       	nop	
     373:	00 ce       	.word	H'0,H'ce
     375:	00 00       	nop	
     377:	00 e0       	.word	H'0,H'e0
     379:	00 01       	.word	H'0,H'1
     37b:	50 00       	mulxu.b	r0h,r0
     37d:	00 00       	nop	
     37f:	e2 00       	and.b	#0x0,r2h
     381:	00 00       	nop	
     383:	f2 00       	mov.b	#0x0,r2h
     385:	01 50       	.word	H'1,H'50
     387:	00 00       	nop	
     389:	00 fc       	.word	H'0,H'fc
     38b:	00 00       	nop	
     38d:	01 00       	.word	H'1,H'0
     38f:	00 01       	.word	H'0,H'1
     391:	50 00       	mulxu.b	r0h,r0
     393:	00 00       	nop	
     395:	00 00       	nop	
     397:	00 00       	nop	
	...

0000039a <.LLST14>:
.LLST14():
     39a:	00 00       	nop	
     39c:	00 ce       	.word	H'0,H'ce
     39e:	00 00       	nop	
     3a0:	00 e6       	.word	H'0,H'e6
     3a2:	00 01       	.word	H'0,H'1
     3a4:	51 00       	divxu.b	r0h,r0
     3a6:	00 00       	nop	
     3a8:	e6 00       	and.b	#0x0,r6h
     3aa:	00 01       	.word	H'0,H'1
     3ac:	06 00       	andc	#0x0,ccr
     3ae:	01 51       	.word	H'1,H'51
	...

000003b8 <.LLST11>:
.LLST11():
     3b8:	00 00       	nop	
     3ba:	00 b2       	.word	H'0,H'b2
     3bc:	00 00       	nop	
     3be:	00 ba       	.word	H'0,H'ba
     3c0:	00 01       	.word	H'0,H'1
     3c2:	50 00       	mulxu.b	r0h,r0
     3c4:	00 00       	nop	
     3c6:	ba 00       	subx	#0x0,r2l
     3c8:	00 00       	nop	
     3ca:	ce 00       	or.b	#0x0,r6l
     3cc:	01 52       	.word	H'1,H'52
	...

000003d6 <.LLST12>:
.LLST12():
     3d6:	00 00       	nop	
     3d8:	00 b2       	.word	H'0,H'b2
     3da:	00 00       	nop	
     3dc:	00 c6       	.word	H'0,H'c6
     3de:	00 01       	.word	H'0,H'1
     3e0:	51 00       	divxu.b	r0h,r0
     3e2:	00 00       	nop	
     3e4:	c6 00       	or.b	#0x0,r6h
     3e6:	00 00       	nop	
     3e8:	ce 00       	or.b	#0x0,r6l
     3ea:	01 51       	.word	H'1,H'51
	...

000003f4 <.LLST9>:
.LLST9():
     3f4:	00 00       	nop	
     3f6:	00 98       	.word	H'0,H'98
     3f8:	00 00       	nop	
     3fa:	00 a4       	.word	H'0,H'a4
     3fc:	00 01       	.word	H'0,H'1
     3fe:	50 00       	mulxu.b	r0h,r0
     400:	00 00       	nop	
     402:	a4 00       	cmp.b	#0x0,r4h
     404:	00 00       	nop	
     406:	ac 00       	cmp.b	#0x0,r4l
     408:	01 50       	.word	H'1,H'50
	...

00000412 <.LLST10>:
.LLST10():
     412:	00 00       	nop	
     414:	00 9e       	.word	H'0,H'9e
     416:	00 00       	nop	
     418:	00 a2       	.word	H'0,H'a2
     41a:	00 02       	.word	H'0,H'2
     41c:	30 9f       	mov.b	r0h,@0x9f:8
     41e:	00 00       	nop	
     420:	00 a2       	.word	H'0,H'a2
     422:	00 00       	nop	
     424:	00 b2       	.word	H'0,H'b2
     426:	00 01       	.word	H'0,H'1
     428:	52 00       	mulxu.w	r0,er0
     42a:	00 00       	nop	
     42c:	00 00       	nop	
     42e:	00 00       	nop	
	...

00000431 <.LLST5>:
.LLST5():
     431:	00 00       	nop	
     433:	00 5c       	.word	H'0,H'5c
     435:	00 00       	nop	
     437:	00 6a       	.word	H'0,H'6a
     439:	00 01       	.word	H'0,H'1
     43b:	50 00       	mulxu.b	r0h,r0
     43d:	00 00       	nop	
     43f:	6a 00 00 00 	mov.b	@0x0:16,r0h
     443:	98 00       	addx	#0x0,r0l
     445:	04 f3       	orc	#0xf3,ccr
     447:	01 50       	.word	H'1,H'50
     449:	9f 00       	addx	#0x0,r7l
     44b:	00 00       	nop	
     44d:	00 00       	nop	
     44f:	00 00       	nop	
	...

00000452 <.LLST6>:
.LLST6():
     452:	00 00       	nop	
     454:	00 5c       	.word	H'0,H'5c
     456:	00 00       	nop	
     458:	00 6a       	.word	H'0,H'6a
     45a:	00 01       	.word	H'0,H'1
     45c:	51 00       	divxu.b	r0h,r0
     45e:	00 00       	nop	
     460:	6a 00 00 00 	mov.b	@0x0:16,r0h
     464:	98 00       	addx	#0x0,r0l
     466:	04 f3       	orc	#0xf3,ccr
     468:	01 51       	.word	H'1,H'51
     46a:	9f 00       	addx	#0x0,r7l
     46c:	00 00       	nop	
     46e:	00 00       	nop	
     470:	00 00       	nop	
	...

00000473 <.LLST7>:
.LLST7():
     473:	00 00       	nop	
     475:	00 5c       	.word	H'0,H'5c
     477:	00 00       	nop	
     479:	00 68       	.word	H'0,H'68
     47b:	00 01       	.word	H'0,H'1
     47d:	52 00       	mulxu.w	r0,er0
     47f:	00 00       	nop	
     481:	68 00       	mov.b	@er0,r0h
     483:	00 00       	nop	
     485:	6a 00 04 f3 	mov.b	@0x4f3:16,r0h
     489:	01 52       	.word	H'1,H'52
     48b:	9f 00       	addx	#0x0,r7l
     48d:	00 00       	nop	
     48f:	6a 00 00 00 	mov.b	@0x0:16,r0h
     493:	78 00       	.word	H'78,H'0
     495:	0b f3       	inc.l	#2,er3
     497:	01 50       	.word	H'1,H'50
     499:	70 00       	bset	#0x0,r0h
     49b:	1c f3       	cmp.b	r7l,r3h
     49d:	01 52       	.word	H'1,H'52
     49f:	22 9f       	mov.b	@0x9f:8,r2h
     4a1:	00 00       	nop	
     4a3:	00 7a       	.word	H'0,H'7a
     4a5:	00 00       	nop	
     4a7:	00 7c       	.word	H'0,H'7c
     4a9:	00 0b       	.word	H'0,H'b
     4ab:	f3 01       	mov.b	#0x1,r3h
     4ad:	50 70       	mulxu.b	r7h,r0
     4af:	00 1c       	.word	H'0,H'1c
     4b1:	f3 01       	mov.b	#0x1,r3h
     4b3:	52 22       	mulxu.w	r2,er2
     4b5:	9f 00       	addx	#0x0,r7l
     4b7:	00 00       	nop	
     4b9:	7c 00       	.word	H'7c,H'0
     4bb:	00 00       	nop	
     4bd:	7e 00       	.word	H'7e,H'0
     4bf:	0d f3       	mov.w	e7,r3
     4c1:	01 50       	.word	H'1,H'50
     4c3:	70 00       	bset	#0x0,r0h
     4c5:	1c f3       	cmp.b	r7l,r3h
     4c7:	01 52       	.word	H'1,H'52
     4c9:	22 23       	mov.b	@0x23:8,r2h
     4cb:	01 9f       	.word	H'1,H'9f
     4cd:	00 00       	nop	
     4cf:	00 7e       	.word	H'0,H'7e
     4d1:	00 00       	nop	
     4d3:	00 88       	.word	H'0,H'88
     4d5:	00 0b       	.word	H'0,H'b
     4d7:	f3 01       	mov.b	#0x1,r3h
     4d9:	50 70       	mulxu.b	r7h,r0
     4db:	00 1c       	.word	H'0,H'1c
     4dd:	f3 01       	mov.b	#0x1,r3h
     4df:	52 22       	mulxu.w	r2,er2
     4e1:	9f 00       	addx	#0x0,r7l
     4e3:	00 00       	nop	
     4e5:	8a 00       	add.b	#0x0,r2l
     4e7:	00 00       	nop	
     4e9:	8e 00       	add.b	#0x0,r6l
     4eb:	0b f3       	inc.l	#2,er3
     4ed:	01 50       	.word	H'1,H'50
     4ef:	70 00       	bset	#0x0,r0h
     4f1:	1c f3       	cmp.b	r7l,r3h
     4f3:	01 52       	.word	H'1,H'52
     4f5:	22 9f       	mov.b	@0x9f:8,r2h
	...

000004ff <.LLST8>:
.LLST8():
     4ff:	00 00       	nop	
     501:	00 66       	.word	H'0,H'66
     503:	00 00       	nop	
     505:	00 78       	.word	H'0,H'78
     507:	00 01       	.word	H'0,H'1
     509:	50 00       	mulxu.b	r0h,r0
     50b:	00 00       	nop	
     50d:	7a 00 00 00 	mov.l	#0x8800,er0
     511:	88 00 
     513:	01 50       	.word	H'1,H'50
     515:	00 00       	nop	
     517:	00 8a       	.word	H'0,H'8a
     519:	00 00       	nop	
     51b:	00 8e       	.word	H'0,H'8e
     51d:	00 01       	.word	H'0,H'1
     51f:	50 00       	mulxu.b	r0h,r0
     521:	00 00       	nop	
     523:	00 00       	nop	
     525:	00 00       	nop	
	...

00000528 <.LLST2>:
.LLST2():
     528:	00 00       	nop	
     52a:	00 26       	.word	H'0,H'26
     52c:	00 00       	nop	
     52e:	00 38       	.word	H'0,H'38
     530:	00 01       	.word	H'0,H'1
     532:	52 00       	mulxu.w	r0,er0
     534:	00 00       	nop	
     536:	38 00       	mov.b	r0l,@0x0:8
     538:	00 00       	nop	
     53a:	3a 00       	mov.b	r2l,@0x0:8
     53c:	01 54       	.word	H'1,H'54
     53e:	00 00       	nop	
     540:	00 3a       	.word	H'0,H'3a
     542:	00 00       	nop	
     544:	00 44       	.word	H'0,H'44
     546:	00 06       	.word	H'0,H'6
     548:	72 00       	bclr	#0x0,r0h
     54a:	73 00       	btst	#0x0,r0h
     54c:	1c 9f       	cmp.b	r1l,r7l
     54e:	00 00       	nop	
     550:	00 44       	.word	H'0,H'44
     552:	00 00       	nop	
     554:	00 46       	.word	H'0,H'46
     556:	00 07       	.word	H'0,H'7
     558:	73 00       	btst	#0x0,r0h
     55a:	20 72       	mov.b	@0x72:8,r0h
     55c:	00 22       	.word	H'0,H'22
     55e:	9f 00       	addx	#0x0,r7l
     560:	00 00       	nop	
     562:	46 00       	bne	.0 (0x564)
     564:	00 00       	nop	
     566:	4a 00       	bpl	.0 (0x568)
     568:	06 72       	andc	#0x72,ccr
     56a:	00 73       	.word	H'0,H'73
     56c:	00 1c       	.word	H'0,H'1c
     56e:	9f 00       	addx	#0x0,r7l
     570:	00 00       	nop	
     572:	4a 00       	bpl	.0 (0x574)
     574:	00 00       	nop	
     576:	56 00       	rte/l	er0
     578:	01 54       	.word	H'1,H'54
     57a:	00 00       	nop	
     57c:	00 56       	.word	H'0,H'56
     57e:	00 00       	nop	
     580:	00 5c       	.word	H'0,H'5c
     582:	00 06       	.word	H'0,H'6
     584:	72 00       	bclr	#0x0,r0h
     586:	73 00       	btst	#0x0,r0h
     588:	1c 9f       	cmp.b	r1l,r7l
	...

00000592 <.LLST3>:
.LLST3():
     592:	00 00       	nop	
     594:	00 34       	.word	H'0,H'34
     596:	00 00       	nop	
     598:	00 38       	.word	H'0,H'38
     59a:	00 01       	.word	H'0,H'1
     59c:	50 00       	mulxu.b	r0h,r0
     59e:	00 00       	nop	
     5a0:	38 00       	mov.b	r0l,@0x0:8
     5a2:	00 00       	nop	
     5a4:	46 00       	bne	.0 (0x5a6)
     5a6:	08 70       	add.b	r7h,r0h
     5a8:	00 73       	.word	H'0,H'73
     5aa:	00 22       	.word	H'0,H'22
     5ac:	23 01       	mov.b	@0x1:8,r3h
     5ae:	9f 00       	addx	#0x0,r7l
     5b0:	00 00       	nop	
     5b2:	46 00       	bne	.0 (0x5b4)
     5b4:	00 00       	nop	
     5b6:	5c 00 06 70 	bsr	.+1648 (0xc2a)
     5ba:	00 73       	.word	H'0,H'73
     5bc:	00 22       	.word	H'0,H'22
     5be:	9f 00       	addx	#0x0,r7l
     5c0:	00 00       	nop	
     5c2:	00 00       	nop	
     5c4:	00 00       	nop	
	...

000005c7 <.LLST4>:
.LLST4():
     5c7:	00 00       	nop	
     5c9:	00 34       	.word	H'0,H'34
     5cb:	00 00       	nop	
     5cd:	00 38       	.word	H'0,H'38
     5cf:	00 01       	.word	H'0,H'1
     5d1:	51 00       	divxu.b	r0h,r0
     5d3:	00 00       	nop	
     5d5:	38 00       	mov.b	r0l,@0x0:8
     5d7:	00 00       	nop	
     5d9:	46 00       	bne	.0 (0x5db)
     5db:	08 71       	add.b	r7h,r1h
     5dd:	00 73       	.word	H'0,H'73
     5df:	00 22       	.word	H'0,H'22
     5e1:	23 01       	mov.b	@0x1:8,r3h
     5e3:	9f 00       	addx	#0x0,r7l
     5e5:	00 00       	nop	
     5e7:	46 00       	bne	.0 (0x5e9)
     5e9:	00 00       	nop	
     5eb:	5c 00 06 71 	bsr	.+1649 (0xc60)
     5ef:	00 73       	.word	H'0,H'73
     5f1:	00 22       	.word	H'0,H'22
     5f3:	9f 00       	addx	#0x0,r7l
     5f5:	00 00       	nop	
     5f7:	00 00       	nop	
     5f9:	00 00       	nop	
	...

000005fc <.LLST0>:
.LLST0():
     5fc:	00 00       	nop	
     5fe:	00 00       	nop	
     600:	00 00       	nop	
     602:	00 0e       	.word	H'0,H'e
     604:	00 01       	.word	H'0,H'1
     606:	52 00       	mulxu.w	r0,er0
     608:	00 00       	nop	
     60a:	0e 00       	addx	r0h,r0h
     60c:	00 00       	nop	
     60e:	10 00       	shll.b	r0h
     610:	04 f3       	orc	#0xf3,ccr
     612:	01 52       	.word	H'1,H'52
     614:	9f 00       	addx	#0x0,r7l
     616:	00 00       	nop	
     618:	10 00       	shll.b	r0h
     61a:	00 00       	nop	
     61c:	12 00       	rotxl.b	r0h
     61e:	0a 70       	add.w	#0x7,r0
     620:	00 73       	.word	H'0,H'73
     622:	00 1c       	.word	H'0,H'1c
     624:	f3 01       	mov.b	#0x1,r3h
     626:	52 22       	mulxu.w	r2,er2
     628:	9f 00       	addx	#0x0,r7l
     62a:	00 00       	nop	
     62c:	12 00       	rotxl.b	r0h
     62e:	00 00       	nop	
     630:	14 00       	or.b	r0h,r0h
     632:	0b 73       	inc.l	#1,er3
     634:	00 20       	.word	H'0,H'20
     636:	f3 01       	mov.b	#0x1,r3h
     638:	52 22       	mulxu.w	r2,er2
     63a:	70 00       	bset	#0x0,r0h
     63c:	22 9f       	mov.b	@0x9f:8,r2h
     63e:	00 00       	nop	
     640:	00 14       	.word	H'0,H'14
     642:	00 00       	nop	
     644:	00 26       	.word	H'0,H'26
     646:	00 0a       	.word	H'0,H'a
     648:	70 00       	bset	#0x0,r0h
     64a:	73 00       	btst	#0x0,r0h
     64c:	1c f3       	cmp.b	r7l,r3h
     64e:	01 52       	.word	H'1,H'52
     650:	22 9f       	mov.b	@0x9f:8,r2h
	...

0000065a <.LLST1>:
.LLST1():
     65a:	00 00       	nop	
     65c:	00 0a       	.word	H'0,H'a
     65e:	00 00       	nop	
     660:	00 10       	.word	H'0,H'10
     662:	00 01       	.word	H'0,H'1
     664:	50 00       	mulxu.b	r0h,r0
     666:	00 00       	nop	
     668:	10 00       	shll.b	r0h
     66a:	00 00       	nop	
     66c:	14 00       	or.b	r0h,r0h
     66e:	03 73       	ldc	er3,sbr
     670:	01 9f       	.word	H'1,H'9f
     672:	00 00       	nop	
     674:	00 14       	.word	H'0,H'14
     676:	00 00       	nop	
     678:	00 26       	.word	H'0,H'26
     67a:	00 01       	.word	H'0,H'1
     67c:	53 00       	divxu.w	r0,er0
     67e:	00 00       	nop	
     680:	00 00       	nop	
     682:	00 00       	nop	
	...

00000685 <.LLST12>:
.LLST12():
     685:	00 00       	nop	
     687:	01 a4       	.word	H'1,H'a4
     689:	00 00       	nop	
     68b:	01 b0       	.word	H'1,H'b0
     68d:	00 01       	.word	H'0,H'1
     68f:	50 00       	mulxu.b	r0h,r0
     691:	00 01       	.word	H'0,H'1
     693:	b0 00       	subx	#0x0,r0h
     695:	00 01       	.word	H'0,H'1
     697:	ca 00       	or.b	#0x0,r2l
     699:	04 f3       	orc	#0xf3,ccr
     69b:	01 50       	.word	H'1,H'50
     69d:	9f 00       	addx	#0x0,r7l
     69f:	00 00       	nop	
     6a1:	00 00       	nop	
     6a3:	00 00       	nop	
	...

000006a6 <.LLST11>:
.LLST11():
     6a6:	00 00       	nop	
     6a8:	01 7e       	.word	H'1,H'7e
     6aa:	00 00       	nop	
     6ac:	01 8a       	.word	H'1,H'8a
     6ae:	00 01       	.word	H'0,H'1
     6b0:	50 00       	mulxu.b	r0h,r0
     6b2:	00 01       	.word	H'0,H'1
     6b4:	8a 00       	add.b	#0x0,r2l
     6b6:	00 01       	.word	H'0,H'1
     6b8:	a4 00       	cmp.b	#0x0,r4h
     6ba:	04 f3       	orc	#0xf3,ccr
     6bc:	01 50       	.word	H'1,H'50
     6be:	9f 00       	addx	#0x0,r7l
     6c0:	00 00       	nop	
     6c2:	00 00       	nop	
     6c4:	00 00       	nop	
	...

000006c7 <.LLST10>:
.LLST10():
     6c7:	00 00       	nop	
     6c9:	01 56       	.word	H'1,H'56
     6cb:	00 00       	nop	
     6cd:	01 62       	.word	H'1,H'62
     6cf:	00 01       	.word	H'0,H'1
     6d1:	50 00       	mulxu.b	r0h,r0
     6d3:	00 01       	.word	H'0,H'1
     6d5:	62 00       	bclr	r0h,r0h
     6d7:	00 01       	.word	H'0,H'1
     6d9:	7e 00       	.word	H'7e,H'0
     6db:	04 f3       	orc	#0xf3,ccr
     6dd:	01 50       	.word	H'1,H'50
     6df:	9f 00       	addx	#0x0,r7l
     6e1:	00 00       	nop	
     6e3:	00 00       	nop	
     6e5:	00 00       	nop	
	...

000006e8 <.LLST9>:
.LLST9():
     6e8:	00 00       	nop	
     6ea:	01 30       	.word	H'1,H'30
     6ec:	00 00       	nop	
     6ee:	01 3c       	.word	H'1,H'3c
     6f0:	00 01       	.word	H'0,H'1
     6f2:	50 00       	mulxu.b	r0h,r0
     6f4:	00 01       	.word	H'0,H'1
     6f6:	3c 00       	mov.b	r4l,@0x0:8
     6f8:	00 01       	.word	H'0,H'1
     6fa:	56 00       	rte/l	er0
     6fc:	04 f3       	orc	#0xf3,ccr
     6fe:	01 50       	.word	H'1,H'50
     700:	9f 00       	addx	#0x0,r7l
     702:	00 00       	nop	
     704:	00 00       	nop	
     706:	00 00       	nop	
	...

00000709 <.LLST8>:
.LLST8():
     709:	00 00       	nop	
     70b:	01 0a       	.word	H'1,H'a
     70d:	00 00       	nop	
     70f:	01 16       	.word	H'1,H'16
     711:	00 01       	.word	H'0,H'1
     713:	50 00       	mulxu.b	r0h,r0
     715:	00 01       	.word	H'0,H'1
     717:	16 00       	and.b	r0h,r0h
     719:	00 01       	.word	H'0,H'1
     71b:	30 00       	mov.b	r0h,@0x0:8
     71d:	04 f3       	orc	#0xf3,ccr
     71f:	01 50       	.word	H'1,H'50
     721:	9f 00       	addx	#0x0,r7l
     723:	00 00       	nop	
     725:	00 00       	nop	
     727:	00 00       	nop	
	...

0000072a <.LLST7>:
.LLST7():
     72a:	00 00       	nop	
     72c:	00 e2       	.word	H'0,H'e2
     72e:	00 00       	nop	
     730:	00 ee       	.word	H'0,H'ee
     732:	00 01       	.word	H'0,H'1
     734:	50 00       	mulxu.b	r0h,r0
     736:	00 00       	nop	
     738:	ee 00       	and.b	#0x0,r6l
     73a:	00 01       	.word	H'0,H'1
     73c:	0a 00       	inc	r0h
     73e:	04 f3       	orc	#0xf3,ccr
     740:	01 50       	.word	H'1,H'50
     742:	9f 00       	addx	#0x0,r7l
     744:	00 00       	nop	
     746:	00 00       	nop	
     748:	00 00       	nop	
	...

0000074b <.LLST5>:
.LLST5():
     74b:	00 00       	nop	
     74d:	00 b0       	.word	H'0,H'b0
     74f:	00 00       	nop	
     751:	00 bc       	.word	H'0,H'bc
     753:	00 01       	.word	H'0,H'1
     755:	50 00       	mulxu.b	r0h,r0
     757:	00 00       	nop	
     759:	bc 00       	subx	#0x0,r4l
     75b:	00 00       	nop	
     75d:	e2 00       	and.b	#0x0,r2h
     75f:	04 f3       	orc	#0xf3,ccr
     761:	01 50       	.word	H'1,H'50
     763:	9f 00       	addx	#0x0,r7l
     765:	00 00       	nop	
     767:	00 00       	nop	
     769:	00 00       	nop	
	...

0000076c <.LLST6>:
.LLST6():
     76c:	00 00       	nop	
     76e:	00 c6       	.word	H'0,H'c6
     770:	00 00       	nop	
     772:	00 ca       	.word	H'0,H'ca
     774:	00 04       	.word	H'0,H'4
     776:	f3 01       	mov.b	#0x1,r3h
     778:	50 9f       	mulxu.b	r1l,e7
	...

00000782 <.LLST2>:
.LLST2():
     782:	00 00       	nop	
     784:	00 5a       	.word	H'0,H'5a
     786:	00 00       	nop	
     788:	00 66       	.word	H'0,H'66
     78a:	00 01       	.word	H'0,H'1
     78c:	50 00       	mulxu.b	r0h,r0
     78e:	00 00       	nop	
     790:	66 00       	and.w	r0,r0
     792:	00 00       	nop	
     794:	8c 00       	add.b	#0x0,r4l
     796:	04 f3       	orc	#0xf3,ccr
     798:	01 50       	.word	H'1,H'50
     79a:	9f 00       	addx	#0x0,r7l
     79c:	00 00       	nop	
     79e:	00 00       	nop	
     7a0:	00 00       	nop	
	...

000007a3 <.LLST3>:
.LLST3():
     7a3:	00 00       	nop	
     7a5:	00 70       	.word	H'0,H'70
     7a7:	00 00       	nop	
     7a9:	00 74       	.word	H'0,H'74
     7ab:	00 04       	.word	H'0,H'4
     7ad:	f3 01       	mov.b	#0x1,r3h
     7af:	50 9f       	mulxu.b	r1l,e7
	...

000007b9 <.LLST0>:
.LLST0():
     7b9:	00 00       	nop	
     7bb:	00 00       	nop	
     7bd:	00 00       	nop	
     7bf:	00 0c       	.word	H'0,H'c
     7c1:	00 01       	.word	H'0,H'1
     7c3:	50 00       	mulxu.b	r0h,r0
     7c5:	00 00       	nop	
     7c7:	0c 00       	mov.b	r0h,r0h
     7c9:	00 00       	nop	
     7cb:	36 00       	mov.b	r6h,@0x0:8
     7cd:	04 f3       	orc	#0xf3,ccr
     7cf:	01 50       	.word	H'1,H'50
     7d1:	9f 00       	addx	#0x0,r7l
     7d3:	00 00       	nop	
     7d5:	00 00       	nop	
     7d7:	00 00       	nop	
	...

000007da <.LLST1>:
.LLST1():
     7da:	00 00       	nop	
     7dc:	00 36       	.word	H'0,H'36
     7de:	00 00       	nop	
     7e0:	00 42       	.word	H'0,H'42
     7e2:	00 01       	.word	H'0,H'1
     7e4:	50 00       	mulxu.b	r0h,r0
     7e6:	00 00       	nop	
     7e8:	42 00       	bhi	.0 (0x7ea)
     7ea:	00 00       	nop	
     7ec:	5a 00 04 f3 	jmp	@0x4f3:24
     7f0:	01 50       	.word	H'1,H'50
     7f2:	9f 00       	addx	#0x0,r7l
     7f4:	00 00       	nop	
     7f6:	00 00       	nop	
     7f8:	00 00       	nop	
	...

000007fb <.LLST4>:
.LLST4():
     7fb:	00 00       	nop	
     7fd:	00 8c       	.word	H'0,H'8c
     7ff:	00 00       	nop	
     801:	00 98       	.word	H'0,H'98
     803:	00 01       	.word	H'0,H'1
     805:	50 00       	mulxu.b	r0h,r0
     807:	00 00       	nop	
     809:	98 00       	addx	#0x0,r0l
     80b:	00 00       	nop	
     80d:	b0 00       	subx	#0x0,r0h
     80f:	04 f3       	orc	#0xf3,ccr
     811:	01 50       	.word	H'1,H'50
     813:	9f 00       	addx	#0x0,r7l
     815:	00 00       	nop	
     817:	00 00       	nop	
     819:	00 00       	nop	
	...

0000081c <.LLST5>:
.LLST5():
     81c:	00 00       	nop	
     81e:	00 9a       	.word	H'0,H'9a
     820:	00 00       	nop	
     822:	00 b9       	.word	H'0,H'b9
     824:	00 01       	.word	H'0,H'1
     826:	50 00       	mulxu.b	r0h,r0
     828:	00 00       	nop	
     82a:	b9 00       	subx	#0x0,r1l
     82c:	00 00       	nop	
     82e:	d4 00       	xor.b	#0x0,r4h
     830:	04 f3       	orc	#0xf3,ccr
     832:	01 50       	.word	H'1,H'50
     834:	9f 00       	addx	#0x0,r7l
     836:	00 00       	nop	
     838:	00 00       	nop	
     83a:	00 00       	nop	
	...

0000083d <.LLST6>:
.LLST6():
     83d:	00 00       	nop	
     83f:	00 b6       	.word	H'0,H'b6
     841:	00 00       	nop	
     843:	00 ce       	.word	H'0,H'ce
     845:	00 01       	.word	H'0,H'1
     847:	54 00       	rts/l	er0
     849:	00 00       	nop	
     84b:	ce 00       	or.b	#0x0,r6l
     84d:	00 00       	nop	
     84f:	d4 00       	xor.b	#0x0,r4h
     851:	0f f3       	mov.l	er7,er3
     853:	01 50       	.word	H'1,H'50
     855:	40 24       	bra	.+36 (0x87b)
     857:	40 26       	bra	.+38 (0x87f)
     859:	32 24       	mov.b	r2h,@0x24:8
     85b:	03 00       	ldc	r0h,ccr
     85d:	ff d8       	mov.b	#0xd8,r7l
     85f:	0c 22       	mov.b	r2h,r2h
	...

00000869 <.LLST4>:
.LLST4():
     869:	00 00       	nop	
     86b:	00 72       	.word	H'0,H'72
     86d:	00 00       	nop	
     86f:	00 7e       	.word	H'0,H'7e
     871:	00 01       	.word	H'0,H'1
     873:	50 00       	mulxu.b	r0h,r0
     875:	00 00       	nop	
     877:	7e 00       	.word	H'7e,H'0
     879:	00 00       	nop	
     87b:	9a 00       	addx	#0x0,r2l
     87d:	04 f3       	orc	#0xf3,ccr
     87f:	01 50       	.word	H'1,H'50
     881:	9f 00       	addx	#0x0,r7l
     883:	00 00       	nop	
     885:	00 00       	nop	
     887:	00 00       	nop	
	...

0000088a <.LLST3>:
.LLST3():
     88a:	00 00       	nop	
     88c:	00 4a       	.word	H'0,H'4a
     88e:	00 00       	nop	
     890:	00 56       	.word	H'0,H'56
     892:	00 01       	.word	H'0,H'1
     894:	50 00       	mulxu.b	r0h,r0
     896:	00 00       	nop	
     898:	56 00       	rte/l	er0
     89a:	00 00       	nop	
     89c:	72 00       	bclr	#0x0,r0h
     89e:	04 f3       	orc	#0xf3,ccr
     8a0:	01 50       	.word	H'1,H'50
     8a2:	9f 00       	addx	#0x0,r7l
     8a4:	00 00       	nop	
     8a6:	00 00       	nop	
     8a8:	00 00       	nop	
	...

000008ab <.LLST0>:
.LLST0():
     8ab:	00 00       	nop	
     8ad:	00 00       	nop	
     8af:	00 00       	nop	
     8b1:	00 0c       	.word	H'0,H'c
     8b3:	00 01       	.word	H'0,H'1
     8b5:	50 00       	mulxu.b	r0h,r0
     8b7:	00 00       	nop	
     8b9:	0c 00       	mov.b	r0h,r0h
     8bb:	00 00       	nop	
     8bd:	4a 00       	bpl	.0 (0x8bf)
     8bf:	04 f3       	orc	#0xf3,ccr
     8c1:	01 50       	.word	H'1,H'50
     8c3:	9f 00       	addx	#0x0,r7l
     8c5:	00 00       	nop	
     8c7:	00 00       	nop	
     8c9:	00 00       	nop	
	...

000008cc <.LLST1>:
.LLST1():
     8cc:	00 00       	nop	
     8ce:	00 00       	nop	
     8d0:	00 00       	nop	
     8d2:	00 3a       	.word	H'0,H'3a
     8d4:	00 01       	.word	H'0,H'1
     8d6:	51 00       	divxu.b	r0h,r0
     8d8:	00 00       	nop	
     8da:	3a 00       	mov.b	r2l,@0x0:8
     8dc:	00 00       	nop	
     8de:	4a 00       	bpl	.0 (0x8e0)
     8e0:	04 f3       	orc	#0xf3,ccr
     8e2:	01 51       	.word	H'1,H'51
     8e4:	9f 00       	addx	#0x0,r7l
     8e6:	00 00       	nop	
     8e8:	00 00       	nop	
     8ea:	00 00       	nop	
	...

000008ed <.LLST2>:
.LLST2():
     8ed:	00 00       	nop	
     8ef:	00 2a       	.word	H'0,H'2a
     8f1:	00 00       	nop	
     8f3:	00 3a       	.word	H'0,H'3a
     8f5:	00 06       	.word	H'0,H'6
     8f7:	71 00       	bnot	#0x0,r0h
     8f9:	08 69       	add.b	r6h,r1l
     8fb:	1b 9f       	subs	#4,er7
     8fd:	00 00       	nop	
     8ff:	00 3a       	.word	H'0,H'3a
     901:	00 00       	nop	
     903:	00 4a       	.word	H'0,H'4a
     905:	00 07       	.word	H'0,H'7
     907:	f3 01       	mov.b	#0x1,r3h
     909:	51 08       	divxu.b	r0h,e0
     90b:	69 1b       	mov.w	@er1,e3
     90d:	9f 00       	addx	#0x0,r7l
     90f:	00 00       	nop	
     911:	00 00       	nop	
     913:	00 00       	nop	
	...

00000916 <.LLST42>:
.LLST42():
     916:	00 00       	nop	
     918:	07 a0       	ldc	#0xa0,ccr
     91a:	00 00       	nop	
     91c:	07 b3       	ldc	#0xb3,ccr
     91e:	00 01       	.word	H'0,H'1
     920:	50 00       	mulxu.b	r0h,r0
     922:	00 07       	.word	H'0,H'7
     924:	b3 00       	subx	#0x0,r3h
     926:	00 07       	.word	H'0,H'7
     928:	ba 00       	subx	#0x0,r2l
     92a:	04 f3       	orc	#0xf3,ccr
     92c:	01 50       	.word	H'1,H'50
     92e:	9f 00       	addx	#0x0,r7l
     930:	00 00       	nop	
     932:	00 00       	nop	
     934:	00 00       	nop	
	...

00000937 <.LLST43>:
.LLST43():
     937:	00 00       	nop	
     939:	07 a0       	ldc	#0xa0,ccr
     93b:	00 00       	nop	
     93d:	07 b3       	ldc	#0xb3,ccr
     93f:	00 01       	.word	H'0,H'1
     941:	51 00       	divxu.b	r0h,r0
     943:	00 07       	.word	H'0,H'7
     945:	b3 00       	subx	#0x0,r3h
     947:	00 07       	.word	H'0,H'7
     949:	ba 00       	subx	#0x0,r2l
     94b:	04 f3       	orc	#0xf3,ccr
     94d:	01 51       	.word	H'1,H'51
     94f:	9f 00       	addx	#0x0,r7l
     951:	00 00       	nop	
     953:	00 00       	nop	
     955:	00 00       	nop	
	...

00000958 <.LLST44>:
.LLST44():
     958:	00 00       	nop	
     95a:	07 a6       	ldc	#0xa6,ccr
     95c:	00 00       	nop	
     95e:	07 b3       	ldc	#0xb3,ccr
     960:	00 01       	.word	H'0,H'1
     962:	51 00       	divxu.b	r0h,r0
     964:	00 07       	.word	H'0,H'7
     966:	b3 00       	subx	#0x0,r3h
     968:	00 07       	.word	H'0,H'7
     96a:	b4 00       	subx	#0x0,r4h
     96c:	04 f3       	orc	#0xf3,ccr
     96e:	01 51       	.word	H'1,H'51
     970:	9f 00       	addx	#0x0,r7l
     972:	00 00       	nop	
     974:	00 00       	nop	
     976:	00 00       	nop	
	...

00000979 <.LLST45>:
.LLST45():
     979:	00 00       	nop	
     97b:	07 a6       	ldc	#0xa6,ccr
     97d:	00 00       	nop	
     97f:	07 b3       	ldc	#0xb3,ccr
     981:	00 01       	.word	H'0,H'1
     983:	50 00       	mulxu.b	r0h,r0
     985:	00 07       	.word	H'0,H'7
     987:	b3 00       	subx	#0x0,r3h
     989:	00 07       	.word	H'0,H'7
     98b:	b4 00       	subx	#0x0,r4h
     98d:	04 f3       	orc	#0xf3,ccr
     98f:	01 50       	.word	H'1,H'50
     991:	9f 00       	addx	#0x0,r7l
     993:	00 00       	nop	
     995:	00 00       	nop	
     997:	00 00       	nop	
	...

0000099a <.LLST10>:
.LLST10():
     99a:	00 00       	nop	
     99c:	03 74       	ldc	er4,sbr
     99e:	00 00       	nop	
     9a0:	03 93       	.word	H'3,H'93
     9a2:	00 01       	.word	H'0,H'1
     9a4:	50 00       	mulxu.b	r0h,r0
     9a6:	00 03       	.word	H'0,H'3
     9a8:	93 00       	addx	#0x0,r3h
     9aa:	00 04       	.word	H'0,H'4
     9ac:	6c 00       	mov.b	@er0+,r0h
     9ae:	01 54       	.word	H'1,H'54
     9b0:	00 00       	nop	
     9b2:	04 6c       	orc	#0x6c,ccr
     9b4:	00 00       	nop	
     9b6:	04 72       	orc	#0x72,ccr
     9b8:	00 04       	.word	H'0,H'4
     9ba:	f3 01       	mov.b	#0x1,r3h
     9bc:	50 9f       	mulxu.b	r1l,e7
	...

000009c6 <.LLST11>:
.LLST11():
     9c6:	00 00       	nop	
     9c8:	03 74       	ldc	er4,sbr
     9ca:	00 00       	nop	
     9cc:	03 93       	.word	H'3,H'93
     9ce:	00 01       	.word	H'0,H'1
     9d0:	51 00       	divxu.b	r0h,r0
     9d2:	00 03       	.word	H'0,H'3
     9d4:	93 00       	addx	#0x0,r3h
     9d6:	00 04       	.word	H'0,H'4
     9d8:	68 00       	mov.b	@er0,r0h
     9da:	01 55       	.word	H'1,H'55
     9dc:	00 00       	nop	
     9de:	04 68       	orc	#0x68,ccr
     9e0:	00 00       	nop	
     9e2:	04 72       	orc	#0x72,ccr
     9e4:	00 04       	.word	H'0,H'4
     9e6:	f3 01       	mov.b	#0x1,r3h
     9e8:	51 9f       	divxu.b	r1l,e7
	...

000009f2 <.LLST12>:
.LLST12():
     9f2:	00 00       	nop	
     9f4:	03 74       	ldc	er4,sbr
     9f6:	00 00       	nop	
     9f8:	03 93       	.word	H'3,H'93
     9fa:	00 01       	.word	H'0,H'1
     9fc:	52 00       	mulxu.w	r0,er0
     9fe:	00 03       	.word	H'0,H'3
     a00:	93 00       	addx	#0x0,r3h
     a02:	00 04       	.word	H'0,H'4
     a04:	72 00       	bclr	#0x0,r0h
     a06:	04 f3       	orc	#0xf3,ccr
     a08:	01 52       	.word	H'1,H'52
     a0a:	9f 00       	addx	#0x0,r7l
     a0c:	00 00       	nop	
     a0e:	00 00       	nop	
     a10:	00 00       	nop	
	...

00000a13 <.LLST13>:
.LLST13():
     a13:	00 00       	nop	
     a15:	03 e0       	.word	H'3,H'e0
     a17:	00 00       	nop	
     a19:	04 00       	orc	#0x0,ccr
     a1b:	00 02       	.word	H'0,H'2
     a1d:	31 9f       	mov.b	r1h,@0x9f:8
	...

00000a27 <.LLST14>:
.LLST14():
     a27:	00 00       	nop	
     a29:	04 00       	orc	#0x0,ccr
     a2b:	00 00       	nop	
     a2d:	04 1e       	orc	#0x1e,ccr
     a2f:	00 02       	.word	H'0,H'2
     a31:	30 9f       	mov.b	r0h,@0x9f:8
	...

00000a3b <.LLST39>:
.LLST39():
     a3b:	00 00       	nop	
     a3d:	07 22       	ldc	#0x22,ccr
     a3f:	00 00       	nop	
     a41:	07 3c       	ldc	#0x3c,ccr
     a43:	00 01       	.word	H'0,H'1
     a45:	50 00       	mulxu.b	r0h,r0
     a47:	00 07       	.word	H'0,H'7
     a49:	3c 00       	mov.b	r4l,@0x0:8
     a4b:	00 07       	.word	H'0,H'7
     a4d:	80 00       	add.b	#0x0,r0h
     a4f:	04 f3       	orc	#0xf3,ccr
     a51:	01 50       	.word	H'1,H'50
     a53:	9f 00       	addx	#0x0,r7l
     a55:	00 00       	nop	
     a57:	00 00       	nop	
     a59:	00 00       	nop	
	...

00000a5c <.LLST40>:
.LLST40():
     a5c:	00 00       	nop	
     a5e:	07 22       	ldc	#0x22,ccr
     a60:	00 00       	nop	
     a62:	07 49       	ldc	#0x49,ccr
     a64:	00 01       	.word	H'0,H'1
     a66:	51 00       	divxu.b	r0h,r0
     a68:	00 07       	.word	H'0,H'7
     a6a:	49 00       	bvs	.0 (0xa6c)
     a6c:	00 07       	.word	H'0,H'7
     a6e:	80 00       	add.b	#0x0,r0h
     a70:	04 f3       	orc	#0xf3,ccr
     a72:	01 51       	.word	H'1,H'51
     a74:	9f 00       	addx	#0x0,r7l
     a76:	00 00       	nop	
     a78:	00 00       	nop	
     a7a:	00 00       	nop	
	...

00000a7d <.LLST41>:
.LLST41():
     a7d:	00 00       	nop	
     a7f:	07 4a       	ldc	#0x4a,ccr
     a81:	00 00       	nop	
     a83:	07 54       	ldc	#0x54,ccr
     a85:	00 02       	.word	H'0,H'2
     a87:	30 9f       	mov.b	r0h,@0x9f:8
     a89:	00 00       	nop	
     a8b:	07 54       	ldc	#0x54,ccr
     a8d:	00 00       	nop	
     a8f:	07 5a       	ldc	#0x5a,ccr
     a91:	00 05       	.word	H'0,H'5
     a93:	40 73       	bra/s	.+114 (0xb07)
     a95:	00 1c       	.word	H'0,H'1c
     a97:	9f 00       	addx	#0x0,r7l
     a99:	00 07       	.word	H'0,H'7
     a9b:	5a 00 00 07 	jmp	@0x7:24
     a9f:	5c 00 05 41 	bsr	.+1345 (0xfe4)
     aa3:	73 00       	btst	#0x0,r0h
     aa5:	1c 9f       	cmp.b	r1l,r7l
     aa7:	00 00       	nop	
     aa9:	07 5c       	ldc	#0x5c,ccr
     aab:	00 00       	nop	
     aad:	07 67       	ldc	#0x67,ccr
     aaf:	00 05       	.word	H'0,H'5
     ab1:	40 73       	bra/s	.+114 (0xb25)
     ab3:	00 1c       	.word	H'0,H'1c
     ab5:	9f 00       	addx	#0x0,r7l
     ab7:	00 07       	.word	H'0,H'7
     ab9:	68 00       	mov.b	@er0,r0h
     abb:	00 07       	.word	H'0,H'7
     abd:	70 00       	bset	#0x0,r0h
     abf:	05 40       	xorc	#0x40,ccr
     ac1:	73 00       	btst	#0x0,r0h
     ac3:	1c 9f       	cmp.b	r1l,r7l
	...

00000acd <.LLST37>:
.LLST37():
     acd:	00 00       	nop	
     acf:	07 08       	ldc	#0x8,ccr
     ad1:	00 00       	nop	
     ad3:	07 14       	ldc	#0x14,ccr
     ad5:	00 01       	.word	H'0,H'1
     ad7:	55 00       	bsr	.0 (0xad9)
     ad9:	00 00       	nop	
     adb:	00 00       	nop	
     add:	00 00       	nop	
	...

00000ae0 <.LLST38>:
.LLST38():
     ae0:	00 00       	nop	
     ae2:	07 08       	ldc	#0x8,ccr
     ae4:	00 00       	nop	
     ae6:	07 14       	ldc	#0x14,ccr
     ae8:	00 01       	.word	H'0,H'1
     aea:	54 00       	rts/l	er0
     aec:	00 00       	nop	
     aee:	00 00       	nop	
     af0:	00 00       	nop	
	...

00000af3 <.LLST15>:
.LLST15():
     af3:	00 00       	nop	
     af5:	04 84       	orc	#0x84,ccr
     af7:	00 00       	nop	
     af9:	04 a8       	orc	#0xa8,ccr
     afb:	00 01       	.word	H'0,H'1
     afd:	50 00       	mulxu.b	r0h,r0
     aff:	00 04       	.word	H'0,H'4
     b01:	a8 00       	cmp.b	#0x0,r0l
     b03:	00 06       	.word	H'0,H'6
     b05:	e8 00       	and.b	#0x0,r0l
     b07:	04 f3       	orc	#0xf3,ccr
     b09:	01 50       	.word	H'1,H'50
     b0b:	9f 00       	addx	#0x0,r7l
     b0d:	00 00       	nop	
     b0f:	00 00       	nop	
     b11:	00 00       	nop	
	...

00000b14 <.LLST16>:
.LLST16():
     b14:	00 00       	nop	
     b16:	04 84       	orc	#0x84,ccr
     b18:	00 00       	nop	
     b1a:	04 dc       	orc	#0xdc,ccr
     b1c:	00 01       	.word	H'0,H'1
     b1e:	51 00       	divxu.b	r0h,r0
     b20:	00 04       	.word	H'0,H'4
     b22:	dc 00       	xor.b	#0x0,r4l
     b24:	00 04       	.word	H'0,H'4
     b26:	f4 00       	mov.b	#0x0,r4h
     b28:	01 54       	.word	H'1,H'54
     b2a:	00 00       	nop	
     b2c:	04 f4       	orc	#0xf4,ccr
     b2e:	00 00       	nop	
     b30:	04 f7       	orc	#0xf7,ccr
     b32:	00 01       	.word	H'0,H'1
     b34:	51 00       	divxu.b	r0h,r0
     b36:	00 04       	.word	H'0,H'4
     b38:	f7 00       	mov.b	#0x0,r7h
     b3a:	00 04       	.word	H'0,H'4
     b3c:	fc 00       	mov.b	#0x0,r4l
     b3e:	01 54       	.word	H'1,H'54
     b40:	00 00       	nop	
     b42:	04 fc       	orc	#0xfc,ccr
     b44:	00 00       	nop	
     b46:	04 ff       	orc	#0xff,ccr
     b48:	00 01       	.word	H'0,H'1
     b4a:	51 00       	divxu.b	r0h,r0
     b4c:	00 04       	.word	H'0,H'4
     b4e:	ff 00       	mov.b	#0x0,r7l
     b50:	00 05       	.word	H'0,H'5
     b52:	08 00       	add.b	r0h,r0h
     b54:	01 54       	.word	H'1,H'54
     b56:	00 00       	nop	
     b58:	05 08       	xorc	#0x8,ccr
     b5a:	00 00       	nop	
     b5c:	05 0f       	xorc	#0xf,ccr
     b5e:	00 01       	.word	H'0,H'1
     b60:	51 00       	divxu.b	r0h,r0
     b62:	00 05       	.word	H'0,H'5
     b64:	0f 00       	daa	r0h
     b66:	00 05       	.word	H'0,H'5
     b68:	1a 00       	dec.b	r0h
     b6a:	01 54       	.word	H'1,H'54
     b6c:	00 00       	nop	
     b6e:	05 1a       	xorc	#0x1a,ccr
     b70:	00 00       	nop	
     b72:	05 1d       	xorc	#0x1d,ccr
     b74:	00 01       	.word	H'0,H'1
     b76:	51 00       	divxu.b	r0h,r0
     b78:	00 05       	.word	H'0,H'5
     b7a:	1d 00       	cmp.w	r0,r0
     b7c:	00 05       	.word	H'0,H'5
     b7e:	2e 00       	mov.b	@0x0:8,r6l
     b80:	01 54       	.word	H'1,H'54
     b82:	00 00       	nop	
     b84:	05 2e       	xorc	#0x2e,ccr
     b86:	00 00       	nop	
     b88:	05 47       	xorc	#0x47,ccr
     b8a:	00 01       	.word	H'0,H'1
     b8c:	51 00       	divxu.b	r0h,r0
     b8e:	00 05       	.word	H'0,H'5
     b90:	47 00       	beq	.0 (0xb92)
     b92:	00 05       	.word	H'0,H'5
     b94:	50 00       	mulxu.b	r0h,r0
     b96:	01 54       	.word	H'1,H'54
     b98:	00 00       	nop	
     b9a:	05 50       	xorc	#0x50,ccr
     b9c:	00 00       	nop	
     b9e:	05 55       	xorc	#0x55,ccr
     ba0:	00 01       	.word	H'0,H'1
     ba2:	51 00       	divxu.b	r0h,r0
     ba4:	00 05       	.word	H'0,H'5
     ba6:	55 00       	bsr	.0 (0xba8)
     ba8:	00 05       	.word	H'0,H'5
     baa:	66 00       	and.w	r0,r0
     bac:	01 54       	.word	H'1,H'54
     bae:	00 00       	nop	
     bb0:	05 66       	xorc	#0x66,ccr
     bb2:	00 00       	nop	
     bb4:	05 6d       	xorc	#0x6d,ccr
     bb6:	00 01       	.word	H'0,H'1
     bb8:	51 00       	divxu.b	r0h,r0
     bba:	00 05       	.word	H'0,H'5
     bbc:	6d 00       	mov.w	@er0+,r0
     bbe:	00 05       	.word	H'0,H'5
     bc0:	7c 00       	.word	H'7c,H'0
     bc2:	01 54       	.word	H'1,H'54
     bc4:	00 00       	nop	
     bc6:	05 7c       	xorc	#0x7c,ccr
     bc8:	00 00       	nop	
     bca:	05 95       	xorc	#0x95,ccr
     bcc:	00 01       	.word	H'0,H'1
     bce:	51 00       	divxu.b	r0h,r0
     bd0:	00 05       	.word	H'0,H'5
     bd2:	95 00       	addx	#0x0,r5h
     bd4:	00 06       	.word	H'0,H'6
     bd6:	3a 00       	mov.b	r2l,@0x0:8
     bd8:	01 54       	.word	H'1,H'54
     bda:	00 00       	nop	
     bdc:	06 3a       	andc	#0x3a,ccr
     bde:	00 00       	nop	
     be0:	06 73       	andc	#0x73,ccr
     be2:	00 01       	.word	H'0,H'1
     be4:	51 00       	divxu.b	r0h,r0
     be6:	00 06       	.word	H'0,H'6
     be8:	73 00       	btst	#0x0,r0h
     bea:	00 06       	.word	H'0,H'6
     bec:	8e 00       	add.b	#0x0,r6l
     bee:	01 54       	.word	H'1,H'54
     bf0:	00 00       	nop	
     bf2:	06 8e       	andc	#0x8e,ccr
     bf4:	00 00       	nop	
     bf6:	06 92       	andc	#0x92,ccr
     bf8:	00 01       	.word	H'0,H'1
     bfa:	51 00       	divxu.b	r0h,r0
     bfc:	00 06       	.word	H'0,H'6
     bfe:	92 00       	addx	#0x0,r2h
     c00:	00 06       	.word	H'0,H'6
     c02:	9a 00       	addx	#0x0,r2l
     c04:	01 54       	.word	H'1,H'54
     c06:	00 00       	nop	
     c08:	06 9a       	andc	#0x9a,ccr
     c0a:	00 00       	nop	
     c0c:	06 a8       	andc	#0xa8,ccr
     c0e:	00 01       	.word	H'0,H'1
     c10:	51 00       	divxu.b	r0h,r0
     c12:	00 06       	.word	H'0,H'6
     c14:	a8 00       	cmp.b	#0x0,r0l
     c16:	00 06       	.word	H'0,H'6
     c18:	e2 00       	and.b	#0x0,r2h
     c1a:	01 54       	.word	H'1,H'54
     c1c:	00 00       	nop	
     c1e:	06 e2       	andc	#0xe2,ccr
     c20:	00 00       	nop	
     c22:	06 e8       	andc	#0xe8,ccr
     c24:	00 04       	.word	H'0,H'4
     c26:	f3 01       	mov.b	#0x1,r3h
     c28:	51 9f       	divxu.b	r1l,e7
	...

00000c32 <.LLST17>:
.LLST17():
     c32:	00 00       	nop	
     c34:	05 0c       	xorc	#0xc,ccr
     c36:	00 00       	nop	
     c38:	05 1a       	xorc	#0x1a,ccr
     c3a:	00 01       	.word	H'0,H'1
     c3c:	55 00       	bsr	.0 (0xc3e)
     c3e:	00 00       	nop	
     c40:	00 00       	nop	
     c42:	00 00       	nop	
	...

00000c45 <.LLST18>:
.LLST18():
     c45:	00 00       	nop	
     c47:	05 30       	xorc	#0x30,ccr
     c49:	00 00       	nop	
     c4b:	05 47       	xorc	#0x47,ccr
     c4d:	00 01       	.word	H'0,H'1
     c4f:	53 00       	divxu.w	r0,er0
     c51:	00 00       	nop	
     c53:	00 00       	nop	
     c55:	00 00       	nop	
	...

00000c58 <.LLST19>:
.LLST19():
     c58:	00 00       	nop	
     c5a:	05 3c       	xorc	#0x3c,ccr
     c5c:	00 00       	nop	
     c5e:	05 48       	xorc	#0x48,ccr
     c60:	00 01       	.word	H'0,H'1
     c62:	55 00       	bsr	.0 (0xc64)
     c64:	00 00       	nop	
     c66:	00 00       	nop	
     c68:	00 00       	nop	
	...

00000c6b <.LLST20>:
.LLST20():
     c6b:	00 00       	nop	
     c6d:	05 52       	xorc	#0x52,ccr
     c6f:	00 00       	nop	
     c71:	05 5c       	xorc	#0x5c,ccr
     c73:	00 01       	.word	H'0,H'1
     c75:	55 00       	bsr	.0 (0xc77)
     c77:	00 00       	nop	
     c79:	00 00       	nop	
     c7b:	00 00       	nop	
	...

00000c7e <.LLST21>:
.LLST21():
     c7e:	00 00       	nop	
     c80:	05 66       	xorc	#0x66,ccr
     c82:	00 00       	nop	
     c84:	05 6d       	xorc	#0x6d,ccr
     c86:	00 02       	.word	H'0,H'2
     c88:	71 00       	bnot	#0x0,r0h
	...

00000c92 <.LLST22>:
.LLST22():
     c92:	00 00       	nop	
     c94:	05 8c       	xorc	#0x8c,ccr
     c96:	00 00       	nop	
     c98:	05 95       	xorc	#0x95,ccr
     c9a:	00 01       	.word	H'0,H'1
     c9c:	52 00       	mulxu.w	r0,er0
     c9e:	00 00       	nop	
     ca0:	00 00       	nop	
     ca2:	00 00       	nop	
	...

00000ca5 <.LLST23>:
.LLST23():
     ca5:	00 00       	nop	
     ca7:	05 8c       	xorc	#0x8c,ccr
     ca9:	00 00       	nop	
     cab:	05 95       	xorc	#0x95,ccr
     cad:	00 01       	.word	H'0,H'1
     caf:	53 00       	divxu.w	r0,er0
     cb1:	00 05       	.word	H'0,H'5
     cb3:	95 00       	addx	#0x0,r5h
     cb5:	00 05       	.word	H'0,H'5
     cb7:	bc 00       	subx	#0x0,r4l
     cb9:	02 76       	stc	sbr,er6
     cbb:	76 00       	band	#0x0,r0h
     cbd:	00 05       	.word	H'0,H'5
     cbf:	c0 00       	or.b	#0x0,r0h
     cc1:	00 06       	.word	H'0,H'6
     cc3:	32 00       	mov.b	r2h,@0x0:8
     cc5:	02 76       	stc	sbr,er6
     cc7:	76 00       	band	#0x0,r0h
     cc9:	00 00       	nop	
     ccb:	00 00       	nop	
     ccd:	00 00       	nop	
	...

00000cd0 <.LLST24>:
.LLST24():
     cd0:	00 00       	nop	
     cd2:	05 8c       	xorc	#0x8c,ccr
     cd4:	00 00       	nop	
     cd6:	05 bc       	xorc	#0xbc,ccr
     cd8:	00 01       	.word	H'0,H'1
     cda:	55 00       	bsr	.0 (0xcdc)
     cdc:	00 05       	.word	H'0,H'5
     cde:	c0 00       	or.b	#0x0,r0h
     ce0:	00 05       	.word	H'0,H'5
     ce2:	f6 00       	mov.b	#0x0,r6h
     ce4:	01 55       	.word	H'1,H'55
     ce6:	00 00       	nop	
     ce8:	05 f6       	xorc	#0xf6,ccr
     cea:	00 00       	nop	
     cec:	06 0c       	andc	#0xc,ccr
     cee:	00 01       	.word	H'0,H'1
     cf0:	52 00       	mulxu.w	r0,er0
     cf2:	00 00       	nop	
     cf4:	00 00       	nop	
     cf6:	00 00       	nop	
	...

00000cf9 <.LLST25>:
.LLST25():
     cf9:	00 00       	nop	
     cfb:	05 8c       	xorc	#0x8c,ccr
     cfd:	00 00       	nop	
     cff:	05 bc       	xorc	#0xbc,ccr
     d01:	00 0f       	.word	H'0,H'f
     d03:	75 00       	bxor	#0x0,r0h
     d05:	0a ff       	add.l	#0x7,er7
     d07:	ff 1a       	mov.b	#0x1a,r7l
     d09:	34 24       	mov.b	r4h,@0x24:8
     d0b:	03 00       	ldc	r0h,ccr
     d0d:	ff d9       	mov.b	#0xd9,r7l
     d0f:	28 22       	mov.b	@0x22:8,r0l
     d11:	9f 00       	addx	#0x0,r7l
     d13:	00 05       	.word	H'0,H'5
     d15:	c0 00       	or.b	#0x0,r0h
     d17:	00 05       	.word	H'0,H'5
     d19:	f6 00       	mov.b	#0x0,r6h
     d1b:	0f 75       	mov.w	#0x7,r5
     d1d:	00 0a       	.word	H'0,H'a
     d1f:	ff ff       	mov.b	#0xff,r7l
     d21:	1a 34       	sub.w	#0x3,r4
     d23:	24 03       	mov.b	@0x3:8,r4h
     d25:	00 ff       	.word	H'0,H'ff
     d27:	d9 28       	xor.b	#0x28,r1l
     d29:	22 9f       	mov.b	@0x9f:8,r2h
     d2b:	00 00       	nop	
     d2d:	05 f6       	xorc	#0xf6,ccr
     d2f:	00 00       	nop	
     d31:	06 0c       	andc	#0xc,ccr
     d33:	00 0f       	.word	H'0,H'f
     d35:	72 00       	bclr	#0x0,r0h
     d37:	0a ff       	add.l	#0x7,er7
     d39:	ff 1a       	mov.b	#0x1a,r7l
     d3b:	34 24       	mov.b	r4h,@0x24:8
     d3d:	03 00       	ldc	r0h,ccr
     d3f:	ff d9       	mov.b	#0xd9,r7l
     d41:	28 22       	mov.b	@0x22:8,r0l
     d43:	9f 00       	addx	#0x0,r7l
     d45:	00 00       	nop	
     d47:	00 00       	nop	
     d49:	00 00       	nop	
	...

00000d4c <.LLST26>:
.LLST26():
     d4c:	00 00       	nop	
     d4e:	05 9e       	xorc	#0x9e,ccr
     d50:	00 00       	nop	
     d52:	05 ab       	xorc	#0xab,ccr
     d54:	00 02       	.word	H'0,H'2
     d56:	76 70       	band	#0x7,r0h
	...

00000d60 <.LLST27>:
.LLST27():
     d60:	00 00       	nop	
     d62:	05 9e       	xorc	#0x9e,ccr
     d64:	00 00       	nop	
     d66:	05 bc       	xorc	#0xbc,ccr
     d68:	00 02       	.word	H'0,H'2
     d6a:	76 76       	band	#0x7,r6h
     d6c:	00 00       	nop	
     d6e:	05 c0       	xorc	#0xc0,ccr
     d70:	00 00       	nop	
     d72:	06 14       	andc	#0x14,ccr
     d74:	00 02       	.word	H'0,H'2
     d76:	76 76       	band	#0x7,r6h
	...

00000d80 <.LLST28>:
.LLST28():
     d80:	00 00       	nop	
     d82:	05 9e       	xorc	#0x9e,ccr
     d84:	00 00       	nop	
     d86:	05 ab       	xorc	#0xab,ccr
     d88:	00 01       	.word	H'0,H'1
     d8a:	53 00       	divxu.w	r0,er0
     d8c:	00 00       	nop	
     d8e:	00 00       	nop	
     d90:	00 00       	nop	
	...

00000d93 <.LLST29>:
.LLST29():
     d93:	00 00       	nop	
     d95:	05 9e       	xorc	#0x9e,ccr
     d97:	00 00       	nop	
     d99:	05 bc       	xorc	#0xbc,ccr
     d9b:	00 0f       	.word	H'0,H'f
     d9d:	75 00       	bxor	#0x0,r0h
     d9f:	0a ff       	add.l	#0x7,er7
     da1:	ff 1a       	mov.b	#0x1a,r7l
     da3:	34 24       	mov.b	r4h,@0x24:8
     da5:	03 00       	ldc	r0h,ccr
     da7:	ff d9       	mov.b	#0xd9,r7l
     da9:	28 22       	mov.b	@0x22:8,r0l
     dab:	9f 00       	addx	#0x0,r7l
     dad:	00 05       	.word	H'0,H'5
     daf:	c0 00       	or.b	#0x0,r0h
     db1:	00 05       	.word	H'0,H'5
     db3:	f6 00       	mov.b	#0x0,r6h
     db5:	0f 75       	mov.w	#0x7,r5
     db7:	00 0a       	.word	H'0,H'a
     db9:	ff ff       	mov.b	#0xff,r7l
     dbb:	1a 34       	sub.w	#0x3,r4
     dbd:	24 03       	mov.b	@0x3:8,r4h
     dbf:	00 ff       	.word	H'0,H'ff
     dc1:	d9 28       	xor.b	#0x28,r1l
     dc3:	22 9f       	mov.b	@0x9f:8,r2h
     dc5:	00 00       	nop	
     dc7:	05 f6       	xorc	#0xf6,ccr
     dc9:	00 00       	nop	
     dcb:	06 0c       	andc	#0xc,ccr
     dcd:	00 0f       	.word	H'0,H'f
     dcf:	72 00       	bclr	#0x0,r0h
     dd1:	0a ff       	add.l	#0x7,er7
     dd3:	ff 1a       	mov.b	#0x1a,r7l
     dd5:	34 24       	mov.b	r4h,@0x24:8
     dd7:	03 00       	ldc	r0h,ccr
     dd9:	ff d9       	mov.b	#0xd9,r7l
     ddb:	28 22       	mov.b	@0x22:8,r0l
     ddd:	9f 00       	addx	#0x0,r7l
     ddf:	00 00       	nop	
     de1:	00 00       	nop	
     de3:	00 00       	nop	
	...

00000de6 <.LLST30>:
.LLST30():
     de6:	00 00       	nop	
     de8:	05 ac       	xorc	#0xac,ccr
     dea:	00 00       	nop	
     dec:	05 bc       	xorc	#0xbc,ccr
     dee:	00 01       	.word	H'0,H'1
     df0:	50 00       	mulxu.b	r0h,r0
     df2:	00 05       	.word	H'0,H'5
     df4:	c0 00       	or.b	#0x0,r0h
     df6:	00 06       	.word	H'0,H'6
     df8:	14 00       	or.b	r0h,r0h
     dfa:	01 50       	.word	H'1,H'50
	...

00000e04 <.LLST31>:
.LLST31():
     e04:	00 00       	nop	
     e06:	06 3c       	andc	#0x3c,ccr
     e08:	00 00       	nop	
     e0a:	06 73       	andc	#0x73,ccr
     e0c:	00 02       	.word	H'0,H'2
     e0e:	71 04       	bnot	#0x0,r4h
     e10:	00 00       	nop	
     e12:	06 8e       	andc	#0x8e,ccr
     e14:	00 00       	nop	
     e16:	06 92       	andc	#0x92,ccr
     e18:	00 02       	.word	H'0,H'2
     e1a:	71 04       	bnot	#0x0,r4h
	...

00000e24 <.LLST32>:
.LLST32():
     e24:	00 00       	nop	
     e26:	06 3c       	andc	#0x3c,ccr
     e28:	00 00       	nop	
     e2a:	06 73       	andc	#0x73,ccr
     e2c:	00 02       	.word	H'0,H'2
     e2e:	71 08       	bnot	#0x0,r0l
     e30:	00 00       	nop	
     e32:	06 8e       	andc	#0x8e,ccr
     e34:	00 00       	nop	
     e36:	06 92       	andc	#0x92,ccr
     e38:	00 02       	.word	H'0,H'2
     e3a:	71 08       	bnot	#0x0,r0l
	...

00000e44 <.LLST33>:
.LLST33():
     e44:	00 00       	nop	
     e46:	06 3c       	andc	#0x3c,ccr
     e48:	00 00       	nop	
     e4a:	06 3e       	andc	#0x3e,ccr
     e4c:	00 01       	.word	H'0,H'1
     e4e:	50 00       	mulxu.b	r0h,r0
     e50:	00 06       	.word	H'0,H'6
     e52:	3e 00       	mov.b	r6l,@0x0:8
     e54:	00 06       	.word	H'0,H'6
     e56:	73 00       	btst	#0x0,r0h
     e58:	02 71       	stc	sbr,er1
     e5a:	00 00       	nop	
     e5c:	00 06       	.word	H'0,H'6
     e5e:	8e 00       	add.b	#0x0,r6l
     e60:	00 06       	.word	H'0,H'6
     e62:	92 00       	addx	#0x0,r2h
     e64:	02 71       	stc	sbr,er1
	...

00000e6f <.LLST34>:
.LLST34():
     e6f:	00 00       	nop	
     e71:	06 3c       	andc	#0x3c,ccr
     e73:	00 00       	nop	
     e75:	06 3e       	andc	#0x3e,ccr
     e77:	00 0f       	.word	H'0,H'f
     e79:	70 00       	bset	#0x0,r0h
     e7b:	0a ff       	add.l	#0x7,er7
     e7d:	ff 1a       	mov.b	#0x1a,r7l
     e7f:	34 24       	mov.b	r4h,@0x24:8
     e81:	03 00       	ldc	r0h,ccr
     e83:	ff d9       	mov.b	#0xd9,r7l
     e85:	28 22       	mov.b	@0x22:8,r0l
     e87:	9f 00       	addx	#0x0,r7l
     e89:	00 06       	.word	H'0,H'6
     e8b:	3e 00       	mov.b	r6l,@0x0:8
     e8d:	00 06       	.word	H'0,H'6
     e8f:	46 00       	bne	.0 (0xe91)
     e91:	0b 70       	inc.l	#1,er0
     e93:	00 34       	.word	H'0,H'34
     e95:	24 03       	mov.b	@0x3:8,r4h
     e97:	00 ff       	.word	H'0,H'ff
     e99:	d9 28       	xor.b	#0x28,r1l
     e9b:	22 9f       	mov.b	@0x9f:8,r2h
     e9d:	00 00       	nop	
     e9f:	06 46       	andc	#0x46,ccr
     ea1:	00 00       	nop	
     ea3:	06 73       	andc	#0x73,ccr
     ea5:	00 11       	.word	H'0,H'11
     ea7:	71 00       	bnot	#0x0,r0h
     ea9:	94 02       	addx	#0x2,r4h
     eab:	0a ff       	add.l	#0x7,er7
     ead:	ff 1a       	mov.b	#0x1a,r7l
     eaf:	34 24       	mov.b	r4h,@0x24:8
     eb1:	03 00       	ldc	r0h,ccr
     eb3:	ff d9       	mov.b	#0xd9,r7l
     eb5:	28 22       	mov.b	@0x22:8,r0l
     eb7:	9f 00       	addx	#0x0,r7l
     eb9:	00 06       	.word	H'0,H'6
     ebb:	8e 00       	add.b	#0x0,r6l
     ebd:	00 06       	.word	H'0,H'6
     ebf:	92 00       	addx	#0x0,r2h
     ec1:	11 71       	shlr.l	#2,er1
     ec3:	00 94       	.word	H'0,H'94
     ec5:	02 0a       	stc	ccr,r2l
     ec7:	ff ff       	mov.b	#0xff,r7l
     ec9:	1a 34       	sub.w	#0x3,r4
     ecb:	24 03       	mov.b	@0x3:8,r4h
     ecd:	00 ff       	.word	H'0,H'ff
     ecf:	d9 28       	xor.b	#0x28,r1l
     ed1:	22 9f       	mov.b	@0x9f:8,r2h
	...

00000edb <.LLST35>:
.LLST35():
     edb:	00 00       	nop	
     edd:	06 a2       	andc	#0xa2,ccr
     edf:	00 00       	nop	
     ee1:	06 b3       	andc	#0xb3,ccr
     ee3:	00 01       	.word	H'0,H'1
     ee5:	52 00       	mulxu.w	r0,er0
     ee7:	00 00       	nop	
     ee9:	00 00       	nop	
     eeb:	00 00       	nop	
	...

00000eee <.LLST36>:
.LLST36():
     eee:	00 00       	nop	
     ef0:	06 a2       	andc	#0xa2,ccr
     ef2:	00 00       	nop	
     ef4:	06 ba       	andc	#0xba,ccr
     ef6:	00 01       	.word	H'0,H'1
     ef8:	55 00       	bsr	.0 (0xefa)
     efa:	00 00       	nop	
     efc:	00 00       	nop	
     efe:	00 00       	nop	
	...

00000f01 <.LLST0>:
.LLST0():
     f01:	00 00       	nop	
     f03:	01 42       	.word	H'1,H'42
     f05:	00 00       	nop	
     f07:	01 a8       	.word	H'1,H'a8
     f09:	00 01       	.word	H'0,H'1
     f0b:	50 00       	mulxu.b	r0h,r0
     f0d:	00 01       	.word	H'0,H'1
     f0f:	a8 00       	cmp.b	#0x0,r0l
     f11:	00 01       	.word	H'0,H'1
     f13:	b6 00       	subx	#0x0,r6h
     f15:	04 f3       	orc	#0xf3,ccr
     f17:	01 50       	.word	H'1,H'50
     f19:	9f 00       	addx	#0x0,r7l
     f1b:	00 00       	nop	
     f1d:	00 00       	nop	
     f1f:	00 00       	nop	
	...

00000f22 <.LLST1>:
.LLST1():
     f22:	00 00       	nop	
     f24:	01 52       	.word	H'1,H'52
     f26:	00 00       	nop	
     f28:	01 ab       	.word	H'1,H'ab
     f2a:	00 01       	.word	H'0,H'1
     f2c:	52 00       	mulxu.w	r0,er0
     f2e:	00 00       	nop	
     f30:	00 00       	nop	
     f32:	00 00       	nop	
	...

00000f35 <.LLST2>:
.LLST2():
     f35:	00 00       	nop	
     f37:	01 74       	.word	H'1,H'74
     f39:	00 00       	nop	
     f3b:	01 94       	.word	H'1,H'94
     f3d:	00 01       	.word	H'0,H'1
     f3f:	53 00       	divxu.w	r0,er0
     f41:	00 01       	.word	H'0,H'1
     f43:	94 00       	addx	#0x0,r4h
     f45:	00 01       	.word	H'0,H'1
     f47:	a6 00       	cmp.b	#0x0,r6h
     f49:	05 70       	xorc	#0x70,ccr
     f4b:	00 06       	.word	H'0,H'6
     f4d:	23 30       	mov.b	@0x30:8,r3h
	...

00000f57 <.LLST3>:
.LLST3():
     f57:	00 00       	nop	
     f59:	01 b6       	.word	H'1,H'b6
     f5b:	00 00       	nop	
     f5d:	01 dc       	.word	H'1,H'dc
     f5f:	00 01       	.word	H'0,H'1
     f61:	50 00       	mulxu.b	r0h,r0
     f63:	00 01       	.word	H'0,H'1
     f65:	dc 00       	xor.b	#0x0,r4l
     f67:	00 03       	.word	H'0,H'3
     f69:	42 00       	bhi	.0 (0xf6b)
     f6b:	02 91       	.word	H'2,H'91
     f6d:	64 00       	or.w	r0,r0
     f6f:	00 00       	nop	
     f71:	00 00       	nop	
     f73:	00 00       	nop	
	...

00000f76 <.LLST4>:
.LLST4():
     f76:	00 00       	nop	
     f78:	01 b6       	.word	H'1,H'b6
     f7a:	00 00       	nop	
     f7c:	02 02       	stc	ccr,r2h
     f7e:	00 01       	.word	H'0,H'1
     f80:	51 00       	divxu.b	r0h,r0
     f82:	00 02       	.word	H'0,H'2
     f84:	02 00       	stc	ccr,r0h
     f86:	00 02       	.word	H'0,H'2
     f88:	6a 00 02 91 	mov.b	@0x291:16,r0h
     f8c:	60 00       	bset	r0h,r0h
     f8e:	00 02       	.word	H'0,H'2
     f90:	6a 00 00 02 	mov.b	@0x2:16,r0h
     f94:	8a 00       	add.b	#0x0,r2l
     f96:	01 51       	.word	H'1,H'51
     f98:	00 00       	nop	
     f9a:	02 8a       	.word	H'2,H'8a
     f9c:	00 00       	nop	
     f9e:	03 42       	.word	H'3,H'42
     fa0:	00 02       	.word	H'0,H'2
     fa2:	91 60       	addx	#0x60,r1h
	...

00000fac <.LLST5>:
.LLST5():
     fac:	00 00       	nop	
     fae:	01 b6       	.word	H'1,H'b6
     fb0:	00 00       	nop	
     fb2:	01 de       	.word	H'1,H'de
     fb4:	00 01       	.word	H'0,H'1
     fb6:	52 00       	mulxu.w	r0,er0
     fb8:	00 01       	.word	H'0,H'1
     fba:	de 00       	xor.b	#0x0,r6l
     fbc:	00 03       	.word	H'0,H'3
     fbe:	42 00       	bhi	.0 (0xfc0)
     fc0:	02 91       	.word	H'2,H'91
     fc2:	6e 00 00 00 	mov.b	@(0x0:16,er0),r0h
     fc6:	00 00       	nop	
     fc8:	00 00       	nop	
	...

00000fcb <.LLST6>:
.LLST6():
     fcb:	00 00       	nop	
     fcd:	01 da       	.word	H'1,H'da
     fcf:	00 00       	nop	
     fd1:	01 de       	.word	H'1,H'de
     fd3:	00 02       	.word	H'0,H'2
     fd5:	30 9f       	mov.b	r0h,@0x9f:8
     fd7:	00 00       	nop	
     fd9:	01 de       	.word	H'1,H'de
     fdb:	00 00       	nop	
     fdd:	02 02       	stc	ccr,r2h
     fdf:	00 01       	.word	H'0,H'1
     fe1:	52 00       	mulxu.w	r0,er0
     fe3:	00 02       	.word	H'0,H'2
     fe5:	02 00       	stc	ccr,r0h
     fe7:	00 02       	.word	H'0,H'2
     fe9:	6a 00 02 91 	mov.b	@0x291:16,r0h
     fed:	6a 00 00 02 	mov.b	@0x2:16,r0h
     ff1:	6a 00 00 02 	mov.b	@0x2:16,r0h
     ff5:	7c 00       	.word	H'7c,H'0
     ff7:	01 52       	.word	H'1,H'52
     ff9:	00 00       	nop	
     ffb:	02 7c       	stc	sbr,er4
     ffd:	00 00       	nop	
     fff:	03 2c       	ldmac	er4,mach
    1001:	00 02       	.word	H'0,H'2
    1003:	91 6a       	addx	#0x6a,r1h
	...

0000100d <.LLST7>:
.LLST7():
    100d:	00 00       	nop	
    100f:	01 de       	.word	H'1,H'de
    1011:	00 00       	nop	
    1013:	01 ee       	.word	H'1,H'ee
    1015:	00 0f       	.word	H'0,H'f
    1017:	72 00       	bclr	#0x0,r0h
    1019:	40 24       	bra	.+36 (0x103f)
    101b:	40 26       	bra	.+38 (0x1043)
    101d:	36 24       	mov.b	r6h,@0x24:8
    101f:	03 00       	ldc	r0h,ccr
    1021:	ff d9       	mov.b	#0xd9,r7l
    1023:	58 22       	.word	H'58,H'22
    1025:	9f 00       	addx	#0x0,r7l
    1027:	00 01       	.word	H'0,H'1
    1029:	ee 00       	and.b	#0x0,r6l
    102b:	00 02       	.word	H'0,H'2
    102d:	02 00       	stc	ccr,r0h
    102f:	0f 72       	mov.w	#0x7,r2
    1031:	7f 40       	.word	H'7f,H'40
    1033:	24 40       	mov.b	@0x40:8,r4h
    1035:	26 36       	mov.b	@0x36:8,r6h
    1037:	24 03       	mov.b	@0x3:8,r4h
    1039:	00 ff       	.word	H'0,H'ff
    103b:	d9 58       	xor.b	#0x58,r1l
    103d:	22 9f       	mov.b	@0x9f:8,r2h
    103f:	00 00       	nop	
    1041:	02 02       	stc	ccr,r2h
    1043:	00 00       	nop	
    1045:	02 6a       	stc	vbr,er2
    1047:	00 11       	.word	H'0,H'11
    1049:	91 6a       	addx	#0x6a,r1h
    104b:	94 02       	addx	#0x2,r4h
    104d:	40 24       	bra	.+36 (0x1073)
    104f:	40 26       	bra	.+38 (0x1077)
    1051:	36 24       	mov.b	r6h,@0x24:8
    1053:	03 00       	ldc	r0h,ccr
    1055:	ff d9       	mov.b	#0xd9,r7l
    1057:	58 22       	.word	H'58,H'22
    1059:	9f 00       	addx	#0x0,r7l
    105b:	00 02       	.word	H'0,H'2
    105d:	6a 00 00 02 	mov.b	@0x2:16,r0h
    1061:	7c 00       	.word	H'7c,H'0
    1063:	0f 72       	mov.w	#0x7,r2
    1065:	00 40       	.word	H'0,H'40
    1067:	24 40       	mov.b	@0x40:8,r4h
    1069:	26 36       	mov.b	@0x36:8,r6h
    106b:	24 03       	mov.b	@0x3:8,r4h
    106d:	00 ff       	.word	H'0,H'ff
    106f:	d9 58       	xor.b	#0x58,r1l
    1071:	22 9f       	mov.b	@0x9f:8,r2h
    1073:	00 00       	nop	
    1075:	02 7c       	stc	sbr,er4
    1077:	00 00       	nop	
    1079:	03 2c       	ldmac	er4,mach
    107b:	00 11       	.word	H'0,H'11
    107d:	91 6a       	addx	#0x6a,r1h
    107f:	94 02       	addx	#0x2,r4h
    1081:	40 24       	bra	.+36 (0x10a7)
    1083:	40 26       	bra	.+38 (0x10ab)
    1085:	36 24       	mov.b	r6h,@0x24:8
    1087:	03 00       	ldc	r0h,ccr
    1089:	ff d9       	mov.b	#0xd9,r7l
    108b:	58 22       	.word	H'58,H'22
    108d:	9f 00       	addx	#0x0,r7l
    108f:	00 00       	nop	
    1091:	00 00       	nop	
    1093:	00 00       	nop	
	...

00001096 <.LLST8>:
.LLST8():
    1096:	00 00       	nop	
    1098:	02 02       	stc	ccr,r2h
    109a:	00 00       	nop	
    109c:	02 06       	stc	ccr,r6h
    109e:	00 03       	.word	H'0,H'3
    10a0:	75 7c       	bxor	#0x7,r4l
    10a2:	9f 00       	addx	#0x0,r7l
    10a4:	00 02       	.word	H'0,H'2
    10a6:	06 00       	andc	#0x0,ccr
    10a8:	00 02       	.word	H'0,H'2
    10aa:	0c 00       	mov.b	r0h,r0h
    10ac:	03 75       	ldc	er5,sbr
    10ae:	78 9f       	.word	H'78,H'9f
    10b0:	00 00       	nop	
    10b2:	02 0c       	stc	ccr,r4l
    10b4:	00 00       	nop	
    10b6:	02 14       	stc	exr,r4h
    10b8:	00 03       	.word	H'0,H'3
    10ba:	75 74       	bxor	#0x7,r4h
    10bc:	9f 00       	addx	#0x0,r7l
    10be:	00 02       	.word	H'0,H'2
    10c0:	14 00       	or.b	r0h,r0h
    10c2:	00 02       	.word	H'0,H'2
    10c4:	1a 00       	dec.b	r0h
    10c6:	03 75       	ldc	er5,sbr
    10c8:	70 9f       	.word	H'70,H'9f
    10ca:	00 00       	nop	
    10cc:	02 1a       	stc	exr,r2l
    10ce:	00 00       	nop	
    10d0:	02 20       	stmac	mach,er0
    10d2:	00 03       	.word	H'0,H'3
    10d4:	75 6c       	bxor	#0x6,r4l
    10d6:	9f 00       	addx	#0x0,r7l
    10d8:	00 02       	.word	H'0,H'2
    10da:	20 00       	mov.b	@0x0:8,r0h
    10dc:	00 02       	.word	H'0,H'2
    10de:	26 00       	mov.b	@0x0:8,r6h
    10e0:	03 75       	ldc	er5,sbr
    10e2:	68 9f       	mov.b	r7l,@er1
    10e4:	00 00       	nop	
    10e6:	02 26       	stmac	mach,er6
    10e8:	00 00       	nop	
    10ea:	02 2c       	stmac	mach,er4
    10ec:	00 03       	.word	H'0,H'3
    10ee:	75 64       	bxor	#0x6,r4h
    10f0:	9f 00       	addx	#0x0,r7l
    10f2:	00 02       	.word	H'0,H'2
    10f4:	2c 00       	mov.b	@0x0:8,r4l
    10f6:	00 02       	.word	H'0,H'2
    10f8:	32 00       	mov.b	r2h,@0x0:8
    10fa:	03 75       	ldc	er5,sbr
    10fc:	60 9f       	bset	r1l,r7l
    10fe:	00 00       	nop	
    1100:	02 32       	stmac	macl,er2
    1102:	00 00       	nop	
    1104:	02 4c       	.word	H'2,H'4c
    1106:	00 03       	.word	H'0,H'3
    1108:	75 5c       	bxor	#0x5,r4l
    110a:	9f 00       	addx	#0x0,r7l
    110c:	00 02       	.word	H'0,H'2
    110e:	4c 00       	bge	.0 (0x1110)
    1110:	00 02       	.word	H'0,H'2
    1112:	6a 00 01 55 	mov.b	@0x155:16,r0h
    1116:	00 00       	nop	
    1118:	03 0e       	ldc	r6l,ccr
    111a:	00 00       	nop	
    111c:	03 2c       	ldmac	er4,mach
    111e:	00 03       	.word	H'0,H'3
    1120:	75 7c       	bxor	#0x7,r4l
    1122:	9f 00       	addx	#0x0,r7l
    1124:	00 00       	nop	
    1126:	00 00       	nop	
    1128:	00 00       	nop	
	...

0000112b <.LLST9>:
.LLST9():
    112b:	00 00       	nop	
    112d:	03 52       	.word	H'3,H'52
    112f:	00 00       	nop	
    1131:	03 68       	ldc	er0,vbr
    1133:	00 01       	.word	H'0,H'1
    1135:	50 00       	mulxu.b	r0h,r0
    1137:	00 03       	.word	H'0,H'3
    1139:	68 00       	mov.b	@er0,r0h
    113b:	00 03       	.word	H'0,H'3
    113d:	74 00       	bor	#0x0,r0h
    113f:	04 f3       	orc	#0xf3,ccr
    1141:	01 50       	.word	H'1,H'50
    1143:	9f 00       	addx	#0x0,r7l
    1145:	00 00       	nop	
    1147:	00 00       	nop	
    1149:	00 00       	nop	
	...

0000114c <.LLST18>:
.LLST18():
    114c:	00 00       	nop	
    114e:	02 fe       	.word	H'2,H'fe
    1150:	00 00       	nop	
    1152:	03 24       	ldmac	er4,mach
    1154:	00 01       	.word	H'0,H'1
    1156:	50 00       	mulxu.b	r0h,r0
    1158:	00 03       	.word	H'0,H'3
    115a:	24 00       	mov.b	@0x0:8,r4h
    115c:	00 03       	.word	H'0,H'3
    115e:	27 00       	mov.b	@0x0:8,r7h
    1160:	02 76       	stc	sbr,er6
    1162:	68 00       	mov.b	@er0,r0h
    1164:	00 03       	.word	H'0,H'3
    1166:	27 00       	mov.b	@0x0:8,r7h
    1168:	00 03       	.word	H'0,H'3
    116a:	38 00       	mov.b	r0l,@0x0:8
    116c:	04 f3       	orc	#0xf3,ccr
    116e:	01 50       	.word	H'1,H'50
    1170:	9f 00       	addx	#0x0,r7l
    1172:	00 00       	nop	
    1174:	00 00       	nop	
    1176:	00 00       	nop	
	...

00001179 <.LLST19>:
.LLST19():
    1179:	00 00       	nop	
    117b:	02 fe       	.word	H'2,H'fe
    117d:	00 00       	nop	
    117f:	03 1a       	ldc	r2l,exr
    1181:	00 01       	.word	H'0,H'1
    1183:	51 00       	divxu.b	r0h,r0
    1185:	00 03       	.word	H'0,H'3
    1187:	1a 00       	dec.b	r0h
    1189:	00 03       	.word	H'0,H'3
    118b:	27 00       	mov.b	@0x0:8,r7h
    118d:	02 76       	stc	sbr,er6
    118f:	6a 00 00 03 	mov.b	@0x3:16,r0h
    1193:	27 00       	mov.b	@0x0:8,r7h
    1195:	00 03       	.word	H'0,H'3
    1197:	38 00       	mov.b	r0l,@0x0:8
    1199:	04 f3       	orc	#0xf3,ccr
    119b:	01 51       	.word	H'1,H'51
    119d:	9f 00       	addx	#0x0,r7l
    119f:	00 00       	nop	
    11a1:	00 00       	nop	
    11a3:	00 00       	nop	
	...

000011a6 <.LLST20>:
.LLST20():
    11a6:	00 00       	nop	
    11a8:	02 fe       	.word	H'2,H'fe
    11aa:	00 00       	nop	
    11ac:	03 27       	ldmac	er7,mach
    11ae:	00 01       	.word	H'0,H'1
    11b0:	52 00       	mulxu.w	r0,er0
    11b2:	00 03       	.word	H'0,H'3
    11b4:	27 00       	mov.b	@0x0:8,r7h
    11b6:	00 03       	.word	H'0,H'3
    11b8:	38 00       	mov.b	r0l,@0x0:8
    11ba:	04 f3       	orc	#0xf3,ccr
    11bc:	01 52       	.word	H'1,H'52
    11be:	9f 00       	addx	#0x0,r7l
    11c0:	00 00       	nop	
    11c2:	00 00       	nop	
    11c4:	00 00       	nop	
	...

000011c7 <.LLST17>:
.LLST17():
    11c7:	00 00       	nop	
    11c9:	02 cc       	.word	H'2,H'cc
    11cb:	00 00       	nop	
    11cd:	02 ea       	.word	H'2,H'ea
    11cf:	00 01       	.word	H'0,H'1
    11d1:	50 00       	mulxu.b	r0h,r0
    11d3:	00 02       	.word	H'0,H'2
    11d5:	ea 00       	and.b	#0x0,r2l
    11d7:	00 02       	.word	H'0,H'2
    11d9:	ed 00       	and.b	#0x0,r5l
    11db:	02 76       	stc	sbr,er6
    11dd:	68 00       	mov.b	@er0,r0h
    11df:	00 02       	.word	H'0,H'2
    11e1:	ed 00       	and.b	#0x0,r5l
    11e3:	00 02       	.word	H'0,H'2
    11e5:	fe 00       	mov.b	#0x0,r6l
    11e7:	04 f3       	orc	#0xf3,ccr
    11e9:	01 50       	.word	H'1,H'50
    11eb:	9f 00       	addx	#0x0,r7l
    11ed:	00 00       	nop	
    11ef:	00 00       	nop	
    11f1:	00 00       	nop	
	...

000011f4 <.LLST16>:
.LLST16():
    11f4:	00 00       	nop	
    11f6:	02 9a       	.word	H'2,H'9a
    11f8:	00 00       	nop	
    11fa:	02 b6       	stmac	macl,er6
    11fc:	00 01       	.word	H'0,H'1
    11fe:	50 00       	mulxu.b	r0h,r0
    1200:	00 02       	.word	H'0,H'2
    1202:	b6 00       	subx	#0x0,r6h
    1204:	00 02       	.word	H'0,H'2
    1206:	b9 00       	subx	#0x0,r1l
    1208:	02 76       	stc	sbr,er6
    120a:	68 00       	mov.b	@er0,r0h
    120c:	00 02       	.word	H'0,H'2
    120e:	b9 00       	subx	#0x0,r1l
    1210:	00 02       	.word	H'0,H'2
    1212:	cc 00       	or.b	#0x0,r4l
    1214:	04 f3       	orc	#0xf3,ccr
    1216:	01 50       	.word	H'1,H'50
    1218:	9f 00       	addx	#0x0,r7l
    121a:	00 00       	nop	
    121c:	00 00       	nop	
    121e:	00 00       	nop	
	...

00001221 <.LLST15>:
.LLST15():
    1221:	00 00       	nop	
    1223:	02 68       	stc	vbr,er0
    1225:	00 00       	nop	
    1227:	02 86       	.word	H'2,H'86
    1229:	00 01       	.word	H'0,H'1
    122b:	50 00       	mulxu.b	r0h,r0
    122d:	00 02       	.word	H'0,H'2
    122f:	86 00       	add.b	#0x0,r6h
    1231:	00 02       	.word	H'0,H'2
    1233:	89 00       	add.b	#0x0,r1l
    1235:	02 76       	stc	sbr,er6
    1237:	68 00       	mov.b	@er0,r0h
    1239:	00 02       	.word	H'0,H'2
    123b:	89 00       	add.b	#0x0,r1l
    123d:	00 02       	.word	H'0,H'2
    123f:	9a 00       	addx	#0x0,r2l
    1241:	04 f3       	orc	#0xf3,ccr
    1243:	01 50       	.word	H'1,H'50
    1245:	9f 00       	addx	#0x0,r7l
    1247:	00 00       	nop	
    1249:	00 00       	nop	
    124b:	00 00       	nop	
	...

0000124e <.LLST13>:
.LLST13():
    124e:	00 00       	nop	
    1250:	02 32       	stmac	macl,er2
    1252:	00 00       	nop	
    1254:	02 54       	.word	H'2,H'54
    1256:	00 01       	.word	H'0,H'1
    1258:	50 00       	mulxu.b	r0h,r0
    125a:	00 02       	.word	H'0,H'2
    125c:	54 00       	rts/l	er0
    125e:	00 02       	.word	H'0,H'2
    1260:	57 00       	trapa	#0x0
    1262:	02 76       	stc	sbr,er6
    1264:	68 00       	mov.b	@er0,r0h
    1266:	00 02       	.word	H'0,H'2
    1268:	57 00       	trapa	#0x0
    126a:	00 02       	.word	H'0,H'2
    126c:	68 00       	mov.b	@er0,r0h
    126e:	04 f3       	orc	#0xf3,ccr
    1270:	01 50       	.word	H'1,H'50
    1272:	9f 00       	addx	#0x0,r7l
    1274:	00 00       	nop	
    1276:	00 00       	nop	
    1278:	00 00       	nop	
	...

0000127b <.LLST14>:
.LLST14():
    127b:	00 00       	nop	
    127d:	02 32       	stmac	macl,er2
    127f:	00 00       	nop	
    1281:	02 4a       	.word	H'2,H'4a
    1283:	00 01       	.word	H'0,H'1
    1285:	51 00       	divxu.b	r0h,r0
    1287:	00 02       	.word	H'0,H'2
    1289:	4a 00       	bpl	.0 (0x128b)
    128b:	00 02       	.word	H'0,H'2
    128d:	57 00       	trapa	#0x0
    128f:	02 76       	stc	sbr,er6
    1291:	6c 00       	mov.b	@er0+,r0h
    1293:	00 02       	.word	H'0,H'2
    1295:	57 00       	trapa	#0x0
    1297:	00 02       	.word	H'0,H'2
    1299:	68 00       	mov.b	@er0,r0h
    129b:	04 f3       	orc	#0xf3,ccr
    129d:	01 51       	.word	H'1,H'51
    129f:	9f 00       	addx	#0x0,r7l
    12a1:	00 00       	nop	
    12a3:	00 00       	nop	
    12a5:	00 00       	nop	
	...

000012a8 <.LLST10>:
.LLST10():
    12a8:	00 00       	nop	
    12aa:	01 f4       	.word	H'1,H'f4
    12ac:	00 00       	nop	
    12ae:	02 1c       	stc	exr,r4l
    12b0:	00 01       	.word	H'0,H'1
    12b2:	50 00       	mulxu.b	r0h,r0
    12b4:	00 02       	.word	H'0,H'2
    12b6:	1c 00       	cmp.b	r0h,r0h
    12b8:	00 02       	.word	H'0,H'2
    12ba:	1f 00       	das	r0h
    12bc:	02 76       	stc	sbr,er6
    12be:	68 00       	mov.b	@er0,r0h
    12c0:	00 02       	.word	H'0,H'2
    12c2:	1f 00       	das	r0h
    12c4:	00 02       	.word	H'0,H'2
    12c6:	32 00       	mov.b	r2h,@0x0:8
    12c8:	04 f3       	orc	#0xf3,ccr
    12ca:	01 50       	.word	H'1,H'50
    12cc:	9f 00       	addx	#0x0,r7l
    12ce:	00 00       	nop	
    12d0:	00 00       	nop	
    12d2:	00 00       	nop	
	...

000012d5 <.LLST11>:
.LLST11():
    12d5:	00 00       	nop	
    12d7:	01 f4       	.word	H'1,H'f4
    12d9:	00 00       	nop	
    12db:	02 12       	stc	exr,r2h
    12dd:	00 01       	.word	H'0,H'1
    12df:	51 00       	divxu.b	r0h,r0
    12e1:	00 02       	.word	H'0,H'2
    12e3:	12 00       	rotxl.b	r0h
    12e5:	00 02       	.word	H'0,H'2
    12e7:	1f 00       	das	r0h
    12e9:	02 76       	stc	sbr,er6
    12eb:	6c 00       	mov.b	@er0+,r0h
    12ed:	00 02       	.word	H'0,H'2
    12ef:	1f 00       	das	r0h
    12f1:	00 02       	.word	H'0,H'2
    12f3:	32 00       	mov.b	r2h,@0x0:8
    12f5:	04 f3       	orc	#0xf3,ccr
    12f7:	01 51       	.word	H'1,H'51
    12f9:	9f 00       	addx	#0x0,r7l
    12fb:	00 00       	nop	
    12fd:	00 00       	nop	
    12ff:	00 00       	nop	
	...

00001302 <.LLST12>:
.LLST12():
    1302:	00 00       	nop	
    1304:	01 f4       	.word	H'1,H'f4
    1306:	00 00       	nop	
    1308:	02 1f       	stc	exr,r7l
    130a:	00 01       	.word	H'0,H'1
    130c:	52 00       	mulxu.w	r0,er0
    130e:	00 02       	.word	H'0,H'2
    1310:	1f 00       	das	r0h
    1312:	00 02       	.word	H'0,H'2
    1314:	32 00       	mov.b	r2h,@0x0:8
    1316:	04 f3       	orc	#0xf3,ccr
    1318:	01 52       	.word	H'1,H'52
    131a:	9f 00       	addx	#0x0,r7l
    131c:	00 00       	nop	
    131e:	00 00       	nop	
    1320:	00 00       	nop	
	...

00001323 <.LLST7>:
.LLST7():
    1323:	00 00       	nop	
    1325:	01 ba       	.word	H'1,H'ba
    1327:	00 00       	nop	
    1329:	01 e0       	.word	H'1,H'e0
    132b:	00 01       	.word	H'0,H'1
    132d:	50 00       	mulxu.b	r0h,r0
    132f:	00 01       	.word	H'0,H'1
    1331:	e0 00       	and.b	#0x0,r0h
    1333:	00 01       	.word	H'0,H'1
    1335:	e3 00       	and.b	#0x0,r3h
    1337:	02 76       	stc	sbr,er6
    1339:	68 00       	mov.b	@er0,r0h
    133b:	00 01       	.word	H'0,H'1
    133d:	e3 00       	and.b	#0x0,r3h
    133f:	00 01       	.word	H'0,H'1
    1341:	f4 00       	mov.b	#0x0,r4h
    1343:	04 f3       	orc	#0xf3,ccr
    1345:	01 50       	.word	H'1,H'50
    1347:	9f 00       	addx	#0x0,r7l
    1349:	00 00       	nop	
    134b:	00 00       	nop	
    134d:	00 00       	nop	
	...

00001350 <.LLST8>:
.LLST8():
    1350:	00 00       	nop	
    1352:	01 ba       	.word	H'1,H'ba
    1354:	00 00       	nop	
    1356:	01 d6       	.word	H'1,H'd6
    1358:	00 01       	.word	H'0,H'1
    135a:	51 00       	divxu.b	r0h,r0
    135c:	00 01       	.word	H'0,H'1
    135e:	d6 00       	xor.b	#0x0,r6h
    1360:	00 01       	.word	H'0,H'1
    1362:	e3 00       	and.b	#0x0,r3h
    1364:	02 76       	stc	sbr,er6
    1366:	6a 00 00 01 	mov.b	@0x1:16,r0h
    136a:	e3 00       	and.b	#0x0,r3h
    136c:	00 01       	.word	H'0,H'1
    136e:	f4 00       	mov.b	#0x0,r4h
    1370:	04 f3       	orc	#0xf3,ccr
    1372:	01 51       	.word	H'1,H'51
    1374:	9f 00       	addx	#0x0,r7l
    1376:	00 00       	nop	
    1378:	00 00       	nop	
    137a:	00 00       	nop	
	...

0000137d <.LLST9>:
.LLST9():
    137d:	00 00       	nop	
    137f:	01 ba       	.word	H'1,H'ba
    1381:	00 00       	nop	
    1383:	01 e3       	.word	H'1,H'e3
    1385:	00 01       	.word	H'0,H'1
    1387:	52 00       	mulxu.w	r0,er0
    1389:	00 01       	.word	H'0,H'1
    138b:	e3 00       	and.b	#0x0,r3h
    138d:	00 01       	.word	H'0,H'1
    138f:	f4 00       	mov.b	#0x0,r4h
    1391:	04 f3       	orc	#0xf3,ccr
    1393:	01 52       	.word	H'1,H'52
    1395:	9f 00       	addx	#0x0,r7l
    1397:	00 00       	nop	
    1399:	00 00       	nop	
    139b:	00 00       	nop	
	...

0000139e <.LLST6>:
.LLST6():
    139e:	00 00       	nop	
    13a0:	01 88       	.word	H'1,H'88
    13a2:	00 00       	nop	
    13a4:	01 a6       	.word	H'1,H'a6
    13a6:	00 01       	.word	H'0,H'1
    13a8:	50 00       	mulxu.b	r0h,r0
    13aa:	00 01       	.word	H'0,H'1
    13ac:	a6 00       	cmp.b	#0x0,r6h
    13ae:	00 01       	.word	H'0,H'1
    13b0:	a9 00       	cmp.b	#0x0,r1l
    13b2:	02 76       	stc	sbr,er6
    13b4:	68 00       	mov.b	@er0,r0h
    13b6:	00 01       	.word	H'0,H'1
    13b8:	a9 00       	cmp.b	#0x0,r1l
    13ba:	00 01       	.word	H'0,H'1
    13bc:	ba 00       	subx	#0x0,r2l
    13be:	04 f3       	orc	#0xf3,ccr
    13c0:	01 50       	.word	H'1,H'50
    13c2:	9f 00       	addx	#0x0,r7l
    13c4:	00 00       	nop	
    13c6:	00 00       	nop	
    13c8:	00 00       	nop	
	...

000013cb <.LLST5>:
.LLST5():
    13cb:	00 00       	nop	
    13cd:	01 56       	.word	H'1,H'56
    13cf:	00 00       	nop	
    13d1:	01 72       	.word	H'1,H'72
    13d3:	00 01       	.word	H'0,H'1
    13d5:	50 00       	mulxu.b	r0h,r0
    13d7:	00 01       	.word	H'0,H'1
    13d9:	72 00       	bclr	#0x0,r0h
    13db:	00 01       	.word	H'0,H'1
    13dd:	75 00       	bxor	#0x0,r0h
    13df:	02 76       	stc	sbr,er6
    13e1:	68 00       	mov.b	@er0,r0h
    13e3:	00 01       	.word	H'0,H'1
    13e5:	75 00       	bxor	#0x0,r0h
    13e7:	00 01       	.word	H'0,H'1
    13e9:	88 00       	add.b	#0x0,r0l
    13eb:	04 f3       	orc	#0xf3,ccr
    13ed:	01 50       	.word	H'1,H'50
    13ef:	9f 00       	addx	#0x0,r7l
    13f1:	00 00       	nop	
    13f3:	00 00       	nop	
    13f5:	00 00       	nop	
	...

000013f8 <.LLST4>:
.LLST4():
    13f8:	00 00       	nop	
    13fa:	01 26       	.word	H'1,H'26
    13fc:	00 00       	nop	
    13fe:	01 42       	.word	H'1,H'42
    1400:	00 01       	.word	H'0,H'1
    1402:	50 00       	mulxu.b	r0h,r0
    1404:	00 01       	.word	H'0,H'1
    1406:	42 00       	bhi	.0 (0x1408)
    1408:	00 01       	.word	H'0,H'1
    140a:	45 00       	bcs	.0 (0x140c)
    140c:	02 76       	stc	sbr,er6
    140e:	68 00       	mov.b	@er0,r0h
    1410:	00 01       	.word	H'0,H'1
    1412:	45 00       	bcs	.0 (0x1414)
    1414:	00 01       	.word	H'0,H'1
    1416:	56 00       	rte/l	er0
    1418:	04 f3       	orc	#0xf3,ccr
    141a:	01 50       	.word	H'1,H'50
    141c:	9f 00       	addx	#0x0,r7l
    141e:	00 00       	nop	
    1420:	00 00       	nop	
    1422:	00 00       	nop	
	...

00001425 <.LLST3>:
.LLST3():
    1425:	00 00       	nop	
    1427:	00 c6       	.word	H'0,H'c6
    1429:	00 00       	nop	
    142b:	00 e4       	.word	H'0,H'e4
    142d:	00 01       	.word	H'0,H'1
    142f:	50 00       	mulxu.b	r0h,r0
    1431:	00 00       	nop	
    1433:	e4 00       	and.b	#0x0,r4h
    1435:	00 00       	nop	
    1437:	e7 00       	and.b	#0x0,r7h
    1439:	02 76       	stc	sbr,er6
    143b:	68 00       	mov.b	@er0,r0h
    143d:	00 00       	nop	
    143f:	e7 00       	and.b	#0x0,r7h
    1441:	00 00       	nop	
    1443:	f8 00       	mov.b	#0x0,r0l
    1445:	04 f3       	orc	#0xf3,ccr
    1447:	01 50       	.word	H'1,H'50
    1449:	9f 00       	addx	#0x0,r7l
    144b:	00 00       	nop	
    144d:	00 00       	nop	
    144f:	00 00       	nop	
	...

00001452 <.LLST0>:
.LLST0():
    1452:	00 00       	nop	
    1454:	00 00       	nop	
    1456:	00 00       	nop	
    1458:	00 42       	.word	H'0,H'42
    145a:	00 01       	.word	H'0,H'1
    145c:	50 00       	mulxu.b	r0h,r0
    145e:	00 00       	nop	
    1460:	42 00       	bhi	.0 (0x1462)
    1462:	00 00       	nop	
    1464:	45 00       	bcs	.0 (0x1466)
    1466:	02 91       	.word	H'2,H'91
    1468:	60 00       	bset	r0h,r0h
    146a:	00 00       	nop	
    146c:	45 00       	bcs	.0 (0x146e)
    146e:	00 00       	nop	
    1470:	58 00       	.word	H'58,H'0
    1472:	04 f3       	orc	#0xf3,ccr
    1474:	01 50       	.word	H'1,H'50
    1476:	9f 00       	addx	#0x0,r7l
    1478:	00 00       	nop	
    147a:	00 00       	nop	
    147c:	00 00       	nop	
	...

0000147f <.LLST1>:
.LLST1():
    147f:	00 00       	nop	
    1481:	00 00       	nop	
    1483:	00 00       	nop	
    1485:	00 3a       	.word	H'0,H'3a
    1487:	00 01       	.word	H'0,H'1
    1489:	51 00       	divxu.b	r0h,r0
    148b:	00 00       	nop	
    148d:	3a 00       	mov.b	r2l,@0x0:8
    148f:	00 00       	nop	
    1491:	45 00       	bcs	.0 (0x1493)
    1493:	02 91       	.word	H'2,H'91
    1495:	64 00       	or.w	r0,r0
    1497:	00 00       	nop	
    1499:	45 00       	bcs	.0 (0x149b)
    149b:	00 00       	nop	
    149d:	58 00       	.word	H'58,H'0
    149f:	04 f3       	orc	#0xf3,ccr
    14a1:	01 51       	.word	H'1,H'51
    14a3:	9f 00       	addx	#0x0,r7l
    14a5:	00 00       	nop	
    14a7:	00 00       	nop	
    14a9:	00 00       	nop	
	...

000014ac <.LLST2>:
.LLST2():
    14ac:	00 00       	nop	
    14ae:	00 00       	nop	
    14b0:	00 00       	nop	
    14b2:	00 20       	.word	H'0,H'20
    14b4:	00 01       	.word	H'0,H'1
    14b6:	52 00       	mulxu.w	r0,er0
    14b8:	00 00       	nop	
    14ba:	20 00       	mov.b	@0x0:8,r0h
    14bc:	00 00       	nop	
    14be:	45 00       	bcs	.0 (0x14c0)
    14c0:	02 91       	.word	H'2,H'91
    14c2:	68 00       	mov.b	@er0,r0h
    14c4:	00 00       	nop	
    14c6:	45 00       	bcs	.0 (0x14c8)
    14c8:	00 00       	nop	
    14ca:	58 00       	.word	H'58,H'0
    14cc:	04 f3       	orc	#0xf3,ccr
    14ce:	01 52       	.word	H'1,H'52
    14d0:	9f 00       	addx	#0x0,r7l
    14d2:	00 00       	nop	
    14d4:	00 00       	nop	
    14d6:	00 00       	nop	
	...

000014d9 <.LLST8>:
.LLST8():
    14d9:	00 00       	nop	
    14db:	01 24       	.word	H'1,H'24
    14dd:	00 00       	nop	
    14df:	01 57       	.word	H'1,H'57
    14e1:	00 01       	.word	H'0,H'1
    14e3:	50 00       	mulxu.b	r0h,r0
    14e5:	00 01       	.word	H'0,H'1
    14e7:	57 00       	trapa	#0x0
    14e9:	00 01       	.word	H'0,H'1
    14eb:	5a 00 04 f3 	jmp	@0x4f3:24
    14ef:	01 50       	.word	H'1,H'50
    14f1:	9f 00       	addx	#0x0,r7l
    14f3:	00 01       	.word	H'0,H'1
    14f5:	5a 00 00 01 	jmp	@0x1:24
    14f9:	80 00       	add.b	#0x0,r0h
    14fb:	01 50       	.word	H'1,H'50
    14fd:	00 00       	nop	
    14ff:	01 80       	sleep	
    1501:	00 00       	nop	
    1503:	01 82       	.word	H'1,H'82
    1505:	00 03       	.word	H'0,H'3
    1507:	70 04       	bset	#0x0,r4h
    1509:	9f 00       	addx	#0x0,r7l
    150b:	00 01       	.word	H'0,H'1
    150d:	82 00       	add.b	#0x0,r2h
    150f:	00 01       	.word	H'0,H'1
    1511:	86 00       	add.b	#0x0,r6h
    1513:	03 70       	ldc	er0,sbr
    1515:	08 9f       	add.b	r1l,r7l
    1517:	00 00       	nop	
    1519:	01 86       	.word	H'1,H'86
    151b:	00 00       	nop	
    151d:	01 90       	.word	H'1,H'90
    151f:	00 04       	.word	H'0,H'4
    1521:	f3 01       	mov.b	#0x1,r3h
    1523:	50 9f       	mulxu.b	r1l,e7
	...

0000152d <.LLST9>:
.LLST9():
    152d:	00 00       	nop	
    152f:	01 2e       	.word	H'1,H'2e
    1531:	00 00       	nop	
    1533:	01 40       	.word	H'1,H'40
    1535:	00 02       	.word	H'0,H'2
    1537:	30 9f       	mov.b	r0h,@0x9f:8
    1539:	00 00       	nop	
    153b:	01 40       	.word	H'1,H'40
    153d:	00 00       	nop	
    153f:	01 4a       	.word	H'1,H'4a
    1541:	00 02       	.word	H'0,H'2
    1543:	31 9f       	mov.b	r1h,@0x9f:8
    1545:	00 00       	nop	
    1547:	01 4a       	.word	H'1,H'4a
    1549:	00 00       	nop	
    154b:	01 54       	.word	H'1,H'54
    154d:	00 02       	.word	H'0,H'2
    154f:	32 9f       	mov.b	r2h,@0x9f:8
    1551:	00 00       	nop	
    1553:	01 54       	.word	H'1,H'54
    1555:	00 00       	nop	
    1557:	01 5a       	.word	H'1,H'5a
    1559:	00 02       	.word	H'0,H'2
    155b:	33 9f       	mov.b	r3h,@0x9f:8
    155d:	00 00       	nop	
    155f:	01 5a       	.word	H'1,H'5a
    1561:	00 00       	nop	
    1563:	01 5e       	.word	H'1,H'5e
    1565:	00 02       	.word	H'0,H'2
    1567:	30 9f       	mov.b	r0h,@0x9f:8
    1569:	00 00       	nop	
    156b:	01 5e       	.word	H'1,H'5e
    156d:	00 00       	nop	
    156f:	01 64       	.word	H'1,H'64
    1571:	00 02       	.word	H'0,H'2
    1573:	31 9f       	mov.b	r1h,@0x9f:8
    1575:	00 00       	nop	
    1577:	01 64       	.word	H'1,H'64
    1579:	00 00       	nop	
    157b:	01 68       	.word	H'1,H'68
    157d:	00 02       	.word	H'0,H'2
    157f:	32 9f       	mov.b	r2h,@0x9f:8
	...

00001589 <.LLST10>:
.LLST10():
    1589:	00 00       	nop	
    158b:	01 2e       	.word	H'1,H'2e
    158d:	00 00       	nop	
    158f:	01 57       	.word	H'1,H'57
    1591:	00 03       	.word	H'0,H'3
    1593:	70 78       	bset	#0x7,r0l
    1595:	9f 00       	addx	#0x0,r7l
    1597:	00 01       	.word	H'0,H'1
    1599:	57 00       	trapa	#0x0
    159b:	00 01       	.word	H'0,H'1
    159d:	5a 00 06 f3 	jmp	@0x6f3:24
    15a1:	01 50       	.word	H'1,H'50
    15a3:	38 1c       	mov.b	r0l,@0x1c:8
    15a5:	9f 00       	addx	#0x0,r7l
    15a7:	00 01       	.word	H'0,H'1
    15a9:	5a 00 00 01 	jmp	@0x1:24
    15ad:	80 00       	add.b	#0x0,r0h
    15af:	03 70       	ldc	er0,sbr
    15b1:	78 9f       	.word	H'78,H'9f
    15b3:	00 00       	nop	
    15b5:	01 80       	sleep	
    15b7:	00 00       	nop	
    15b9:	01 82       	.word	H'1,H'82
    15bb:	00 03       	.word	H'0,H'3
    15bd:	70 7c       	bset	#0x7,r4l
    15bf:	9f 00       	addx	#0x0,r7l
    15c1:	00 01       	.word	H'0,H'1
    15c3:	82 00       	add.b	#0x0,r2h
    15c5:	00 01       	.word	H'0,H'1
    15c7:	86 00       	add.b	#0x0,r6h
    15c9:	01 50       	.word	H'1,H'50
    15cb:	00 00       	nop	
    15cd:	01 86       	.word	H'1,H'86
    15cf:	00 00       	nop	
    15d1:	01 90       	.word	H'1,H'90
    15d3:	00 06       	.word	H'0,H'6
    15d5:	f3 01       	mov.b	#0x1,r3h
    15d7:	50 38       	mulxu.b	r3h,e0
    15d9:	1c 9f       	cmp.b	r1l,r7l
	...

000015e3 <.LLST11>:
.LLST11():
    15e3:	00 00       	nop	
    15e5:	01 2e       	.word	H'1,H'2e
    15e7:	00 00       	nop	
    15e9:	01 40       	.word	H'1,H'40
    15eb:	00 06       	.word	H'0,H'6
    15ed:	03 00       	ldc	r0h,ccr
    15ef:	ff d9       	mov.b	#0xd9,r7l
    15f1:	10 9f       	shal.w	e7
    15f3:	00 00       	nop	
    15f5:	01 40       	.word	H'1,H'40
    15f7:	00 00       	nop	
    15f9:	01 4a       	.word	H'1,H'4a
    15fb:	00 06       	.word	H'0,H'6
    15fd:	03 00       	ldc	r0h,ccr
    15ff:	ff d9       	mov.b	#0xd9,r7l
    1601:	18 9f       	sub.b	r1l,r7l
    1603:	00 00       	nop	
    1605:	01 4a       	.word	H'1,H'4a
    1607:	00 00       	nop	
    1609:	01 5a       	.word	H'1,H'5a
    160b:	00 06       	.word	H'0,H'6
    160d:	03 00       	ldc	r0h,ccr
    160f:	ff d9       	mov.b	#0xd9,r7l
    1611:	20 9f       	mov.b	@0x9f:8,r0h
    1613:	00 00       	nop	
    1615:	01 5a       	.word	H'1,H'5a
    1617:	00 00       	nop	
    1619:	01 5e       	.word	H'1,H'5e
    161b:	00 06       	.word	H'0,H'6
    161d:	03 00       	ldc	r0h,ccr
    161f:	ff d9       	mov.b	#0xd9,r7l
    1621:	10 9f       	shal.w	e7
    1623:	00 00       	nop	
    1625:	01 5e       	.word	H'1,H'5e
    1627:	00 00       	nop	
    1629:	01 64       	.word	H'1,H'64
    162b:	00 06       	.word	H'0,H'6
    162d:	03 00       	ldc	r0h,ccr
    162f:	ff d9       	mov.b	#0xd9,r7l
    1631:	18 9f       	sub.b	r1l,r7l
    1633:	00 00       	nop	
    1635:	01 64       	.word	H'1,H'64
    1637:	00 00       	nop	
    1639:	01 68       	.word	H'1,H'68
    163b:	00 06       	.word	H'0,H'6
    163d:	03 00       	ldc	r0h,ccr
    163f:	ff d9       	mov.b	#0xd9,r7l
    1641:	20 9f       	mov.b	@0x9f:8,r0h
	...

0000164b <.LLST4>:
.LLST4():
    164b:	00 00       	nop	
    164d:	00 a8       	.word	H'0,H'a8
    164f:	00 00       	nop	
    1651:	01 02       	.word	H'1,H'2
    1653:	00 01       	.word	H'0,H'1
    1655:	50 00       	mulxu.b	r0h,r0
    1657:	00 01       	.word	H'0,H'1
    1659:	02 00       	stc	ccr,r0h
    165b:	00 01       	.word	H'0,H'1
    165d:	24 00       	mov.b	@0x0:8,r4h
    165f:	04 f3       	orc	#0xf3,ccr
    1661:	01 50       	.word	H'1,H'50
    1663:	9f 00       	addx	#0x0,r7l
    1665:	00 00       	nop	
    1667:	00 00       	nop	
    1669:	00 00       	nop	
	...

0000166c <.LLST5>:
.LLST5():
    166c:	00 00       	nop	
    166e:	00 ae       	.word	H'0,H'ae
    1670:	00 00       	nop	
    1672:	00 c4       	.word	H'0,H'c4
    1674:	00 02       	.word	H'0,H'2
    1676:	30 9f       	mov.b	r0h,@0x9f:8
    1678:	00 00       	nop	
    167a:	00 c4       	.word	H'0,H'c4
    167c:	00 00       	nop	
    167e:	00 d4       	.word	H'0,H'd4
    1680:	00 02       	.word	H'0,H'2
    1682:	31 9f       	mov.b	r1h,@0x9f:8
    1684:	00 00       	nop	
    1686:	00 d4       	.word	H'0,H'd4
    1688:	00 00       	nop	
    168a:	00 ea       	.word	H'0,H'ea
    168c:	00 02       	.word	H'0,H'2
    168e:	32 9f       	mov.b	r2h,@0x9f:8
    1690:	00 00       	nop	
    1692:	00 ea       	.word	H'0,H'ea
    1694:	00 00       	nop	
    1696:	00 ee       	.word	H'0,H'ee
    1698:	00 02       	.word	H'0,H'2
    169a:	30 9f       	mov.b	r0h,@0x9f:8
    169c:	00 00       	nop	
    169e:	00 ee       	.word	H'0,H'ee
    16a0:	00 00       	nop	
    16a2:	00 f2       	.word	H'0,H'f2
    16a4:	00 02       	.word	H'0,H'2
    16a6:	31 9f       	mov.b	r1h,@0x9f:8
	...

000016b0 <.LLST6>:
.LLST6():
    16b0:	00 00       	nop	
    16b2:	01 0c       	.word	H'1,H'c
    16b4:	00 00       	nop	
    16b6:	01 1c       	.word	H'1,H'1c
    16b8:	00 01       	.word	H'0,H'1
    16ba:	50 00       	mulxu.b	r0h,r0
    16bc:	00 01       	.word	H'0,H'1
    16be:	1c 00       	cmp.b	r0h,r0h
    16c0:	00 01       	.word	H'0,H'1
    16c2:	1e 00       	subx	r0h,r0h
    16c4:	03 70       	ldc	er0,sbr
    16c6:	7c 9f       	.word	H'7c,H'9f
	...

000016d0 <.LLST7>:
.LLST7():
    16d0:	00 00       	nop	
    16d2:	00 ae       	.word	H'0,H'ae
    16d4:	00 00       	nop	
    16d6:	00 c4       	.word	H'0,H'c4
    16d8:	00 06       	.word	H'0,H'6
    16da:	03 00       	ldc	r0h,ccr
    16dc:	ff d9       	mov.b	#0xd9,r7l
    16de:	10 9f       	shal.w	e7
    16e0:	00 00       	nop	
    16e2:	00 c4       	.word	H'0,H'c4
    16e4:	00 00       	nop	
    16e6:	00 d4       	.word	H'0,H'd4
    16e8:	00 06       	.word	H'0,H'6
    16ea:	03 00       	ldc	r0h,ccr
    16ec:	ff d9       	mov.b	#0xd9,r7l
    16ee:	18 9f       	sub.b	r1l,r7l
    16f0:	00 00       	nop	
    16f2:	00 d4       	.word	H'0,H'd4
    16f4:	00 00       	nop	
    16f6:	00 ea       	.word	H'0,H'ea
    16f8:	00 06       	.word	H'0,H'6
    16fa:	03 00       	ldc	r0h,ccr
    16fc:	ff d9       	mov.b	#0xd9,r7l
    16fe:	20 9f       	mov.b	@0x9f:8,r0h
    1700:	00 00       	nop	
    1702:	00 ea       	.word	H'0,H'ea
    1704:	00 00       	nop	
    1706:	00 ee       	.word	H'0,H'ee
    1708:	00 06       	.word	H'0,H'6
    170a:	03 00       	ldc	r0h,ccr
    170c:	ff d9       	mov.b	#0xd9,r7l
    170e:	10 9f       	shal.w	e7
    1710:	00 00       	nop	
    1712:	00 ee       	.word	H'0,H'ee
    1714:	00 00       	nop	
    1716:	00 f2       	.word	H'0,H'f2
    1718:	00 06       	.word	H'0,H'6
    171a:	03 00       	ldc	r0h,ccr
    171c:	ff d9       	mov.b	#0xd9,r7l
    171e:	18 9f       	sub.b	r1l,r7l
	...

00001728 <.LLST0>:
.LLST0():
    1728:	00 00       	nop	
    172a:	00 14       	.word	H'0,H'14
    172c:	00 00       	nop	
    172e:	00 22       	.word	H'0,H'22
    1730:	00 02       	.word	H'0,H'2
    1732:	30 9f       	mov.b	r0h,@0x9f:8
	...

0000173c <.LLST1>:
.LLST1():
    173c:	00 00       	nop	
    173e:	00 2e       	.word	H'0,H'2e
    1740:	00 00       	nop	
    1742:	00 36       	.word	H'0,H'36
    1744:	00 02       	.word	H'0,H'2
    1746:	30 9f       	mov.b	r0h,@0x9f:8
    1748:	00 00       	nop	
    174a:	00 36       	.word	H'0,H'36
    174c:	00 00       	nop	
    174e:	00 40       	.word	H'0,H'40
    1750:	00 01       	.word	H'0,H'1
    1752:	51 00       	divxu.b	r0h,r0
    1754:	00 00       	nop	
    1756:	40 00       	bra	.0 (0x1758)
    1758:	00 00       	nop	
    175a:	74 00       	bor	#0x0,r0h
    175c:	02 76       	stc	sbr,er6
    175e:	76 00       	band	#0x0,r0h
    1760:	00 00       	nop	
    1762:	74 00       	bor	#0x0,r0h
    1764:	00 00       	nop	
    1766:	7a 00 01 52 	mov.l	#0x1520000,er0
    176a:	00 00 
    176c:	00 7a       	.word	H'0,H'7a
    176e:	00 00       	nop	
    1770:	00 84       	.word	H'0,H'84
    1772:	00 02       	.word	H'0,H'2
    1774:	76 76       	band	#0x7,r6h
	...

0000177e <.LLST2>:
.LLST2():
    177e:	00 00       	nop	
    1780:	00 2a       	.word	H'0,H'2a
    1782:	00 00       	nop	
    1784:	00 84       	.word	H'0,H'84
    1786:	00 01       	.word	H'0,H'1
    1788:	55 00       	bsr	.0 (0x178a)
    178a:	00 00       	nop	
    178c:	00 00       	nop	
    178e:	00 00       	nop	
	...

00001791 <.LLST3>:
.LLST3():
    1791:	00 00       	nop	
    1793:	00 2e       	.word	H'0,H'2e
    1795:	00 00       	nop	
    1797:	00 42       	.word	H'0,H'42
    1799:	00 01       	.word	H'0,H'1
    179b:	50 00       	mulxu.b	r0h,r0
    179d:	00 00       	nop	
    179f:	54 00       	rts/l	er0
    17a1:	00 00       	nop	
    17a3:	58 00       	.word	H'58,H'0
    17a5:	01 55       	.word	H'1,H'55
    17a7:	00 00       	nop	
    17a9:	00 58       	.word	H'0,H'58
    17ab:	00 00       	nop	
    17ad:	00 84       	.word	H'0,H'84
    17af:	00 01       	.word	H'0,H'1
    17b1:	50 00       	mulxu.b	r0h,r0
    17b3:	00 00       	nop	
    17b5:	00 00       	nop	
    17b7:	00 00       	nop	
	...

000017ba <.LLST12>:
.LLST12():
    17ba:	00 00       	nop	
    17bc:	02 02       	stc	ccr,r2h
    17be:	00 00       	nop	
    17c0:	02 1a       	stc	exr,r2l
    17c2:	00 01       	.word	H'0,H'1
    17c4:	50 00       	mulxu.b	r0h,r0
    17c6:	00 02       	.word	H'0,H'2
    17c8:	1a 00       	dec.b	r0h
    17ca:	00 02       	.word	H'0,H'2
    17cc:	f2 00       	mov.b	#0x0,r2h
    17ce:	04 f3       	orc	#0xf3,ccr
    17d0:	01 50       	.word	H'1,H'50
    17d2:	9f 00       	addx	#0x0,r7l
    17d4:	00 00       	nop	
    17d6:	00 00       	nop	
    17d8:	00 00       	nop	
	...

000017db <.LLST13>:
.LLST13():
    17db:	00 00       	nop	
    17dd:	02 02       	stc	ccr,r2h
    17df:	00 00       	nop	
    17e1:	02 14       	stc	exr,r4h
    17e3:	00 01       	.word	H'0,H'1
    17e5:	51 00       	divxu.b	r0h,r0
    17e7:	00 02       	.word	H'0,H'2
    17e9:	14 00       	or.b	r0h,r0h
    17eb:	00 02       	.word	H'0,H'2
    17ed:	f2 00       	mov.b	#0x0,r2h
    17ef:	04 f3       	orc	#0xf3,ccr
    17f1:	01 51       	.word	H'1,H'51
    17f3:	9f 00       	addx	#0x0,r7l
    17f5:	00 00       	nop	
    17f7:	00 00       	nop	
    17f9:	00 00       	nop	
	...

000017fc <.LLST14>:
.LLST14():
    17fc:	00 00       	nop	
    17fe:	02 46       	.word	H'2,H'46
    1800:	00 00       	nop	
    1802:	02 60       	stc	vbr,er0
    1804:	00 01       	.word	H'0,H'1
    1806:	54 00       	rts/l	er0
    1808:	00 02       	.word	H'0,H'2
    180a:	60 00       	bset	r0h,r0h
    180c:	00 02       	.word	H'0,H'2
    180e:	6c 00       	mov.b	@er0+,r0h
    1810:	0b 71       	inc.l	#1,er1
    1812:	00 94       	.word	H'0,H'94
    1814:	01 08       	.word	H'1,H'8
    1816:	ff 1a       	mov.b	#0x1a,r7l
    1818:	08 30       	add.b	r3h,r0h
    181a:	1c 9f       	cmp.b	r1l,r7l
    181c:	00 00       	nop	
    181e:	02 c4       	.word	H'2,H'c4
    1820:	00 00       	nop	
    1822:	02 e6       	.word	H'2,H'e6
    1824:	00 01       	.word	H'0,H'1
    1826:	54 00       	rts/l	er0
    1828:	00 00       	nop	
    182a:	00 00       	nop	
    182c:	00 00       	nop	
	...

0000182f <.LLST15>:
.LLST15():
    182f:	00 00       	nop	
    1831:	02 3a       	stmac	macl,er2
    1833:	00 00       	nop	
    1835:	02 80       	.word	H'2,H'80
    1837:	00 01       	.word	H'0,H'1
    1839:	50 00       	mulxu.b	r0h,r0
    183b:	00 02       	.word	H'0,H'2
    183d:	80 00       	add.b	#0x0,r0h
    183f:	00 02       	.word	H'0,H'2
    1841:	89 00       	add.b	#0x0,r1l
    1843:	02 75       	stc	sbr,er5
    1845:	00 00       	nop	
    1847:	00 02       	.word	H'0,H'2
    1849:	c4 00       	or.b	#0x0,r4h
    184b:	00 02       	.word	H'0,H'2
    184d:	ce 00       	or.b	#0x0,r6l
    184f:	01 50       	.word	H'1,H'50
	...

00001859 <.LLST17>:
.LLST17():
    1859:	00 00       	nop	
    185b:	02 46       	.word	H'2,H'46
    185d:	00 00       	nop	
    185f:	02 89       	.word	H'2,H'89
    1861:	00 03       	.word	H'0,H'3
    1863:	71 01       	bnot	#0x0,r1h
    1865:	9f 00       	addx	#0x0,r7l
    1867:	00 02       	.word	H'0,H'2
    1869:	c4 00       	or.b	#0x0,r4h
    186b:	00 02       	.word	H'0,H'2
    186d:	da 00       	xor.b	#0x0,r2l
    186f:	03 71       	ldc	er1,sbr
    1871:	01 9f       	.word	H'1,H'9f
    1873:	00 00       	nop	
    1875:	02 da       	.word	H'2,H'da
    1877:	00 00       	nop	
    1879:	02 e3       	.word	H'2,H'e3
    187b:	00 06       	.word	H'0,H'6
    187d:	76 00       	band	#0x0,r0h
    187f:	06 23       	andc	#0x23,ccr
    1881:	01 9f       	.word	H'1,H'9f
	...

0000188b <.LLST18>:
.LLST18():
    188b:	00 00       	nop	
    188d:	02 46       	.word	H'2,H'46
    188f:	00 00       	nop	
    1891:	02 89       	.word	H'2,H'89
    1893:	00 07       	.word	H'0,H'7
    1895:	76 7e       	band	#0x7,r6l
    1897:	94 02       	addx	#0x2,r4h
    1899:	31 1c       	mov.b	r1h,@0x1c:8
    189b:	9f 00       	addx	#0x0,r7l
    189d:	00 02       	.word	H'0,H'2
    189f:	c4 00       	or.b	#0x0,r4h
    18a1:	00 02       	.word	H'0,H'2
    18a3:	e3 00       	and.b	#0x0,r3h
    18a5:	07 76       	ldc	#0x76,ccr
    18a7:	7e 94       	.word	H'7e,H'94
    18a9:	02 31       	stmac	macl,er1
    18ab:	1c 9f       	cmp.b	r1l,r7l
	...

000018b5 <.LLST19>:
.LLST19():
    18b5:	00 00       	nop	
    18b7:	02 46       	.word	H'2,H'46
    18b9:	00 00       	nop	
    18bb:	02 80       	.word	H'2,H'80
    18bd:	00 01       	.word	H'0,H'1
    18bf:	50 00       	mulxu.b	r0h,r0
    18c1:	00 02       	.word	H'0,H'2
    18c3:	80 00       	add.b	#0x0,r0h
    18c5:	00 02       	.word	H'0,H'2
    18c7:	89 00       	add.b	#0x0,r1l
    18c9:	02 75       	stc	sbr,er5
    18cb:	00 00       	nop	
    18cd:	00 02       	.word	H'0,H'2
    18cf:	c4 00       	or.b	#0x0,r4h
    18d1:	00 02       	.word	H'0,H'2
    18d3:	ce 00       	or.b	#0x0,r6l
    18d5:	01 50       	.word	H'1,H'50
	...

000018df <.LLST20>:
.LLST20():
    18df:	00 00       	nop	
    18e1:	02 46       	.word	H'2,H'46
    18e3:	00 00       	nop	
    18e5:	02 60       	stc	vbr,er0
    18e7:	00 0f       	.word	H'0,H'f
    18e9:	74 00       	bor	#0x0,r0h
    18eb:	40 24       	bra	.+36 (0x1911)
    18ed:	40 26       	bra	.+38 (0x1915)
    18ef:	35 24       	mov.b	r5h,@0x24:8
    18f1:	03 00       	ldc	r0h,ccr
    18f3:	ff db       	mov.b	#0xdb,r7l
    18f5:	5c 22       	.word	H'5c,H'22
    18f7:	9f 00       	addx	#0x0,r7l
    18f9:	00 02       	.word	H'0,H'2
    18fb:	60 00       	bset	r0h,r0h
    18fd:	00 02       	.word	H'0,H'2
    18ff:	6c 00       	mov.b	@er0+,r0h
    1901:	17 71       	extu.l	er1
    1903:	00 94       	.word	H'0,H'94
    1905:	01 08       	.word	H'1,H'8
    1907:	ff 1a       	mov.b	#0x1a,r7l
    1909:	08 30       	add.b	r3h,r0h
    190b:	1c 40       	cmp.b	r4h,r0h
    190d:	24 40       	mov.b	@0x40:8,r4h
    190f:	26 35       	mov.b	@0x35:8,r6h
    1911:	24 03       	mov.b	@0x3:8,r4h
    1913:	00 ff       	.word	H'0,H'ff
    1915:	db 5c       	xor.b	#0x5c,r3l
    1917:	22 9f       	mov.b	@0x9f:8,r2h
    1919:	00 00       	nop	
    191b:	02 c4       	.word	H'2,H'c4
    191d:	00 00       	nop	
    191f:	02 e6       	.word	H'2,H'e6
    1921:	00 0f       	.word	H'0,H'f
    1923:	74 00       	bor	#0x0,r0h
    1925:	40 24       	bra	.+36 (0x194b)
    1927:	40 26       	bra	.+38 (0x194f)
    1929:	35 24       	mov.b	r5h,@0x24:8
    192b:	03 00       	ldc	r0h,ccr
    192d:	ff db       	mov.b	#0xdb,r7l
    192f:	5c 22       	.word	H'5c,H'22
    1931:	9f 00       	addx	#0x0,r7l
    1933:	00 00       	nop	
    1935:	00 00       	nop	
    1937:	00 00       	nop	
	...

0000193a <.LLST9>:
.LLST9():
    193a:	00 00       	nop	
    193c:	00 ee       	.word	H'0,H'ee
    193e:	00 00       	nop	
    1940:	01 f2       	.word	H'1,H'f2
    1942:	00 02       	.word	H'0,H'2
    1944:	30 9f       	mov.b	r0h,@0x9f:8
	...

0000194e <.LLST10>:
.LLST10():
    194e:	00 00       	nop	
    1950:	01 0a       	.word	H'1,H'a
    1952:	00 00       	nop	
    1954:	01 1c       	.word	H'1,H'1c
    1956:	00 06       	.word	H'0,H'6
    1958:	03 00       	ldc	r0h,ccr
    195a:	ff db       	mov.b	#0xdb,r7l
    195c:	5c 9f       	.word	H'5c,H'9f
    195e:	00 00       	nop	
    1960:	01 2e       	.word	H'1,H'2e
    1962:	00 00       	nop	
    1964:	01 f2       	.word	H'1,H'f2
    1966:	00 06       	.word	H'0,H'6
    1968:	03 00       	ldc	r0h,ccr
    196a:	ff db       	mov.b	#0xdb,r7l
    196c:	5c 9f       	.word	H'5c,H'9f
	...

00001976 <.LLST11>:
.LLST11():
    1976:	00 00       	nop	
    1978:	01 96       	.word	H'1,H'96
    197a:	00 00       	nop	
    197c:	01 a9       	.word	H'1,H'a9
    197e:	00 01       	.word	H'0,H'1
    1980:	50 00       	mulxu.b	r0h,r0
    1982:	00 01       	.word	H'0,H'1
    1984:	a9 00       	cmp.b	#0x0,r1l
    1986:	00 01       	.word	H'0,H'1
    1988:	c0 00       	or.b	#0x0,r0h
    198a:	01 55       	.word	H'1,H'55
	...

00001994 <.LLST0>:
.LLST0():
    1994:	00 00       	nop	
    1996:	00 00       	nop	
    1998:	00 00       	nop	
    199a:	00 18       	.word	H'0,H'18
    199c:	00 01       	.word	H'0,H'1
    199e:	50 00       	mulxu.b	r0h,r0
    19a0:	00 00       	nop	
    19a2:	18 00       	sub.b	r0h,r0h
    19a4:	00 00       	nop	
    19a6:	4c 00       	bge	.0 (0x19a8)
    19a8:	01 54       	.word	H'1,H'54
    19aa:	00 00       	nop	
    19ac:	00 4c       	.word	H'0,H'4c
    19ae:	00 00       	nop	
    19b0:	00 52       	.word	H'0,H'52
    19b2:	00 04       	.word	H'0,H'4
    19b4:	f3 01       	mov.b	#0x1,r3h
    19b6:	50 9f       	mulxu.b	r1l,e7
	...

000019c0 <.LLST1>:
.LLST1():
    19c0:	00 00       	nop	
    19c2:	00 26       	.word	H'0,H'26
    19c4:	00 00       	nop	
    19c6:	00 2a       	.word	H'0,H'2a
    19c8:	00 02       	.word	H'0,H'2
    19ca:	30 9f       	mov.b	r0h,@0x9f:8
    19cc:	00 00       	nop	
    19ce:	00 3e       	.word	H'0,H'3e
    19d0:	00 00       	nop	
    19d2:	00 40       	.word	H'0,H'40
    19d4:	00 03       	.word	H'0,H'3
    19d6:	70 01       	bset	#0x0,r1h
    19d8:	9f 00       	addx	#0x0,r7l
    19da:	00 00       	nop	
    19dc:	00 00       	nop	
    19de:	00 00       	nop	
	...

000019e1 <.LLST2>:
.LLST2():
    19e1:	00 00       	nop	
    19e3:	00 52       	.word	H'0,H'52
    19e5:	00 00       	nop	
    19e7:	00 66       	.word	H'0,H'66
    19e9:	00 01       	.word	H'0,H'1
    19eb:	50 00       	mulxu.b	r0h,r0
    19ed:	00 00       	nop	
    19ef:	66 00       	and.w	r0,r0
    19f1:	00 00       	nop	
    19f3:	d8 00       	xor.b	#0x0,r0l
    19f5:	01 54       	.word	H'1,H'54
    19f7:	00 00       	nop	
    19f9:	00 d8       	.word	H'0,H'd8
    19fb:	00 00       	nop	
    19fd:	00 de       	.word	H'0,H'de
    19ff:	00 04       	.word	H'0,H'4
    1a01:	f3 01       	mov.b	#0x1,r3h
    1a03:	50 9f       	mulxu.b	r1l,e7
	...

00001a0d <.LLST3>:
.LLST3():
    1a0d:	00 00       	nop	
    1a0f:	00 52       	.word	H'0,H'52
    1a11:	00 00       	nop	
    1a13:	00 68       	.word	H'0,H'68
    1a15:	00 01       	.word	H'0,H'1
    1a17:	51 00       	divxu.b	r0h,r0
    1a19:	00 00       	nop	
    1a1b:	68 00       	mov.b	@er0,r0h
    1a1d:	00 00       	nop	
    1a1f:	de 00       	xor.b	#0x0,r6l
    1a21:	04 f3       	orc	#0xf3,ccr
    1a23:	01 51       	.word	H'1,H'51
    1a25:	9f 00       	addx	#0x0,r7l
    1a27:	00 00       	nop	
    1a29:	00 00       	nop	
    1a2b:	00 00       	nop	
	...

00001a2e <.LLST4>:
.LLST4():
    1a2e:	00 00       	nop	
    1a30:	00 52       	.word	H'0,H'52
    1a32:	00 00       	nop	
    1a34:	00 bb       	.word	H'0,H'bb
    1a36:	00 01       	.word	H'0,H'1
    1a38:	52 00       	mulxu.w	r0,er0
    1a3a:	00 00       	nop	
    1a3c:	bb 00       	subx	#0x0,r3l
    1a3e:	00 00       	nop	
    1a40:	de 00       	xor.b	#0x0,r6l
    1a42:	04 f3       	orc	#0xf3,ccr
    1a44:	01 52       	.word	H'1,H'52
    1a46:	9f 00       	addx	#0x0,r7l
    1a48:	00 00       	nop	
    1a4a:	00 00       	nop	
    1a4c:	00 00       	nop	
	...

00001a4f <.LLST5>:
.LLST5():
    1a4f:	00 00       	nop	
    1a51:	00 64       	.word	H'0,H'64
    1a53:	00 00       	nop	
    1a55:	00 68       	.word	H'0,H'68
    1a57:	00 02       	.word	H'0,H'2
    1a59:	30 9f       	mov.b	r0h,@0x9f:8
    1a5b:	00 00       	nop	
    1a5d:	00 68       	.word	H'0,H'68
    1a5f:	00 00       	nop	
    1a61:	00 b8       	.word	H'0,H'b8
    1a63:	00 01       	.word	H'0,H'1
    1a65:	50 00       	mulxu.b	r0h,r0
    1a67:	00 00       	nop	
    1a69:	00 00       	nop	
    1a6b:	00 00       	nop	
	...

00001a6e <.LLST6>:
.LLST6():
    1a6e:	00 00       	nop	
    1a70:	00 c0       	.word	H'0,H'c0
    1a72:	00 00       	nop	
    1a74:	00 ce       	.word	H'0,H'ce
    1a76:	00 04       	.word	H'0,H'4
    1a78:	f3 01       	mov.b	#0x1,r3h
    1a7a:	51 9f       	divxu.b	r1l,e7
	...

00001a84 <.LLST7>:
.LLST7():
    1a84:	00 00       	nop	
    1a86:	00 c0       	.word	H'0,H'c0
    1a88:	00 00       	nop	
    1a8a:	00 ce       	.word	H'0,H'ce
    1a8c:	00 04       	.word	H'0,H'4
    1a8e:	f3 01       	mov.b	#0x1,r3h
    1a90:	52 9f       	.word	H'52,H'9f
	...

00001a9a <.LLST8>:
.LLST8():
    1a9a:	00 00       	nop	
    1a9c:	00 c0       	.word	H'0,H'c0
    1a9e:	00 00       	nop	
    1aa0:	00 ce       	.word	H'0,H'ce
    1aa2:	00 01       	.word	H'0,H'1
    1aa4:	54 00       	rts/l	er0
    1aa6:	00 00       	nop	
    1aa8:	00 00       	nop	
    1aaa:	00 00       	nop	
	...

00001aad <.LLST7>:
.LLST7():
    1aad:	00 00       	nop	
    1aaf:	00 b2       	.word	H'0,H'b2
    1ab1:	00 00       	nop	
    1ab3:	00 c2       	.word	H'0,H'c2
    1ab5:	00 01       	.word	H'0,H'1
    1ab7:	50 00       	mulxu.b	r0h,r0
    1ab9:	00 00       	nop	
    1abb:	c2 00       	or.b	#0x0,r2h
    1abd:	00 01       	.word	H'0,H'1
    1abf:	b8 00       	subx	#0x0,r0l
    1ac1:	04 f3       	orc	#0xf3,ccr
    1ac3:	01 50       	.word	H'1,H'50
    1ac5:	9f 00       	addx	#0x0,r7l
    1ac7:	00 00       	nop	
    1ac9:	00 00       	nop	
    1acb:	00 00       	nop	
	...

00001ace <.LLST8>:
.LLST8():
    1ace:	00 00       	nop	
    1ad0:	00 b2       	.word	H'0,H'b2
    1ad2:	00 00       	nop	
    1ad4:	00 c5       	.word	H'0,H'c5
    1ad6:	00 01       	.word	H'0,H'1
    1ad8:	51 00       	divxu.b	r0h,r0
    1ada:	00 00       	nop	
    1adc:	c5 00       	or.b	#0x0,r5h
    1ade:	00 01       	.word	H'0,H'1
    1ae0:	b8 00       	subx	#0x0,r0l
    1ae2:	04 f3       	orc	#0xf3,ccr
    1ae4:	01 51       	.word	H'1,H'51
    1ae6:	9f 00       	addx	#0x0,r7l
    1ae8:	00 00       	nop	
    1aea:	00 00       	nop	
    1aec:	00 00       	nop	
	...

00001aef <.LLST9>:
.LLST9():
    1aef:	00 00       	nop	
    1af1:	00 c8       	.word	H'0,H'c8
    1af3:	00 00       	nop	
    1af5:	00 e0       	.word	H'0,H'e0
    1af7:	00 01       	.word	H'0,H'1
    1af9:	50 00       	mulxu.b	r0h,r0
    1afb:	00 00       	nop	
    1afd:	e0 00       	and.b	#0x0,r0h
    1aff:	00 00       	nop	
    1b01:	e3 00       	and.b	#0x0,r3h
    1b03:	01 52       	.word	H'1,H'52
	...

00001b0d <.LLST0>:
.LLST0():
    1b0d:	00 00       	nop	
    1b0f:	00 00       	nop	
    1b11:	00 00       	nop	
    1b13:	00 1d       	.word	H'0,H'1d
    1b15:	00 01       	.word	H'0,H'1
    1b17:	50 00       	mulxu.b	r0h,r0
    1b19:	00 00       	nop	
    1b1b:	1d 00       	cmp.w	r0,r0
    1b1d:	00 00       	nop	
    1b1f:	6e 00 04 f3 	mov.b	@(0x4f3:16,er0),r0h
    1b23:	01 50       	.word	H'1,H'50
    1b25:	9f 00       	addx	#0x0,r7l
    1b27:	00 00       	nop	
    1b29:	00 00       	nop	
    1b2b:	00 00       	nop	
	...

00001b2e <.LLST1>:
.LLST1():
    1b2e:	00 00       	nop	
    1b30:	00 32       	.word	H'0,H'32
    1b32:	00 00       	nop	
    1b34:	00 4c       	.word	H'0,H'4c
    1b36:	00 01       	.word	H'0,H'1
    1b38:	50 00       	mulxu.b	r0h,r0
    1b3a:	00 00       	nop	
    1b3c:	4c 00       	bge	.0 (0x1b3e)
    1b3e:	00 00       	nop	
    1b40:	68 00       	mov.b	@er0,r0h
    1b42:	01 54       	.word	H'1,H'54
	...

00001b4c <.LLST2>:
.LLST2():
    1b4c:	00 00       	nop	
    1b4e:	00 20       	.word	H'0,H'20
    1b50:	00 00       	nop	
    1b52:	00 26       	.word	H'0,H'26
    1b54:	00 01       	.word	H'0,H'1
    1b56:	50 00       	mulxu.b	r0h,r0
    1b58:	00 00       	nop	
    1b5a:	26 00       	mov.b	@0x0:8,r6h
    1b5c:	00 00       	nop	
    1b5e:	2f 00       	mov.b	@0x0:8,r7l
    1b60:	01 52       	.word	H'1,H'52
    1b62:	00 00       	nop	
    1b64:	00 2f       	.word	H'0,H'2f
    1b66:	00 00       	nop	
    1b68:	00 64       	.word	H'0,H'64
    1b6a:	00 03       	.word	H'0,H'3
    1b6c:	75 7e       	bxor	#0x7,r6l
    1b6e:	9f 00       	addx	#0x0,r7l
    1b70:	00 00       	nop	
    1b72:	00 00       	nop	
    1b74:	00 00       	nop	
	...

00001b77 <.LLST3>:
.LLST3():
    1b77:	00 00       	nop	
    1b79:	00 6e       	.word	H'0,H'6e
    1b7b:	00 00       	nop	
    1b7d:	00 76       	.word	H'0,H'76
    1b7f:	00 01       	.word	H'0,H'1
    1b81:	50 00       	mulxu.b	r0h,r0
    1b83:	00 00       	nop	
    1b85:	76 00       	band	#0x0,r0h
    1b87:	00 00       	nop	
    1b89:	b2 00       	subx	#0x0,r2h
    1b8b:	04 f3       	orc	#0xf3,ccr
    1b8d:	01 50       	.word	H'1,H'50
    1b8f:	9f 00       	addx	#0x0,r7l
    1b91:	00 00       	nop	
    1b93:	00 00       	nop	
    1b95:	00 00       	nop	
	...

00001b98 <.LLST4>:
.LLST4():
    1b98:	00 00       	nop	
    1b9a:	00 6e       	.word	H'0,H'6e
    1b9c:	00 00       	nop	
    1b9e:	00 79       	.word	H'0,H'79
    1ba0:	00 01       	.word	H'0,H'1
    1ba2:	51 00       	divxu.b	r0h,r0
    1ba4:	00 00       	nop	
    1ba6:	79 00 00 00 	mov.w	#0x0,r0
    1baa:	b2 00       	subx	#0x0,r2h
    1bac:	04 f3       	orc	#0xf3,ccr
    1bae:	01 51       	.word	H'1,H'51
    1bb0:	9f 00       	addx	#0x0,r7l
    1bb2:	00 00       	nop	
    1bb4:	00 00       	nop	
    1bb6:	00 00       	nop	
	...

00001bb9 <.LLST5>:
.LLST5():
    1bb9:	00 00       	nop	
    1bbb:	00 9a       	.word	H'0,H'9a
    1bbd:	00 00       	nop	
    1bbf:	00 ac       	.word	H'0,H'ac
    1bc1:	00 04       	.word	H'0,H'4
    1bc3:	f3 01       	mov.b	#0x1,r3h
    1bc5:	50 9f       	mulxu.b	r1l,e7
	...

00001bcf <.LLST6>:
.LLST6():
    1bcf:	00 00       	nop	
    1bd1:	00 9a       	.word	H'0,H'9a
    1bd3:	00 00       	nop	
    1bd5:	00 ac       	.word	H'0,H'ac
    1bd7:	00 04       	.word	H'0,H'4
    1bd9:	f3 01       	mov.b	#0x1,r3h
    1bdb:	51 9f       	divxu.b	r1l,e7
	...

Disassembly of section .debug_aranges:

00000000 <.debug_aranges>:
   0:	00 00       	nop	
   2:	00 24       	.word	H'0,H'24
   4:	00 02       	.word	H'0,H'2
   6:	00 00       	nop	
   8:	00 00       	nop	
   a:	04 00       	orc	#0x0,ccr
   c:	00 00       	nop	
   e:	00 00       	nop	
  10:	00 ff       	.word	H'0,H'ff
  12:	c0 4e       	or.b	#0x4e,r0h
  14:	00 00       	nop	
  16:	00 68       	.word	H'0,H'68
  18:	00 ff       	.word	H'0,H'ff
  1a:	d7 b6       	xor.b	#0xb6,r7h
  1c:	00 00       	nop	
  1e:	00 48       	.word	H'0,H'48
	...
  28:	00 00       	nop	
  2a:	00 1c       	.word	H'0,H'1c
  2c:	00 02       	.word	H'0,H'2
  2e:	00 00       	nop	
  30:	01 6b       	.word	H'1,H'6b
  32:	04 00       	orc	#0x0,ccr
  34:	00 00       	nop	
  36:	00 00       	nop	
  38:	00 ff       	.word	H'0,H'ff
  3a:	c0 b6       	or.b	#0xb6,r0h
  3c:	00 00       	nop	
  3e:	00 b0       	.word	H'0,H'b0
	...
  48:	00 00       	nop	
  4a:	00 1c       	.word	H'0,H'1c
  4c:	00 02       	.word	H'0,H'2
  4e:	00 00       	nop	
  50:	02 e1       	.word	H'2,H'e1
  52:	04 00       	orc	#0x0,ccr
  54:	00 00       	nop	
  56:	00 00       	nop	
  58:	00 ff       	.word	H'0,H'ff
  5a:	c1 66       	or.b	#0x66,r1h
  5c:	00 00       	nop	
  5e:	02 86       	.word	H'2,H'86
	...
  68:	00 00       	nop	
  6a:	00 1c       	.word	H'0,H'1c
  6c:	00 02       	.word	H'0,H'2
  6e:	00 00       	nop	
  70:	06 f2       	andc	#0xf2,ccr
  72:	04 00       	orc	#0x0,ccr
  74:	00 00       	nop	
  76:	00 00       	nop	
  78:	00 ff       	.word	H'0,H'ff
  7a:	c3 ec       	or.b	#0xec,r3h
  7c:	00 00       	nop	
  7e:	01 ca       	.word	H'1,H'ca
	...
  88:	00 00       	nop	
  8a:	00 1c       	.word	H'0,H'1c
  8c:	00 02       	.word	H'0,H'2
  8e:	00 00       	nop	
  90:	0a c2       	add.l	er4,er2
  92:	04 00       	orc	#0x0,ccr
  94:	00 00       	nop	
  96:	00 00       	nop	
  98:	00 ff       	.word	H'0,H'ff
  9a:	c5 b6       	or.b	#0xb6,r5h
  9c:	00 00       	nop	
  9e:	00 d4       	.word	H'0,H'd4
	...
  a8:	00 00       	nop	
  aa:	00 1c       	.word	H'0,H'1c
  ac:	00 02       	.word	H'0,H'2
  ae:	00 00       	nop	
  b0:	0c f1       	mov.b	r7l,r1h
  b2:	04 00       	orc	#0x0,ccr
  b4:	00 00       	nop	
  b6:	00 00       	nop	
  b8:	00 ff       	.word	H'0,H'ff
  ba:	c6 8a       	or.b	#0x8a,r6h
  bc:	00 00       	nop	
  be:	07 ba       	ldc	#0xba,ccr
	...
  c8:	00 00       	nop	
  ca:	00 1c       	.word	H'0,H'1c
  cc:	00 02       	.word	H'0,H'2
  ce:	00 00       	nop	
  d0:	1e 5b       	subx	r5h,r3l
  d2:	04 00       	orc	#0x0,ccr
  d4:	00 00       	nop	
  d6:	00 00       	nop	
  d8:	00 ff       	.word	H'0,H'ff
  da:	ce 44       	or.b	#0x44,r6l
  dc:	00 00       	nop	
  de:	03 38       	ldmac	er0,macl
	...
  e8:	00 00       	nop	
  ea:	00 1c       	.word	H'0,H'1c
  ec:	00 02       	.word	H'0,H'2
  ee:	00 00       	nop	
  f0:	27 4c       	mov.b	@0x4c:8,r7h
  f2:	04 00       	orc	#0x0,ccr
  f4:	00 00       	nop	
  f6:	00 00       	nop	
  f8:	00 ff       	.word	H'0,H'ff
  fa:	d1 7c       	xor.b	#0x7c,r1h
  fc:	00 00       	nop	
  fe:	01 90       	.word	H'1,H'90
	...
 108:	00 00       	nop	
 10a:	00 1c       	.word	H'0,H'1c
 10c:	00 02       	.word	H'0,H'2
 10e:	00 00       	nop	
 110:	29 f5       	mov.b	@0xf5:8,r1l
 112:	04 00       	orc	#0x0,ccr
 114:	00 00       	nop	
 116:	00 00       	nop	
 118:	00 ff       	.word	H'0,H'ff
 11a:	d3 0c       	xor.b	#0xc,r3h
 11c:	00 00       	nop	
 11e:	02 f2       	.word	H'2,H'f2
	...
 128:	00 00       	nop	
 12a:	00 1c       	.word	H'0,H'1c
 12c:	00 02       	.word	H'0,H'2
 12e:	00 00       	nop	
 130:	2f ff       	mov.b	@0xff:8,r7l
 132:	04 00       	orc	#0x0,ccr
 134:	00 00       	nop	
 136:	00 00       	nop	
 138:	00 ff       	.word	H'0,H'ff
 13a:	d5 fe       	xor.b	#0xfe,r5h
 13c:	00 00       	nop	
 13e:	01 b8       	.word	H'1,H'b8
	...

Disassembly of section .debug_ranges:

00000000 <.Ldebug_ranges0>:
.Ldebug_ranges0():
   0:	00 ff       	.word	H'0,H'ff
   2:	c0 4e       	or.b	#0x4e,r0h
   4:	00 ff       	.word	H'0,H'ff
   6:	c0 b6       	or.b	#0xb6,r0h
   8:	00 ff       	.word	H'0,H'ff
   a:	d7 b6       	xor.b	#0xb6,r7h
   c:	00 ff       	.word	H'0,H'ff
   e:	d7 fe       	xor.b	#0xfe,r7h
	...

00000018 <.Ldebug_ranges0>:
  18:	00 00       	nop	
  1a:	01 0a       	.word	H'1,H'a
  1c:	00 00       	nop	
  1e:	01 1c       	.word	H'1,H'1c
  20:	00 00       	nop	
  22:	01 2e       	.word	H'1,H'2e
  24:	00 00       	nop	
  26:	01 f2       	.word	H'1,H'f2
	...
  30:	00 00       	nop	
  32:	02 46       	.word	H'2,H'46
  34:	00 00       	nop	
  36:	02 c4       	.word	H'2,H'c4
  38:	00 00       	nop	
  3a:	02 c8       	.word	H'2,H'c8
  3c:	00 00       	nop	
  3e:	02 ca       	.word	H'2,H'ca
  40:	00 00       	nop	
  42:	02 d6       	.word	H'2,H'd6
  44:	00 00       	nop	
  46:	02 e6       	.word	H'2,H'e6
	...

Disassembly of section .debug_line:

00000000 <.Ldebug_line0>:
.Ldebug_line0():
       0:	00 00       	nop	
       2:	00 b7       	.word	H'0,H'b7
       4:	00 04       	.word	H'0,H'4
       6:	00 00       	nop	
       8:	00 41       	.word	H'0,H'41
       a:	01 01       	.word	H'1,H'1
       c:	01 f6       	.word	H'1,H'f6
       e:	f2 0d       	mov.b	#0xd,r2h
      10:	00 01       	.word	H'0,H'1
      12:	01 01       	.word	H'1,H'1
      14:	01 00       	.word	H'1,H'0
      16:	00 00       	nop	
      18:	01 00       	.word	H'1,H'0
      1a:	00 01       	.word	H'0,H'1
      1c:	00 6d       	.word	H'0,H'6d
      1e:	61 69       	bnot	r6h,r1l
      20:	6e 2e 63 00 	mov.b	@(0x6300:16,er2),r6l
      24:	00 00       	nop	
      26:	00 6c       	.word	H'0,H'6c
      28:	69 62       	mov.w	@er6,r2
      2a:	2e 68       	mov.b	@0x68:8,r6l
      2c:	00 00       	nop	
      2e:	00 00       	nop	
      30:	6b 6f       	.word	H'6b,H'6f
      32:	7a 6f 73 2e 	and.l	#0x732e,er7
      36:	68 00       	mov.b	@er0,r0h
      38:	00 00       	nop	
      3a:	00 69       	.word	H'0,H'69
      3c:	6e 74 65 72 	mov.b	@(0x6572:16,er7),r4h
      40:	72 75       	bclr	#0x7,r5h
      42:	70 74       	bset	#0x7,r4h
      44:	2e 68       	mov.b	@0x68:8,r6l
      46:	00 00       	nop	
      48:	00 00       	nop	
      4a:	00 00       	nop	
      4c:	05 02       	xorc	#0x2,ccr
      4e:	00 ff       	.word	H'0,H'ff
      50:	d7 b6       	xor.b	#0xb6,r7h
      52:	2c 00       	mov.b	@0x0:8,r4l
      54:	05 02       	xorc	#0x2,ccr
      56:	00 ff       	.word	H'0,H'ff
      58:	d7 bc       	xor.b	#0xbc,r7h
      5a:	18 00       	sub.b	r0h,r0h
      5c:	05 02       	xorc	#0x2,ccr
      5e:	00 ff       	.word	H'0,H'ff
      60:	d7 be       	xor.b	#0xbe,r7h
      62:	19 00       	sub.w	r0,r0
      64:	05 02       	xorc	#0x2,ccr
      66:	00 ff       	.word	H'0,H'ff
      68:	d7 c8       	xor.b	#0xc8,r7h
      6a:	1a 00       	dec.b	r0h
      6c:	05 02       	xorc	#0x2,ccr
      6e:	00 ff       	.word	H'0,H'ff
      70:	d7 f6       	xor.b	#0xf6,r7h
      72:	1b 00       	subs	#1,er0
      74:	05 02       	xorc	#0x2,ccr
      76:	00 ff       	.word	H'0,H'ff
      78:	d7 fe       	xor.b	#0xfe,r7h
      7a:	00 01       	.word	H'0,H'1
      7c:	01 00       	.word	H'1,H'0
      7e:	05 02       	xorc	#0x2,ccr
      80:	00 ff       	.word	H'0,H'ff
      82:	c0 4e       	or.b	#0x4e,r0h
      84:	1e 00       	subx	r0h,r0h
      86:	05 02       	xorc	#0x2,ccr
      88:	00 ff       	.word	H'0,H'ff
      8a:	c0 54       	or.b	#0x54,r0h
      8c:	18 00       	sub.b	r0h,r0h
      8e:	05 02       	xorc	#0x2,ccr
      90:	00 ff       	.word	H'0,H'ff
      92:	c0 7e       	or.b	#0x7e,r0h
      94:	18 00       	sub.b	r0h,r0h
      96:	05 02       	xorc	#0x2,ccr
      98:	00 ff       	.word	H'0,H'ff
      9a:	c0 a2       	or.b	#0xa2,r0h
      9c:	19 00       	sub.w	r0,r0
      9e:	05 02       	xorc	#0x2,ccr
      a0:	00 ff       	.word	H'0,H'ff
      a2:	c0 aa       	or.b	#0xaa,r0h
      a4:	18 00       	sub.b	r0h,r0h
      a6:	05 02       	xorc	#0x2,ccr
      a8:	00 ff       	.word	H'0,H'ff
      aa:	c0 b2       	or.b	#0xb2,r0h
      ac:	00 02       	.word	H'0,H'2
      ae:	04 01       	orc	#0x1,ccr
      b0:	19 00       	sub.w	r0,r0
      b2:	05 02       	xorc	#0x2,ccr
      b4:	00 ff       	.word	H'0,H'ff
      b6:	c0 b6       	or.b	#0xb6,r0h
      b8:	00 01       	.word	H'0,H'1
      ba:	01        	.word	H'1,H'0

000000bb <.Ldebug_line0>:
      bb:	00 00       	nop	
      bd:	00 9a       	.word	H'0,H'9a
      bf:	00 04       	.word	H'0,H'4
      c1:	00 00       	nop	
      c3:	00 32       	.word	H'0,H'32
      c5:	01 01       	.word	H'1,H'1
      c7:	01 f6       	.word	H'1,H'f6
      c9:	f2 0d       	mov.b	#0xd,r2h
      cb:	00 01       	.word	H'0,H'1
      cd:	01 01       	.word	H'1,H'1
      cf:	01 00       	.word	H'1,H'0
      d1:	00 00       	nop	
      d3:	01 00       	.word	H'1,H'0
      d5:	00 01       	.word	H'0,H'1
      d7:	00 69       	.word	H'0,H'69
      d9:	6e 74 65 72 	mov.b	@(0x6572:16,er7),r4h
      dd:	72 75       	bclr	#0x7,r5h
      df:	70 74       	bset	#0x7,r4h
      e1:	2e 63       	mov.b	@0x63:8,r6l
      e3:	00 00       	nop	
      e5:	00 00       	nop	
      e7:	69 6e       	mov.w	@er6,e6
      e9:	74 65       	bor	#0x6,r5h
      eb:	72 72       	bclr	#0x7,r2h
      ed:	75 70       	bxor	#0x7,r0h
      ef:	74 2e       	bor	#0x2,r6l
      f1:	68 00       	mov.b	@er0,r0h
      f3:	00 00       	nop	
      f5:	00 00       	nop	
      f7:	00 05       	.word	H'0,H'5
      f9:	02 00       	stc	ccr,r0h
      fb:	ff c0       	mov.b	#0xc0,r7l
      fd:	b6 1d       	subx	#0x1d,r6h
      ff:	00 05       	.word	H'0,H'5
     101:	02 00       	stc	ccr,r0h
     103:	ff c0       	mov.b	#0xc0,r7l
     105:	bc 21       	subx	#0x21,r4l
     107:	00 05       	.word	H'0,H'5
     109:	02 00       	stc	ccr,r0h
     10b:	ff c1       	mov.b	#0xc1,r7l
     10d:	1e 12       	subx	r1h,r2h
     10f:	00 05       	.word	H'0,H'5
     111:	02 00       	stc	ccr,r0h
     113:	ff c1       	mov.b	#0xc1,r7l
     115:	26 1b       	mov.b	@0x1b:8,r6h
     117:	00 05       	.word	H'0,H'5
     119:	02 00       	stc	ccr,r0h
     11b:	ff c1       	mov.b	#0xc1,r7l
     11d:	2c 18       	mov.b	@0x18:8,r4l
     11f:	00 05       	.word	H'0,H'5
     121:	02 00       	stc	ccr,r0h
     123:	ff c1       	mov.b	#0xc1,r7l
     125:	3c 19       	mov.b	r4l,@0x19:8
     127:	00 05       	.word	H'0,H'5
     129:	02 00       	stc	ccr,r0h
     12b:	ff c1       	mov.b	#0xc1,r7l
     12d:	44 1e       	bcc	.+30 (0x14d)
     12f:	00 05       	.word	H'0,H'5
     131:	02 00       	stc	ccr,r0h
     133:	ff c1       	mov.b	#0xc1,r7l
     135:	4a 18       	bpl	.+24 (0x14f)
     137:	00 05       	.word	H'0,H'5
     139:	02 00       	stc	ccr,r0h
     13b:	ff c1       	mov.b	#0xc1,r7l
     13d:	5c 18       	.word	H'5c,H'18
     13f:	00 05       	.word	H'0,H'5
     141:	02 00       	stc	ccr,r0h
     143:	ff c1       	mov.b	#0xc1,r7l
     145:	5e 18 00 05 	jsr	@0x180005:24
     149:	02 00       	stc	ccr,r0h
     14b:	ff c1       	mov.b	#0xc1,r7l
     14d:	60 18       	bset	r1h,r0l
     14f:	00 05       	.word	H'0,H'5
     151:	02 00       	stc	ccr,r0h
     153:	ff c1       	mov.b	#0xc1,r7l
     155:	66 00       	and.w	r0,r0
     157:	01 01       	.word	H'1,H'1

00000159 <.Ldebug_line0>:
     159:	00 00       	nop	
     15b:	03 85       	.word	H'3,H'85
     15d:	00 04       	.word	H'0,H'4
     15f:	00 00       	nop	
     161:	00 29       	.word	H'0,H'29
     163:	01 01       	.word	H'1,H'1
     165:	01 f6       	.word	H'1,H'f6
     167:	f2 0d       	mov.b	#0xd,r2h
     169:	00 01       	.word	H'0,H'1
     16b:	01 01       	.word	H'1,H'1
     16d:	01 00       	.word	H'1,H'0
     16f:	00 00       	nop	
     171:	01 00       	.word	H'1,H'0
     173:	00 01       	.word	H'0,H'1
     175:	00 6c       	.word	H'0,H'6c
     177:	69 62       	mov.w	@er6,r2
     179:	2e 63       	mov.b	@0x63:8,r6l
     17b:	00 00       	nop	
     17d:	00 00       	nop	
     17f:	73 65       	btst	#0x6,r5h
     181:	72 69       	bclr	#0x6,r1l
     183:	61 6c       	bnot	r6h,r4l
     185:	2e 68       	mov.b	@0x68:8,r6l
     187:	00 00       	nop	
     189:	00 00       	nop	
     18b:	00 00       	nop	
     18d:	05 02       	xorc	#0x2,ccr
     18f:	00 ff       	.word	H'0,H'ff
     191:	c1 66       	or.b	#0x66,r1h
     193:	1c 00       	cmp.b	r0h,r0h
     195:	05 02       	xorc	#0x2,ccr
     197:	00 ff       	.word	H'0,H'ff
     199:	c1 70       	or.b	#0x70,r1h
     19b:	19 00       	sub.w	r0,r0
     19d:	05 02       	xorc	#0x2,ccr
     19f:	00 ff       	.word	H'0,H'ff
     1a1:	c1 76       	or.b	#0x76,r1h
     1a3:	00 02       	.word	H'0,H'2
     1a5:	04 03       	orc	#0x3,ccr
     1a7:	18 00       	sub.b	r0h,r0h
     1a9:	05 02       	xorc	#0x2,ccr
     1ab:	00 ff       	.word	H'0,H'ff
     1ad:	c1 7e       	or.b	#0x7e,r1h
     1af:	00 02       	.word	H'0,H'2
     1b1:	04 01       	orc	#0x1,ccr
     1b3:	16 00       	and.b	r0h,r0h
     1b5:	05 02       	xorc	#0x2,ccr
     1b7:	00 ff       	.word	H'0,H'ff
     1b9:	c1 82       	or.b	#0x82,r1h
     1bb:	00 02       	.word	H'0,H'2
     1bd:	04 00       	orc	#0x0,ccr
     1bf:	1a 00       	dec.b	r0h
     1c1:	05 02       	xorc	#0x2,ccr
     1c3:	00 ff       	.word	H'0,H'ff
     1c5:	c1 8c       	or.b	#0x8c,r1h
     1c7:	1a 00       	dec.b	r0h
     1c9:	05 02       	xorc	#0x2,ccr
     1cb:	00 ff       	.word	H'0,H'ff
     1cd:	c1 9a       	or.b	#0x9a,r1h
     1cf:	1a 00       	dec.b	r0h
     1d1:	05 02       	xorc	#0x2,ccr
     1d3:	00 ff       	.word	H'0,H'ff
     1d5:	c1 9e       	or.b	#0x9e,r1h
     1d7:	00 02       	.word	H'0,H'2
     1d9:	04 02       	orc	#0x2,ccr
     1db:	18 00       	sub.b	r0h,r0h
     1dd:	05 02       	xorc	#0x2,ccr
     1df:	00 ff       	.word	H'0,H'ff
     1e1:	c1 b0       	or.b	#0xb0,r1h
     1e3:	00 02       	.word	H'0,H'2
     1e5:	04 01       	orc	#0x1,ccr
     1e7:	16 00       	and.b	r0h,r0h
     1e9:	05 02       	xorc	#0x2,ccr
     1eb:	00 ff       	.word	H'0,H'ff
     1ed:	c1 b4       	or.b	#0xb4,r1h
     1ef:	00 02       	.word	H'0,H'2
     1f1:	04 00       	orc	#0x0,ccr
     1f3:	1a 00       	dec.b	r0h
     1f5:	05 02       	xorc	#0x2,ccr
     1f7:	00 ff       	.word	H'0,H'ff
     1f9:	c1 c2       	or.b	#0xc2,r1h
     1fb:	1a 00       	dec.b	r0h
     1fd:	05 02       	xorc	#0x2,ccr
     1ff:	00 ff       	.word	H'0,H'ff
     201:	c1 ce       	or.b	#0xce,r1h
     203:	19 00       	sub.w	r0,r0
     205:	05 02       	xorc	#0x2,ccr
     207:	00 ff       	.word	H'0,H'ff
     209:	c1 d0       	or.b	#0xd0,r1h
     20b:	18 00       	sub.b	r0h,r0h
     20d:	05 02       	xorc	#0x2,ccr
     20f:	00 ff       	.word	H'0,H'ff
     211:	c1 d8       	or.b	#0xd8,r1h
     213:	18 00       	sub.b	r0h,r0h
     215:	05 02       	xorc	#0x2,ccr
     217:	00 ff       	.word	H'0,H'ff
     219:	c1 e0       	or.b	#0xe0,r1h
     21b:	18 00       	sub.b	r0h,r0h
     21d:	05 02       	xorc	#0x2,ccr
     21f:	00 ff       	.word	H'0,H'ff
     221:	c1 e2       	or.b	#0xe2,r1h
     223:	18 00       	sub.b	r0h,r0h
     225:	05 02       	xorc	#0x2,ccr
     227:	00 ff       	.word	H'0,H'ff
     229:	c1 e8       	or.b	#0xe8,r1h
     22b:	00 02       	.word	H'0,H'2
     22d:	04 01       	orc	#0x1,ccr
     22f:	13 00       	rotxr.b	r0h
     231:	05 02       	xorc	#0x2,ccr
     233:	00 ff       	.word	H'0,H'ff
     235:	c1 ec       	or.b	#0xec,r1h
     237:	00 02       	.word	H'0,H'2
     239:	04 00       	orc	#0x0,ccr
     23b:	1d 00       	cmp.w	r0,r0
     23d:	05 02       	xorc	#0x2,ccr
     23f:	00 ff       	.word	H'0,H'ff
     241:	c1 f0       	or.b	#0xf0,r1h
     243:	13 00       	rotxr.b	r0h
     245:	05 02       	xorc	#0x2,ccr
     247:	00 ff       	.word	H'0,H'ff
     249:	c1 f4       	or.b	#0xf4,r1h
     24b:	1c 00       	cmp.b	r0h,r0h
     24d:	05 02       	xorc	#0x2,ccr
     24f:	00 ff       	.word	H'0,H'ff
     251:	c1 fe       	or.b	#0xfe,r1h
     253:	1a 00       	dec.b	r0h
     255:	05 02       	xorc	#0x2,ccr
     257:	00 ff       	.word	H'0,H'ff
     259:	c2 04       	or.b	#0x4,r2h
     25b:	19 00       	sub.w	r0,r0
     25d:	05 02       	xorc	#0x2,ccr
     25f:	00 ff       	.word	H'0,H'ff
     261:	c2 08       	or.b	#0x8,r2h
     263:	00 02       	.word	H'0,H'2
     265:	04 03       	orc	#0x3,ccr
     267:	06 01       	andc	#0x1,ccr
     269:	00 05       	.word	H'0,H'5
     26b:	02 00       	stc	ccr,r0h
     26d:	ff c2       	mov.b	#0xc2,r7l
     26f:	0c 00       	mov.b	r0h,r0h
     271:	02 04       	stc	ccr,r4h
     273:	01 01       	.word	H'1,H'1
     275:	00 05       	.word	H'0,H'5
     277:	02 00       	stc	ccr,r0h
     279:	ff c2       	mov.b	#0xc2,r7l
     27b:	10 00       	shll.b	r0h
     27d:	02 04       	stc	ccr,r4h
     27f:	00 06       	.word	H'0,H'6
     281:	1a 00       	dec.b	r0h
     283:	05 02       	xorc	#0x2,ccr
     285:	00 ff       	.word	H'0,H'ff
     287:	c2 18       	or.b	#0x18,r2h
     289:	1a 00       	dec.b	r0h
     28b:	05 02       	xorc	#0x2,ccr
     28d:	00 ff       	.word	H'0,H'ff
     28f:	c2 1e       	or.b	#0x1e,r2h
     291:	01 00       	.word	H'1,H'0
     293:	05 02       	xorc	#0x2,ccr
     295:	00 ff       	.word	H'0,H'ff
     297:	c2 20       	or.b	#0x20,r2h
     299:	1a 00       	dec.b	r0h
     29b:	05 02       	xorc	#0x2,ccr
     29d:	00 ff       	.word	H'0,H'ff
     29f:	c2 24       	or.b	#0x24,r2h
     2a1:	18 00       	sub.b	r0h,r0h
     2a3:	05 02       	xorc	#0x2,ccr
     2a5:	00 ff       	.word	H'0,H'ff
     2a7:	c2 28       	or.b	#0x28,r2h
     2a9:	15 00       	xor.b	r0h,r0h
     2ab:	05 02       	xorc	#0x2,ccr
     2ad:	00 ff       	.word	H'0,H'ff
     2af:	c2 2c       	or.b	#0x2c,r2h
     2b1:	18 00       	sub.b	r0h,r0h
     2b3:	05 02       	xorc	#0x2,ccr
     2b5:	00 ff       	.word	H'0,H'ff
     2b7:	c2 2e       	or.b	#0x2e,r2h
     2b9:	1b 00       	subs	#1,er0
     2bb:	05 02       	xorc	#0x2,ccr
     2bd:	00 ff       	.word	H'0,H'ff
     2bf:	c2 34       	or.b	#0x34,r2h
     2c1:	1a 00       	dec.b	r0h
     2c3:	05 02       	xorc	#0x2,ccr
     2c5:	00 ff       	.word	H'0,H'ff
     2c7:	c2 3a       	or.b	#0x3a,r2h
     2c9:	18 00       	sub.b	r0h,r0h
     2cb:	05 02       	xorc	#0x2,ccr
     2cd:	00 ff       	.word	H'0,H'ff
     2cf:	c2 3c       	or.b	#0x3c,r2h
     2d1:	18 00       	sub.b	r0h,r0h
     2d3:	05 02       	xorc	#0x2,ccr
     2d5:	00 ff       	.word	H'0,H'ff
     2d7:	c2 40       	or.b	#0x40,r2h
     2d9:	18 00       	sub.b	r0h,r0h
     2db:	05 02       	xorc	#0x2,ccr
     2dd:	00 ff       	.word	H'0,H'ff
     2df:	c2 48       	or.b	#0x48,r2h
     2e1:	18 00       	sub.b	r0h,r0h
     2e3:	05 02       	xorc	#0x2,ccr
     2e5:	00 ff       	.word	H'0,H'ff
     2e7:	c2 4a       	or.b	#0x4a,r2h
     2e9:	18 00       	sub.b	r0h,r0h
     2eb:	05 02       	xorc	#0x2,ccr
     2ed:	00 ff       	.word	H'0,H'ff
     2ef:	c2 4c       	or.b	#0x4c,r2h
     2f1:	13 00       	rotxr.b	r0h
     2f3:	05 02       	xorc	#0x2,ccr
     2f5:	00 ff       	.word	H'0,H'ff
     2f7:	c2 54       	or.b	#0x54,r2h
     2f9:	00 02       	.word	H'0,H'2
     2fb:	04 01       	orc	#0x1,ccr
     2fd:	06 01       	andc	#0x1,ccr
     2ff:	00 05       	.word	H'0,H'5
     301:	02 00       	stc	ccr,r0h
     303:	ff c2       	mov.b	#0xc2,r7l
     305:	62 00       	bclr	r0h,r0h
     307:	02 04       	stc	ccr,r4h
     309:	00 06       	.word	H'0,H'6
     30b:	19 00       	sub.w	r0,r0
     30d:	05 02       	xorc	#0x2,ccr
     30f:	00 ff       	.word	H'0,H'ff
     311:	c2 66       	or.b	#0x66,r2h
     313:	1c 00       	cmp.b	r0h,r0h
     315:	05 02       	xorc	#0x2,ccr
     317:	00 ff       	.word	H'0,H'ff
     319:	c2 6c       	or.b	#0x6c,r2h
     31b:	1a 00       	dec.b	r0h
     31d:	05 02       	xorc	#0x2,ccr
     31f:	00 ff       	.word	H'0,H'ff
     321:	c2 76       	or.b	#0x76,r2h
     323:	18 00       	sub.b	r0h,r0h
     325:	05 02       	xorc	#0x2,ccr
     327:	00 ff       	.word	H'0,H'ff
     329:	c2 78       	or.b	#0x78,r2h
     32b:	18 00       	sub.b	r0h,r0h
     32d:	05 02       	xorc	#0x2,ccr
     32f:	00 ff       	.word	H'0,H'ff
     331:	c2 7e       	or.b	#0x7e,r2h
     333:	18 00       	sub.b	r0h,r0h
     335:	05 02       	xorc	#0x2,ccr
     337:	00 ff       	.word	H'0,H'ff
     339:	c2 86       	or.b	#0x86,r2h
     33b:	18 00       	sub.b	r0h,r0h
     33d:	05 02       	xorc	#0x2,ccr
     33f:	00 ff       	.word	H'0,H'ff
     341:	c2 88       	or.b	#0x88,r2h
     343:	18 00       	sub.b	r0h,r0h
     345:	05 02       	xorc	#0x2,ccr
     347:	00 ff       	.word	H'0,H'ff
     349:	c2 8a       	or.b	#0x8a,r2h
     34b:	18 00       	sub.b	r0h,r0h
     34d:	05 02       	xorc	#0x2,ccr
     34f:	00 ff       	.word	H'0,H'ff
     351:	c2 8c       	or.b	#0x8c,r2h
     353:	12 00       	rotxl.b	r0h
     355:	05 02       	xorc	#0x2,ccr
     357:	00 ff       	.word	H'0,H'ff
     359:	c2 90       	or.b	#0x90,r2h
     35b:	00 02       	.word	H'0,H'2
     35d:	04 02       	orc	#0x2,ccr
     35f:	06 01       	andc	#0x1,ccr
     361:	00 05       	.word	H'0,H'5
     363:	02 00       	stc	ccr,r0h
     365:	ff c2       	mov.b	#0xc2,r7l
     367:	96 00       	addx	#0x0,r6h
     369:	02 04       	stc	ccr,r4h
     36b:	03 01       	ldc	r1h,ccr
     36d:	00 05       	.word	H'0,H'5
     36f:	02 00       	stc	ccr,r0h
     371:	ff c2       	mov.b	#0xc2,r7l
     373:	9a 00       	addx	#0x0,r2l
     375:	02 04       	stc	ccr,r4h
     377:	00 06       	.word	H'0,H'6
     379:	1e 00       	subx	r0h,r0h
     37b:	05 02       	xorc	#0x2,ccr
     37d:	00 ff       	.word	H'0,H'ff
     37f:	c2 9e       	or.b	#0x9e,r2h
     381:	12 00       	rotxl.b	r0h
     383:	05 02       	xorc	#0x2,ccr
     385:	00 ff       	.word	H'0,H'ff
     387:	c2 a4       	or.b	#0xa4,r2h
     389:	15 00       	xor.b	r0h,r0h
     38b:	05 02       	xorc	#0x2,ccr
     38d:	00 ff       	.word	H'0,H'ff
     38f:	c2 b0       	or.b	#0xb0,r2h
     391:	1f 00       	das	r0h
     393:	05 02       	xorc	#0x2,ccr
     395:	00 ff       	.word	H'0,H'ff
     397:	c2 ba       	or.b	#0xba,r2h
     399:	1b 00       	subs	#1,er0
     39b:	05 02       	xorc	#0x2,ccr
     39d:	00 ff       	.word	H'0,H'ff
     39f:	c2 c6       	or.b	#0xc6,r2h
     3a1:	18 00       	sub.b	r0h,r0h
     3a3:	05 02       	xorc	#0x2,ccr
     3a5:	00 ff       	.word	H'0,H'ff
     3a7:	c2 ca       	or.b	#0xca,r2h
     3a9:	18 00       	sub.b	r0h,r0h
     3ab:	05 02       	xorc	#0x2,ccr
     3ad:	00 ff       	.word	H'0,H'ff
     3af:	c2 d4       	or.b	#0xd4,r2h
     3b1:	18 00       	sub.b	r0h,r0h
     3b3:	05 02       	xorc	#0x2,ccr
     3b5:	00 ff       	.word	H'0,H'ff
     3b7:	c2 de       	or.b	#0xde,r2h
     3b9:	18 00       	sub.b	r0h,r0h
     3bb:	05 02       	xorc	#0x2,ccr
     3bd:	00 ff       	.word	H'0,H'ff
     3bf:	c2 e8       	or.b	#0xe8,r2h
     3c1:	1b 00       	subs	#1,er0
     3c3:	05 02       	xorc	#0x2,ccr
     3c5:	00 ff       	.word	H'0,H'ff
     3c7:	c2 f2       	or.b	#0xf2,r2h
     3c9:	18 00       	sub.b	r0h,r0h
     3cb:	05 02       	xorc	#0x2,ccr
     3cd:	00 ff       	.word	H'0,H'ff
     3cf:	c2 fc       	or.b	#0xfc,r2h
     3d1:	18 00       	sub.b	r0h,r0h
     3d3:	05 02       	xorc	#0x2,ccr
     3d5:	00 ff       	.word	H'0,H'ff
     3d7:	c3 02       	or.b	#0x2,r3h
     3d9:	00 02       	.word	H'0,H'2
     3db:	04 04       	orc	#0x4,ccr
     3dd:	18 00       	sub.b	r0h,r0h
     3df:	05 02       	xorc	#0x2,ccr
     3e1:	00 ff       	.word	H'0,H'ff
     3e3:	c3 08       	or.b	#0x8,r3h
     3e5:	19 00       	sub.w	r0,r0
     3e7:	05 02       	xorc	#0x2,ccr
     3e9:	00 ff       	.word	H'0,H'ff
     3eb:	c3 14       	or.b	#0x14,r3h
     3ed:	00 02       	.word	H'0,H'2
     3ef:	04 00       	orc	#0x0,ccr
     3f1:	1b 00       	subs	#1,er0
     3f3:	05 02       	xorc	#0x2,ccr
     3f5:	00 ff       	.word	H'0,H'ff
     3f7:	c3 20       	or.b	#0x20,r3h
     3f9:	18 00       	sub.b	r0h,r0h
     3fb:	05 02       	xorc	#0x2,ccr
     3fd:	00 ff       	.word	H'0,H'ff
     3ff:	c3 22       	or.b	#0x22,r3h
     401:	18 00       	sub.b	r0h,r0h
     403:	05 02       	xorc	#0x2,ccr
     405:	00 ff       	.word	H'0,H'ff
     407:	c3 28       	or.b	#0x28,r3h
     409:	16 00       	and.b	r0h,r0h
     40b:	05 02       	xorc	#0x2,ccr
     40d:	00 ff       	.word	H'0,H'ff
     40f:	c3 2c       	or.b	#0x2c,r3h
     411:	1a 00       	dec.b	r0h
     413:	05 02       	xorc	#0x2,ccr
     415:	00 ff       	.word	H'0,H'ff
     417:	c3 38       	or.b	#0x38,r3h
     419:	1b 00       	subs	#1,er0
     41b:	05 02       	xorc	#0x2,ccr
     41d:	00 ff       	.word	H'0,H'ff
     41f:	c3 4a       	or.b	#0x4a,r3h
     421:	01 00       	.word	H'1,H'0
     423:	05 02       	xorc	#0x2,ccr
     425:	00 ff       	.word	H'0,H'ff
     427:	c3 50       	or.b	#0x50,r3h
     429:	1b 00       	subs	#1,er0
     42b:	05 02       	xorc	#0x2,ccr
     42d:	00 ff       	.word	H'0,H'ff
     42f:	c3 5a       	or.b	#0x5a,r3h
     431:	18 00       	sub.b	r0h,r0h
     433:	05 02       	xorc	#0x2,ccr
     435:	00 ff       	.word	H'0,H'ff
     437:	c3 64       	or.b	#0x64,r3h
     439:	18 00       	sub.b	r0h,r0h
     43b:	05 02       	xorc	#0x2,ccr
     43d:	00 ff       	.word	H'0,H'ff
     43f:	c3 66       	or.b	#0x66,r3h
     441:	18 00       	sub.b	r0h,r0h
     443:	05 02       	xorc	#0x2,ccr
     445:	00 ff       	.word	H'0,H'ff
     447:	c3 6a       	or.b	#0x6a,r3h
     449:	18 00       	sub.b	r0h,r0h
     44b:	05 02       	xorc	#0x2,ccr
     44d:	00 ff       	.word	H'0,H'ff
     44f:	c3 6c       	or.b	#0x6c,r3h
     451:	19 00       	sub.w	r0,r0
     453:	05 02       	xorc	#0x2,ccr
     455:	00 ff       	.word	H'0,H'ff
     457:	c3 7e       	or.b	#0x7e,r3h
     459:	1b 00       	subs	#1,er0
     45b:	05 02       	xorc	#0x2,ccr
     45d:	00 ff       	.word	H'0,H'ff
     45f:	c3 8e       	or.b	#0x8e,r3h
     461:	1c 00       	cmp.b	r0h,r0h
     463:	05 02       	xorc	#0x2,ccr
     465:	00 ff       	.word	H'0,H'ff
     467:	c3 94       	or.b	#0x94,r3h
     469:	19 00       	sub.w	r0,r0
     46b:	05 02       	xorc	#0x2,ccr
     46d:	00 ff       	.word	H'0,H'ff
     46f:	c3 98       	or.b	#0x98,r3h
     471:	00 02       	.word	H'0,H'2
     473:	04 01       	orc	#0x1,ccr
     475:	06 01       	andc	#0x1,ccr
     477:	00 05       	.word	H'0,H'5
     479:	02 00       	stc	ccr,r0h
     47b:	ff c3       	mov.b	#0xc3,r7l
     47d:	9c 00       	addx	#0x0,r4l
     47f:	02 04       	stc	ccr,r4h
     481:	00 06       	.word	H'0,H'6
     483:	18 00       	sub.b	r0h,r0h
     485:	05 02       	xorc	#0x2,ccr
     487:	00 ff       	.word	H'0,H'ff
     489:	c3 a6       	or.b	#0xa6,r3h
     48b:	1a 00       	dec.b	r0h
     48d:	05 02       	xorc	#0x2,ccr
     48f:	00 ff       	.word	H'0,H'ff
     491:	c3 ba       	or.b	#0xba,r3h
     493:	18 00       	sub.b	r0h,r0h
     495:	05 02       	xorc	#0x2,ccr
     497:	00 ff       	.word	H'0,H'ff
     499:	c3 c2       	or.b	#0xc2,r3h
     49b:	18 00       	sub.b	r0h,r0h
     49d:	05 02       	xorc	#0x2,ccr
     49f:	00 ff       	.word	H'0,H'ff
     4a1:	c3 c6       	or.b	#0xc6,r3h
     4a3:	00 02       	.word	H'0,H'2
     4a5:	04 01       	orc	#0x1,ccr
     4a7:	06 01       	andc	#0x1,ccr
     4a9:	00 05       	.word	H'0,H'5
     4ab:	02 00       	stc	ccr,r0h
     4ad:	ff c3       	mov.b	#0xc3,r7l
     4af:	ca 00       	or.b	#0x0,r2l
     4b1:	02 04       	stc	ccr,r4h
     4b3:	00 06       	.word	H'0,H'6
     4b5:	14 00       	or.b	r0h,r0h
     4b7:	05 02       	xorc	#0x2,ccr
     4b9:	00 ff       	.word	H'0,H'ff
     4bb:	c3 ce       	or.b	#0xce,r3h
     4bd:	00 02       	.word	H'0,H'2
     4bf:	04 01       	orc	#0x1,ccr
     4c1:	06 01       	andc	#0x1,ccr
     4c3:	00 05       	.word	H'0,H'5
     4c5:	02 00       	stc	ccr,r0h
     4c7:	ff c3       	mov.b	#0xc3,r7l
     4c9:	d2 00       	xor.b	#0x0,r2h
     4cb:	02 04       	stc	ccr,r4h
     4cd:	00 06       	.word	H'0,H'6
     4cf:	1d 00       	cmp.w	r0,r0
     4d1:	05 02       	xorc	#0x2,ccr
     4d3:	00 ff       	.word	H'0,H'ff
     4d5:	c3 da       	or.b	#0xda,r3h
     4d7:	1a 00       	dec.b	r0h
     4d9:	05 02       	xorc	#0x2,ccr
     4db:	00 ff       	.word	H'0,H'ff
     4dd:	c3 ec       	or.b	#0xec,r3h
     4df:	00 01       	.word	H'0,H'1
     4e1:	01        	.word	H'1,H'0

000004e2 <.Ldebug_line0>:
     4e2:	00 00       	nop	
     4e4:	01 fd       	.word	H'1,H'fd
     4e6:	00 04       	.word	H'0,H'4
     4e8:	00 00       	nop	
     4ea:	00 2d       	.word	H'0,H'2d
     4ec:	01 01       	.word	H'1,H'1
     4ee:	01 f6       	.word	H'1,H'f6
     4f0:	f2 0d       	mov.b	#0xd,r2h
     4f2:	00 01       	.word	H'0,H'1
     4f4:	01 01       	.word	H'1,H'1
     4f6:	01 00       	.word	H'1,H'0
     4f8:	00 00       	nop	
     4fa:	01 00       	.word	H'1,H'0
     4fc:	00 01       	.word	H'0,H'1
     4fe:	00 73       	.word	H'0,H'73
     500:	65 72       	xor.w	r7,r2
     502:	69 61       	mov.w	@er6,r1
     504:	6c 2e       	mov.b	@er2+,r6l
     506:	63 00       	btst	r0h,r0h
     508:	00 00       	nop	
     50a:	00 64       	.word	H'0,H'64
     50c:	65 66       	xor.w	r6,r6
     50e:	69 6e       	mov.w	@er6,e6
     510:	65 73       	xor.w	r7,r3
     512:	2e 68       	mov.b	@0x68:8,r6l
     514:	00 00       	nop	
     516:	00 00       	nop	
     518:	00 00       	nop	
     51a:	05 02       	xorc	#0x2,ccr
     51c:	00 ff       	.word	H'0,H'ff
     51e:	c3 ec       	or.b	#0xec,r3h
     520:	51 00       	divxu.b	r0h,r0
     522:	05 02       	xorc	#0x2,ccr
     524:	00 ff       	.word	H'0,H'ff
     526:	c3 f2       	or.b	#0xf2,r3h
     528:	18 00       	sub.b	r0h,r0h
     52a:	05 02       	xorc	#0x2,ccr
     52c:	00 ff       	.word	H'0,H'ff
     52e:	c4 02       	or.b	#0x2,r4h
     530:	19 00       	sub.w	r0,r0
     532:	05 02       	xorc	#0x2,ccr
     534:	00 ff       	.word	H'0,H'ff
     536:	c4 08       	or.b	#0x8,r4h
     538:	18 00       	sub.b	r0h,r0h
     53a:	05 02       	xorc	#0x2,ccr
     53c:	00 ff       	.word	H'0,H'ff
     53e:	c4 0a       	or.b	#0xa,r4h
     540:	18 00       	sub.b	r0h,r0h
     542:	05 02       	xorc	#0x2,ccr
     544:	00 ff       	.word	H'0,H'ff
     546:	c4 10       	or.b	#0x10,r4h
     548:	18 00       	sub.b	r0h,r0h
     54a:	05 02       	xorc	#0x2,ccr
     54c:	00 ff       	.word	H'0,H'ff
     54e:	c4 16       	or.b	#0x16,r4h
     550:	18 00       	sub.b	r0h,r0h
     552:	05 02       	xorc	#0x2,ccr
     554:	00 ff       	.word	H'0,H'ff
     556:	c4 1a       	or.b	#0x1a,r4h
     558:	1a 00       	dec.b	r0h
     55a:	05 02       	xorc	#0x2,ccr
     55c:	00 ff       	.word	H'0,H'ff
     55e:	c4 22       	or.b	#0x22,r4h
     560:	1b 00       	subs	#1,er0
     562:	05 02       	xorc	#0x2,ccr
     564:	00 ff       	.word	H'0,H'ff
     566:	c4 28       	or.b	#0x28,r4h
     568:	18 00       	sub.b	r0h,r0h
     56a:	05 02       	xorc	#0x2,ccr
     56c:	00 ff       	.word	H'0,H'ff
     56e:	c4 38       	or.b	#0x38,r4h
     570:	18 00       	sub.b	r0h,r0h
     572:	05 02       	xorc	#0x2,ccr
     574:	00 ff       	.word	H'0,H'ff
     576:	c4 3e       	or.b	#0x3e,r4h
     578:	18 00       	sub.b	r0h,r0h
     57a:	05 02       	xorc	#0x2,ccr
     57c:	00 ff       	.word	H'0,H'ff
     57e:	c4 46       	or.b	#0x46,r4h
     580:	1b 00       	subs	#1,er0
     582:	05 02       	xorc	#0x2,ccr
     584:	00 ff       	.word	H'0,H'ff
     586:	c4 4c       	or.b	#0x4c,r4h
     588:	18 00       	sub.b	r0h,r0h
     58a:	05 02       	xorc	#0x2,ccr
     58c:	00 ff       	.word	H'0,H'ff
     58e:	c4 5c       	or.b	#0x5c,r4h
     590:	00 02       	.word	H'0,H'2
     592:	04 01       	orc	#0x1,ccr
     594:	11 00       	shlr.b	r0h
     596:	05 02       	xorc	#0x2,ccr
     598:	00 ff       	.word	H'0,H'ff
     59a:	c4 60       	or.b	#0x60,r4h
     59c:	20 00       	mov.b	@0x0:8,r0h
     59e:	05 02       	xorc	#0x2,ccr
     5a0:	00 ff       	.word	H'0,H'ff
     5a2:	c4 62       	or.b	#0x62,r4h
     5a4:	00 02       	.word	H'0,H'2
     5a6:	04 00       	orc	#0x0,ccr
     5a8:	19 00       	sub.w	r0,r0
     5aa:	05 02       	xorc	#0x2,ccr
     5ac:	00 ff       	.word	H'0,H'ff
     5ae:	c4 66       	or.b	#0x66,r4h
     5b0:	18 00       	sub.b	r0h,r0h
     5b2:	05 02       	xorc	#0x2,ccr
     5b4:	00 ff       	.word	H'0,H'ff
     5b6:	c4 70       	or.b	#0x70,r4h
     5b8:	1a 00       	dec.b	r0h
     5ba:	05 02       	xorc	#0x2,ccr
     5bc:	00 ff       	.word	H'0,H'ff
     5be:	c4 78       	or.b	#0x78,r4h
     5c0:	1b 00       	subs	#1,er0
     5c2:	05 02       	xorc	#0x2,ccr
     5c4:	00 ff       	.word	H'0,H'ff
     5c6:	c4 7e       	or.b	#0x7e,r4h
     5c8:	18 00       	sub.b	r0h,r0h
     5ca:	05 02       	xorc	#0x2,ccr
     5cc:	00 ff       	.word	H'0,H'ff
     5ce:	c4 8e       	or.b	#0x8e,r4h
     5d0:	18 00       	sub.b	r0h,r0h
     5d2:	05 02       	xorc	#0x2,ccr
     5d4:	00 ff       	.word	H'0,H'ff
     5d6:	c4 94       	or.b	#0x94,r4h
     5d8:	18 00       	sub.b	r0h,r0h
     5da:	05 02       	xorc	#0x2,ccr
     5dc:	00 ff       	.word	H'0,H'ff
     5de:	c4 9c       	or.b	#0x9c,r4h
     5e0:	1b 00       	subs	#1,er0
     5e2:	05 02       	xorc	#0x2,ccr
     5e4:	00 ff       	.word	H'0,H'ff
     5e6:	c4 a2       	or.b	#0xa2,r4h
     5e8:	18 00       	sub.b	r0h,r0h
     5ea:	05 02       	xorc	#0x2,ccr
     5ec:	00 ff       	.word	H'0,H'ff
     5ee:	c4 b2       	or.b	#0xb2,r4h
     5f0:	00 02       	.word	H'0,H'2
     5f2:	04 01       	orc	#0x1,ccr
     5f4:	11 00       	shlr.b	r0h
     5f6:	05 02       	xorc	#0x2,ccr
     5f8:	00 ff       	.word	H'0,H'ff
     5fa:	c4 b6       	or.b	#0xb6,r4h
     5fc:	21 00       	mov.b	@0x0:8,r1h
     5fe:	05 02       	xorc	#0x2,ccr
     600:	00 ff       	.word	H'0,H'ff
     602:	c4 ba       	or.b	#0xba,r4h
     604:	00 02       	.word	H'0,H'2
     606:	04 00       	orc	#0x0,ccr
     608:	19 00       	sub.w	r0,r0
     60a:	05 02       	xorc	#0x2,ccr
     60c:	00 ff       	.word	H'0,H'ff
     60e:	c4 be       	or.b	#0xbe,r4h
     610:	18 00       	sub.b	r0h,r0h
     612:	05 02       	xorc	#0x2,ccr
     614:	00 ff       	.word	H'0,H'ff
     616:	c4 c8       	or.b	#0xc8,r4h
     618:	1a 00       	dec.b	r0h
     61a:	05 02       	xorc	#0x2,ccr
     61c:	00 ff       	.word	H'0,H'ff
     61e:	c4 ce       	or.b	#0xce,r4h
     620:	1b 00       	subs	#1,er0
     622:	05 02       	xorc	#0x2,ccr
     624:	00 ff       	.word	H'0,H'ff
     626:	c4 d4       	or.b	#0xd4,r4h
     628:	18 00       	sub.b	r0h,r0h
     62a:	05 02       	xorc	#0x2,ccr
     62c:	00 ff       	.word	H'0,H'ff
     62e:	c4 e4       	or.b	#0xe4,r4h
     630:	18 00       	sub.b	r0h,r0h
     632:	05 02       	xorc	#0x2,ccr
     634:	00 ff       	.word	H'0,H'ff
     636:	c4 e8       	or.b	#0xe8,r4h
     638:	18 00       	sub.b	r0h,r0h
     63a:	05 02       	xorc	#0x2,ccr
     63c:	00 ff       	.word	H'0,H'ff
     63e:	c4 f6       	or.b	#0xf6,r4h
     640:	1b 00       	subs	#1,er0
     642:	05 02       	xorc	#0x2,ccr
     644:	00 ff       	.word	H'0,H'ff
     646:	c4 fc       	or.b	#0xfc,r4h
     648:	18 00       	sub.b	r0h,r0h
     64a:	05 02       	xorc	#0x2,ccr
     64c:	00 ff       	.word	H'0,H'ff
     64e:	c5 0c       	or.b	#0xc,r5h
     650:	18 00       	sub.b	r0h,r0h
     652:	05 02       	xorc	#0x2,ccr
     654:	00 ff       	.word	H'0,H'ff
     656:	c5 16       	or.b	#0x16,r5h
     658:	18 00       	sub.b	r0h,r0h
     65a:	05 02       	xorc	#0x2,ccr
     65c:	00 ff       	.word	H'0,H'ff
     65e:	c5 1c       	or.b	#0x1c,r5h
     660:	1b 00       	subs	#1,er0
     662:	05 02       	xorc	#0x2,ccr
     664:	00 ff       	.word	H'0,H'ff
     666:	c5 22       	or.b	#0x22,r5h
     668:	18 00       	sub.b	r0h,r0h
     66a:	05 02       	xorc	#0x2,ccr
     66c:	00 ff       	.word	H'0,H'ff
     66e:	c5 32       	or.b	#0x32,r5h
     670:	18 00       	sub.b	r0h,r0h
     672:	05 02       	xorc	#0x2,ccr
     674:	00 ff       	.word	H'0,H'ff
     676:	c5 3c       	or.b	#0x3c,r5h
     678:	18 00       	sub.b	r0h,r0h
     67a:	05 02       	xorc	#0x2,ccr
     67c:	00 ff       	.word	H'0,H'ff
     67e:	c5 42       	or.b	#0x42,r5h
     680:	1b 00       	subs	#1,er0
     682:	05 02       	xorc	#0x2,ccr
     684:	00 ff       	.word	H'0,H'ff
     686:	c5 48       	or.b	#0x48,r5h
     688:	18 00       	sub.b	r0h,r0h
     68a:	05 02       	xorc	#0x2,ccr
     68c:	00 ff       	.word	H'0,H'ff
     68e:	c5 58       	or.b	#0x58,r5h
     690:	18 00       	sub.b	r0h,r0h
     692:	05 02       	xorc	#0x2,ccr
     694:	00 ff       	.word	H'0,H'ff
     696:	c5 5c       	or.b	#0x5c,r5h
     698:	18 00       	sub.b	r0h,r0h
     69a:	05 02       	xorc	#0x2,ccr
     69c:	00 ff       	.word	H'0,H'ff
     69e:	c5 6a       	or.b	#0x6a,r5h
     6a0:	1b 00       	subs	#1,er0
     6a2:	05 02       	xorc	#0x2,ccr
     6a4:	00 ff       	.word	H'0,H'ff
     6a6:	c5 70       	or.b	#0x70,r5h
     6a8:	18 00       	sub.b	r0h,r0h
     6aa:	05 02       	xorc	#0x2,ccr
     6ac:	00 ff       	.word	H'0,H'ff
     6ae:	c5 80       	or.b	#0x80,r5h
     6b0:	18 00       	sub.b	r0h,r0h
     6b2:	05 02       	xorc	#0x2,ccr
     6b4:	00 ff       	.word	H'0,H'ff
     6b6:	c5 8a       	or.b	#0x8a,r5h
     6b8:	18 00       	sub.b	r0h,r0h
     6ba:	05 02       	xorc	#0x2,ccr
     6bc:	00 ff       	.word	H'0,H'ff
     6be:	c5 90       	or.b	#0x90,r5h
     6c0:	1b 00       	subs	#1,er0
     6c2:	05 02       	xorc	#0x2,ccr
     6c4:	00 ff       	.word	H'0,H'ff
     6c6:	c5 96       	or.b	#0x96,r5h
     6c8:	18 00       	sub.b	r0h,r0h
     6ca:	05 02       	xorc	#0x2,ccr
     6cc:	00 ff       	.word	H'0,H'ff
     6ce:	c5 a6       	or.b	#0xa6,r5h
     6d0:	18 00       	sub.b	r0h,r0h
     6d2:	05 02       	xorc	#0x2,ccr
     6d4:	00 ff       	.word	H'0,H'ff
     6d6:	c5 b0       	or.b	#0xb0,r5h
     6d8:	18 00       	sub.b	r0h,r0h
     6da:	05 02       	xorc	#0x2,ccr
     6dc:	00 ff       	.word	H'0,H'ff
     6de:	c5 b6       	or.b	#0xb6,r5h
     6e0:	00 01       	.word	H'0,H'1
     6e2:	01        	.word	H'1,H'0

000006e3 <.Ldebug_line0>:
     6e3:	00 00       	nop	
     6e5:	01 0c       	.word	H'1,H'c
     6e7:	00 04       	.word	H'0,H'4
     6e9:	00 00       	nop	
     6eb:	00 2c       	.word	H'0,H'2c
     6ed:	01 01       	.word	H'1,H'1
     6ef:	01 f6       	.word	H'1,H'f6
     6f1:	f2 0d       	mov.b	#0xd,r2h
     6f3:	00 01       	.word	H'0,H'1
     6f5:	01 01       	.word	H'1,H'1
     6f7:	01 00       	.word	H'1,H'0
     6f9:	00 00       	nop	
     6fb:	01 00       	.word	H'1,H'0
     6fd:	00 01       	.word	H'0,H'1
     6ff:	00 74       	.word	H'0,H'74
     701:	69 6d       	mov.w	@er6,e5
     703:	65 72       	xor.w	r7,r2
     705:	2e 63       	mov.b	@0x63:8,r6l
     707:	00 00       	nop	
     709:	00 00       	nop	
     70b:	64 65       	or.w	r6,r5
     70d:	66 69       	and.w	r6,e1
     70f:	6e 65 73 2e 	mov.b	@(0x732e:16,er6),r5h
     713:	68 00       	mov.b	@er0,r0h
     715:	00 00       	nop	
     717:	00 00       	nop	
     719:	00 05       	.word	H'0,H'5
     71b:	02 00       	stc	ccr,r0h
     71d:	ff c5       	mov.b	#0xc5,r7l
     71f:	b6 4f       	subx	#0x4f,r6h
     721:	00 05       	.word	H'0,H'5
     723:	02 00       	stc	ccr,r0h
     725:	ff c5       	mov.b	#0xc5,r7l
     727:	bc 18       	subx	#0x18,r4l
     729:	00 05       	.word	H'0,H'5
     72b:	02 00       	stc	ccr,r0h
     72d:	ff c5       	mov.b	#0xc5,r7l
     72f:	cc 1a       	or.b	#0x1a,r4l
     731:	00 05       	.word	H'0,H'5
     733:	02 00       	stc	ccr,r0h
     735:	ff c5       	mov.b	#0xc5,r7l
     737:	d0 18       	xor.b	#0x18,r0h
     739:	00 05       	.word	H'0,H'5
     73b:	02 00       	stc	ccr,r0h
     73d:	ff c5       	mov.b	#0xc5,r7l
     73f:	d6 19       	xor.b	#0x19,r6h
     741:	00 05       	.word	H'0,H'5
     743:	02 00       	stc	ccr,r0h
     745:	ff c5       	mov.b	#0xc5,r7l
     747:	dc 18       	xor.b	#0x18,r4l
     749:	00 05       	.word	H'0,H'5
     74b:	02 00       	stc	ccr,r0h
     74d:	ff c5       	mov.b	#0xc5,r7l
     74f:	e0 1b       	and.b	#0x1b,r0h
     751:	00 05       	.word	H'0,H'5
     753:	02 00       	stc	ccr,r0h
     755:	ff c5       	mov.b	#0xc5,r7l
     757:	e6 15       	and.b	#0x15,r6h
     759:	00 05       	.word	H'0,H'5
     75b:	02 00       	stc	ccr,r0h
     75d:	ff c5       	mov.b	#0xc5,r7l
     75f:	f0 1a       	mov.b	#0x1a,r0h
     761:	00 05       	.word	H'0,H'5
     763:	02 00       	stc	ccr,r0h
     765:	ff c5       	mov.b	#0xc5,r7l
     767:	f4 18       	mov.b	#0x18,r4h
     769:	00 05       	.word	H'0,H'5
     76b:	02 00       	stc	ccr,r0h
     76d:	ff c5       	mov.b	#0xc5,r7l
     76f:	f8 1a       	mov.b	#0x1a,r0l
     771:	00 05       	.word	H'0,H'5
     773:	02 00       	stc	ccr,r0h
     775:	ff c6       	mov.b	#0xc6,r7l
     777:	00 1b       	.word	H'0,H'1b
     779:	00 05       	.word	H'0,H'5
     77b:	02 00       	stc	ccr,r0h
     77d:	ff c6       	mov.b	#0xc6,r7l
     77f:	06 18       	andc	#0x18,ccr
     781:	00 05       	.word	H'0,H'5
     783:	02 00       	stc	ccr,r0h
     785:	ff c6       	mov.b	#0xc6,r7l
     787:	16 18       	and.b	r1h,r0l
     789:	00 05       	.word	H'0,H'5
     78b:	02 00       	stc	ccr,r0h
     78d:	ff c6       	mov.b	#0xc6,r7l
     78f:	1a 18       	sub.w	#0x1,e0
     791:	00 05       	.word	H'0,H'5
     793:	02 00       	stc	ccr,r0h
     795:	ff c6       	mov.b	#0xc6,r7l
     797:	28 1b       	mov.b	@0x1b:8,r0l
     799:	00 05       	.word	H'0,H'5
     79b:	02 00       	stc	ccr,r0h
     79d:	ff c6       	mov.b	#0xc6,r7l
     79f:	2e 18       	mov.b	@0x18:8,r6l
     7a1:	00 05       	.word	H'0,H'5
     7a3:	02 00       	stc	ccr,r0h
     7a5:	ff c6       	mov.b	#0xc6,r7l
     7a7:	3e 19       	mov.b	r6l,@0x19:8
     7a9:	00 05       	.word	H'0,H'5
     7ab:	02 00       	stc	ccr,r0h
     7ad:	ff c6       	mov.b	#0xc6,r7l
     7af:	48 1a       	bvc	.+26 (0x7cb)
     7b1:	00 05       	.word	H'0,H'5
     7b3:	02 00       	stc	ccr,r0h
     7b5:	ff c6       	mov.b	#0xc6,r7l
     7b7:	50 1b       	mulxu.b	r1h,e3
     7b9:	00 05       	.word	H'0,H'5
     7bb:	02 00       	stc	ccr,r0h
     7bd:	ff c6       	mov.b	#0xc6,r7l
     7bf:	5a 18 00 05 	jmp	@0x180005:24
     7c3:	02 00       	stc	ccr,r0h
     7c5:	ff c6       	mov.b	#0xc6,r7l
     7c7:	6c 19       	mov.b	@er1+,r1l
     7c9:	00 05       	.word	H'0,H'5
     7cb:	02 00       	stc	ccr,r0h
     7cd:	ff c6       	mov.b	#0xc6,r7l
     7cf:	70 19       	bset	#0x1,r1l
     7d1:	00 05       	.word	H'0,H'5
     7d3:	02 00       	stc	ccr,r0h
     7d5:	ff c6       	mov.b	#0xc6,r7l
     7d7:	74 18       	bor	#0x1,r0l
     7d9:	00 05       	.word	H'0,H'5
     7db:	02 00       	stc	ccr,r0h
     7dd:	ff c6       	mov.b	#0xc6,r7l
     7df:	78 19       	.word	H'78,H'19
     7e1:	00 05       	.word	H'0,H'5
     7e3:	02 00       	stc	ccr,r0h
     7e5:	ff c6       	mov.b	#0xc6,r7l
     7e7:	7e 1a       	.word	H'7e,H'1a
     7e9:	00 05       	.word	H'0,H'5
     7eb:	02 00       	stc	ccr,r0h
     7ed:	ff c6       	mov.b	#0xc6,r7l
     7ef:	8a 00       	add.b	#0x0,r2l
     7f1:	01 01       	.word	H'1,H'1

000007f3 <.Ldebug_line0>:
     7f3:	00 00       	nop	
     7f5:	07 23       	ldc	#0x23,ccr
     7f7:	00 04       	.word	H'0,H'4
     7f9:	00 00       	nop	
     7fb:	00 68       	.word	H'0,H'68
     7fd:	01 01       	.word	H'1,H'1
     7ff:	01 f6       	.word	H'1,H'f6
     801:	f2 0d       	mov.b	#0xd,r2h
     803:	00 01       	.word	H'0,H'1
     805:	01 01       	.word	H'1,H'1
     807:	01 00       	.word	H'1,H'0
     809:	00 00       	nop	
     80b:	01 00       	.word	H'1,H'0
     80d:	00 01       	.word	H'0,H'1
     80f:	00 6b       	.word	H'0,H'6b
     811:	6f 7a 6f 73 	mov.w	@(0x6f73:16,er7),e2
     815:	2e 63       	mov.b	@0x63:8,r6l
     817:	00 00       	nop	
     819:	00 00       	nop	
     81b:	64 65       	or.w	r6,r5
     81d:	66 69       	and.w	r6,e1
     81f:	6e 65 73 2e 	mov.b	@(0x732e:16,er6),r5h
     823:	68 00       	mov.b	@er0,r0h
     825:	00 00       	nop	
     827:	00 69       	.word	H'0,H'69
     829:	6e 74 65 72 	mov.b	@(0x6572:16,er7),r4h
     82d:	72 75       	bclr	#0x7,r5h
     82f:	70 74       	bset	#0x7,r4h
     831:	2e 68       	mov.b	@0x68:8,r6l
     833:	00 00       	nop	
     835:	00 00       	nop	
     837:	73 79       	btst	#0x7,r1l
     839:	73 63       	btst	#0x6,r3h
     83b:	61 6c       	bnot	r6h,r4l
     83d:	6c 2e       	mov.b	@er2+,r6l
     83f:	68 00       	mov.b	@er0,r0h
     841:	00 00       	nop	
     843:	00 6c       	.word	H'0,H'6c
     845:	69 62       	mov.w	@er6,r2
     847:	2e 68       	mov.b	@0x68:8,r6l
     849:	00 00       	nop	
     84b:	00 00       	nop	
     84d:	6d 65       	mov.w	@er6+,r5
     84f:	6d 6f       	mov.w	@er6+,e7
     851:	72 79       	bclr	#0x7,r1l
     853:	2e 68       	mov.b	@0x68:8,r6l
     855:	00 00       	nop	
     857:	00 00       	nop	
     859:	6b 6f       	.word	H'6b,H'6f
     85b:	7a 6f 73 2e 	and.l	#0x732e,er7
     85f:	68 00       	mov.b	@er0,r0h
     861:	00 00       	nop	
     863:	00 00       	nop	
     865:	00 05       	.word	H'0,H'5
     867:	02 00       	stc	ccr,r0h
     869:	ff c6       	mov.b	#0xc6,r7l
     86b:	8a 6a       	add.b	#0x6a,r2l
     86d:	00 05       	.word	H'0,H'5
     86f:	02 00       	stc	ccr,r0h
     871:	ff c6       	mov.b	#0xc6,r7l
     873:	90 18       	addx	#0x18,r0h
     875:	00 05       	.word	H'0,H'5
     877:	02 00       	stc	ccr,r0h
     879:	ff c6       	mov.b	#0xc6,r7l
     87b:	9a 1a       	addx	#0x1a,r2l
     87d:	00 05       	.word	H'0,H'5
     87f:	02 00       	stc	ccr,r0h
     881:	ff c6       	mov.b	#0xc6,r7l
     883:	a4 1d       	cmp.b	#0x1d,r4h
     885:	00 05       	.word	H'0,H'5
     887:	02 00       	stc	ccr,r0h
     889:	ff c6       	mov.b	#0xc6,r7l
     88b:	be 18       	subx	#0x18,r6l
     88d:	00 05       	.word	H'0,H'5
     88f:	02 00       	stc	ccr,r0h
     891:	ff c6       	mov.b	#0xc6,r7l
     893:	c0 18       	or.b	#0x18,r0h
     895:	00 05       	.word	H'0,H'5
     897:	02 00       	stc	ccr,r0h
     899:	ff c6       	mov.b	#0xc6,r7l
     89b:	c6 19       	or.b	#0x19,r6h
     89d:	00 05       	.word	H'0,H'5
     89f:	02 00       	stc	ccr,r0h
     8a1:	ff c6       	mov.b	#0xc6,r7l
     8a3:	ce 18       	or.b	#0x18,r6l
     8a5:	00 05       	.word	H'0,H'5
     8a7:	02 00       	stc	ccr,r0h
     8a9:	ff c6       	mov.b	#0xc6,r7l
     8ab:	d4 19       	xor.b	#0x19,r4h
     8ad:	00 05       	.word	H'0,H'5
     8af:	02 00       	stc	ccr,r0h
     8b1:	ff c6       	mov.b	#0xc6,r7l
     8b3:	d8 03       	xor.b	#0x3,r0l
     8b5:	71 01       	bnot	#0x0,r1h
     8b7:	00 05       	.word	H'0,H'5
     8b9:	02 00       	stc	ccr,r0h
     8bb:	ff c6       	mov.b	#0xc6,r7l
     8bd:	de 1b       	xor.b	#0x1b,r6l
     8bf:	00 05       	.word	H'0,H'5
     8c1:	02 00       	stc	ccr,r0h
     8c3:	ff c6       	mov.b	#0xc6,r7l
     8c5:	e2 23       	and.b	#0x23,r2h
     8c7:	00 05       	.word	H'0,H'5
     8c9:	02 00       	stc	ccr,r0h
     8cb:	ff c6       	mov.b	#0xc6,r7l
     8cd:	e8 1b       	and.b	#0x1b,r0l
     8cf:	00 05       	.word	H'0,H'5
     8d1:	02 00       	stc	ccr,r0h
     8d3:	ff c6       	mov.b	#0xc6,r7l
     8d5:	f6 18       	mov.b	#0x18,r6h
     8d7:	00 05       	.word	H'0,H'5
     8d9:	02 00       	stc	ccr,r0h
     8db:	ff c7       	mov.b	#0xc7,r7l
     8dd:	00 1a       	.word	H'0,H'1a
     8df:	00 05       	.word	H'0,H'5
     8e1:	02 00       	stc	ccr,r0h
     8e3:	ff c7       	mov.b	#0xc7,r7l
     8e5:	0a 1d       	add.w	#0x1,e5
     8e7:	00 05       	.word	H'0,H'5
     8e9:	02 00       	stc	ccr,r0h
     8eb:	ff c7       	mov.b	#0xc7,r7l
     8ed:	28 18       	mov.b	@0x18:8,r0l
     8ef:	00 05       	.word	H'0,H'5
     8f1:	02 00       	stc	ccr,r0h
     8f3:	ff c7       	mov.b	#0xc7,r7l
     8f5:	2e 19       	mov.b	@0x19:8,r6l
     8f7:	00 05       	.word	H'0,H'5
     8f9:	02 00       	stc	ccr,r0h
     8fb:	ff c7       	mov.b	#0xc7,r7l
     8fd:	32 19       	mov.b	r2h,@0x19:8
     8ff:	00 05       	.word	H'0,H'5
     901:	02 00       	stc	ccr,r0h
     903:	ff c7       	mov.b	#0xc7,r7l
     905:	42 18       	bhi	.+24 (0x91f)
     907:	00 05       	.word	H'0,H'5
     909:	02 00       	stc	ccr,r0h
     90b:	ff c7       	mov.b	#0xc7,r7l
     90d:	4c 19       	.word	H'4c,H'19
     90f:	00 05       	.word	H'0,H'5
     911:	02 00       	stc	ccr,r0h
     913:	ff c7       	mov.b	#0xc7,r7l
     915:	50 03       	mulxu.b	r0h,r3
     917:	70 01       	bset	#0x0,r1h
     919:	00 05       	.word	H'0,H'5
     91b:	02 00       	stc	ccr,r0h
     91d:	ff c7       	mov.b	#0xc7,r7l
     91f:	56 1b       	.word	H'56,H'1b
     921:	00 05       	.word	H'0,H'5
     923:	02 00       	stc	ccr,r0h
     925:	ff c7       	mov.b	#0xc7,r7l
     927:	5a 24 00 05 	jmp	@0x240005:24
     92b:	02 00       	stc	ccr,r0h
     92d:	ff c7       	mov.b	#0xc7,r7l
     92f:	68 6e       	mov.b	@er6,r6l
     931:	00 05       	.word	H'0,H'5
     933:	02 00       	stc	ccr,r0h
     935:	ff c7       	mov.b	#0xc7,r7l
     937:	6e 1c 00 05 	mov.b	@(0x5:16,er1),r4l
     93b:	02 00       	stc	ccr,r0h
     93d:	ff c7       	mov.b	#0xc7,r7l
     93f:	7c 18       	.word	H'7c,H'18
     941:	00 05       	.word	H'0,H'5
     943:	02 00       	stc	ccr,r0h
     945:	ff c7       	mov.b	#0xc7,r7l
     947:	86 18       	add.b	#0x18,r6h
     949:	00 05       	.word	H'0,H'5
     94b:	02 00       	stc	ccr,r0h
     94d:	ff c7       	mov.b	#0xc7,r7l
     94f:	98 19       	addx	#0x19,r0l
     951:	00 05       	.word	H'0,H'5
     953:	02 00       	stc	ccr,r0h
     955:	ff c7       	mov.b	#0xc7,r7l
     957:	a0 03       	cmp.b	#0x3,r0h
     959:	93 02       	addx	#0x2,r3h
     95b:	01 00       	.word	H'1,H'0
     95d:	05 02       	xorc	#0x2,ccr
     95f:	00 ff       	.word	H'0,H'ff
     961:	c7 a6       	or.b	#0xa6,r7h
     963:	18 00       	sub.b	r0h,r0h
     965:	05 02       	xorc	#0x2,ccr
     967:	00 ff       	.word	H'0,H'ff
     969:	c7 b4       	or.b	#0xb4,r7h
     96b:	18 00       	sub.b	r0h,r0h
     96d:	05 02       	xorc	#0x2,ccr
     96f:	00 ff       	.word	H'0,H'ff
     971:	c7 be       	or.b	#0xbe,r7h
     973:	18 00       	sub.b	r0h,r0h
     975:	05 02       	xorc	#0x2,ccr
     977:	00 ff       	.word	H'0,H'ff
     979:	c7 c2       	or.b	#0xc2,r7h
     97b:	18 00       	sub.b	r0h,r0h
     97d:	05 02       	xorc	#0x2,ccr
     97f:	00 ff       	.word	H'0,H'ff
     981:	c7 c6       	or.b	#0xc6,r7h
     983:	18 00       	sub.b	r0h,r0h
     985:	05 02       	xorc	#0x2,ccr
     987:	00 ff       	.word	H'0,H'ff
     989:	c7 cc       	or.b	#0xcc,r7h
     98b:	03 bd       	ldmac	er5,macl
     98d:	7e 01       	.word	H'7e,H'1
     98f:	00 05       	.word	H'0,H'5
     991:	02 00       	stc	ccr,r0h
     993:	ff c7       	mov.b	#0xc7,r7l
     995:	d6 1c       	xor.b	#0x1c,r6h
     997:	00 05       	.word	H'0,H'5
     999:	02 00       	stc	ccr,r0h
     99b:	ff c7       	mov.b	#0xc7,r7l
     99d:	dc 18       	xor.b	#0x18,r4l
     99f:	00 05       	.word	H'0,H'5
     9a1:	02 00       	stc	ccr,r0h
     9a3:	ff c7       	mov.b	#0xc7,r7l
     9a5:	e6 18       	and.b	#0x18,r6h
     9a7:	00 05       	.word	H'0,H'5
     9a9:	02 00       	stc	ccr,r0h
     9ab:	ff c7       	mov.b	#0xc7,r7l
     9ad:	e8 18       	and.b	#0x18,r0l
     9af:	00 05       	.word	H'0,H'5
     9b1:	02 00       	stc	ccr,r0h
     9b3:	ff c7       	mov.b	#0xc7,r7l
     9b5:	ee 18       	and.b	#0x18,r6l
     9b7:	00 05       	.word	H'0,H'5
     9b9:	02 00       	stc	ccr,r0h
     9bb:	ff c7       	mov.b	#0xc7,r7l
     9bd:	f4 1a       	mov.b	#0x1a,r4h
     9bf:	00 05       	.word	H'0,H'5
     9c1:	02 00       	stc	ccr,r0h
     9c3:	ff c7       	mov.b	#0xc7,r7l
     9c5:	fe 18       	mov.b	#0x18,r6l
     9c7:	00 05       	.word	H'0,H'5
     9c9:	02 00       	stc	ccr,r0h
     9cb:	ff c8       	mov.b	#0xc8,r7l
     9cd:	0a 18       	add.w	#0x1,e0
     9cf:	00 05       	.word	H'0,H'5
     9d1:	02 00       	stc	ccr,r0h
     9d3:	ff c8       	mov.b	#0xc8,r7l
     9d5:	12 18       	rotxl.w	e0
     9d7:	00 05       	.word	H'0,H'5
     9d9:	02 00       	stc	ccr,r0h
     9db:	ff c8       	mov.b	#0xc8,r7l
     9dd:	18 18       	sub.b	r1h,r0l
     9df:	00 05       	.word	H'0,H'5
     9e1:	02 00       	stc	ccr,r0h
     9e3:	ff c8       	mov.b	#0xc8,r7l
     9e5:	20 18       	mov.b	@0x18:8,r0h
     9e7:	00 05       	.word	H'0,H'5
     9e9:	02 00       	stc	ccr,r0h
     9eb:	ff c8       	mov.b	#0xc8,r7l
     9ed:	2a 1a       	mov.b	@0x1a:8,r2l
     9ef:	00 05       	.word	H'0,H'5
     9f1:	02 00       	stc	ccr,r0h
     9f3:	ff c8       	mov.b	#0xc8,r7l
     9f5:	30 1a       	mov.b	r0h,@0x1a:8
     9f7:	00 05       	.word	H'0,H'5
     9f9:	02 00       	stc	ccr,r0h
     9fb:	ff c8       	mov.b	#0xc8,r7l
     9fd:	36 18       	mov.b	r6h,@0x18:8
     9ff:	00 05       	.word	H'0,H'5
     a01:	02 00       	stc	ccr,r0h
     a03:	ff c8       	mov.b	#0xc8,r7l
     a05:	40 03       	bra/s	.+2 (0xa09)
     a07:	c5 7e       	or.b	#0x7e,r5h
     a09:	01 00       	.word	H'1,H'0
     a0b:	05 02       	xorc	#0x2,ccr
     a0d:	00 ff       	.word	H'0,H'ff
     a0f:	c8 64       	or.b	#0x64,r0l
     a11:	01 00       	.word	H'1,H'0
     a13:	05 02       	xorc	#0x2,ccr
     a15:	00 ff       	.word	H'0,H'ff
     a17:	c8 66       	or.b	#0x66,r0l
     a19:	1f 00       	das	r0h
     a1b:	05 02       	xorc	#0x2,ccr
     a1d:	00 ff       	.word	H'0,H'ff
     a1f:	c8 68       	or.b	#0x68,r0l
     a21:	19 00       	sub.w	r0,r0
     a23:	05 02       	xorc	#0x2,ccr
     a25:	00 ff       	.word	H'0,H'ff
     a27:	c8 76       	or.b	#0x76,r0l
     a29:	00 02       	.word	H'0,H'2
     a2b:	04 02       	orc	#0x2,ccr
     a2d:	15 00       	xor.b	r0h,r0h
     a2f:	05 02       	xorc	#0x2,ccr
     a31:	00 ff       	.word	H'0,H'ff
     a33:	c8 84       	or.b	#0x84,r0l
     a35:	00 02       	.word	H'0,H'2
     a37:	04 00       	orc	#0x0,ccr
     a39:	1d 00       	cmp.w	r0,r0
     a3b:	05 02       	xorc	#0x2,ccr
     a3d:	00 ff       	.word	H'0,H'ff
     a3f:	c8 8c       	or.b	#0x8c,r0l
     a41:	00 02       	.word	H'0,H'2
     a43:	04 02       	orc	#0x2,ccr
     a45:	33 00       	mov.b	r3h,@0x0:8
     a47:	05 02       	xorc	#0x2,ccr
     a49:	00 ff       	.word	H'0,H'ff
     a4b:	c8 90       	or.b	#0x90,r0l
     a4d:	00 02       	.word	H'0,H'2
     a4f:	04 04       	orc	#0x4,ccr
     a51:	06 01       	andc	#0x1,ccr
     a53:	00 05       	.word	H'0,H'5
     a55:	02 00       	stc	ccr,r0h
     a57:	ff c8       	mov.b	#0xc8,r7l
     a59:	96 06       	addx	#0x6,r6h
     a5b:	19 00       	sub.w	r0,r0
     a5d:	05 02       	xorc	#0x2,ccr
     a5f:	00 ff       	.word	H'0,H'ff
     a61:	c8 9e       	or.b	#0x9e,r0l
     a63:	18 00       	sub.b	r0h,r0h
     a65:	05 02       	xorc	#0x2,ccr
     a67:	00 ff       	.word	H'0,H'ff
     a69:	c8 a4       	or.b	#0xa4,r0l
     a6b:	18 00       	sub.b	r0h,r0h
     a6d:	05 02       	xorc	#0x2,ccr
     a6f:	00 ff       	.word	H'0,H'ff
     a71:	c8 aa       	or.b	#0xaa,r0l
     a73:	18 00       	sub.b	r0h,r0h
     a75:	05 02       	xorc	#0x2,ccr
     a77:	00 ff       	.word	H'0,H'ff
     a79:	c8 b0       	or.b	#0xb0,r0l
     a7b:	18 00       	sub.b	r0h,r0h
     a7d:	05 02       	xorc	#0x2,ccr
     a7f:	00 ff       	.word	H'0,H'ff
     a81:	c8 b6       	or.b	#0xb6,r0l
     a83:	18 00       	sub.b	r0h,r0h
     a85:	05 02       	xorc	#0x2,ccr
     a87:	00 ff       	.word	H'0,H'ff
     a89:	c8 bc       	or.b	#0xbc,r0l
     a8b:	1a 00       	dec.b	r0h
     a8d:	05 02       	xorc	#0x2,ccr
     a8f:	00 ff       	.word	H'0,H'ff
     a91:	c8 c2       	or.b	#0xc2,r0l
     a93:	1a 00       	dec.b	r0h
     a95:	05 02       	xorc	#0x2,ccr
     a97:	00 ff       	.word	H'0,H'ff
     a99:	c8 d0       	or.b	#0xd0,r0l
     a9b:	14 00       	or.b	r0h,r0h
     a9d:	05 02       	xorc	#0x2,ccr
     a9f:	00 ff       	.word	H'0,H'ff
     aa1:	c8 d6       	or.b	#0xd6,r0l
     aa3:	1a 00       	dec.b	r0h
     aa5:	05 02       	xorc	#0x2,ccr
     aa7:	00 ff       	.word	H'0,H'ff
     aa9:	c8 e0       	or.b	#0xe0,r0l
     aab:	1a 00       	dec.b	r0h
     aad:	05 02       	xorc	#0x2,ccr
     aaf:	00 ff       	.word	H'0,H'ff
     ab1:	c8 e4       	or.b	#0xe4,r0l
     ab3:	1a 00       	dec.b	r0h
     ab5:	05 02       	xorc	#0x2,ccr
     ab7:	00 ff       	.word	H'0,H'ff
     ab9:	c8 ec       	or.b	#0xec,r0l
     abb:	18 00       	sub.b	r0h,r0h
     abd:	05 02       	xorc	#0x2,ccr
     abf:	00 ff       	.word	H'0,H'ff
     ac1:	c8 f0       	or.b	#0xf0,r0l
     ac3:	19 00       	sub.w	r0,r0
     ac5:	05 02       	xorc	#0x2,ccr
     ac7:	00 ff       	.word	H'0,H'ff
     ac9:	c9 06       	or.b	#0x6,r1l
     acb:	00 02       	.word	H'0,H'2
     acd:	04 00       	orc	#0x0,ccr
     acf:	03 49       	.word	H'3,H'49
     ad1:	01 00       	.word	H'1,H'0
     ad3:	05 02       	xorc	#0x2,ccr
     ad5:	00 ff       	.word	H'0,H'ff
     ad7:	c9 0e       	or.b	#0xe,r1l
     ad9:	1e 00       	subx	r0h,r0h
     adb:	05 02       	xorc	#0x2,ccr
     add:	00 ff       	.word	H'0,H'ff
     adf:	c9 20       	or.b	#0x20,r1l
     ae1:	1a 00       	dec.b	r0h
     ae3:	05 02       	xorc	#0x2,ccr
     ae5:	00 ff       	.word	H'0,H'ff
     ae7:	c9 32       	or.b	#0x32,r1l
     ae9:	18 00       	sub.b	r0h,r0h
     aeb:	05 02       	xorc	#0x2,ccr
     aed:	00 ff       	.word	H'0,H'ff
     aef:	c9 3c       	or.b	#0x3c,r1l
     af1:	18 00       	sub.b	r0h,r0h
     af3:	05 02       	xorc	#0x2,ccr
     af5:	00 ff       	.word	H'0,H'ff
     af7:	c9 44       	or.b	#0x44,r1l
     af9:	18 00       	sub.b	r0h,r0h
     afb:	05 02       	xorc	#0x2,ccr
     afd:	00 ff       	.word	H'0,H'ff
     aff:	c9 4a       	or.b	#0x4a,r1l
     b01:	19 00       	sub.w	r0,r0
     b03:	05 02       	xorc	#0x2,ccr
     b05:	00 ff       	.word	H'0,H'ff
     b07:	c9 56       	or.b	#0x56,r1l
     b09:	18 00       	sub.b	r0h,r0h
     b0b:	05 02       	xorc	#0x2,ccr
     b0d:	00 ff       	.word	H'0,H'ff
     b0f:	c9 5e       	or.b	#0x5e,r1l
     b11:	18 00       	sub.b	r0h,r0h
     b13:	05 02       	xorc	#0x2,ccr
     b15:	00 ff       	.word	H'0,H'ff
     b17:	c9 6a       	or.b	#0x6a,r1l
     b19:	1a 00       	dec.b	r0h
     b1b:	05 02       	xorc	#0x2,ccr
     b1d:	00 ff       	.word	H'0,H'ff
     b1f:	c9 80       	or.b	#0x80,r1l
     b21:	18 00       	sub.b	r0h,r0h
     b23:	05 02       	xorc	#0x2,ccr
     b25:	00 ff       	.word	H'0,H'ff
     b27:	c9 92       	or.b	#0x92,r1l
     b29:	19 00       	sub.w	r0,r0
     b2b:	05 02       	xorc	#0x2,ccr
     b2d:	00 ff       	.word	H'0,H'ff
     b2f:	c9 98       	or.b	#0x98,r1l
     b31:	1b 00       	subs	#1,er0
     b33:	05 02       	xorc	#0x2,ccr
     b35:	00 ff       	.word	H'0,H'ff
     b37:	c9 aa       	or.b	#0xaa,r1l
     b39:	1d 00       	cmp.w	r0,r0
     b3b:	05 02       	xorc	#0x2,ccr
     b3d:	00 ff       	.word	H'0,H'ff
     b3f:	c9 b6       	or.b	#0xb6,r1l
     b41:	2e 00       	mov.b	@0x0:8,r6l
     b43:	05 02       	xorc	#0x2,ccr
     b45:	00 ff       	.word	H'0,H'ff
     b47:	c9 cc       	or.b	#0xcc,r1l
     b49:	03 b0       	ldmac	er0,macl
     b4b:	7f 01       	.word	H'7f,H'1
     b4d:	00 05       	.word	H'0,H'5
     b4f:	02 00       	stc	ccr,r0h
     b51:	ff c9       	mov.b	#0xc9,r7l
     b53:	d2 18       	xor.b	#0x18,r2h
     b55:	00 05       	.word	H'0,H'5
     b57:	02 00       	stc	ccr,r0h
     b59:	ff c9       	mov.b	#0xc9,r7l
     b5b:	d6 18       	xor.b	#0x18,r6h
     b5d:	00 05       	.word	H'0,H'5
     b5f:	02 00       	stc	ccr,r0h
     b61:	ff c9       	mov.b	#0xc9,r7l
     b63:	dc 1b       	xor.b	#0x1b,r4l
     b65:	00 05       	.word	H'0,H'5
     b67:	02 00       	stc	ccr,r0h
     b69:	ff c9       	mov.b	#0xc9,r7l
     b6b:	e2 19       	and.b	#0x19,r2h
     b6d:	00 05       	.word	H'0,H'5
     b6f:	02 00       	stc	ccr,r0h
     b71:	ff c9       	mov.b	#0xc9,r7l
     b73:	f4 10       	mov.b	#0x10,r4h
     b75:	00 05       	.word	H'0,H'5
     b77:	02 00       	stc	ccr,r0h
     b79:	ff c9       	mov.b	#0xc9,r7l
     b7b:	f8 20       	mov.b	#0x20,r0l
     b7d:	00 05       	.word	H'0,H'5
     b7f:	02 00       	stc	ccr,r0h
     b81:	ff c9       	mov.b	#0xc9,r7l
     b83:	fe 03       	mov.b	#0x3,r6l
     b85:	8a 03       	add.b	#0x3,r2l
     b87:	01 00       	.word	H'1,H'0
     b89:	05 02       	xorc	#0x2,ccr
     b8b:	00 ff       	.word	H'0,H'ff
     b8d:	ca 14       	or.b	#0x14,r2l
     b8f:	18 00       	sub.b	r0h,r0h
     b91:	05 02       	xorc	#0x2,ccr
     b93:	00 ff       	.word	H'0,H'ff
     b95:	ca 1e       	or.b	#0x1e,r2l
     b97:	1d 00       	cmp.w	r0,r0
     b99:	05 02       	xorc	#0x2,ccr
     b9b:	00 ff       	.word	H'0,H'ff
     b9d:	ca 28       	or.b	#0x28,r2l
     b9f:	19 00       	sub.w	r0,r0
     ba1:	05 02       	xorc	#0x2,ccr
     ba3:	00 ff       	.word	H'0,H'ff
     ba5:	ca 38       	or.b	#0x38,r2l
     ba7:	18 00       	sub.b	r0h,r0h
     ba9:	05 02       	xorc	#0x2,ccr
     bab:	00 ff       	.word	H'0,H'ff
     bad:	ca 4a       	or.b	#0x4a,r2l
     baf:	18 00       	sub.b	r0h,r0h
     bb1:	05 02       	xorc	#0x2,ccr
     bb3:	00 ff       	.word	H'0,H'ff
     bb5:	ca 5a       	or.b	#0x5a,r2l
     bb7:	18 00       	sub.b	r0h,r0h
     bb9:	05 02       	xorc	#0x2,ccr
     bbb:	00 ff       	.word	H'0,H'ff
     bbd:	ca 6a       	or.b	#0x6a,r2l
     bbf:	03 df       	.word	H'3,H'df
     bc1:	7e 01       	.word	H'7e,H'1
     bc3:	00 05       	.word	H'0,H'5
     bc5:	02 00       	stc	ccr,r0h
     bc7:	ff ca       	mov.b	#0xca,r7l
     bc9:	78 19       	.word	H'78,H'19
     bcb:	00 05       	.word	H'0,H'5
     bcd:	02 00       	stc	ccr,r0h
     bcf:	ff ca       	mov.b	#0xca,r7l
     bd1:	86 18       	add.b	#0x18,r6h
     bd3:	00 05       	.word	H'0,H'5
     bd5:	02 00       	stc	ccr,r0h
     bd7:	ff ca       	mov.b	#0xca,r7l
     bd9:	8a 14       	add.b	#0x14,r2l
     bdb:	00 05       	.word	H'0,H'5
     bdd:	02 00       	stc	ccr,r0h
     bdf:	ff ca       	mov.b	#0xca,r7l
     be1:	96 19       	addx	#0x19,r6h
     be3:	00 05       	.word	H'0,H'5
     be5:	02 00       	stc	ccr,r0h
     be7:	ff ca       	mov.b	#0xca,r7l
     be9:	a4 18       	cmp.b	#0x18,r4h
     beb:	00 05       	.word	H'0,H'5
     bed:	02 00       	stc	ccr,r0h
     bef:	ff ca       	mov.b	#0xca,r7l
     bf1:	a8 bc       	cmp.b	#0xbc,r0l
     bf3:	00 05       	.word	H'0,H'5
     bf5:	02 00       	stc	ccr,r0h
     bf7:	ff ca       	mov.b	#0xca,r7l
     bf9:	de 1b       	xor.b	#0x1b,r6l
     bfb:	00 05       	.word	H'0,H'5
     bfd:	02 00       	stc	ccr,r0h
     bff:	ff ca       	mov.b	#0xca,r7l
     c01:	e8 1a       	and.b	#0x1a,r0l
     c03:	00 05       	.word	H'0,H'5
     c05:	02 00       	stc	ccr,r0h
     c07:	ff ca       	mov.b	#0xca,r7l
     c09:	fc 1a       	mov.b	#0x1a,r4l
     c0b:	00 05       	.word	H'0,H'5
     c0d:	02 00       	stc	ccr,r0h
     c0f:	ff cb       	mov.b	#0xcb,r7l
     c11:	02 18       	stc	exr,r0l
     c13:	00 05       	.word	H'0,H'5
     c15:	02 00       	stc	ccr,r0h
     c17:	ff cb       	mov.b	#0xcb,r7l
     c19:	0e 03       	addx	r0h,r3h
     c1b:	d6 7e       	xor.b	#0x7e,r6h
     c1d:	01 00       	.word	H'1,H'0
     c1f:	05 02       	xorc	#0x2,ccr
     c21:	00 ff       	.word	H'0,H'ff
     c23:	cb 24       	or.b	#0x24,r3l
     c25:	19 00       	sub.w	r0,r0
     c27:	05 02       	xorc	#0x2,ccr
     c29:	00 ff       	.word	H'0,H'ff
     c2b:	cb 3e       	or.b	#0x3e,r3l
     c2d:	19 00       	sub.w	r0,r0
     c2f:	05 02       	xorc	#0x2,ccr
     c31:	00 ff       	.word	H'0,H'ff
     c33:	cb 74       	or.b	#0x74,r3l
     c35:	1a 00       	dec.b	r0h
     c37:	05 02       	xorc	#0x2,ccr
     c39:	00 ff       	.word	H'0,H'ff
     c3b:	cb 7e       	or.b	#0x7e,r3l
     c3d:	1a 00       	dec.b	r0h
     c3f:	05 02       	xorc	#0x2,ccr
     c41:	00 ff       	.word	H'0,H'ff
     c43:	cb 82       	or.b	#0x82,r3l
     c45:	18 00       	sub.b	r0h,r0h
     c47:	05 02       	xorc	#0x2,ccr
     c49:	00 ff       	.word	H'0,H'ff
     c4b:	cb 86       	or.b	#0x86,r3l
     c4d:	03 cf       	.word	H'3,H'cf
     c4f:	7e 01       	.word	H'7e,H'1
     c51:	00 05       	.word	H'0,H'5
     c53:	02 00       	stc	ccr,r0h
     c55:	ff cb       	mov.b	#0xcb,r7l
     c57:	8a cd       	add.b	#0xcd,r2l
     c59:	00 05       	.word	H'0,H'5
     c5b:	02 00       	stc	ccr,r0h
     c5d:	ff cb       	mov.b	#0xcb,r7l
     c5f:	8e 18       	add.b	#0x18,r6l
     c61:	00 05       	.word	H'0,H'5
     c63:	02 00       	stc	ccr,r0h
     c65:	ff cb       	mov.b	#0xcb,r7l
     c67:	92 19       	addx	#0x19,r2h
     c69:	00 05       	.word	H'0,H'5
     c6b:	02 00       	stc	ccr,r0h
     c6d:	ff cb       	mov.b	#0xcb,r7l
     c6f:	96 03       	addx	#0x3,r6h
     c71:	d5 7e       	xor.b	#0x7e,r5h
     c73:	01 00       	.word	H'1,H'0
     c75:	05 02       	xorc	#0x2,ccr
     c77:	00 ff       	.word	H'0,H'ff
     c79:	cb 9a       	or.b	#0x9a,r3l
     c7b:	1a 00       	dec.b	r0h
     c7d:	05 02       	xorc	#0x2,ccr
     c7f:	00 ff       	.word	H'0,H'ff
     c81:	cb a4       	or.b	#0xa4,r3l
     c83:	20 00       	mov.b	@0x0:8,r0h
     c85:	05 02       	xorc	#0x2,ccr
     c87:	00 ff       	.word	H'0,H'ff
     c89:	cb a8       	or.b	#0xa8,r3l
     c8b:	b9 00       	subx	#0x0,r1l
     c8d:	05 02       	xorc	#0x2,ccr
     c8f:	00 ff       	.word	H'0,H'ff
     c91:	cb b4       	or.b	#0xb4,r3l
     c93:	18 00       	sub.b	r0h,r0h
     c95:	05 02       	xorc	#0x2,ccr
     c97:	00 ff       	.word	H'0,H'ff
     c99:	cb b8       	or.b	#0xb8,r3l
     c9b:	19 00       	sub.w	r0,r0
     c9d:	05 02       	xorc	#0x2,ccr
     c9f:	00 ff       	.word	H'0,H'ff
     ca1:	cb ba       	or.b	#0xba,r3l
     ca3:	03 e2       	.word	H'3,H'e2
     ca5:	7e 01       	.word	H'7e,H'1
     ca7:	00 05       	.word	H'0,H'5
     ca9:	02 00       	stc	ccr,r0h
     cab:	ff cb       	mov.b	#0xcb,r7l
     cad:	c6 18       	or.b	#0x18,r6h
     caf:	00 05       	.word	H'0,H'5
     cb1:	02 00       	stc	ccr,r0h
     cb3:	ff cb       	mov.b	#0xcb,r7l
     cb5:	ca 18       	or.b	#0x18,r2l
     cb7:	00 05       	.word	H'0,H'5
     cb9:	02 00       	stc	ccr,r0h
     cbb:	ff cb       	mov.b	#0xcb,r7l
     cbd:	ce 18       	or.b	#0x18,r6l
     cbf:	00 05       	.word	H'0,H'5
     cc1:	02 00       	stc	ccr,r0h
     cc3:	ff cb       	mov.b	#0xcb,r7l
     cc5:	d2 b2       	xor.b	#0xb2,r2h
     cc7:	00 05       	.word	H'0,H'5
     cc9:	02 00       	stc	ccr,r0h
     ccb:	ff cb       	mov.b	#0xcb,r7l
     ccd:	d6 18       	xor.b	#0x18,r6h
     ccf:	00 05       	.word	H'0,H'5
     cd1:	02 00       	stc	ccr,r0h
     cd3:	ff cb       	mov.b	#0xcb,r7l
     cd5:	da 19       	xor.b	#0x19,r2l
     cd7:	00 05       	.word	H'0,H'5
     cd9:	02 00       	stc	ccr,r0h
     cdb:	ff cb       	mov.b	#0xcb,r7l
     cdd:	dc 03       	xor.b	#0x3,r4l
     cdf:	e9 7e       	and.b	#0x7e,r1l
     ce1:	01 00       	.word	H'1,H'0
     ce3:	05 02       	xorc	#0x2,ccr
     ce5:	00 ff       	.word	H'0,H'ff
     ce7:	cb e0       	or.b	#0xe0,r3l
     ce9:	18 00       	sub.b	r0h,r0h
     ceb:	05 02       	xorc	#0x2,ccr
     ced:	00 ff       	.word	H'0,H'ff
     cef:	cb e6       	or.b	#0xe6,r3l
     cf1:	ad 00       	cmp.b	#0x0,r5l
     cf3:	05 02       	xorc	#0x2,ccr
     cf5:	00 ff       	.word	H'0,H'ff
     cf7:	cb ec       	or.b	#0xec,r3l
     cf9:	18 00       	sub.b	r0h,r0h
     cfb:	05 02       	xorc	#0x2,ccr
     cfd:	00 ff       	.word	H'0,H'ff
     cff:	cb f0       	or.b	#0xf0,r3l
     d01:	03 ef       	.word	H'3,H'ef
     d03:	7e 01       	.word	H'7e,H'1
     d05:	00 05       	.word	H'0,H'5
     d07:	02 00       	stc	ccr,r0h
     d09:	ff cb       	mov.b	#0xcb,r7l
     d0b:	f8 18       	mov.b	#0x18,r0l
     d0d:	00 05       	.word	H'0,H'5
     d0f:	02 00       	stc	ccr,r0h
     d11:	ff cb       	mov.b	#0xcb,r7l
     d13:	fc a9       	mov.b	#0xa9,r4l
     d15:	00 05       	.word	H'0,H'5
     d17:	02 00       	stc	ccr,r0h
     d19:	ff cc       	mov.b	#0xcc,r7l
     d1b:	02 18       	stc	exr,r0l
     d1d:	00 05       	.word	H'0,H'5
     d1f:	02 00       	stc	ccr,r0h
     d21:	ff cc       	mov.b	#0xcc,r7l
     d23:	06 19       	andc	#0x19,ccr
     d25:	00 05       	.word	H'0,H'5
     d27:	02 00       	stc	ccr,r0h
     d29:	ff cc       	mov.b	#0xcc,r7l
     d2b:	16 03       	and.b	r0h,r3h
     d2d:	a7 7f       	cmp.b	#0x7f,r7h
     d2f:	01 00       	.word	H'1,H'0
     d31:	05 02       	xorc	#0x2,ccr
     d33:	00 ff       	.word	H'0,H'ff
     d35:	cc 20       	or.b	#0x20,r4l
     d37:	18 00       	sub.b	r0h,r0h
     d39:	05 02       	xorc	#0x2,ccr
     d3b:	00 ff       	.word	H'0,H'ff
     d3d:	cc 28       	or.b	#0x28,r4l
     d3f:	03 4d       	.word	H'3,H'4d
     d41:	01 00       	.word	H'1,H'0
     d43:	05 02       	xorc	#0x2,ccr
     d45:	00 ff       	.word	H'0,H'ff
     d47:	cc 36       	or.b	#0x36,r4l
     d49:	18 00       	sub.b	r0h,r0h
     d4b:	05 02       	xorc	#0x2,ccr
     d4d:	00 ff       	.word	H'0,H'ff
     d4f:	cc 46       	or.b	#0x46,r4l
     d51:	18 00       	sub.b	r0h,r0h
     d53:	05 02       	xorc	#0x2,ccr
     d55:	00 ff       	.word	H'0,H'ff
     d57:	cc 4a       	or.b	#0x4a,r4l
     d59:	18 00       	sub.b	r0h,r0h
     d5b:	05 02       	xorc	#0x2,ccr
     d5d:	00 ff       	.word	H'0,H'ff
     d5f:	cc 50       	or.b	#0x50,r4l
     d61:	18 00       	sub.b	r0h,r0h
     d63:	05 02       	xorc	#0x2,ccr
     d65:	00 ff       	.word	H'0,H'ff
     d67:	cc 56       	or.b	#0x56,r4l
     d69:	18 00       	sub.b	r0h,r0h
     d6b:	05 02       	xorc	#0x2,ccr
     d6d:	00 ff       	.word	H'0,H'ff
     d6f:	cc 5e       	or.b	#0x5e,r4l
     d71:	18 00       	sub.b	r0h,r0h
     d73:	05 02       	xorc	#0x2,ccr
     d75:	00 ff       	.word	H'0,H'ff
     d77:	cc 64       	or.b	#0x64,r4l
     d79:	1a 00       	dec.b	r0h
     d7b:	05 02       	xorc	#0x2,ccr
     d7d:	00 ff       	.word	H'0,H'ff
     d7f:	cc 82       	or.b	#0x82,r4l
     d81:	18 00       	sub.b	r0h,r0h
     d83:	05 02       	xorc	#0x2,ccr
     d85:	00 ff       	.word	H'0,H'ff
     d87:	cc 88       	or.b	#0x88,r4l
     d89:	19 00       	sub.w	r0,r0
     d8b:	05 02       	xorc	#0x2,ccr
     d8d:	00 ff       	.word	H'0,H'ff
     d8f:	cc 8e       	or.b	#0x8e,r4l
     d91:	19 00       	sub.w	r0,r0
     d93:	05 02       	xorc	#0x2,ccr
     d95:	00 ff       	.word	H'0,H'ff
     d97:	cc 9e       	or.b	#0x9e,r4l
     d99:	3f 00       	mov.b	r7l,@0x0:8
     d9b:	05 02       	xorc	#0x2,ccr
     d9d:	00 ff       	.word	H'0,H'ff
     d9f:	cc a4       	or.b	#0xa4,r4l
     da1:	18 00       	sub.b	r0h,r0h
     da3:	05 02       	xorc	#0x2,ccr
     da5:	00 ff       	.word	H'0,H'ff
     da7:	cc ac       	or.b	#0xac,r4l
     da9:	18 00       	sub.b	r0h,r0h
     dab:	05 02       	xorc	#0x2,ccr
     dad:	00 ff       	.word	H'0,H'ff
     daf:	cc b8       	or.b	#0xb8,r4l
     db1:	18 00       	sub.b	r0h,r0h
     db3:	05 02       	xorc	#0x2,ccr
     db5:	00 ff       	.word	H'0,H'ff
     db7:	cc bc       	or.b	#0xbc,r4l
     db9:	69 00       	mov.w	@er0,r0
     dbb:	05 02       	xorc	#0x2,ccr
     dbd:	00 ff       	.word	H'0,H'ff
     dbf:	cc c4       	or.b	#0xc4,r4l
     dc1:	1b 00       	subs	#1,er0
     dc3:	05 02       	xorc	#0x2,ccr
     dc5:	00 ff       	.word	H'0,H'ff
     dc7:	cc c6       	or.b	#0xc6,r4l
     dc9:	03 b5       	ldmac	er5,macl
     dcb:	7f 01       	.word	H'7f,H'1
     dcd:	00 05       	.word	H'0,H'5
     dcf:	02 00       	stc	ccr,r0h
     dd1:	ff cc       	mov.b	#0xcc,r7l
     dd3:	e0 1a       	and.b	#0x1a,r0h
     dd5:	00 05       	.word	H'0,H'5
     dd7:	02 00       	stc	ccr,r0h
     dd9:	ff cc       	mov.b	#0xcc,r7l
     ddb:	ec 19       	and.b	#0x19,r4l
     ddd:	00 05       	.word	H'0,H'5
     ddf:	02 00       	stc	ccr,r0h
     de1:	ff cc       	mov.b	#0xcc,r7l
     de3:	f4 1f       	mov.b	#0x1f,r4h
     de5:	00 05       	.word	H'0,H'5
     de7:	02 00       	stc	ccr,r0h
     de9:	ff cc       	mov.b	#0xcc,r7l
     deb:	fe 18       	mov.b	#0x18,r6l
     ded:	00 05       	.word	H'0,H'5
     def:	02 00       	stc	ccr,r0h
     df1:	ff cd       	mov.b	#0xcd,r7l
     df3:	02 19       	stc	exr,r1l
     df5:	00 05       	.word	H'0,H'5
     df7:	02 00       	stc	ccr,r0h
     df9:	ff cd       	mov.b	#0xcd,r7l
     dfb:	18 11       	sub.b	r1h,r1h
     dfd:	00 05       	.word	H'0,H'5
     dff:	02 00       	stc	ccr,r0h
     e01:	ff cd       	mov.b	#0xcd,r7l
     e03:	1c 58       	cmp.b	r5h,r0l
     e05:	00 05       	.word	H'0,H'5
     e07:	02 00       	stc	ccr,r0h
     e09:	ff cd       	mov.b	#0xcd,r7l
     e0b:	22 19       	mov.b	@0x19:8,r2h
     e0d:	00 05       	.word	H'0,H'5
     e0f:	02 00       	stc	ccr,r0h
     e11:	ff cd       	mov.b	#0xcd,r7l
     e13:	24 19       	mov.b	@0x19:8,r4h
     e15:	00 05       	.word	H'0,H'5
     e17:	02 00       	stc	ccr,r0h
     e19:	ff cd       	mov.b	#0xcd,r7l
     e1b:	2c 03       	mov.b	@0x3:8,r4l
     e1d:	4d 01       	.word	H'4d,H'1
     e1f:	00 05       	.word	H'0,H'5
     e21:	02 00       	stc	ccr,r0h
     e23:	ff cd       	mov.b	#0xcd,r7l
     e25:	3e 19       	mov.b	r6l,@0x19:8
     e27:	00 05       	.word	H'0,H'5
     e29:	02 00       	stc	ccr,r0h
     e2b:	ff cd       	mov.b	#0xcd,r7l
     e2d:	54 18       	.word	H'54,H'18
     e2f:	00 05       	.word	H'0,H'5
     e31:	02 00       	stc	ccr,r0h
     e33:	ff cd       	mov.b	#0xcd,r7l
     e35:	58 47       	.word	H'58,H'47
     e37:	00 05       	.word	H'0,H'5
     e39:	02 00       	stc	ccr,r0h
     e3b:	ff cd       	mov.b	#0xcd,r7l
     e3d:	5e 1d 00 05 	jsr	@0x1d0005:24
     e41:	02 00       	stc	ccr,r0h
     e43:	ff cd       	mov.b	#0xcd,r7l
     e45:	72 4a       	bclr	#0x4,r2l
     e47:	00 05       	.word	H'0,H'5
     e49:	02 00       	stc	ccr,r0h
     e4b:	ff cd       	mov.b	#0xcd,r7l
     e4d:	80 18       	add.b	#0x18,r0h
     e4f:	00 05       	.word	H'0,H'5
     e51:	02 00       	stc	ccr,r0h
     e53:	ff cd       	mov.b	#0xcd,r7l
     e55:	92 03       	addx	#0x3,r2h
     e57:	57 01       	.word	H'57,H'1
     e59:	00 05       	.word	H'0,H'5
     e5b:	02 00       	stc	ccr,r0h
     e5d:	ff cd       	mov.b	#0xcd,r7l
     e5f:	96 18       	addx	#0x18,r6h
     e61:	00 05       	.word	H'0,H'5
     e63:	02 00       	stc	ccr,r0h
     e65:	ff cd       	mov.b	#0xcd,r7l
     e67:	9e 40       	addx	#0x40,r6l
     e69:	00 05       	.word	H'0,H'5
     e6b:	02 00       	stc	ccr,r0h
     e6d:	ff cd       	mov.b	#0xcd,r7l
     e6f:	ac 23       	cmp.b	#0x23,r4l
     e71:	00 05       	.word	H'0,H'5
     e73:	02 00       	stc	ccr,r0h
     e75:	ff cd       	mov.b	#0xcd,r7l
     e77:	b2 19       	subx	#0x19,r2h
     e79:	00 05       	.word	H'0,H'5
     e7b:	02 00       	stc	ccr,r0h
     e7d:	ff cd       	mov.b	#0xcd,r7l
     e7f:	c0 21       	or.b	#0x21,r0h
     e81:	00 05       	.word	H'0,H'5
     e83:	02 00       	stc	ccr,r0h
     e85:	ff cd       	mov.b	#0xcd,r7l
     e87:	d2 18       	xor.b	#0x18,r2h
     e89:	00 05       	.word	H'0,H'5
     e8b:	02 00       	stc	ccr,r0h
     e8d:	ff cd       	mov.b	#0xcd,r7l
     e8f:	da 03       	xor.b	#0x3,r2l
     e91:	73 01       	btst	#0x0,r1h
     e93:	00 05       	.word	H'0,H'5
     e95:	02 00       	stc	ccr,r0h
     e97:	ff cd       	mov.b	#0xcd,r7l
     e99:	de 03       	xor.b	#0x3,r6l
     e9b:	68 01       	mov.b	@er0,r1h
     e9d:	00 05       	.word	H'0,H'5
     e9f:	02 00       	stc	ccr,r0h
     ea1:	ff cd       	mov.b	#0xcd,r7l
     ea3:	ea 16       	and.b	#0x16,r2l
     ea5:	00 05       	.word	H'0,H'5
     ea7:	02 00       	stc	ccr,r0h
     ea9:	ff cd       	mov.b	#0xcd,r7l
     eab:	ee 1c       	and.b	#0x1c,r6l
     ead:	00 05       	.word	H'0,H'5
     eaf:	02 00       	stc	ccr,r0h
     eb1:	ff cd       	mov.b	#0xcd,r7l
     eb3:	f2 19       	mov.b	#0x19,r2h
     eb5:	00 05       	.word	H'0,H'5
     eb7:	02 00       	stc	ccr,r0h
     eb9:	ff cd       	mov.b	#0xcd,r7l
     ebb:	fa 3e       	mov.b	#0x3e,r2l
     ebd:	00 05       	.word	H'0,H'5
     ebf:	02 00       	stc	ccr,r0h
     ec1:	ff ce       	mov.b	#0xce,r7l
     ec3:	04 19       	orc	#0x19,ccr
     ec5:	00 05       	.word	H'0,H'5
     ec7:	02 00       	stc	ccr,r0h
     ec9:	ff ce       	mov.b	#0xce,r7l
     ecb:	0a 40       	add.w	#0x4,r0
     ecd:	00 05       	.word	H'0,H'5
     ecf:	02 00       	stc	ccr,r0h
     ed1:	ff ce       	mov.b	#0xce,r7l
     ed3:	10 18       	shll.w	e0
     ed5:	00 05       	.word	H'0,H'5
     ed7:	02 00       	stc	ccr,r0h
     ed9:	ff ce       	mov.b	#0xce,r7l
     edb:	1c 18       	cmp.b	r1h,r0l
     edd:	00 05       	.word	H'0,H'5
     edf:	02 00       	stc	ccr,r0h
     ee1:	ff ce       	mov.b	#0xce,r7l
     ee3:	22 18       	mov.b	@0x18:8,r2h
     ee5:	00 05       	.word	H'0,H'5
     ee7:	02 00       	stc	ccr,r0h
     ee9:	ff ce       	mov.b	#0xce,r7l
     eeb:	24 18       	mov.b	@0x18:8,r4h
     eed:	00 05       	.word	H'0,H'5
     eef:	02 00       	stc	ccr,r0h
     ef1:	ff ce       	mov.b	#0xce,r7l
     ef3:	2a 1b       	mov.b	@0x1b:8,r2l
     ef5:	00 05       	.word	H'0,H'5
     ef7:	02 00       	stc	ccr,r0h
     ef9:	ff ce       	mov.b	#0xce,r7l
     efb:	30 03       	mov.b	r0h,@0x3:8
     efd:	92 7f       	addx	#0x7f,r2h
     eff:	01 00       	.word	H'1,H'0
     f01:	05 02       	xorc	#0x2,ccr
     f03:	00 ff       	.word	H'0,H'ff
     f05:	ce 3a       	or.b	#0x3a,r6l
     f07:	18 00       	sub.b	r0h,r0h
     f09:	05 02       	xorc	#0x2,ccr
     f0b:	00 ff       	.word	H'0,H'ff
     f0d:	ce 3e       	or.b	#0x3e,r6l
     f0f:	86 00       	add.b	#0x0,r6h
     f11:	05 02       	xorc	#0x2,ccr
     f13:	00 ff       	.word	H'0,H'ff
     f15:	ce 44       	or.b	#0x44,r6l
     f17:	00 01       	.word	H'0,H'1
     f19:	01        	.word	H'1,H'0

00000f1a <.Ldebug_line0>:
     f1a:	00 00       	nop	
     f1c:	02 a5       	stmac	mach,er5
     f1e:	00 04       	.word	H'0,H'4
     f20:	00 00       	nop	
     f22:	00 55       	.word	H'0,H'55
     f24:	01 01       	.word	H'1,H'1
     f26:	01 f6       	.word	H'1,H'f6
     f28:	f2 0d       	mov.b	#0xd,r2h
     f2a:	00 01       	.word	H'0,H'1
     f2c:	01 01       	.word	H'1,H'1
     f2e:	01 00       	.word	H'1,H'0
     f30:	00 00       	nop	
     f32:	01 00       	.word	H'1,H'0
     f34:	00 01       	.word	H'0,H'1
     f36:	00 73       	.word	H'0,H'73
     f38:	79 73       	.word	H'79,H'73
     f3a:	63 61       	btst	r6h,r1h
     f3c:	6c 6c       	mov.b	@er6+,r4l
     f3e:	2e 63       	mov.b	@0x63:8,r6l
     f40:	00 00       	nop	
     f42:	00 00       	nop	
     f44:	64 65       	or.w	r6,r5
     f46:	66 69       	and.w	r6,e1
     f48:	6e 65 73 2e 	mov.b	@(0x732e:16,er6),r5h
     f4c:	68 00       	mov.b	@er0,r0h
     f4e:	00 00       	nop	
     f50:	00 69       	.word	H'0,H'69
     f52:	6e 74 65 72 	mov.b	@(0x6572:16,er7),r4h
     f56:	72 75       	bclr	#0x7,r5h
     f58:	70 74       	bset	#0x7,r4h
     f5a:	2e 68       	mov.b	@0x68:8,r6l
     f5c:	00 00       	nop	
     f5e:	00 00       	nop	
     f60:	73 79       	btst	#0x7,r1l
     f62:	73 63       	btst	#0x6,r3h
     f64:	61 6c       	bnot	r6h,r4l
     f66:	6c 2e       	mov.b	@er2+,r6l
     f68:	68 00       	mov.b	@er0,r0h
     f6a:	00 00       	nop	
     f6c:	00 6b       	.word	H'0,H'6b
     f6e:	6f 7a 6f 73 	mov.w	@(0x6f73:16,er7),e2
     f72:	2e 68       	mov.b	@0x68:8,r6l
     f74:	00 00       	nop	
     f76:	00 00       	nop	
     f78:	00 00       	nop	
     f7a:	05 02       	xorc	#0x2,ccr
     f7c:	00 ff       	.word	H'0,H'ff
     f7e:	ce 44       	or.b	#0x44,r6l
     f80:	20 00       	mov.b	@0x0:8,r0h
     f82:	05 02       	xorc	#0x2,ccr
     f84:	00 ff       	.word	H'0,H'ff
     f86:	ce 50       	or.b	#0x50,r6l
     f88:	19 00       	sub.w	r0,r0
     f8a:	05 02       	xorc	#0x2,ccr
     f8c:	00 ff       	.word	H'0,H'ff
     f8e:	ce 56       	or.b	#0x56,r6l
     f90:	18 00       	sub.b	r0h,r0h
     f92:	05 02       	xorc	#0x2,ccr
     f94:	00 ff       	.word	H'0,H'ff
     f96:	ce 5c       	or.b	#0x5c,r6l
     f98:	18 00       	sub.b	r0h,r0h
     f9a:	05 02       	xorc	#0x2,ccr
     f9c:	00 ff       	.word	H'0,H'ff
     f9e:	ce 60       	or.b	#0x60,r6l
     fa0:	18 00       	sub.b	r0h,r0h
     fa2:	05 02       	xorc	#0x2,ccr
     fa4:	00 ff       	.word	H'0,H'ff
     fa6:	ce 68       	or.b	#0x68,r6l
     fa8:	18 00       	sub.b	r0h,r0h
     faa:	05 02       	xorc	#0x2,ccr
     fac:	00 ff       	.word	H'0,H'ff
     fae:	ce 70       	or.b	#0x70,r6l
     fb0:	18 00       	sub.b	r0h,r0h
     fb2:	05 02       	xorc	#0x2,ccr
     fb4:	00 ff       	.word	H'0,H'ff
     fb6:	ce 7c       	or.b	#0x7c,r6l
     fb8:	18 00       	sub.b	r0h,r0h
     fba:	05 02       	xorc	#0x2,ccr
     fbc:	00 ff       	.word	H'0,H'ff
     fbe:	ce 8a       	or.b	#0x8a,r6l
     fc0:	19 00       	sub.w	r0,r0
     fc2:	05 02       	xorc	#0x2,ccr
     fc4:	00 ff       	.word	H'0,H'ff
     fc6:	ce 9c       	or.b	#0x9c,r6l
     fc8:	1a 00       	dec.b	r0h
     fca:	05 02       	xorc	#0x2,ccr
     fcc:	00 ff       	.word	H'0,H'ff
     fce:	ce a2       	or.b	#0xa2,r6l
     fd0:	18 00       	sub.b	r0h,r0h
     fd2:	05 02       	xorc	#0x2,ccr
     fd4:	00 ff       	.word	H'0,H'ff
     fd6:	ce ac       	or.b	#0xac,r6l
     fd8:	18 00       	sub.b	r0h,r0h
     fda:	05 02       	xorc	#0x2,ccr
     fdc:	00 ff       	.word	H'0,H'ff
     fde:	ce b2       	or.b	#0xb2,r6l
     fe0:	1a 00       	dec.b	r0h
     fe2:	05 02       	xorc	#0x2,ccr
     fe4:	00 ff       	.word	H'0,H'ff
     fe6:	ce be       	or.b	#0xbe,r6l
     fe8:	19 00       	sub.w	r0,r0
     fea:	05 02       	xorc	#0x2,ccr
     fec:	00 ff       	.word	H'0,H'ff
     fee:	ce ce       	or.b	#0xce,r6l
     ff0:	19 00       	sub.w	r0,r0
     ff2:	05 02       	xorc	#0x2,ccr
     ff4:	00 ff       	.word	H'0,H'ff
     ff6:	ce de       	or.b	#0xde,r6l
     ff8:	1a 00       	dec.b	r0h
     ffa:	05 02       	xorc	#0x2,ccr
     ffc:	00 ff       	.word	H'0,H'ff
     ffe:	ce ea       	or.b	#0xea,r6l
    1000:	19 00       	sub.w	r0,r0
    1002:	05 02       	xorc	#0x2,ccr
    1004:	00 ff       	.word	H'0,H'ff
    1006:	ce fa       	or.b	#0xfa,r6l
    1008:	19 00       	sub.w	r0,r0
    100a:	05 02       	xorc	#0x2,ccr
    100c:	00 ff       	.word	H'0,H'ff
    100e:	cf 0a       	or.b	#0xa,r7l
    1010:	1a 00       	dec.b	r0h
    1012:	05 02       	xorc	#0x2,ccr
    1014:	00 ff       	.word	H'0,H'ff
    1016:	cf 16       	or.b	#0x16,r7l
    1018:	19 00       	sub.w	r0,r0
    101a:	05 02       	xorc	#0x2,ccr
    101c:	00 ff       	.word	H'0,H'ff
    101e:	cf 1c       	or.b	#0x1c,r7l
    1020:	18 00       	sub.b	r0h,r0h
    1022:	05 02       	xorc	#0x2,ccr
    1024:	00 ff       	.word	H'0,H'ff
    1026:	cf 2c       	or.b	#0x2c,r7l
    1028:	19 00       	sub.w	r0,r0
    102a:	05 02       	xorc	#0x2,ccr
    102c:	00 ff       	.word	H'0,H'ff
    102e:	cf 3c       	or.b	#0x3c,r7l
    1030:	1a 00       	dec.b	r0h
    1032:	05 02       	xorc	#0x2,ccr
    1034:	00 ff       	.word	H'0,H'ff
    1036:	cf 48       	or.b	#0x48,r7l
    1038:	19 00       	sub.w	r0,r0
    103a:	05 02       	xorc	#0x2,ccr
    103c:	00 ff       	.word	H'0,H'ff
    103e:	cf 58       	or.b	#0x58,r7l
    1040:	19 00       	sub.w	r0,r0
    1042:	05 02       	xorc	#0x2,ccr
    1044:	00 ff       	.word	H'0,H'ff
    1046:	cf 6a       	or.b	#0x6a,r7l
    1048:	1a 00       	dec.b	r0h
    104a:	05 02       	xorc	#0x2,ccr
    104c:	00 ff       	.word	H'0,H'ff
    104e:	cf 76       	or.b	#0x76,r7l
    1050:	19 00       	sub.w	r0,r0
    1052:	05 02       	xorc	#0x2,ccr
    1054:	00 ff       	.word	H'0,H'ff
    1056:	cf 7a       	or.b	#0x7a,r7l
    1058:	18 00       	sub.b	r0h,r0h
    105a:	05 02       	xorc	#0x2,ccr
    105c:	00 ff       	.word	H'0,H'ff
    105e:	cf 8a       	or.b	#0x8a,r7l
    1060:	19 00       	sub.w	r0,r0
    1062:	05 02       	xorc	#0x2,ccr
    1064:	00 ff       	.word	H'0,H'ff
    1066:	cf 9a       	or.b	#0x9a,r7l
    1068:	1a 00       	dec.b	r0h
    106a:	05 02       	xorc	#0x2,ccr
    106c:	00 ff       	.word	H'0,H'ff
    106e:	cf a6       	or.b	#0xa6,r7l
    1070:	19 00       	sub.w	r0,r0
    1072:	05 02       	xorc	#0x2,ccr
    1074:	00 ff       	.word	H'0,H'ff
    1076:	cf aa       	or.b	#0xaa,r7l
    1078:	18 00       	sub.b	r0h,r0h
    107a:	05 02       	xorc	#0x2,ccr
    107c:	00 ff       	.word	H'0,H'ff
    107e:	cf ba       	or.b	#0xba,r7l
    1080:	19 00       	sub.w	r0,r0
    1082:	05 02       	xorc	#0x2,ccr
    1084:	00 ff       	.word	H'0,H'ff
    1086:	cf cc       	or.b	#0xcc,r7l
    1088:	1a 00       	dec.b	r0h
    108a:	05 02       	xorc	#0x2,ccr
    108c:	00 ff       	.word	H'0,H'ff
    108e:	cf d8       	or.b	#0xd8,r7l
    1090:	19 00       	sub.w	r0,r0
    1092:	05 02       	xorc	#0x2,ccr
    1094:	00 ff       	.word	H'0,H'ff
    1096:	cf de       	or.b	#0xde,r7l
    1098:	18 00       	sub.b	r0h,r0h
    109a:	05 02       	xorc	#0x2,ccr
    109c:	00 ff       	.word	H'0,H'ff
    109e:	cf ee       	or.b	#0xee,r7l
    10a0:	19 00       	sub.w	r0,r0
    10a2:	05 02       	xorc	#0x2,ccr
    10a4:	00 ff       	.word	H'0,H'ff
    10a6:	cf fe       	or.b	#0xfe,r7l
    10a8:	1a 00       	dec.b	r0h
    10aa:	05 02       	xorc	#0x2,ccr
    10ac:	00 ff       	.word	H'0,H'ff
    10ae:	d0 0a       	xor.b	#0xa,r0h
    10b0:	19 00       	sub.w	r0,r0
    10b2:	05 02       	xorc	#0x2,ccr
    10b4:	00 ff       	.word	H'0,H'ff
    10b6:	d0 0e       	xor.b	#0xe,r0h
    10b8:	18 00       	sub.b	r0h,r0h
    10ba:	05 02       	xorc	#0x2,ccr
    10bc:	00 ff       	.word	H'0,H'ff
    10be:	d0 12       	xor.b	#0x12,r0h
    10c0:	18 00       	sub.b	r0h,r0h
    10c2:	05 02       	xorc	#0x2,ccr
    10c4:	00 ff       	.word	H'0,H'ff
    10c6:	d0 18       	xor.b	#0x18,r0h
    10c8:	18 00       	sub.b	r0h,r0h
    10ca:	05 02       	xorc	#0x2,ccr
    10cc:	00 ff       	.word	H'0,H'ff
    10ce:	d0 28       	xor.b	#0x28,r0h
    10d0:	19 00       	sub.w	r0,r0
    10d2:	05 02       	xorc	#0x2,ccr
    10d4:	00 ff       	.word	H'0,H'ff
    10d6:	d0 38       	xor.b	#0x38,r0h
    10d8:	1a 00       	dec.b	r0h
    10da:	05 02       	xorc	#0x2,ccr
    10dc:	00 ff       	.word	H'0,H'ff
    10de:	d0 44       	xor.b	#0x44,r0h
    10e0:	19 00       	sub.w	r0,r0
    10e2:	05 02       	xorc	#0x2,ccr
    10e4:	00 ff       	.word	H'0,H'ff
    10e6:	d0 48       	xor.b	#0x48,r0h
    10e8:	18 00       	sub.b	r0h,r0h
    10ea:	05 02       	xorc	#0x2,ccr
    10ec:	00 ff       	.word	H'0,H'ff
    10ee:	d0 4e       	xor.b	#0x4e,r0h
    10f0:	18 00       	sub.b	r0h,r0h
    10f2:	05 02       	xorc	#0x2,ccr
    10f4:	00 ff       	.word	H'0,H'ff
    10f6:	d0 54       	xor.b	#0x54,r0h
    10f8:	18 00       	sub.b	r0h,r0h
    10fa:	05 02       	xorc	#0x2,ccr
    10fc:	00 ff       	.word	H'0,H'ff
    10fe:	d0 64       	xor.b	#0x64,r0h
    1100:	19 00       	sub.w	r0,r0
    1102:	05 02       	xorc	#0x2,ccr
    1104:	00 ff       	.word	H'0,H'ff
    1106:	d0 76       	xor.b	#0x76,r0h
    1108:	1a 00       	dec.b	r0h
    110a:	05 02       	xorc	#0x2,ccr
    110c:	00 ff       	.word	H'0,H'ff
    110e:	d0 82       	xor.b	#0x82,r0h
    1110:	19 00       	sub.w	r0,r0
    1112:	05 02       	xorc	#0x2,ccr
    1114:	00 ff       	.word	H'0,H'ff
    1116:	d0 86       	xor.b	#0x86,r0h
    1118:	18 00       	sub.b	r0h,r0h
    111a:	05 02       	xorc	#0x2,ccr
    111c:	00 ff       	.word	H'0,H'ff
    111e:	d0 8c       	xor.b	#0x8c,r0h
    1120:	18 00       	sub.b	r0h,r0h
    1122:	05 02       	xorc	#0x2,ccr
    1124:	00 ff       	.word	H'0,H'ff
    1126:	d0 9c       	xor.b	#0x9c,r0h
    1128:	19 00       	sub.w	r0,r0
    112a:	05 02       	xorc	#0x2,ccr
    112c:	00 ff       	.word	H'0,H'ff
    112e:	d0 ac       	xor.b	#0xac,r0h
    1130:	1c 00       	cmp.b	r0h,r0h
    1132:	05 02       	xorc	#0x2,ccr
    1134:	00 ff       	.word	H'0,H'ff
    1136:	d0 b8       	xor.b	#0xb8,r0h
    1138:	19 00       	sub.w	r0,r0
    113a:	05 02       	xorc	#0x2,ccr
    113c:	00 ff       	.word	H'0,H'ff
    113e:	d0 be       	xor.b	#0xbe,r0h
    1140:	18 00       	sub.b	r0h,r0h
    1142:	05 02       	xorc	#0x2,ccr
    1144:	00 ff       	.word	H'0,H'ff
    1146:	d0 ce       	xor.b	#0xce,r0h
    1148:	19 00       	sub.w	r0,r0
    114a:	05 02       	xorc	#0x2,ccr
    114c:	00 ff       	.word	H'0,H'ff
    114e:	d0 de       	xor.b	#0xde,r0h
    1150:	1a 00       	dec.b	r0h
    1152:	05 02       	xorc	#0x2,ccr
    1154:	00 ff       	.word	H'0,H'ff
    1156:	d0 ea       	xor.b	#0xea,r0h
    1158:	19 00       	sub.w	r0,r0
    115a:	05 02       	xorc	#0x2,ccr
    115c:	00 ff       	.word	H'0,H'ff
    115e:	d0 ee       	xor.b	#0xee,r0h
    1160:	18 00       	sub.b	r0h,r0h
    1162:	05 02       	xorc	#0x2,ccr
    1164:	00 ff       	.word	H'0,H'ff
    1166:	d0 fe       	xor.b	#0xfe,r0h
    1168:	19 00       	sub.w	r0,r0
    116a:	05 02       	xorc	#0x2,ccr
    116c:	00 ff       	.word	H'0,H'ff
    116e:	d1 10       	xor.b	#0x10,r1h
    1170:	1a 00       	dec.b	r0h
    1172:	05 02       	xorc	#0x2,ccr
    1174:	00 ff       	.word	H'0,H'ff
    1176:	d1 1c       	xor.b	#0x1c,r1h
    1178:	19 00       	sub.w	r0,r0
    117a:	05 02       	xorc	#0x2,ccr
    117c:	00 ff       	.word	H'0,H'ff
    117e:	d1 22       	xor.b	#0x22,r1h
    1180:	18 00       	sub.b	r0h,r0h
    1182:	05 02       	xorc	#0x2,ccr
    1184:	00 ff       	.word	H'0,H'ff
    1186:	d1 32       	xor.b	#0x32,r1h
    1188:	19 00       	sub.w	r0,r0
    118a:	05 02       	xorc	#0x2,ccr
    118c:	00 ff       	.word	H'0,H'ff
    118e:	d1 42       	xor.b	#0x42,r1h
    1190:	1a 00       	dec.b	r0h
    1192:	05 02       	xorc	#0x2,ccr
    1194:	00 ff       	.word	H'0,H'ff
    1196:	d1 4e       	xor.b	#0x4e,r1h
    1198:	19 00       	sub.w	r0,r0
    119a:	05 02       	xorc	#0x2,ccr
    119c:	00 ff       	.word	H'0,H'ff
    119e:	d1 52       	xor.b	#0x52,r1h
    11a0:	18 00       	sub.b	r0h,r0h
    11a2:	05 02       	xorc	#0x2,ccr
    11a4:	00 ff       	.word	H'0,H'ff
    11a6:	d1 56       	xor.b	#0x56,r1h
    11a8:	18 00       	sub.b	r0h,r0h
    11aa:	05 02       	xorc	#0x2,ccr
    11ac:	00 ff       	.word	H'0,H'ff
    11ae:	d1 5c       	xor.b	#0x5c,r1h
    11b0:	18 00       	sub.b	r0h,r0h
    11b2:	05 02       	xorc	#0x2,ccr
    11b4:	00 ff       	.word	H'0,H'ff
    11b6:	d1 6c       	xor.b	#0x6c,r1h
    11b8:	19 00       	sub.w	r0,r0
    11ba:	05 02       	xorc	#0x2,ccr
    11bc:	00 ff       	.word	H'0,H'ff
    11be:	d1 7c       	xor.b	#0x7c,r1h
    11c0:	00 01       	.word	H'0,H'1
    11c2:	01        	.word	H'1,H'0

000011c3 <.Ldebug_line0>:
    11c3:	00 00       	nop	
    11c5:	01 5d 00 04 	mov.w	#0x4,@er0
    11c9:	00 00       	nop	
    11cb:	00 43       	.word	H'0,H'43
    11cd:	01 01       	.word	H'1,H'1
    11cf:	01 f6       	.word	H'1,H'f6
    11d1:	f2 0d       	mov.b	#0xd,r2h
    11d3:	00 01       	.word	H'0,H'1
    11d5:	01 01       	.word	H'1,H'1
    11d7:	01 00       	.word	H'1,H'0
    11d9:	00 00       	nop	
    11db:	01 00       	.word	H'1,H'0
    11dd:	00 01       	.word	H'0,H'1
    11df:	00 6d       	.word	H'0,H'6d
    11e1:	65 6d       	xor.w	r6,e5
    11e3:	6f 72 79 2e 	mov.w	@(0x792e:16,er7),r2
    11e7:	63 00       	btst	r0h,r0h
    11e9:	00 00       	nop	
    11eb:	00 69       	.word	H'0,H'69
    11ed:	6e 74 65 72 	mov.b	@(0x6572:16,er7),r4h
    11f1:	72 75       	bclr	#0x7,r5h
    11f3:	70 74       	bset	#0x7,r4h
    11f5:	2e 68       	mov.b	@0x68:8,r6l
    11f7:	00 00       	nop	
    11f9:	00 00       	nop	
    11fb:	6b 6f       	.word	H'6b,H'6f
    11fd:	7a 6f 73 2e 	and.l	#0x732e,er7
    1201:	68 00       	mov.b	@er0,r0h
    1203:	00 00       	nop	
    1205:	00 6c       	.word	H'0,H'6c
    1207:	69 62       	mov.w	@er6,r2
    1209:	2e 68       	mov.b	@0x68:8,r6l
    120b:	00 00       	nop	
    120d:	00 00       	nop	
    120f:	00 00       	nop	
    1211:	05 02       	xorc	#0x2,ccr
    1213:	00 ff       	.word	H'0,H'ff
    1215:	d1 7c       	xor.b	#0x7c,r1h
    1217:	4e 00       	bgt	.0 (0x1219)
    1219:	05 02       	xorc	#0x2,ccr
    121b:	00 ff       	.word	H'0,H'ff
    121d:	d1 9c       	xor.b	#0x9c,r1h
    121f:	19 00       	sub.w	r0,r0
    1221:	05 02       	xorc	#0x2,ccr
    1223:	00 ff       	.word	H'0,H'ff
    1225:	d1 9e       	xor.b	#0x9e,r1h
    1227:	00 02       	.word	H'0,H'2
    1229:	04 03       	orc	#0x3,ccr
    122b:	03 6c       	ldc	er4,vbr
    122d:	01 00       	.word	H'1,H'0
    122f:	05 02       	xorc	#0x2,ccr
    1231:	00 ff       	.word	H'0,H'ff
    1233:	d1 aa       	xor.b	#0xaa,r1h
    1235:	1b 00       	subs	#1,er0
    1237:	05 02       	xorc	#0x2,ccr
    1239:	00 ff       	.word	H'0,H'ff
    123b:	d1 b2       	xor.b	#0xb2,r1h
    123d:	00 02       	.word	H'0,H'2
    123f:	04 00       	orc	#0x0,ccr
    1241:	18 00       	sub.b	r0h,r0h
    1243:	05 02       	xorc	#0x2,ccr
    1245:	00 ff       	.word	H'0,H'ff
    1247:	d1 b6       	xor.b	#0xb6,r1h
    1249:	18 00       	sub.b	r0h,r0h
    124b:	05 02       	xorc	#0x2,ccr
    124d:	00 ff       	.word	H'0,H'ff
    124f:	d1 c8       	xor.b	#0xc8,r1h
    1251:	18 00       	sub.b	r0h,r0h
    1253:	05 02       	xorc	#0x2,ccr
    1255:	00 ff       	.word	H'0,H'ff
    1257:	d1 ce       	xor.b	#0xce,r1h
    1259:	18 00       	sub.b	r0h,r0h
    125b:	05 02       	xorc	#0x2,ccr
    125d:	00 ff       	.word	H'0,H'ff
    125f:	d1 d0       	xor.b	#0xd0,r1h
    1261:	18 00       	sub.b	r0h,r0h
    1263:	05 02       	xorc	#0x2,ccr
    1265:	00 ff       	.word	H'0,H'ff
    1267:	d1 d4       	xor.b	#0xd4,r1h
    1269:	18 00       	sub.b	r0h,r0h
    126b:	05 02       	xorc	#0x2,ccr
    126d:	00 ff       	.word	H'0,H'ff
    126f:	d1 e6       	xor.b	#0xe6,r1h
    1271:	11 00       	shlr.b	r0h
    1273:	05 02       	xorc	#0x2,ccr
    1275:	00 ff       	.word	H'0,H'ff
    1277:	d2 08       	xor.b	#0x8,r2h
    1279:	00 02       	.word	H'0,H'2
    127b:	04 01       	orc	#0x1,ccr
    127d:	27 00       	mov.b	@0x0:8,r7h
    127f:	05 02       	xorc	#0x2,ccr
    1281:	00 ff       	.word	H'0,H'ff
    1283:	d2 10       	xor.b	#0x10,r2h
    1285:	00 02       	.word	H'0,H'2
    1287:	04 00       	orc	#0x0,ccr
    1289:	1b 00       	subs	#1,er0
    128b:	05 02       	xorc	#0x2,ccr
    128d:	00 ff       	.word	H'0,H'ff
    128f:	d2 24       	xor.b	#0x24,r2h
    1291:	1b 00       	subs	#1,er0
    1293:	05 02       	xorc	#0x2,ccr
    1295:	00 ff       	.word	H'0,H'ff
    1297:	d2 2a       	xor.b	#0x2a,r2h
    1299:	1e 00       	subx	r0h,r0h
    129b:	05 02       	xorc	#0x2,ccr
    129d:	00 ff       	.word	H'0,H'ff
    129f:	d2 60       	xor.b	#0x60,r2h
    12a1:	15 00       	xor.b	r0h,r0h
    12a3:	05 02       	xorc	#0x2,ccr
    12a5:	00 ff       	.word	H'0,H'ff
    12a7:	d2 6e       	xor.b	#0x6e,r2h
    12a9:	1a 00       	dec.b	r0h
    12ab:	05 02       	xorc	#0x2,ccr
    12ad:	00 ff       	.word	H'0,H'ff
    12af:	d2 80       	xor.b	#0x80,r2h
    12b1:	18 00       	sub.b	r0h,r0h
    12b3:	05 02       	xorc	#0x2,ccr
    12b5:	00 ff       	.word	H'0,H'ff
    12b7:	d2 84       	xor.b	#0x84,r2h
    12b9:	18 00       	sub.b	r0h,r0h
    12bb:	05 02       	xorc	#0x2,ccr
    12bd:	00 ff       	.word	H'0,H'ff
    12bf:	d2 88       	xor.b	#0x88,r2h
    12c1:	1b 00       	subs	#1,er0
    12c3:	05 02       	xorc	#0x2,ccr
    12c5:	00 ff       	.word	H'0,H'ff
    12c7:	d2 90       	xor.b	#0x90,r2h
    12c9:	18 00       	sub.b	r0h,r0h
    12cb:	05 02       	xorc	#0x2,ccr
    12cd:	00 ff       	.word	H'0,H'ff
    12cf:	d2 96       	xor.b	#0x96,r2h
    12d1:	1d 00       	cmp.w	r0,r0
    12d3:	05 02       	xorc	#0x2,ccr
    12d5:	00 ff       	.word	H'0,H'ff
    12d7:	d2 9a       	xor.b	#0x9a,r2h
    12d9:	1e 00       	subx	r0h,r0h
    12db:	05 02       	xorc	#0x2,ccr
    12dd:	00 ff       	.word	H'0,H'ff
    12df:	d2 a0       	xor.b	#0xa0,r2h
    12e1:	1b 00       	subs	#1,er0
    12e3:	05 02       	xorc	#0x2,ccr
    12e5:	00 ff       	.word	H'0,H'ff
    12e7:	d2 aa       	xor.b	#0xaa,r2h
    12e9:	21 00       	mov.b	@0x0:8,r1h
    12eb:	05 02       	xorc	#0x2,ccr
    12ed:	00 ff       	.word	H'0,H'ff
    12ef:	d2 d0       	xor.b	#0xd0,r2h
    12f1:	1f 00       	das	r0h
    12f3:	05 02       	xorc	#0x2,ccr
    12f5:	00 ff       	.word	H'0,H'ff
    12f7:	d2 d6       	xor.b	#0xd6,r2h
    12f9:	0d 00       	mov.w	r0,r0
    12fb:	05 02       	xorc	#0x2,ccr
    12fd:	00 ff       	.word	H'0,H'ff
    12ff:	d2 e4       	xor.b	#0xe4,r2h
    1301:	1b 00       	subs	#1,er0
    1303:	05 02       	xorc	#0x2,ccr
    1305:	00 ff       	.word	H'0,H'ff
    1307:	d2 fa       	xor.b	#0xfa,r2h
    1309:	11 00       	shlr.b	r0h
    130b:	05 02       	xorc	#0x2,ccr
    130d:	00 ff       	.word	H'0,H'ff
    130f:	d2 fe       	xor.b	#0xfe,r2h
    1311:	1e 00       	subx	r0h,r0h
    1313:	05 02       	xorc	#0x2,ccr
    1315:	00 ff       	.word	H'0,H'ff
    1317:	d3 02       	xor.b	#0x2,r3h
    1319:	1d 00       	cmp.w	r0,r0
    131b:	05 02       	xorc	#0x2,ccr
    131d:	00 ff       	.word	H'0,H'ff
    131f:	d3 0c       	xor.b	#0xc,r3h
    1321:	00 01       	.word	H'0,H'1
    1323:	01        	.word	H'1,H'0

00001324 <.Ldebug_line0>:
    1324:	00 00       	nop	
    1326:	02 95       	.word	H'2,H'95
    1328:	00 04       	.word	H'0,H'4
    132a:	00 00       	nop	
    132c:	00 5d       	.word	H'0,H'5d
    132e:	01 01       	.word	H'1,H'1
    1330:	01 f6       	.word	H'1,H'f6
    1332:	f2 0d       	mov.b	#0xd,r2h
    1334:	00 01       	.word	H'0,H'1
    1336:	01 01       	.word	H'1,H'1
    1338:	01 00       	.word	H'1,H'0
    133a:	00 00       	nop	
    133c:	01 00       	.word	H'1,H'0
    133e:	00 01       	.word	H'0,H'1
    1340:	00 63       	.word	H'0,H'63
    1342:	6f 6e 73 64 	mov.w	@(0x7364:16,er6),e6
    1346:	72 76       	bclr	#0x7,r6h
    1348:	2e 63       	mov.b	@0x63:8,r6l
    134a:	00 00       	nop	
    134c:	00 00       	nop	
    134e:	64 65       	or.w	r6,r5
    1350:	66 69       	and.w	r6,e1
    1352:	6e 65 73 2e 	mov.b	@(0x732e:16,er6),r5h
    1356:	68 00       	mov.b	@er0,r0h
    1358:	00 00       	nop	
    135a:	00 6c       	.word	H'0,H'6c
    135c:	69 62       	mov.w	@er6,r2
    135e:	2e 68       	mov.b	@0x68:8,r6l
    1360:	00 00       	nop	
    1362:	00 00       	nop	
    1364:	6b 6f       	.word	H'6b,H'6f
    1366:	7a 6f 73 2e 	and.l	#0x732e,er7
    136a:	68 00       	mov.b	@er0,r0h
    136c:	00 00       	nop	
    136e:	00 73       	.word	H'0,H'73
    1370:	65 72       	xor.w	r7,r2
    1372:	69 61       	mov.w	@er6,r1
    1374:	6c 2e       	mov.b	@er2+,r6l
    1376:	68 00       	mov.b	@er0,r0h
    1378:	00 00       	nop	
    137a:	00 69       	.word	H'0,H'69
    137c:	6e 74 65 72 	mov.b	@(0x6572:16,er7),r4h
    1380:	72 75       	bclr	#0x7,r5h
    1382:	70 74       	bset	#0x7,r4h
    1384:	2e 68       	mov.b	@0x68:8,r6l
    1386:	00 00       	nop	
    1388:	00 00       	nop	
    138a:	00 00       	nop	
    138c:	05 02       	xorc	#0x2,ccr
    138e:	00 ff       	.word	H'0,H'ff
    1390:	d3 0c       	xor.b	#0xc,r3h
    1392:	36 00       	mov.b	r6h,@0x0:8
    1394:	05 02       	xorc	#0x2,ccr
    1396:	00 ff       	.word	H'0,H'ff
    1398:	d3 18       	xor.b	#0x18,r3h
    139a:	19 00       	sub.w	r0,r0
    139c:	05 02       	xorc	#0x2,ccr
    139e:	00 ff       	.word	H'0,H'ff
    13a0:	d3 28       	xor.b	#0x28,r3h
    13a2:	18 00       	sub.b	r0h,r0h
    13a4:	05 02       	xorc	#0x2,ccr
    13a6:	00 ff       	.word	H'0,H'ff
    13a8:	d3 32       	xor.b	#0x32,r3h
    13aa:	19 00       	sub.w	r0,r0
    13ac:	05 02       	xorc	#0x2,ccr
    13ae:	00 ff       	.word	H'0,H'ff
    13b0:	d3 36       	xor.b	#0x36,r3h
    13b2:	00 02       	.word	H'0,H'2
    13b4:	04 03       	orc	#0x3,ccr
    13b6:	18 00       	sub.b	r0h,r0h
    13b8:	05 02       	xorc	#0x2,ccr
    13ba:	00 ff       	.word	H'0,H'ff
    13bc:	d3 4c       	xor.b	#0x4c,r3h
    13be:	00 02       	.word	H'0,H'2
    13c0:	04 01       	orc	#0x1,ccr
    13c2:	16 00       	and.b	r0h,r0h
    13c4:	05 02       	xorc	#0x2,ccr
    13c6:	00 ff       	.word	H'0,H'ff
    13c8:	d3 54       	xor.b	#0x54,r3h
    13ca:	00 02       	.word	H'0,H'2
    13cc:	04 00       	orc	#0x0,ccr
    13ce:	19 00       	sub.w	r0,r0
    13d0:	05 02       	xorc	#0x2,ccr
    13d2:	00 ff       	.word	H'0,H'ff
    13d4:	d3 5e       	xor.b	#0x5e,r3h
    13d6:	1b 00       	subs	#1,er0
    13d8:	05 02       	xorc	#0x2,ccr
    13da:	00 ff       	.word	H'0,H'ff
    13dc:	d3 70       	xor.b	#0x70,r3h
    13de:	19 00       	sub.w	r0,r0
    13e0:	05 02       	xorc	#0x2,ccr
    13e2:	00 ff       	.word	H'0,H'ff
    13e4:	d3 74       	xor.b	#0x74,r3h
    13e6:	18 00       	sub.b	r0h,r0h
    13e8:	05 02       	xorc	#0x2,ccr
    13ea:	00 ff       	.word	H'0,H'ff
    13ec:	d3 7a       	xor.b	#0x7a,r3h
    13ee:	18 00       	sub.b	r0h,r0h
    13f0:	05 02       	xorc	#0x2,ccr
    13f2:	00 ff       	.word	H'0,H'ff
    13f4:	d3 90       	xor.b	#0x90,r3h
    13f6:	00 02       	.word	H'0,H'2
    13f8:	04 02       	orc	#0x2,ccr
    13fa:	18 00       	sub.b	r0h,r0h
    13fc:	05 02       	xorc	#0x2,ccr
    13fe:	00 ff       	.word	H'0,H'ff
    1400:	d3 b2       	xor.b	#0xb2,r3h
    1402:	14 00       	or.b	r0h,r0h
    1404:	05 02       	xorc	#0x2,ccr
    1406:	00 ff       	.word	H'0,H'ff
    1408:	d3 b8       	xor.b	#0xb8,r3h
    140a:	00 02       	.word	H'0,H'2
    140c:	04 01       	orc	#0x1,ccr
    140e:	06 01       	andc	#0x1,ccr
    1410:	00 05       	.word	H'0,H'5
    1412:	02 00       	stc	ccr,r0h
    1414:	ff d3       	mov.b	#0xd3,r7l
    1416:	bc 00       	subx	#0x0,r4l
    1418:	02 04       	stc	ccr,r4h
    141a:	00 06       	.word	H'0,H'6
    141c:	21 00       	mov.b	@0x0:8,r1h
    141e:	05 02       	xorc	#0x2,ccr
    1420:	00 ff       	.word	H'0,H'ff
    1422:	d3 c0       	xor.b	#0xc0,r3h
    1424:	00 02       	.word	H'0,H'2
    1426:	04 01       	orc	#0x1,ccr
    1428:	06 01       	andc	#0x1,ccr
    142a:	00 05       	.word	H'0,H'5
    142c:	02 00       	stc	ccr,r0h
    142e:	ff d3       	mov.b	#0xd3,r7l
    1430:	cc 00       	or.b	#0x0,r4l
    1432:	02 04       	stc	ccr,r4h
    1434:	00 06       	.word	H'0,H'6
    1436:	18 00       	sub.b	r0h,r0h
    1438:	05 02       	xorc	#0x2,ccr
    143a:	00 ff       	.word	H'0,H'ff
    143c:	d3 d4       	xor.b	#0xd4,r3h
    143e:	18 00       	sub.b	r0h,r0h
    1440:	05 02       	xorc	#0x2,ccr
    1442:	00 ff       	.word	H'0,H'ff
    1444:	d3 da       	xor.b	#0xda,r3h
    1446:	19 00       	sub.w	r0,r0
    1448:	05 02       	xorc	#0x2,ccr
    144a:	00 ff       	.word	H'0,H'ff
    144c:	d3 ea       	xor.b	#0xea,r3h
    144e:	50 00       	mulxu.b	r0h,r0
    1450:	05 02       	xorc	#0x2,ccr
    1452:	00 ff       	.word	H'0,H'ff
    1454:	d3 fa       	xor.b	#0xfa,r3h
    1456:	1d 00       	cmp.w	r0,r0
    1458:	05 02       	xorc	#0x2,ccr
    145a:	00 ff       	.word	H'0,H'ff
    145c:	d4 08       	xor.b	#0x8,r4h
    145e:	18 00       	sub.b	r0h,r0h
    1460:	05 02       	xorc	#0x2,ccr
    1462:	00 ff       	.word	H'0,H'ff
    1464:	d4 16       	xor.b	#0x16,r4h
    1466:	03 51       	.word	H'3,H'51
    1468:	01 00       	.word	H'1,H'0
    146a:	05 02       	xorc	#0x2,ccr
    146c:	00 ff       	.word	H'0,H'ff
    146e:	d4 28       	xor.b	#0x28,r4h
    1470:	00 02       	.word	H'0,H'2
    1472:	04 01       	orc	#0x1,ccr
    1474:	47 00       	beq	.0 (0x1476)
    1476:	05 02       	xorc	#0x2,ccr
    1478:	00 ff       	.word	H'0,H'ff
    147a:	d4 32       	xor.b	#0x32,r4h
    147c:	16 00       	and.b	r0h,r0h
    147e:	05 02       	xorc	#0x2,ccr
    1480:	00 ff       	.word	H'0,H'ff
    1482:	d4 3a       	xor.b	#0x3a,r4h
    1484:	00 02       	.word	H'0,H'2
    1486:	04 00       	orc	#0x0,ccr
    1488:	03 52       	.word	H'3,H'52
    148a:	01 00       	.word	H'1,H'0
    148c:	05 02       	xorc	#0x2,ccr
    148e:	00 ff       	.word	H'0,H'ff
    1490:	d4 44       	xor.b	#0x44,r4h
    1492:	18 00       	sub.b	r0h,r0h
    1494:	05 02       	xorc	#0x2,ccr
    1496:	00 ff       	.word	H'0,H'ff
    1498:	d4 48       	xor.b	#0x48,r4h
    149a:	16 00       	and.b	r0h,r0h
    149c:	05 02       	xorc	#0x2,ccr
    149e:	00 ff       	.word	H'0,H'ff
    14a0:	d4 4e       	xor.b	#0x4e,r4h
    14a2:	19 00       	sub.w	r0,r0
    14a4:	05 02       	xorc	#0x2,ccr
    14a6:	00 ff       	.word	H'0,H'ff
    14a8:	d4 54       	xor.b	#0x54,r4h
    14aa:	19 00       	sub.w	r0,r0
    14ac:	05 02       	xorc	#0x2,ccr
    14ae:	00 ff       	.word	H'0,H'ff
    14b0:	d4 6a       	xor.b	#0x6a,r4h
    14b2:	19 00       	sub.w	r0,r0
    14b4:	05 02       	xorc	#0x2,ccr
    14b6:	00 ff       	.word	H'0,H'ff
    14b8:	d4 70       	xor.b	#0x70,r4h
    14ba:	18 00       	sub.b	r0h,r0h
    14bc:	05 02       	xorc	#0x2,ccr
    14be:	00 ff       	.word	H'0,H'ff
    14c0:	d4 78       	xor.b	#0x78,r4h
    14c2:	19 00       	sub.w	r0,r0
    14c4:	05 02       	xorc	#0x2,ccr
    14c6:	00 ff       	.word	H'0,H'ff
    14c8:	d4 98       	xor.b	#0x98,r4h
    14ca:	1e 00       	subx	r0h,r0h
    14cc:	05 02       	xorc	#0x2,ccr
    14ce:	00 ff       	.word	H'0,H'ff
    14d0:	d4 a2       	xor.b	#0xa2,r4h
    14d2:	18 00       	sub.b	r0h,r0h
    14d4:	05 02       	xorc	#0x2,ccr
    14d6:	00 ff       	.word	H'0,H'ff
    14d8:	d4 b6       	xor.b	#0xb6,r4h
    14da:	18 00       	sub.b	r0h,r0h
    14dc:	05 02       	xorc	#0x2,ccr
    14de:	00 ff       	.word	H'0,H'ff
    14e0:	d4 c4       	xor.b	#0xc4,r4h
    14e2:	18 00       	sub.b	r0h,r0h
    14e4:	05 02       	xorc	#0x2,ccr
    14e6:	00 ff       	.word	H'0,H'ff
    14e8:	d4 cc       	xor.b	#0xcc,r4h
    14ea:	1c 00       	cmp.b	r0h,r0h
    14ec:	05 02       	xorc	#0x2,ccr
    14ee:	00 ff       	.word	H'0,H'ff
    14f0:	d4 da       	xor.b	#0xda,r4h
    14f2:	18 00       	sub.b	r0h,r0h
    14f4:	05 02       	xorc	#0x2,ccr
    14f6:	00 ff       	.word	H'0,H'ff
    14f8:	d4 e8       	xor.b	#0xe8,r4h
    14fa:	19 00       	sub.w	r0,r0
    14fc:	05 02       	xorc	#0x2,ccr
    14fe:	00 ff       	.word	H'0,H'ff
    1500:	d4 f4       	xor.b	#0xf4,r4h
    1502:	1a 00       	dec.b	r0h
    1504:	05 02       	xorc	#0x2,ccr
    1506:	00 ff       	.word	H'0,H'ff
    1508:	d4 fe       	xor.b	#0xfe,r4h
    150a:	2d 00       	mov.b	@0x0:8,r5l
    150c:	05 02       	xorc	#0x2,ccr
    150e:	00 ff       	.word	H'0,H'ff
    1510:	d5 0e       	xor.b	#0xe,r5h
    1512:	41 00       	brn	.0 (0x1514)
    1514:	05 02       	xorc	#0x2,ccr
    1516:	00 ff       	.word	H'0,H'ff
    1518:	d5 1a       	xor.b	#0x1a,r5h
    151a:	03 5a       	.word	H'3,H'5a
    151c:	01 00       	.word	H'1,H'0
    151e:	05 02       	xorc	#0x2,ccr
    1520:	00 ff       	.word	H'0,H'ff
    1522:	d5 2a       	xor.b	#0x2a,r5h
    1524:	43 00       	bls	.0 (0x1526)
    1526:	05 02       	xorc	#0x2,ccr
    1528:	00 ff       	.word	H'0,H'ff
    152a:	d5 38       	xor.b	#0x38,r5h
    152c:	00 02       	.word	H'0,H'2
    152e:	04 01       	orc	#0x1,ccr
    1530:	1a 00       	dec.b	r0h
    1532:	05 02       	xorc	#0x2,ccr
    1534:	00 ff       	.word	H'0,H'ff
    1536:	d5 46       	xor.b	#0x46,r5h
    1538:	18 00       	sub.b	r0h,r0h
    153a:	05 02       	xorc	#0x2,ccr
    153c:	00 ff       	.word	H'0,H'ff
    153e:	d5 52       	xor.b	#0x52,r5h
    1540:	03 58       	.word	H'3,H'58
    1542:	01 00       	.word	H'1,H'0
    1544:	05 02       	xorc	#0x2,ccr
    1546:	00 ff       	.word	H'0,H'ff
    1548:	d5 62       	xor.b	#0x62,r5h
    154a:	00 02       	.word	H'0,H'2
    154c:	04 00       	orc	#0x0,ccr
    154e:	19 00       	sub.w	r0,r0
    1550:	05 02       	xorc	#0x2,ccr
    1552:	00 ff       	.word	H'0,H'ff
    1554:	d5 78       	xor.b	#0x78,r5h
    1556:	18 00       	sub.b	r0h,r0h
    1558:	05 02       	xorc	#0x2,ccr
    155a:	00 ff       	.word	H'0,H'ff
    155c:	d5 88       	xor.b	#0x88,r5h
    155e:	18 00       	sub.b	r0h,r0h
    1560:	05 02       	xorc	#0x2,ccr
    1562:	00 ff       	.word	H'0,H'ff
    1564:	d5 9c       	xor.b	#0x9c,r5h
    1566:	18 00       	sub.b	r0h,r0h
    1568:	05 02       	xorc	#0x2,ccr
    156a:	00 ff       	.word	H'0,H'ff
    156c:	d5 aa       	xor.b	#0xaa,r5h
    156e:	18 00       	sub.b	r0h,r0h
    1570:	05 02       	xorc	#0x2,ccr
    1572:	00 ff       	.word	H'0,H'ff
    1574:	d5 b6       	xor.b	#0xb6,r5h
    1576:	19 00       	sub.w	r0,r0
    1578:	05 02       	xorc	#0x2,ccr
    157a:	00 ff       	.word	H'0,H'ff
    157c:	d5 c2       	xor.b	#0xc2,r5h
    157e:	18 00       	sub.b	r0h,r0h
    1580:	05 02       	xorc	#0x2,ccr
    1582:	00 ff       	.word	H'0,H'ff
    1584:	d5 d0       	xor.b	#0xd0,r5h
    1586:	37 00       	mov.b	r7h,@0x0:8
    1588:	05 02       	xorc	#0x2,ccr
    158a:	00 ff       	.word	H'0,H'ff
    158c:	d5 d4       	xor.b	#0xd4,r5h
    158e:	03 68       	ldc	er0,vbr
    1590:	01 00       	.word	H'1,H'0
    1592:	05 02       	xorc	#0x2,ccr
    1594:	00 ff       	.word	H'0,H'ff
    1596:	d5 d6       	xor.b	#0xd6,r5h
    1598:	2f 00       	mov.b	@0x0:8,r7l
    159a:	05 02       	xorc	#0x2,ccr
    159c:	00 ff       	.word	H'0,H'ff
    159e:	d5 e2       	xor.b	#0xe2,r5h
    15a0:	03 69       	ldc	er1,vbr
    15a2:	01 00       	.word	H'1,H'0
    15a4:	05 02       	xorc	#0x2,ccr
    15a6:	00 ff       	.word	H'0,H'ff
    15a8:	d5 f0       	xor.b	#0xf0,r5h
    15aa:	18 00       	sub.b	r0h,r0h
    15ac:	05 02       	xorc	#0x2,ccr
    15ae:	00 ff       	.word	H'0,H'ff
    15b0:	d5 f2       	xor.b	#0xf2,r5h
    15b2:	2e 00       	mov.b	@0x0:8,r6l
    15b4:	05 02       	xorc	#0x2,ccr
    15b6:	00 ff       	.word	H'0,H'ff
    15b8:	d5 fe       	xor.b	#0xfe,r5h
    15ba:	00 01       	.word	H'0,H'1
    15bc:	01        	.word	H'1,H'0

000015bd <.Ldebug_line0>:
    15bd:	00 00       	nop	
    15bf:	01 a8       	.word	H'1,H'a8
    15c1:	00 04       	.word	H'0,H'4
    15c3:	00 00       	nop	
    15c5:	00 5c       	.word	H'0,H'5c
    15c7:	01 01       	.word	H'1,H'1
    15c9:	01 f6       	.word	H'1,H'f6
    15cb:	f2 0d       	mov.b	#0xd,r2h
    15cd:	00 01       	.word	H'0,H'1
    15cf:	01 01       	.word	H'1,H'1
    15d1:	01 00       	.word	H'1,H'0
    15d3:	00 00       	nop	
    15d5:	01 00       	.word	H'1,H'0
    15d7:	00 01       	.word	H'0,H'1
    15d9:	00 63       	.word	H'0,H'63
    15db:	6f 6d 6d 61 	mov.w	@(0x6d61:16,er6),e5
    15df:	6e 64 2e 63 	mov.b	@(0x2e63:16,er6),r4h
    15e3:	00 00       	nop	
    15e5:	00 00       	nop	
    15e7:	6b 6f       	.word	H'6b,H'6f
    15e9:	7a 6f 73 2e 	and.l	#0x732e,er7
    15ed:	68 00       	mov.b	@er0,r0h
    15ef:	00 00       	nop	
    15f1:	00 6c       	.word	H'0,H'6c
    15f3:	69 62       	mov.w	@er6,r2
    15f5:	2e 68       	mov.b	@0x68:8,r6l
    15f7:	00 00       	nop	
    15f9:	00 00       	nop	
    15fb:	69 6e       	mov.w	@er6,e6
    15fd:	74 65       	bor	#0x6,r5h
    15ff:	72 72       	bclr	#0x7,r2h
    1601:	75 70       	bxor	#0x7,r0h
    1603:	74 2e       	bor	#0x2,r6l
    1605:	68 00       	mov.b	@er0,r0h
    1607:	00 00       	nop	
    1609:	00 74       	.word	H'0,H'74
    160b:	69 6d       	mov.w	@er6,e5
    160d:	65 72       	xor.w	r7,r2
    160f:	2e 68       	mov.b	@0x68:8,r6l
    1611:	00 00       	nop	
    1613:	00 00       	nop	
    1615:	64 65       	or.w	r6,r5
    1617:	66 69       	and.w	r6,e1
    1619:	6e 65 73 2e 	mov.b	@(0x732e:16,er6),r5h
    161d:	68 00       	mov.b	@er0,r0h
    161f:	00 00       	nop	
    1621:	00 00       	nop	
    1623:	00 05       	.word	H'0,H'5
    1625:	02 00       	stc	ccr,r0h
    1627:	ff d5       	mov.b	#0xd5,r7l
    1629:	fe 2e       	mov.b	#0x2e,r6l
    162b:	00 05       	.word	H'0,H'5
    162d:	02 00       	stc	ccr,r0h
    162f:	ff d6       	mov.b	#0xd6,r7l
    1631:	12 1a       	rotxl.w	e2
    1633:	00 05       	.word	H'0,H'5
    1635:	02 00       	stc	ccr,r0h
    1637:	ff d6       	mov.b	#0xd6,r7l
    1639:	1e 18       	subx	r1h,r0l
    163b:	00 05       	.word	H'0,H'5
    163d:	02 00       	stc	ccr,r0h
    163f:	ff d6       	mov.b	#0xd6,r7l
    1641:	30 18       	mov.b	r0h,@0x18:8
    1643:	00 05       	.word	H'0,H'5
    1645:	02 00       	stc	ccr,r0h
    1647:	ff d6       	mov.b	#0xd6,r7l
    1649:	34 18       	mov.b	r4h,@0x18:8
    164b:	00 05       	.word	H'0,H'5
    164d:	02 00       	stc	ccr,r0h
    164f:	ff d6       	mov.b	#0xd6,r7l
    1651:	3a 18       	mov.b	r2l,@0x18:8
    1653:	00 05       	.word	H'0,H'5
    1655:	02 00       	stc	ccr,r0h
    1657:	ff d6       	mov.b	#0xd6,r7l
    1659:	4e 18       	bgt	.+24 (0x1673)
    165b:	00 05       	.word	H'0,H'5
    165d:	02 00       	stc	ccr,r0h
    165f:	ff d6       	mov.b	#0xd6,r7l
    1661:	5a 18 00 05 	jmp	@0x180005:24
    1665:	02 00       	stc	ccr,r0h
    1667:	ff d6       	mov.b	#0xd6,r7l
    1669:	6c 1a       	mov.b	@er1+,r2l
    166b:	00 05       	.word	H'0,H'5
    166d:	02 00       	stc	ccr,r0h
    166f:	ff d6       	mov.b	#0xd6,r7l
    1671:	72 18       	bclr	#0x1,r0l
    1673:	00 05       	.word	H'0,H'5
    1675:	02 00       	stc	ccr,r0h
    1677:	ff d6       	mov.b	#0xd6,r7l
    1679:	7c 18       	.word	H'7c,H'18
    167b:	00 05       	.word	H'0,H'5
    167d:	02 00       	stc	ccr,r0h
    167f:	ff d6       	mov.b	#0xd6,r7l
    1681:	86 18       	add.b	#0x18,r6h
    1683:	00 05       	.word	H'0,H'5
    1685:	02 00       	stc	ccr,r0h
    1687:	ff d6       	mov.b	#0xd6,r7l
    1689:	8c 19       	add.b	#0x19,r4l
    168b:	00 05       	.word	H'0,H'5
    168d:	02 00       	stc	ccr,r0h
    168f:	ff d6       	mov.b	#0xd6,r7l
    1691:	98 18       	addx	#0x18,r0l
    1693:	00 05       	.word	H'0,H'5
    1695:	02 00       	stc	ccr,r0h
    1697:	ff d6       	mov.b	#0xd6,r7l
    1699:	a2 18       	cmp.b	#0x18,r2h
    169b:	00 05       	.word	H'0,H'5
    169d:	02 00       	stc	ccr,r0h
    169f:	ff d6       	mov.b	#0xd6,r7l
    16a1:	aa 19       	cmp.b	#0x19,r2l
    16a3:	00 05       	.word	H'0,H'5
    16a5:	02 00       	stc	ccr,r0h
    16a7:	ff d6       	mov.b	#0xd6,r7l
    16a9:	b0 1a       	subx	#0x1a,r0h
    16ab:	00 05       	.word	H'0,H'5
    16ad:	02 00       	stc	ccr,r0h
    16af:	ff d6       	mov.b	#0xd6,r7l
    16b1:	bc 03       	subx	#0x3,r4l
    16b3:	5f 01       	jsr	@@1 (0x1)
    16b5:	00 05       	.word	H'0,H'5
    16b7:	02 00       	stc	ccr,r0h
    16b9:	ff d6       	mov.b	#0xd6,r7l
    16bb:	c6 18       	or.b	#0x18,r6h
    16bd:	00 05       	.word	H'0,H'5
    16bf:	02 00       	stc	ccr,r0h
    16c1:	ff d6       	mov.b	#0xd6,r7l
    16c3:	ca 18       	or.b	#0x18,r2l
    16c5:	00 05       	.word	H'0,H'5
    16c7:	02 00       	stc	ccr,r0h
    16c9:	ff d6       	mov.b	#0xd6,r7l
    16cb:	d0 18       	xor.b	#0x18,r0h
    16cd:	00 05       	.word	H'0,H'5
    16cf:	02 00       	stc	ccr,r0h
    16d1:	ff d6       	mov.b	#0xd6,r7l
    16d3:	d6 18       	xor.b	#0x18,r6h
    16d5:	00 05       	.word	H'0,H'5
    16d7:	02 00       	stc	ccr,r0h
    16d9:	ff d6       	mov.b	#0xd6,r7l
    16db:	e2 3b       	and.b	#0x3b,r2h
    16dd:	00 05       	.word	H'0,H'5
    16df:	02 00       	stc	ccr,r0h
    16e1:	ff d6       	mov.b	#0xd6,r7l
    16e3:	ec 1a       	and.b	#0x1a,r4l
    16e5:	00 05       	.word	H'0,H'5
    16e7:	02 00       	stc	ccr,r0h
    16e9:	ff d6       	mov.b	#0xd6,r7l
    16eb:	f8 18       	mov.b	#0x18,r0l
    16ed:	00 05       	.word	H'0,H'5
    16ef:	02 00       	stc	ccr,r0h
    16f1:	ff d7       	mov.b	#0xd7,r7l
    16f3:	0a 19       	add.w	#0x1,e1
    16f5:	00 05       	.word	H'0,H'5
    16f7:	02 00       	stc	ccr,r0h
    16f9:	ff d7       	mov.b	#0xd7,r7l
    16fb:	24 18       	mov.b	@0x18:8,r4h
    16fd:	00 05       	.word	H'0,H'5
    16ff:	02 00       	stc	ccr,r0h
    1701:	ff d7       	mov.b	#0xd7,r7l
    1703:	2c 18       	mov.b	@0x18:8,r4l
    1705:	00 05       	.word	H'0,H'5
    1707:	02 00       	stc	ccr,r0h
    1709:	ff d7       	mov.b	#0xd7,r7l
    170b:	34 18       	mov.b	r4h,@0x18:8
    170d:	00 05       	.word	H'0,H'5
    170f:	02 00       	stc	ccr,r0h
    1711:	ff d7       	mov.b	#0xd7,r7l
    1713:	48 18       	bvc	.+24 (0x172d)
    1715:	00 05       	.word	H'0,H'5
    1717:	02 00       	stc	ccr,r0h
    1719:	ff d7       	mov.b	#0xd7,r7l
    171b:	56 18       	.word	H'56,H'18
    171d:	00 05       	.word	H'0,H'5
    171f:	02 00       	stc	ccr,r0h
    1721:	ff d7       	mov.b	#0xd7,r7l
    1723:	60 18       	bset	r1h,r0l
    1725:	00 05       	.word	H'0,H'5
    1727:	02 00       	stc	ccr,r0h
    1729:	ff d7       	mov.b	#0xd7,r7l
    172b:	6a 18       	.word	H'6a,H'18
    172d:	00 05       	.word	H'0,H'5
    172f:	02 00       	stc	ccr,r0h
    1731:	ff d7       	mov.b	#0xd7,r7l
    1733:	78 18       	.word	H'78,H'18
    1735:	00 05       	.word	H'0,H'5
    1737:	02 00       	stc	ccr,r0h
    1739:	ff d7       	mov.b	#0xd7,r7l
    173b:	8e 18       	add.b	#0x18,r6l
    173d:	00 05       	.word	H'0,H'5
    173f:	02 00       	stc	ccr,r0h
    1741:	ff d7       	mov.b	#0xd7,r7l
    1743:	98 18       	addx	#0x18,r0l
    1745:	00 05       	.word	H'0,H'5
    1747:	02 00       	stc	ccr,r0h
    1749:	ff d7       	mov.b	#0xd7,r7l
    174b:	a0 19       	cmp.b	#0x19,r0h
    174d:	00 05       	.word	H'0,H'5
    174f:	02 00       	stc	ccr,r0h
    1751:	ff d7       	mov.b	#0xd7,r7l
    1753:	aa 1a       	cmp.b	#0x1a,r2l
    1755:	00 05       	.word	H'0,H'5
    1757:	02 00       	stc	ccr,r0h
    1759:	ff d7       	mov.b	#0xd7,r7l
    175b:	b2 03       	subx	#0x3,r2h
    175d:	6b 01 00 05 	mov.w	@0x5:16,r1
    1761:	02 00       	stc	ccr,r0h
    1763:	ff d7       	mov.b	#0xd7,r7l
    1765:	b6 00       	subx	#0x0,r6h
    1767:	01 01       	.word	H'1,H'1

Disassembly of section .debug_str:

00000000 <.debug_str>:
   0:	6b 7a       	.word	H'6b,H'7a
   2:	5f 73       	jsr	@@115 (0x73)
   4:	74 61       	bor	#0x6,r1h
   6:	72 74       	bclr	#0x7,r4h
   8:	00 6b       	.word	H'0,H'6b
   a:	7a 5f 63 68 	xor.l	#0x6368,er7
   e:	70 72       	bset	#0x7,r2h
  10:	69 00       	mov.w	@er0,r0
  12:	2f 68       	mov.b	@0x68:8,r7l
  14:	6f 6d 65 00 	mov.w	@(0x6500:16,er6),e5
  18:	75 6e       	bxor	#0x6,r6l
  1a:	73 69       	btst	#0x6,r1l
  1c:	67 6e       	bst	#0x6,r6l
  1e:	65 64       	xor.w	r6,r4
  20:	20 63       	mov.b	@0x63:8,r0h
  22:	68 61       	mov.b	@er6,r1h
  24:	72 00       	bclr	#0x0,r0h
  26:	6c 6f       	mov.b	@er6+,r7l
  28:	6e 67 20 75 	mov.b	@(0x2075:16,er6),r7h
  2c:	6e 73 69 67 	mov.b	@(0x6967:16,er7),r3h
  30:	6e 65 64 20 	mov.b	@(0x6420:16,er6),r5h
  34:	69 6e       	mov.w	@er6,e6
  36:	74 00       	bor	#0x0,r0h
  38:	73 68       	btst	#0x6,r0l
  3a:	6f 72 74 20 	mov.w	@(0x7420:16,er7),r2
  3e:	75 6e       	bxor	#0x6,r6l
  40:	73 69       	btst	#0x6,r1l
  42:	67 6e       	bst	#0x6,r6l
  44:	65 64       	xor.w	r6,r4
  46:	20 69       	mov.b	@0x69:8,r0h
  48:	6e 74 00 47 	mov.b	@(0x47:16,er7),r4h
  4c:	4e 55       	.word	H'4e,H'55
  4e:	20 43       	mov.b	@0x43:8,r0h
  50:	31 31       	mov.b	r1h,@0x31:8
  52:	20 37       	mov.b	@0x37:8,r0h
  54:	2e 33       	mov.b	@0x33:8,r6l
  56:	2e 30       	mov.b	@0x30:8,r6l
  58:	20 2d       	mov.b	@0x2d:8,r0h
  5a:	6d 68       	mov.w	@er6+,e0
  5c:	20 2d       	mov.b	@0x2d:8,r0h
  5e:	67 20       	bst	#0x2,r0h
  60:	2d 4f       	mov.b	@0x4f:8,r5l
  62:	73 20       	btst	#0x2,r0h
  64:	2d 66       	mov.b	@0x66:8,r5l
  66:	6e 6f 2d 62 	mov.b	@(0x2d62:16,er6),r7l
  6a:	75 69       	bxor	#0x6,r1l
  6c:	6c 74       	mov.b	@er7+,r4h
  6e:	69 6e       	mov.w	@er6,e6
  70:	00 61       	.word	H'0,H'61
  72:	72 67       	bclr	#0x6,r7h
  74:	63 00       	btst	r0h,r0h
  76:	6d 61       	mov.w	@er6+,r1
  78:	69 6e       	mov.w	@er6,e6
  7a:	2e 63       	mov.b	@0x63:8,r6l
  7c:	00 73       	.word	H'0,H'73
  7e:	74 61       	bor	#0x6,r1h
  80:	72 74       	bclr	#0x7,r4h
  82:	5f 74       	jsr	@@116 (0x74)
  84:	68 72       	mov.b	@er7,r2h
  86:	65 61       	xor.w	r6,r1
  88:	64 73       	or.w	r7,r3
  8a:	00 73       	.word	H'0,H'73
  8c:	68 6f       	mov.b	@er6,r7l
  8e:	72 74       	bclr	#0x7,r4h
  90:	20 69       	mov.b	@0x69:8,r0h
  92:	6e 74 00 61 	mov.b	@(0x61:16,er7),r4h
  96:	72 67       	bclr	#0x6,r7h
  98:	76 00       	band	#0x0,r0h
  9a:	73 6f       	btst	#0x6,r7l
  9c:	66 74       	and.w	r7,r4
  9e:	76 65       	band	#0x6,r5h
  a0:	63 00       	btst	r0h,r0h
  a2:	70 75       	bset	#0x7,r5h
  a4:	74 73       	bor	#0x7,r3h
  a6:	00 6b       	.word	H'0,H'6b
  a8:	7a 5f 72 75 	xor.l	#0x7275,er7
  ac:	6e 00 69 6e 	mov.b	@(0x696e:16,er0),r0h
  b0:	74 65       	bor	#0x6,r5h
  b2:	72 72       	bclr	#0x7,r2h
  b4:	75 70       	bxor	#0x7,r0h
  b6:	74 00       	bor	#0x0,r0h
  b8:	69 6e       	mov.w	@er6,e6
  ba:	74 65       	bor	#0x6,r5h
  bc:	72 72       	bclr	#0x7,r2h
  be:	75 70       	bxor	#0x7,r0h
  c0:	74 2e       	bor	#0x2,r6l
  c2:	63 00       	btst	r0h,r0h
  c4:	73 6f       	btst	#0x6,r7l
  c6:	66 74       	and.w	r7,r4
  c8:	76 65       	band	#0x6,r5h
  ca:	63 5f       	btst	r5h,r7l
  cc:	74 79       	bor	#0x7,r1l
  ce:	70 65       	bset	#0x6,r5h
  d0:	5f 74       	jsr	@@116 (0x74)
  d2:	00 73       	.word	H'0,H'73
  d4:	6f 66 74 76 	mov.w	@(0x7476:16,er6),r6
  d8:	65 63       	xor.w	r6,r3
  da:	5f 69       	jsr	@@105 (0x69)
  dc:	6e 69 74 00 	mov.b	@(0x7400:16,er6),r1l
  e0:	68 61       	mov.b	@er6,r1h
  e2:	6e 64 6c 65 	mov.b	@(0x6c65:16,er6),r4h
  e6:	72 00       	bclr	#0x0,r0h
  e8:	73 6f       	btst	#0x6,r7l
  ea:	66 74       	and.w	r7,r4
  ec:	76 65       	band	#0x6,r5h
  ee:	63 5f       	btst	r5h,r7l
  f0:	73 65       	btst	#0x6,r5h
  f2:	74 69       	bor	#0x6,r1l
  f4:	6e 74 72 00 	mov.b	@(0x7200:16,er7),r4h
  f8:	74 79       	bor	#0x7,r1l
  fa:	70 65       	bset	#0x6,r5h
  fc:	00 73       	.word	H'0,H'73
  fe:	6f 66 74 76 	mov.w	@(0x7476:16,er6),r6
 102:	65 63       	xor.w	r6,r3
 104:	5f 68       	jsr	@@104 (0x68)
 106:	61 6e       	bnot	r6h,r6l
 108:	64 6c       	or.w	r6,e4
 10a:	65 72       	xor.w	r7,r2
 10c:	5f 74       	jsr	@@116 (0x74)
 10e:	00 76       	.word	H'0,H'76
 110:	61 6c       	bnot	r6h,r4l
 112:	75 65       	bxor	#0x6,r5h
 114:	00 6d       	.word	H'0,H'6d
 116:	65 6d       	xor.w	r6,e5
 118:	73 65       	btst	#0x6,r5h
 11a:	74 00       	bor	#0x0,r0h
 11c:	73 65       	btst	#0x6,r5h
 11e:	72 69       	bclr	#0x6,r1l
 120:	61 6c       	bnot	r6h,r4l
 122:	5f 72       	jsr	@@114 (0x72)
 124:	65 63       	xor.w	r6,r3
 126:	76 5f       	band	#0x5,r7l
 128:	62 79       	bclr	r7h,r1l
 12a:	74 65       	bor	#0x6,r5h
 12c:	00 63       	.word	H'0,H'63
 12e:	6f 6c 75 6d 	mov.w	@(0x756d:16,er6),e4
 132:	6e 00 73 74 	mov.b	@(0x7374:16,er0),r0h
 136:	72 6c       	bclr	#0x6,r4l
 138:	65 6e       	xor.w	r6,e6
 13a:	00 67       	.word	H'0,H'67
 13c:	65 74       	xor.w	r7,r4
 13e:	63 00       	btst	r0h,r0h
 140:	73 74       	btst	#0x7,r4h
 142:	72 63       	bclr	#0x6,r3h
 144:	70 79       	bset	#0x7,r1l
 146:	00 67       	.word	H'0,H'67
 148:	65 74       	xor.w	r7,r4
 14a:	73 00       	btst	#0x0,r0h
 14c:	6d 65       	mov.w	@er6+,r5
 14e:	6d 63       	mov.w	@er6+,r3
 150:	6d 70       	mov.w	@er7+,r0
 152:	00 6c       	.word	H'0,H'6c
 154:	69 62       	mov.w	@er6,r2
 156:	2e 63       	mov.b	@0x63:8,r6l
 158:	00 70       	.word	H'0,H'70
 15a:	75 74       	bxor	#0x7,r4h
 15c:	78 76       	.word	H'78,H'76
 15e:	61 6c       	bnot	r6h,r4l
 160:	00 73       	.word	H'0,H'73
 162:	74 72       	bor	#0x7,r2h
 164:	63 6d       	btst	r6h,r5l
 166:	70 00       	bset	#0x0,r0h
 168:	6d 65       	mov.w	@er6+,r5
 16a:	6d 63       	mov.w	@er6+,r3
 16c:	70 79       	bset	#0x7,r1l
 16e:	00 73       	.word	H'0,H'73
 170:	74 72       	bor	#0x7,r2h
 172:	6e 63 6d 70 	mov.b	@(0x6d70:16,er6),r3h
 176:	00 70       	.word	H'0,H'70
 178:	75 74       	bxor	#0x7,r4h
 17a:	63 00       	btst	r0h,r0h
 17c:	6c 6f       	mov.b	@er6+,r7l
 17e:	6e 67 20 69 	mov.b	@(0x2069:16,er6),r7h
 182:	6e 74 00 73 	mov.b	@(0x73:16,er7),r4h
 186:	65 72       	xor.w	r7,r2
 188:	69 61       	mov.w	@er6,r1
 18a:	6c 5f       	mov.b	@er5+,r7l
 18c:	73 65       	btst	#0x6,r5h
 18e:	6e 64 5f 62 	mov.b	@(0x5f62:16,er6),r4h
 192:	79 74       	.word	H'79,H'74
 194:	65 00       	xor.w	r0,r0
 196:	73 65       	btst	#0x6,r5h
 198:	72 69       	bclr	#0x6,r1l
 19a:	61 6c       	bnot	r6h,r4l
 19c:	5f 69       	jsr	@@105 (0x69)
 19e:	6e 69 74 00 	mov.b	@(0x7400:16,er6),r1l
 1a2:	73 65       	btst	#0x6,r5h
 1a4:	72 69       	bclr	#0x6,r1l
 1a6:	61 6c       	bnot	r6h,r4l
 1a8:	5f 69       	jsr	@@105 (0x69)
 1aa:	6e 74 72 5f 	mov.b	@(0x725f:16,er7),r4h
 1ae:	73 65       	btst	#0x6,r5h
 1b0:	6e 64 5f 64 	mov.b	@(0x5f64:16,er6),r4h
 1b4:	69 73       	mov.w	@er7,r3
 1b6:	61 62       	bnot	r6h,r2h
 1b8:	6c 65       	mov.b	@er6+,r5h
 1ba:	00 75       	.word	H'0,H'75
 1bc:	69 6e       	mov.w	@er6,e6
 1be:	74 38       	bor	#0x3,r0l
 1c0:	00 68       	.word	H'0,H'68
 1c2:	38 5f       	mov.b	r0l,@0x5f:8
 1c4:	33 30       	mov.b	r3h,@0x30:8
 1c6:	36 39       	mov.b	r6h,@0x39:8
 1c8:	66 5f       	and.w	r5,e7
 1ca:	73 63       	btst	#0x6,r3h
 1cc:	69 00       	mov.w	@er0,r0
 1ce:	73 63       	btst	#0x6,r3h
 1d0:	6d 72       	mov.w	@er7+,r2
 1d2:	00 73       	.word	H'0,H'73
 1d4:	65 72       	xor.w	r7,r2
 1d6:	69 61       	mov.w	@er6,r1
 1d8:	6c 5f       	mov.b	@er5+,r7l
 1da:	69 6e       	mov.w	@er6,e6
 1dc:	74 72       	bor	#0x7,r2h
 1de:	5f 69       	jsr	@@105 (0x69)
 1e0:	73 5f       	btst	#0x5,r7l
 1e2:	73 65       	btst	#0x6,r5h
 1e4:	6e 64 5f 65 	mov.b	@(0x5f65:16,er6),r4h
 1e8:	6e 61 62 6c 	mov.b	@(0x626c:16,er6),r1h
 1ec:	65 00       	xor.w	r0,r0
 1ee:	73 65       	btst	#0x6,r5h
 1f0:	72 69       	bclr	#0x6,r1l
 1f2:	61 6c       	bnot	r6h,r4l
 1f4:	2e 63       	mov.b	@0x63:8,r6l
 1f6:	00 73       	.word	H'0,H'73
 1f8:	65 72       	xor.w	r7,r2
 1fa:	69 61       	mov.w	@er6,r1
 1fc:	6c 5f       	mov.b	@er5+,r7l
 1fe:	69 73       	mov.w	@er7,r3
 200:	5f 72       	jsr	@@114 (0x72)
 202:	65 63       	xor.w	r6,r3
 204:	76 5f       	band	#0x5,r7l
 206:	65 6e       	xor.w	r6,e6
 208:	61 62       	bnot	r6h,r2h
 20a:	6c 65       	mov.b	@er6+,r5h
 20c:	00 69       	.word	H'0,H'69
 20e:	6e 64 65 78 	mov.b	@(0x6578:16,er6),r4h
 212:	00 73       	.word	H'0,H'73
 214:	65 72       	xor.w	r7,r2
 216:	69 61       	mov.w	@er6,r1
 218:	6c 5f       	mov.b	@er5+,r7l
 21a:	69 73       	mov.w	@er7,r3
 21c:	5f 73       	jsr	@@115 (0x73)
 21e:	65 6e       	xor.w	r6,e6
 220:	64 5f       	or.w	r5,e7
 222:	65 6e       	xor.w	r6,e6
 224:	61 62       	bnot	r6h,r2h
 226:	6c 65       	mov.b	@er6+,r5h
 228:	00 73       	.word	H'0,H'73
 22a:	65 72       	xor.w	r7,r2
 22c:	69 61       	mov.w	@er6,r1
 22e:	6c 5f       	mov.b	@er5+,r7l
 230:	69 6e       	mov.w	@er6,e6
 232:	74 72       	bor	#0x7,r2h
 234:	5f 69       	jsr	@@105 (0x69)
 236:	73 5f       	btst	#0x5,r7l
 238:	72 65       	bclr	#0x6,r5h
 23a:	63 76       	btst	r7h,r6h
 23c:	5f 65       	jsr	@@101 (0x65)
 23e:	6e 61 62 6c 	mov.b	@(0x626c:16,er6),r1h
 242:	65 00       	xor.w	r0,r0
 244:	73 65       	btst	#0x6,r5h
 246:	72 69       	bclr	#0x6,r1l
 248:	61 6c       	bnot	r6h,r4l
 24a:	5f 69       	jsr	@@105 (0x69)
 24c:	6e 74 72 5f 	mov.b	@(0x725f:16,er7),r4h
 250:	73 65       	btst	#0x6,r5h
 252:	6e 64 5f 65 	mov.b	@(0x5f65:16,er6),r4h
 256:	6e 61 62 6c 	mov.b	@(0x626c:16,er6),r1h
 25a:	65 00       	xor.w	r0,r0
 25c:	73 65       	btst	#0x6,r5h
 25e:	72 69       	bclr	#0x6,r1l
 260:	61 6c       	bnot	r6h,r4l
 262:	5f 69       	jsr	@@105 (0x69)
 264:	6e 74 72 5f 	mov.b	@(0x725f:16,er7),r4h
 268:	72 65       	bclr	#0x6,r5h
 26a:	63 76       	btst	r7h,r6h
 26c:	5f 65       	jsr	@@101 (0x65)
 26e:	6e 61 62 6c 	mov.b	@(0x626c:16,er6),r1h
 272:	65 00       	xor.w	r0,r0
 274:	72 65       	bclr	#0x6,r5h
 276:	67 73       	bst	#0x7,r3h
 278:	00 73       	.word	H'0,H'73
 27a:	65 72       	xor.w	r7,r2
 27c:	69 61       	mov.w	@er6,r1
 27e:	6c 5f       	mov.b	@er5+,r7l
 280:	69 6e       	mov.w	@er6,e6
 282:	74 72       	bor	#0x7,r2h
 284:	5f 72       	jsr	@@114 (0x72)
 286:	65 63       	xor.w	r6,r3
 288:	76 5f       	band	#0x5,r7l
 28a:	64 69       	or.w	r6,e1
 28c:	73 61       	btst	#0x6,r1h
 28e:	62 6c       	bclr	r6h,r4l
 290:	65 00       	xor.w	r0,r0
 292:	74 69       	bor	#0x6,r1l
 294:	6d 65       	mov.w	@er6+,r5
 296:	72 5f       	bclr	#0x5,r7l
 298:	69 73       	mov.w	@er7,r3
 29a:	5f 65       	jsr	@@101 (0x65)
 29c:	78 70       	.word	H'78,H'70
 29e:	69 72       	mov.w	@er7,r2
 2a0:	65 64       	xor.w	r6,r4
 2a2:	00 74       	.word	H'0,H'74
 2a4:	63 6e       	btst	r6h,r6l
 2a6:	74 00       	bor	#0x0,r0h
 2a8:	68 38       	mov.b	@er3,r0l
 2aa:	5f 33       	jsr	@@51 (0x33)
 2ac:	30 36       	mov.b	r0h,@0x36:8
 2ae:	39 66       	mov.b	r1l,@0x66:8
 2b0:	5f 74       	jsr	@@116 (0x74)
 2b2:	6d 72       	mov.w	@er7+,r2
 2b4:	00 74       	.word	H'0,H'74
 2b6:	69 6d       	mov.w	@er6,e5
 2b8:	65 72       	xor.w	r7,r2
 2ba:	5f 63       	jsr	@@99 (0x63)
 2bc:	61 6e       	bnot	r6h,r6l
 2be:	63 65       	btst	r6h,r5h
 2c0:	6c 00       	mov.b	@er0+,r0h
 2c2:	74 63       	bor	#0x6,r3h
 2c4:	73 72       	btst	#0x7,r2h
 2c6:	30 00       	mov.b	r0h,@0x0:8
 2c8:	74 63       	bor	#0x6,r3h
 2ca:	72 30       	bclr	#0x3,r0h
 2cc:	00 74       	.word	H'0,H'74
 2ce:	63 72       	btst	r7h,r2h
 2d0:	31 00       	mov.b	r1h,@0x0:8
 2d2:	74 63       	bor	#0x6,r3h
 2d4:	73 72       	btst	#0x7,r2h
 2d6:	31 00       	mov.b	r1h,@0x0:8
 2d8:	74 69       	bor	#0x6,r1l
 2da:	6d 65       	mov.w	@er6+,r5
 2dc:	72 5f       	bclr	#0x5,r7l
 2de:	73 74       	btst	#0x7,r4h
 2e0:	61 72       	bnot	r7h,r2h
 2e2:	74 00       	bor	#0x0,r0h
 2e4:	63 6f       	btst	r6h,r7l
 2e6:	75 6e       	bxor	#0x6,r6l
 2e8:	74 00       	bor	#0x0,r0h
 2ea:	6d 73       	mov.w	@er7+,r3
 2ec:	65 63       	xor.w	r6,r3
 2ee:	00 74       	.word	H'0,H'74
 2f0:	69 6d       	mov.w	@er6,e5
 2f2:	65 72       	xor.w	r7,r2
 2f4:	5f 65       	jsr	@@101 (0x65)
 2f6:	78 70       	.word	H'78,H'70
 2f8:	69 72       	mov.w	@er7,r2
 2fa:	65 00       	xor.w	r0,r0
 2fc:	74 63       	bor	#0x6,r3h
 2fe:	6f 72 62 31 	mov.w	@(0x6231:16,er7),r2
 302:	00 74       	.word	H'0,H'74
 304:	63 6f       	btst	r6h,r7l
 306:	72 61       	bclr	#0x6,r1h
 308:	30 00       	mov.b	r0h,@0x0:8
 30a:	74 63       	bor	#0x6,r3h
 30c:	6f 72 61 31 	mov.w	@(0x6131:16,er7),r2
 310:	00 75       	.word	H'0,H'75
 312:	69 6e       	mov.w	@er6,e6
 314:	74 31       	bor	#0x3,r1h
 316:	36 00       	mov.b	r6h,@0x0:8
 318:	74 63       	bor	#0x6,r3h
 31a:	6f 72 62 30 	mov.w	@(0x6230:16,er7),r2
 31e:	00 74       	.word	H'0,H'74
 320:	69 6d       	mov.w	@er6,e5
 322:	65 72       	xor.w	r7,r2
 324:	2e 63       	mov.b	@0x63:8,r6l
 326:	00 4b       	.word	H'0,H'4b
 328:	5a 5f 53 59 	jmp	@0x5f5359:24
 32c:	53 43       	divxu.w	r4,er3
 32e:	41 4c       	brn	.+76 (0x37c)
 330:	4c 5f       	.word	H'4c,H'5f
 332:	54 59       	.word	H'54,H'59
 334:	50 45       	mulxu.b	r4h,r5
 336:	5f 53       	jsr	@@83 (0x53)
 338:	4c 45       	.word	H'4c,H'45
 33a:	45 50       	bcs	.+80 (0x38c)
 33c:	00 6b       	.word	H'0,H'6b
 33e:	7a 5f 6d 73 	xor.l	#0x6d73,er7
 342:	67 62       	bst	#0x6,r2h
 344:	6f 78 5f 69 	mov.w	@(0x5f69:16,er7),e0
 348:	64 5f       	or.w	r5,e7
 34a:	74 00       	bor	#0x0,r0h
 34c:	4b 5a       	bmi	.+90 (0x3a8)
 34e:	5f 53       	jsr	@@83 (0x53)
 350:	59 53       	.word	H'59,H'53
 352:	43 41       	.word	H'43,H'41
 354:	4c 4c       	bge	.+76 (0x3a2)
 356:	5f 54       	jsr	@@84 (0x54)
 358:	59 50       	jmp	@er5
 35a:	45 5f       	.word	H'45,H'5f
 35c:	43 48       	bls	.+72 (0x3a6)
 35e:	50 52       	mulxu.b	r5h,r2
 360:	49 00       	bvs	.0 (0x362)
 362:	6b 7a       	.word	H'6b,H'7a
 364:	5f 73       	jsr	@@115 (0x73)
 366:	79 73       	.word	H'79,H'73
 368:	64 6f       	or.w	r6,e7
 36a:	77 6e       	bld	#0x6,r6l
 36c:	00 4b       	.word	H'0,H'4b
 36e:	5a 5f 53 59 	jmp	@0x5f5359:24
 372:	53 43       	divxu.w	r4,er3
 374:	41 4c       	brn	.+76 (0x3c2)
 376:	4c 5f       	.word	H'4c,H'5f
 378:	54 59       	.word	H'54,H'59
 37a:	50 45       	mulxu.b	r4h,r5
 37c:	5f 45       	jsr	@@69 (0x45)
 37e:	58 49       	.word	H'58,H'49
 380:	54 00       	rts/l	er0
 382:	74 68       	bor	#0x6,r0l
 384:	72 65       	bclr	#0x6,r5h
 386:	61 64       	bnot	r6h,r4h
 388:	5f 73       	jsr	@@115 (0x73)
 38a:	65 74       	xor.w	r7,r4
 38c:	69 6e       	mov.w	@er6,e6
 38e:	74 72       	bor	#0x7,r2h
 390:	00 73       	.word	H'0,H'73
 392:	69 7a       	mov.w	@er7,e2
 394:	65 70       	xor.w	r7,r0
 396:	00 6b       	.word	H'0,H'6b
 398:	7a 5f 73 79 	xor.l	#0x7379,er7
 39c:	73 63       	btst	#0x6,r3h
 39e:	61 6c       	bnot	r6h,r4l
 3a0:	6c 5f       	mov.b	@er5+,r7l
 3a2:	70 61       	bset	#0x6,r1h
 3a4:	72 61       	bclr	#0x6,r1h
 3a6:	6d 5f       	mov.w	@er5+,e7
 3a8:	74 00       	bor	#0x0,r0h
 3aa:	6d 62       	mov.w	@er6+,r2
 3ac:	6f 78 70 00 	mov.w	@(0x7000:16,er7),e0
 3b0:	4b 5a       	bmi	.+90 (0x40c)
 3b2:	5f 53       	jsr	@@83 (0x53)
 3b4:	59 53       	.word	H'59,H'53
 3b6:	43 41       	.word	H'43,H'41
 3b8:	4c 4c       	bge	.+76 (0x406)
 3ba:	5f 54       	jsr	@@84 (0x54)
 3bc:	59 50       	jmp	@er5
 3be:	45 5f       	.word	H'45,H'5f
 3c0:	53 45       	divxu.w	r4,er5
 3c2:	4e 44       	bgt	.+68 (0x408)
 3c4:	00 4b       	.word	H'0,H'4b
 3c6:	5a 5f 53 59 	jmp	@0x5f5359:24
 3ca:	53 43       	divxu.w	r4,er3
 3cc:	41 4c       	brn	.+76 (0x41a)
 3ce:	4c 5f       	.word	H'4c,H'5f
 3d0:	54 59       	.word	H'54,H'59
 3d2:	50 45       	mulxu.b	r4h,r5
 3d4:	5f 53       	jsr	@@83 (0x53)
 3d6:	45 54       	bcs	.+84 (0x42c)
 3d8:	49 4e       	bvs	.+78 (0x428)
 3da:	54 52       	rts/l	er-3-er2
 3dc:	00 6b       	.word	H'0,H'6b
 3de:	7a 5f 73 79 	xor.l	#0x7379,er7
 3e2:	73 63       	btst	#0x6,r3h
 3e4:	61 6c       	bnot	r6h,r4l
 3e6:	6c 00       	mov.b	@er0+,r0h
 3e8:	73 74       	btst	#0x7,r4h
 3ea:	61 63       	bnot	r6h,r3h
 3ec:	6b 73       	.word	H'6b,H'73
 3ee:	69 7a       	mov.w	@er7,e2
 3f0:	65 00       	xor.w	r0,r0
 3f2:	68 65       	mov.b	@er6,r5h
 3f4:	61 64       	bnot	r6h,r4h
 3f6:	00 73       	.word	H'0,H'73
 3f8:	63 68       	btst	r6h,r0l
 3fa:	65 64       	xor.w	r6,r4
 3fc:	75 6c       	bxor	#0x6,r4l
 3fe:	65 00       	xor.w	r0,r0
 400:	74 68       	bor	#0x6,r0l
 402:	72 65       	bclr	#0x6,r5h
 404:	61 64       	bnot	r6h,r4h
 406:	5f 73       	jsr	@@115 (0x73)
 408:	74 61       	bor	#0x6,r1h
 40a:	63 6b       	btst	r6h,r3l
 40c:	00 5f       	.word	H'0,H'5f
 40e:	6b 7a       	.word	H'6b,H'7a
 410:	5f 6d       	jsr	@@109 (0x6d)
 412:	73 67       	btst	#0x6,r7h
 414:	62 6f       	bclr	r6h,r7l
 416:	78 00       	.word	H'78,H'0
 418:	74 68       	bor	#0x6,r0l
 41a:	72 65       	bclr	#0x6,r5h
 41c:	61 64       	bnot	r6h,r4h
 41e:	5f 69       	jsr	@@105 (0x69)
 420:	6e 69 74 00 	mov.b	@(0x7400:16,er6),r1l
 424:	74 68       	bor	#0x6,r0l
 426:	72 65       	bclr	#0x6,r5h
 428:	61 64       	bnot	r6h,r4h
 42a:	5f 72       	jsr	@@114 (0x72)
 42c:	65 63       	xor.w	r6,r3
 42e:	76 00       	band	#0x0,r0h
 430:	74 68       	bor	#0x6,r0l
 432:	72 65       	bclr	#0x6,r5h
 434:	61 64       	bnot	r6h,r4h
 436:	5f 77       	jsr	@@119 (0x77)
 438:	61 6b       	bnot	r6h,r3l
 43a:	65 75       	xor.w	r7,r5
 43c:	70 00       	bset	#0x0,r0h
 43e:	73 65       	btst	#0x6,r5h
 440:	6e 64 65 72 	mov.b	@(0x6572:16,er6),r4h
 444:	00 6b       	.word	H'0,H'6b
 446:	7a 5f 66 75 	xor.l	#0x6675,er7
 44a:	6e 63 5f 74 	mov.b	@(0x5f74:16,er6),r3h
 44e:	00 66       	.word	H'0,H'66
 450:	75 6e       	bxor	#0x6,r6l
 452:	63 00       	btst	r0h,r0h
 454:	70 75       	bset	#0x7,r5h
 456:	74 63       	bor	#0x6,r3h
 458:	75 72       	bxor	#0x7,r2h
 45a:	72 65       	bclr	#0x6,r5h
 45c:	6e 74 00 74 	mov.b	@(0x74:16,er7),r4h
 460:	68 72       	mov.b	@er7,r2h
 462:	65 61       	xor.w	r6,r1
 464:	64 5f       	or.w	r5,e7
 466:	67 65       	bst	#0x6,r5h
 468:	74 69       	bor	#0x6,r1l
 46a:	64 00       	or.w	r0,r0
 46c:	5f 6b       	jsr	@@107 (0x6b)
 46e:	7a 5f 63 6f 	xor.l	#0x636f,er7
 472:	6e 74 65 78 	mov.b	@(0x6578:16,er7),r4h
 476:	74 00       	bor	#0x0,r0h
 478:	4b 5a       	bmi	.+90 (0x4d4)
 47a:	5f 53       	jsr	@@83 (0x53)
 47c:	59 53       	.word	H'59,H'53
 47e:	43 41       	.word	H'43,H'41
 480:	4c 4c       	bge	.+76 (0x4ce)
 482:	5f 54       	jsr	@@84 (0x54)
 484:	59 50       	jmp	@er5
 486:	45 5f       	.word	H'45,H'5f
 488:	57 41       	.word	H'57,H'41
 48a:	49 54       	bvs	.+84 (0x4e0)
 48c:	00 6b       	.word	H'0,H'6b
 48e:	7a 6d 65 6d 	and.l	#0x656d,er5
 492:	5f 69       	jsr	@@105 (0x69)
 494:	6e 69 74 00 	mov.b	@(0x7400:16,er6),r1l
 498:	64 75       	or.w	r7,r5
 49a:	6d 6d       	mov.w	@er6+,e5
 49c:	79 00 74 68 	mov.w	#0x7468,r0
 4a0:	72 65       	bclr	#0x6,r5h
 4a2:	61 64       	bnot	r6h,r4h
 4a4:	5f 63       	jsr	@@99 (0x63)
 4a6:	68 70       	mov.b	@er7,r0h
 4a8:	72 69       	bclr	#0x6,r1l
 4aa:	00 6b       	.word	H'0,H'6b
 4ac:	7a 5f 74 68 	xor.l	#0x7468,er7
 4b0:	72 65       	bclr	#0x6,r5h
 4b2:	61 64       	bnot	r6h,r4h
 4b4:	5f 69       	jsr	@@105 (0x69)
 4b6:	64 5f       	or.w	r5,e7
 4b8:	74 00       	bor	#0x0,r0h
 4ba:	6e 61 6d 65 	mov.b	@(0x6d65:16,er6),r1h
 4be:	00 74       	.word	H'0,H'74
 4c0:	61 69       	bnot	r6h,r1l
 4c2:	6c 00       	mov.b	@er0+,r0h
 4c4:	74 68       	bor	#0x6,r0l
 4c6:	72 65       	bclr	#0x6,r5h
 4c8:	61 64       	bnot	r6h,r4h
 4ca:	5f 72       	jsr	@@114 (0x72)
 4cc:	75 6e       	bxor	#0x6,r6l
 4ce:	00 75       	.word	H'0,H'75
 4d0:	73 65       	btst	#0x6,r5h
 4d2:	72 73       	bclr	#0x7,r3h
 4d4:	74 61       	bor	#0x6,r1h
 4d6:	63 6b       	btst	r6h,r3l
 4d8:	00 74       	.word	H'0,H'74
 4da:	68 72       	mov.b	@er7,r2h
 4dc:	65 61       	xor.w	r6,r1
 4de:	64 5f       	or.w	r5,e7
 4e0:	77 61       	bld	#0x6,r1h
 4e2:	69 74       	mov.w	@er7,r4
 4e4:	00 5f       	.word	H'0,H'5f
 4e6:	6b 7a       	.word	H'6b,H'7a
 4e8:	5f 74       	jsr	@@116 (0x74)
 4ea:	68 72       	mov.b	@er7,r2h
 4ec:	65 61       	xor.w	r6,r1
 4ee:	64 00       	or.w	r0,r0
 4f0:	66 6c       	and.w	r6,e4
 4f2:	61 67       	bnot	r6h,r7h
 4f4:	73 00       	btst	#0x0,r0h
 4f6:	74 68       	bor	#0x6,r0l
 4f8:	72 65       	bclr	#0x6,r5h
 4fa:	61 64       	bnot	r6h,r4h
 4fc:	5f 6b       	jsr	@@107 (0x6b)
 4fe:	6d 61       	mov.w	@er6+,r1
 500:	6c 6c       	mov.b	@er6+,r4l
 502:	6f 63 00 68 	mov.w	@(0x68:16,er6),r3
 506:	61 6e       	bnot	r6h,r6l
 508:	64 6c       	or.w	r6,e4
 50a:	65 72       	xor.w	r7,r2
 50c:	73 00       	btst	#0x0,r0h
 50e:	64 69       	or.w	r6,e1
 510:	73 70       	btst	#0x7,r0h
 512:	61 74       	bnot	r7h,r4h
 514:	63 68       	btst	r6h,r0l
 516:	00 6b       	.word	H'0,H'6b
 518:	7a 5f 68 61 	xor.l	#0x6861,er7
 51c:	6e 64 6c 65 	mov.b	@(0x6c65:16,er6),r4h
 520:	72 5f       	bclr	#0x5,r7l
 522:	74 00       	bor	#0x0,r0h
 524:	74 68       	bor	#0x6,r0l
 526:	72 65       	bclr	#0x6,r5h
 528:	61 64       	bnot	r6h,r4h
 52a:	5f 73       	jsr	@@115 (0x73)
 52c:	65 6e       	xor.w	r6,e6
 52e:	64 00       	or.w	r0,r0
 530:	70 61       	bset	#0x6,r1h
 532:	72 61       	bclr	#0x6,r1h
 534:	6d 00       	mov.w	@er0+,r0
 536:	73 79       	btst	#0x7,r1l
 538:	73 63       	btst	#0x6,r3h
 53a:	61 6c       	bnot	r6h,r4l
 53c:	6c 5f       	mov.b	@er5+,r7l
 53e:	70 72       	bset	#0x7,r2h
 540:	6f 63 00 73 	mov.w	@(0x73:16,er6),r3
 544:	6f 66 74 65 	mov.w	@(0x7465:16,er6),r6
 548:	72 72       	bclr	#0x7,r2h
 54a:	5f 69       	jsr	@@105 (0x69)
 54c:	6e 74 72 00 	mov.b	@(0x7200:16,er7),r4h
 550:	4b 5a       	bmi	.+90 (0x5ac)
 552:	5f 53       	jsr	@@83 (0x53)
 554:	59 53       	.word	H'59,H'53
 556:	43 41       	.word	H'43,H'41
 558:	4c 4c       	bge	.+76 (0x5a6)
 55a:	5f 54       	jsr	@@84 (0x54)
 55c:	59 50       	jmp	@er5
 55e:	45 5f       	.word	H'45,H'5f
 560:	4b 4d       	.word	H'4b,H'4d
 562:	46 52       	bne	.+82 (0x5b6)
 564:	45 45       	.word	H'45,H'45
 566:	00 67       	.word	H'0,H'67
 568:	65 74       	xor.w	r7,r4
 56a:	63 75       	btst	r7h,r5h
 56c:	72 72       	bclr	#0x7,r2h
 56e:	65 6e       	xor.w	r6,e6
 570:	74 00       	bor	#0x0,r0h
 572:	74 68       	bor	#0x6,r0l
 574:	72 65       	bclr	#0x6,r5h
 576:	61 64       	bnot	r6h,r4h
 578:	5f 65       	jsr	@@101 (0x65)
 57a:	78 69       	.word	H'78,H'69
 57c:	74 00       	bor	#0x0,r0h
 57e:	73 79       	btst	#0x7,r1l
 580:	73 63       	btst	#0x6,r3h
 582:	61 6c       	bnot	r6h,r4l
 584:	6c 5f       	mov.b	@er5+,r7l
 586:	69 6e       	mov.w	@er6,e6
 588:	74 72       	bor	#0x7,r2h
 58a:	00 74       	.word	H'0,H'74
 58c:	68 72       	mov.b	@er7,r2h
 58e:	65 61       	xor.w	r6,r1
 590:	64 5f       	or.w	r5,e7
 592:	69 6e       	mov.w	@er6,e6
 594:	74 72       	bor	#0x7,r2h
 596:	00 73       	.word	H'0,H'73
 598:	65 6e       	xor.w	r6,e6
 59a:	64 6d       	or.w	r6,e5
 59c:	73 67       	btst	#0x6,r7h
 59e:	00 4b       	.word	H'0,H'4b
 5a0:	5a 5f 53 59 	jmp	@0x5f5359:24
 5a4:	53 43       	divxu.w	r4,er3
 5a6:	41 4c       	brn	.+76 (0x5f4)
 5a8:	4c 5f       	.word	H'4c,H'5f
 5aa:	54 59       	.word	H'54,H'59
 5ac:	50 45       	mulxu.b	r4h,r5
 5ae:	5f 4b       	jsr	@@75 (0x4b)
 5b0:	4d 41       	.word	H'4d,H'41
 5b2:	4c 4c       	bge	.+76 (0x600)
 5b4:	4f 43       	.word	H'4f,H'43
 5b6:	00 6b       	.word	H'0,H'6b
 5b8:	6f 7a 6f 73 	mov.w	@(0x6f73:16,er7),e2
 5bc:	2e 63       	mov.b	@0x63:8,r6l
 5be:	00 4b       	.word	H'0,H'4b
 5c0:	5a 5f 53 59 	jmp	@0x5f5359:24
 5c4:	53 43       	divxu.w	r4,er3
 5c6:	41 4c       	brn	.+76 (0x614)
 5c8:	4c 5f       	.word	H'4c,H'5f
 5ca:	54 59       	.word	H'54,H'59
 5cc:	50 45       	mulxu.b	r4h,r5
 5ce:	5f 52       	jsr	@@82 (0x52)
 5d0:	45 43       	.word	H'45,H'43
 5d2:	56 00       	rte/l	er0
 5d4:	75 69       	bxor	#0x6,r1l
 5d6:	6e 74 33 32 	mov.b	@(0x3332:16,er7),r4h
 5da:	00 6b       	.word	H'0,H'6b
 5dc:	7a 5f 73 79 	xor.l	#0x7379,er7
 5e0:	73 63       	btst	#0x6,r3h
 5e2:	61 6c       	bnot	r6h,r4l
 5e4:	6c 5f       	mov.b	@er5+,r7l
 5e6:	74 79       	bor	#0x7,r1l
 5e8:	70 65       	bset	#0x6,r5h
 5ea:	5f 74       	jsr	@@116 (0x74)
 5ec:	00 4d       	.word	H'0,H'4d
 5ee:	53 47       	divxu.w	r4,er7
 5f0:	42 4f       	.word	H'42,H'4f
 5f2:	58 5f       	.word	H'58,H'5f
 5f4:	49 44       	bvs	.+68 (0x63a)
 5f6:	5f 4e       	jsr	@@78 (0x4e)
 5f8:	55 4d       	bsr	.+77 (0x647)
 5fa:	00 63       	.word	H'0,H'63
 5fc:	61 6c       	bnot	r6h,r4l
 5fe:	6c 5f       	mov.b	@er5+,r7l
 600:	66 75       	and.w	r7,r5
 602:	6e 63 74 69 	mov.b	@(0x7469:16,er6),r3h
 606:	6f 6e 73 00 	mov.w	@(0x7300:16,er6),e6
 60a:	4b 5a       	bmi	.+90 (0x666)
 60c:	5f 53       	jsr	@@83 (0x53)
 60e:	59 53       	.word	H'59,H'53
 610:	43 41       	.word	H'43,H'41
 612:	4c 4c       	bge	.+76 (0x660)
 614:	5f 54       	jsr	@@84 (0x54)
 616:	59 50       	jmp	@er5
 618:	45 5f       	.word	H'45,H'5f
 61a:	47 45       	.word	H'47,H'45
 61c:	54 49       	.word	H'54,H'49
 61e:	44 00       	bcc	.0 (0x620)
 620:	74 68       	bor	#0x6,r0l
 622:	72 65       	bclr	#0x6,r5h
 624:	61 64       	bnot	r6h,r4h
 626:	5f 73       	jsr	@@115 (0x73)
 628:	6c 65       	mov.b	@er6+,r5h
 62a:	65 70       	xor.w	r7,r0
 62c:	00 5f       	.word	H'0,H'5f
 62e:	6b 7a       	.word	H'6b,H'7a
 630:	5f 6d       	jsr	@@109 (0x6d)
 632:	73 67       	btst	#0x6,r7h
 634:	62 75       	bclr	r7h,r5h
 636:	66 00       	and.w	r0,r0
 638:	6b 7a       	.word	H'6b,H'7a
 63a:	6d 65       	mov.w	@er6+,r5
 63c:	6d 5f       	mov.w	@er5+,e7
 63e:	61 6c       	bnot	r6h,r4l
 640:	6c 6f       	mov.b	@er6+,r7l
 642:	63 00       	btst	r0h,r0h
 644:	74 68       	bor	#0x6,r0l
 646:	72 65       	bclr	#0x6,r5h
 648:	61 64       	bnot	r6h,r4h
 64a:	5f 65       	jsr	@@101 (0x65)
 64c:	6e 64 00 4d 	mov.b	@(0x4d:16,er6),r4h
 650:	53 47       	divxu.w	r4,er7
 652:	42 4f       	.word	H'42,H'4f
 654:	58 5f       	.word	H'58,H'5f
 656:	49 44       	bvs	.+68 (0x69c)
 658:	5f 43       	jsr	@@67 (0x43)
 65a:	4f 4e       	ble	.+78 (0x6aa)
 65c:	53 4f       	.word	H'53,H'4f
 65e:	55 54       	bsr	.+84 (0x6b4)
 660:	50 55       	mulxu.b	r5h,r5
 662:	54 00       	rts/l	er0
 664:	74 68       	bor	#0x6,r0l
 666:	72 65       	bclr	#0x6,r5h
 668:	61 64       	bnot	r6h,r4h
 66a:	5f 6b       	jsr	@@107 (0x6b)
 66c:	6d 66       	mov.w	@er6+,r6
 66e:	72 65       	bclr	#0x6,r5h
 670:	65 00       	xor.w	r0,r0
 672:	6b 7a       	.word	H'6b,H'7a
 674:	5f 65       	jsr	@@101 (0x65)
 676:	78 69       	.word	H'78,H'69
 678:	74 00       	bor	#0x0,r0h
 67a:	72 65       	bclr	#0x6,r5h
 67c:	63 65       	btst	r6h,r5h
 67e:	69 76       	mov.w	@er7,r6
 680:	65 72       	xor.w	r7,r2
 682:	00 6b       	.word	H'0,H'6b
 684:	7a 6d 65 6d 	and.l	#0x656d,er5
 688:	5f 66       	jsr	@@102 (0x66)
 68a:	72 65       	bclr	#0x6,r5h
 68c:	65 00       	xor.w	r0,r0
 68e:	70 72       	bset	#0x7,r2h
 690:	69 6f       	mov.w	@er6,e7
 692:	72 69       	bclr	#0x6,r1l
 694:	74 79       	bor	#0x7,r1l
 696:	00 4d       	.word	H'0,H'4d
 698:	53 47       	divxu.w	r4,er7
 69a:	42 4f       	.word	H'42,H'4f
 69c:	58 5f       	.word	H'58,H'5f
 69e:	49 44       	bvs	.+68 (0x6e4)
 6a0:	5f 43       	jsr	@@67 (0x43)
 6a2:	4f 4e       	ble	.+78 (0x6f2)
 6a4:	53 49       	.word	H'53,H'49
 6a6:	4e 50       	bgt	.+80 (0x6f8)
 6a8:	55 54       	bsr	.+84 (0x6fe)
 6aa:	00 73       	.word	H'0,H'73
 6ac:	72 76       	bclr	#0x7,r6h
 6ae:	63 61       	btst	r6h,r1h
 6b0:	6c 6c       	mov.b	@er6+,r4l
 6b2:	5f 70       	jsr	@@112 (0x70)
 6b4:	72 6f       	bclr	#0x6,r7l
 6b6:	63 00       	btst	r0h,r0h
 6b8:	6b 7a       	.word	H'6b,H'7a
 6ba:	5f 73       	jsr	@@115 (0x73)
 6bc:	72 76       	bclr	#0x7,r6h
 6be:	63 61       	btst	r6h,r1h
 6c0:	6c 6c       	mov.b	@er6+,r4l
 6c2:	00 72       	.word	H'0,H'72
 6c4:	65 61       	xor.w	r6,r1
 6c6:	64 79       	or.w	r7,e1
 6c8:	71 75       	bnot	#0x7,r5h
 6ca:	65 00       	xor.w	r0,r0
 6cc:	72 65       	bclr	#0x6,r5h
 6ce:	63 76       	btst	r7h,r6h
 6d0:	6d 73       	mov.w	@er7+,r3
 6d2:	67 00       	bst	#0x0,r0h
 6d4:	4b 5a       	bmi	.+90 (0x730)
 6d6:	5f 53       	jsr	@@83 (0x53)
 6d8:	59 53       	.word	H'59,H'53
 6da:	43 41       	.word	H'43,H'41
 6dc:	4c 4c       	bge	.+76 (0x72a)
 6de:	5f 54       	jsr	@@84 (0x54)
 6e0:	59 50       	jmp	@er5
 6e2:	45 5f       	.word	H'45,H'5f
 6e4:	57 41       	.word	H'57,H'41
 6e6:	4b 45       	.word	H'4b,H'45
 6e8:	55 50       	bsr	.+80 (0x73a)
 6ea:	00 6e       	.word	H'0,H'6e
 6ec:	65 78       	xor.w	r7,e0
 6ee:	74 00       	bor	#0x0,r0h
 6f0:	4b 5a       	bmi	.+90 (0x74c)
 6f2:	5f 53       	jsr	@@83 (0x53)
 6f4:	59 53       	.word	H'59,H'53
 6f6:	43 41       	.word	H'43,H'41
 6f8:	4c 4c       	bge	.+76 (0x746)
 6fa:	5f 54       	jsr	@@84 (0x54)
 6fc:	59 50       	jmp	@er5
 6fe:	45 5f       	.word	H'45,H'5f
 700:	52 55       	mulxu.w	r5,er5
 702:	4e 00       	bgt	.0 (0x704)
 704:	6d 73       	mov.w	@er7+,r3
 706:	67 62       	bst	#0x6,r2h
 708:	6f 78 65 73 	mov.w	@(0x6573:16,er7),e0
 70c:	00 6b       	.word	H'0,H'6b
 70e:	7a 5f 77 61 	xor.l	#0x7761,er7
 712:	69 74       	mov.w	@er7,r4
 714:	00 6b       	.word	H'0,H'6b
 716:	78 5f       	.word	H'78,H'5f
 718:	77 61       	bld	#0x6,r1h
 71a:	6b 65       	.word	H'6b,H'65
 71c:	75 70       	bxor	#0x7,r0h
 71e:	00 6b       	.word	H'0,H'6b
 720:	7a 5f 6b 6d 	xor.l	#0x6b6d,er7
 724:	61 6c       	bnot	r6h,r4l
 726:	6c 6f       	mov.b	@er6+,r7l
 728:	63 00       	btst	r0h,r0h
 72a:	6b 7a       	.word	H'6b,H'7a
 72c:	5f 73       	jsr	@@115 (0x73)
 72e:	6c 65       	mov.b	@er6+,r5h
 730:	65 70       	xor.w	r7,r0
 732:	00 6b       	.word	H'0,H'6b
 734:	7a 5f 6b 6d 	xor.l	#0x6b6d,er7
 738:	66 72       	and.w	r7,r2
 73a:	65 65       	xor.w	r6,r5
 73c:	00 6b       	.word	H'0,H'6b
 73e:	7a 5f 77 61 	xor.l	#0x7761,er7
 742:	6b 65       	.word	H'6b,H'65
 744:	75 70       	bxor	#0x7,r0h
 746:	00 6b       	.word	H'0,H'6b
 748:	78 5f       	.word	H'78,H'5f
 74a:	6b 6d       	.word	H'6b,H'6d
 74c:	61 6c       	bnot	r6h,r4l
 74e:	6c 6f       	mov.b	@er6+,r7l
 750:	63 00       	btst	r0h,r0h
 752:	6b 7a       	.word	H'6b,H'7a
 754:	5f 73       	jsr	@@115 (0x73)
 756:	65 6e       	xor.w	r6,e6
 758:	64 00       	or.w	r0,r0
 75a:	6b 7a       	.word	H'6b,H'7a
 75c:	5f 73       	jsr	@@115 (0x73)
 75e:	65 74       	xor.w	r7,r4
 760:	69 6e       	mov.w	@er6,e6
 762:	74 72       	bor	#0x7,r2h
 764:	00 6b       	.word	H'0,H'6b
 766:	7a 5f 72 65 	xor.l	#0x7265,er7
 76a:	63 76       	btst	r7h,r6h
 76c:	00 6b       	.word	H'0,H'6b
 76e:	78 5f       	.word	H'78,H'5f
 770:	6b 6d       	.word	H'6b,H'6d
 772:	66 72       	and.w	r7,r2
 774:	65 65       	xor.w	r6,r5
 776:	00 73       	.word	H'0,H'73
 778:	79 73       	.word	H'79,H'73
 77a:	63 61       	btst	r6h,r1h
 77c:	6c 6c       	mov.b	@er6+,r4l
 77e:	2e 63       	mov.b	@0x63:8,r6l
 780:	00 6b       	.word	H'0,H'6b
 782:	78 5f       	.word	H'78,H'5f
 784:	73 65       	btst	#0x6,r5h
 786:	6e 64 00 6b 	mov.b	@(0x6b:16,er6),r4h
 78a:	7a 5f 67 65 	xor.l	#0x6765,er7
 78e:	74 69       	bor	#0x6,r1l
 790:	64 00       	or.w	r0,r0
 792:	6d 65       	mov.w	@er6+,r5
 794:	6d 6f       	mov.w	@er6+,e7
 796:	72 79       	bclr	#0x7,r1l
 798:	2e 63       	mov.b	@0x63:8,r6l
 79a:	00 5f       	.word	H'0,H'5f
 79c:	6b 7a       	.word	H'6b,H'7a
 79e:	6d 65       	mov.w	@er6+,r5
 7a0:	6d 5f       	mov.w	@er5+,e7
 7a2:	62 6c       	bclr	r6h,r4l
 7a4:	6f 63 6b 00 	mov.w	@(0x6b00:16,er6),r3
 7a8:	5f 6b       	jsr	@@107 (0x6b)
 7aa:	7a 6d 65 6d 	and.l	#0x656d,er5
 7ae:	5f 70       	jsr	@@112 (0x70)
 7b0:	6f 6f 6c 00 	mov.w	@(0x6c00:16,er6),e7
 7b4:	6b 7a       	.word	H'6b,H'7a
 7b6:	6d 65       	mov.w	@er6+,r5
 7b8:	6d 5f       	mov.w	@er5+,e7
 7ba:	69 6e       	mov.w	@er6,e6
 7bc:	69 74       	mov.w	@er7,r4
 7be:	5f 70       	jsr	@@112 (0x70)
 7c0:	6f 6f 6c 00 	mov.w	@(0x6c00:16,er6),e7
 7c4:	66 72       	and.w	r7,r2
 7c6:	65 65       	xor.w	r6,r5
 7c8:	61 72       	bnot	r7h,r2h
 7ca:	65 61       	xor.w	r6,r1
 7cc:	00 73       	.word	H'0,H'73
 7ce:	65 6e       	xor.w	r6,e6
 7d0:	64 5f       	or.w	r5,e7
 7d2:	73 74       	btst	#0x7,r4h
 7d4:	72 69       	bclr	#0x6,r1l
 7d6:	6e 67 00 63 	mov.b	@(0x63:16,er6),r7h
 7da:	6f 6e 73 64 	mov.w	@(0x7364:16,er6),e6
 7de:	72 76       	bclr	#0x7,r6h
 7e0:	5f 63       	jsr	@@99 (0x63)
 7e2:	6f 6d 6d 61 	mov.w	@(0x6d61:16,er6),e5
 7e6:	6e 64 00 73 	mov.b	@(0x73:16,er6),r4h
 7ea:	65 6e       	xor.w	r6,e6
 7ec:	64 5f       	or.w	r5,e7
 7ee:	63 68       	btst	r6h,r0l
 7f0:	61 72       	bnot	r7h,r2h
 7f2:	00 63       	.word	H'0,H'63
 7f4:	6f 6e 73 64 	mov.w	@(0x7364:16,er6),e6
 7f8:	72 76       	bclr	#0x7,r6h
 7fa:	5f 69       	jsr	@@105 (0x69)
 7fc:	6e 74 72 70 	mov.b	@(0x7270:16,er7),r4h
 800:	72 6f       	bclr	#0x6,r7l
 802:	63 00       	btst	r0h,r0h
 804:	63 6f       	btst	r6h,r7l
 806:	6e 73 64 72 	mov.b	@(0x6472:16,er7),r3h
 80a:	76 5f       	band	#0x5,r7l
 80c:	69 6e       	mov.w	@er6,e6
 80e:	74 72       	bor	#0x7,r2h
 810:	00 63       	.word	H'0,H'63
 812:	6f 6e 73 64 	mov.w	@(0x7364:16,er6),e6
 816:	72 76       	bclr	#0x7,r6h
 818:	5f 69       	jsr	@@105 (0x69)
 81a:	6e 69 74 00 	mov.b	@(0x7400:16,er6),r1l
 81e:	72 65       	bclr	#0x6,r5h
 820:	63 76       	btst	r7h,r6h
 822:	5f 62       	jsr	@@98 (0x62)
 824:	75 66       	bxor	#0x6,r6h
 826:	00 73       	.word	H'0,H'73
 828:	65 6e       	xor.w	r6,e6
 82a:	64 5f       	or.w	r5,e7
 82c:	6c 65       	mov.b	@er6+,r5h
 82e:	6e 00 72 65 	mov.b	@(0x7265:16,er0),r0h
 832:	63 76       	btst	r7h,r6h
 834:	5f 6c       	jsr	@@108 (0x6c)
 836:	65 6e       	xor.w	r6,e6
 838:	00 63       	.word	H'0,H'63
 83a:	6f 6e 73 64 	mov.w	@(0x7364:16,er6),e6
 83e:	72 76       	bclr	#0x7,r6h
 840:	2e 63       	mov.b	@0x63:8,r6l
 842:	00 63       	.word	H'0,H'63
 844:	6f 6e 73 64 	mov.w	@(0x7364:16,er6),e6
 848:	72 76       	bclr	#0x7,r6h
 84a:	5f 6d       	jsr	@@109 (0x6d)
 84c:	61 69       	bnot	r6h,r1l
 84e:	6e 00 73 65 	mov.b	@(0x7365:16,er0),r0h
 852:	6e 64 5f 62 	mov.b	@(0x5f62:16,er6),r4h
 856:	75 66       	bxor	#0x6,r6h
 858:	00 63       	.word	H'0,H'63
 85a:	6f 6e 73 72 	mov.w	@(0x7372:16,er6),e6
 85e:	65 67       	xor.w	r6,r7
 860:	00 63       	.word	H'0,H'63
 862:	6f 6e 73 00 	mov.w	@(0x7300:16,er6),e6
 866:	73 65       	btst	#0x6,r5h
 868:	6e 64 5f 75 	mov.b	@(0x5f75:16,er6),r4h
 86c:	73 65       	btst	#0x6,r5h
 86e:	00 74       	.word	H'0,H'74
 870:	69 6d       	mov.w	@er6,e5
 872:	65 72       	xor.w	r7,r2
 874:	5f 69       	jsr	@@105 (0x69)
 876:	6e 74 72 00 	mov.b	@(0x7200:16,er7),r4h
 87a:	63 6f       	btst	r6h,r7l
 87c:	6d 6d       	mov.w	@er6+,e5
 87e:	61 6e       	bnot	r6h,r6l
 880:	64 5f       	or.w	r5,e7
 882:	6d 61       	mov.w	@er6+,r1
 884:	69 6e       	mov.w	@er6,e6
 886:	00 73       	.word	H'0,H'73
 888:	65 6e       	xor.w	r6,e6
 88a:	64 5f       	or.w	r5,e7
 88c:	77 72       	bld	#0x7,r2h
 88e:	69 74       	mov.w	@er7,r4
 890:	65 00       	xor.w	r0,r0
 892:	63 6f       	btst	r6h,r7l
 894:	6d 6d       	mov.w	@er6+,e5
 896:	61 6e       	bnot	r6h,r6l
 898:	64 2e       	or.w	r2,e6
 89a:	63 00       	btst	r0h,r0h

Disassembly of section .comment:

00000000 <.comment>:
   0:	47 43       	.word	H'47,H'43
   2:	43 3a       	bls	.+58 (0x3e)
   4:	20 28       	mov.b	@0x28:8,r0h
   6:	47 4e       	beq	.+78 (0x56)
   8:	55 29       	bsr	.+41 (0x33)
   a:	20 37       	mov.b	@0x37:8,r0h
   c:	2e 33       	mov.b	@0x33:8,r6l
   e:	2e 30       	mov.b	@0x30:8,r6l
	...
