
kozos.elf:     file format elf32-h8300


Disassembly of section .text:

00ffc020 <_start>:
_text_start():
  ffc020:	7a 07 00 ff 	mov.l	#0xffff00,er7
  ffc024:	ff 00 
  ffc026:	5e ff da 40 	jsr	@0xffda40:24

00ffc02a <.L11>:
.L11():
  ffc02a:	40 fe       	bra	.-2 (0xffc02a)

00ffc02c <_dispatch>:
_dispatch():
  ffc02c:	01 00 69 07 	mov.l	@er0,er7
  ffc030:	01 00 6d 70 	mov.l	@er7+,er0
  ffc034:	01 00 6d 71 	mov.l	@er7+,er1
  ffc038:	01 00 6d 72 	mov.l	@er7+,er2
  ffc03c:	01 00 6d 73 	mov.l	@er7+,er3
  ffc040:	01 00 6d 74 	mov.l	@er7+,er4
  ffc044:	01 00 6d 75 	mov.l	@er7+,er5
  ffc048:	01 00 6d 76 	mov.l	@er7+,er6
  ffc04c:	56 70       	rte	

00ffc04e <_start_threads>:
start_threads():
/home/main.c:8
#include "interrupt.h"
#include "lib.h"

/* システム・タスクとユーザ・タスクの起動 */
static int start_threads(int argc, char *argv[])
{
  ffc04e:	01 00 6d f6 	mov.l	er6,@-er7
  ffc052:	0f f6       	mov.l	er7,er6

00ffc054 <.LM2>:
/home/main.c:9
  kz_run(consdrv_main,  "consdrv",  1, 0x200, 0, NULL);
  ffc054:	1a c4       	sub.l	er4,er4
  ffc056:	01 00 6d f4 	mov.l	er4,@-er7
  ffc05a:	1b 97       	subs	#4,er7
  ffc05c:	1b 97       	subs	#4,er7
  ffc05e:	6f f4 00 06 	mov.w	r4,@(0x6:16,er7)
  ffc062:	79 05 02 00 	mov.w	#0x200,r5
  ffc066:	6f f5 00 02 	mov.w	r5,@(0x2:16,er7)
  ffc06a:	79 02 00 01 	mov.w	#0x1,r2
  ffc06e:	7a 01 00 ff 	mov.l	#0xffdacc,er1
  ffc072:	da cc 

00ffc074 <.LVL1>:
  ffc074:	7a 00 00 ff 	mov.l	#0xffd5ea,er0
  ffc078:	d5 ea 

00ffc07a <.LVL2>:
  ffc07a:	5e ff cf 20 	jsr	@0xffcf20:24

00ffc07e <.LM3>:
/home/main.c:10
  kz_run(command_main,  "command",  8, 0x200, 0, NULL);
  ffc07e:	01 00 6d f4 	mov.l	er4,@-er7
  ffc082:	1b 97       	subs	#4,er7
  ffc084:	1b 97       	subs	#4,er7
  ffc086:	6f f4 00 06 	mov.w	r4,@(0x6:16,er7)
  ffc08a:	6f f5 00 02 	mov.w	r5,@(0x2:16,er7)
  ffc08e:	79 02 00 08 	mov.w	#0x8,r2
  ffc092:	7a 01 00 ff 	mov.l	#0xffdad4,er1
  ffc096:	da d4 
  ffc098:	7a 00 00 ff 	mov.l	#0xffd8b8,er0
  ffc09c:	d8 b8 
  ffc09e:	5e ff cf 20 	jsr	@0xffcf20:24

00ffc0a2 <.LM4>:
/home/main.c:11
  kz_run(timerdrv_main, "timerdrv", 2, 0x100, 0, NULL);
  ffc0a2:	01 00 6d f4 	mov.l	er4,@-er7
  ffc0a6:	1b 97       	subs	#4,er7
  ffc0a8:	1b 97       	subs	#4,er7
  ffc0aa:	6f f4 00 06 	mov.w	r4,@(0x6:16,er7)
  ffc0ae:	79 05 01 00 	mov.w	#0x100,r5
  ffc0b2:	6f f5 00 02 	mov.w	r5,@(0x2:16,er7)
  ffc0b6:	79 02 00 02 	mov.w	#0x2,r2
  ffc0ba:	7a 01 00 ff 	mov.l	#0xffdadc,er1
  ffc0be:	da dc 
  ffc0c0:	7a 00 00 ff 	mov.l	#0xffd70c,er0
  ffc0c4:	d7 0c 
  ffc0c6:	5e ff cf 20 	jsr	@0xffcf20:24

00ffc0ca <.LM5>:
/home/main.c:12
  kz_run(clock_main,    "clock",    9, 0x100, 0, NULL);
  ffc0ca:	7a 17 00 00 	add.l	#0x24,er7
  ffc0ce:	00 24 
  ffc0d0:	01 00 6d f4 	mov.l	er4,@-er7
  ffc0d4:	1b 97       	subs	#4,er7
  ffc0d6:	1b 97       	subs	#4,er7
  ffc0d8:	6f f4 00 06 	mov.w	r4,@(0x6:16,er7)
  ffc0dc:	6f f5 00 02 	mov.w	r5,@(0x2:16,er7)
  ffc0e0:	79 02 00 09 	mov.w	#0x9,r2
  ffc0e4:	7a 01 00 ff 	mov.l	#0xffdae5,er1
  ffc0e8:	da e5 
  ffc0ea:	7a 00 00 ff 	mov.l	#0xffd9ce,er0
  ffc0ee:	d9 ce 
  ffc0f0:	5e ff cf 20 	jsr	@0xffcf20:24

00ffc0f4 <.LM6>:
/home/main.c:14

  kz_chpri(15); /* 優先順位を下げて，アイドルスレッドに移行する */
  ffc0f4:	79 00 00 0f 	mov.w	#0xf,r0
  ffc0f8:	5e ff d0 46 	jsr	@0xffd046:24

00ffc0fc <.LM7>:
/home/main.c:15
  INTR_ENABLE; /* 割込み有効にする */
  ffc0fc:	06 3f       	andc	#0x3f,ccr
  ffc0fe:	7a 17 00 00 	add.l	#0xc,er7
  ffc102:	00 0c 

00ffc104 <.L2>:
/home/main.c:17 (discriminator 1)
  while (1) {
    asm volatile ("sleep"); /* 省電力モードに移行 */
  ffc104:	01 80       	sleep	
  ffc106:	40 fc       	bra	.-4 (0xffc104)

00ffc108 <_softvec_init>:
softvec_init():
/home/interrupt.c:7
#include "intr.h"
#include "interrupt.h"

/* ソフトウエア・割込みベクタの初期化 */
int softvec_init(void)
{
  ffc108:	01 00 6d f6 	mov.l	er6,@-er7
  ffc10c:	0f f6       	mov.l	er7,er6

00ffc10e <.LBB4>:
softvec_setintr():
/home/interrupt.c:17
}

/* ソフトウエア・割込みベクタの設定 */
int softvec_setintr(softvec_type_t type, softvec_handler_t handler)
{
  SOFTVECS[type] = handler;
  ffc10e:	18 aa       	sub.b	r2l,r2l
  ffc110:	6a aa 00 ff 	mov.b	r2l,@0xffbf20:32
  ffc114:	bf 20 
  ffc116:	6a aa 00 ff 	mov.b	r2l,@0xffbf21:32
  ffc11a:	bf 21 
  ffc11c:	6a aa 00 ff 	mov.b	r2l,@0xffbf22:32
  ffc120:	bf 22 
  ffc122:	6a aa 00 ff 	mov.b	r2l,@0xffbf23:32
  ffc126:	bf 23 
  ffc128:	6a aa 00 ff 	mov.b	r2l,@0xffbf24:32
  ffc12c:	bf 24 
  ffc12e:	6a aa 00 ff 	mov.b	r2l,@0xffbf25:32
  ffc132:	bf 25 
  ffc134:	6a aa 00 ff 	mov.b	r2l,@0xffbf26:32
  ffc138:	bf 26 
  ffc13a:	6a aa 00 ff 	mov.b	r2l,@0xffbf27:32
  ffc13e:	bf 27 
  ffc140:	6a aa 00 ff 	mov.b	r2l,@0xffbf28:32
  ffc144:	bf 28 
  ffc146:	6a aa 00 ff 	mov.b	r2l,@0xffbf29:32
  ffc14a:	bf 29 
  ffc14c:	6a aa 00 ff 	mov.b	r2l,@0xffbf2a:32
  ffc150:	bf 2a 
  ffc152:	6a aa 00 ff 	mov.b	r2l,@0xffbf2b:32
  ffc156:	bf 2b 
  ffc158:	6a aa 00 ff 	mov.b	r2l,@0xffbf2c:32
  ffc15c:	bf 2c 
  ffc15e:	6a aa 00 ff 	mov.b	r2l,@0xffbf2d:32
  ffc162:	bf 2d 
  ffc164:	6a aa 00 ff 	mov.b	r2l,@0xffbf2e:32
  ffc168:	bf 2e 
  ffc16a:	6a aa 00 ff 	mov.b	r2l,@0xffbf2f:32
  ffc16e:	bf 2f 

00ffc170 <.LM3>:
softvec_init():
/home/interrupt.c:12
}
  ffc170:	19 00       	sub.w	r0,r0
  ffc172:	01 00 6d 76 	mov.l	@er7+,er6
  ffc176:	54 70       	rts	

00ffc178 <_softvec_setintr>:
softvec_setintr():
/home/interrupt.c:16
{
  ffc178:	01 00 6d f6 	mov.l	er6,@-er7
  ffc17c:	0f f6       	mov.l	er7,er6

00ffc17e <.LM5>:
/home/interrupt.c:17
  SOFTVECS[type] = handler;
  ffc17e:	17 f0       	exts.l	er0
  ffc180:	10 30       	shll.l	er0
  ffc182:	10 30       	shll.l	er0
  ffc184:	01 00 78 80 	mov.l	er1,@(0xffbf20:32,er0)
  ffc188:	6b a1 00 ff 
  ffc18c:	bf 20 

00ffc18e <.LM6>:
/home/interrupt.c:19
  return 0;
}
  ffc18e:	19 00       	sub.w	r0,r0
  ffc190:	01 00 6d 76 	mov.l	@er7+,er6
  ffc194:	54 70       	rts	

00ffc196 <_interrupt>:
interrupt():
/home/interrupt.c:26
/*
 * 共通割込みハンドラ．
 * ソフトウエア・割込みベクタを見て，各ハンドラに分岐する．
 */
void interrupt(softvec_type_t type, unsigned long sp)
{
  ffc196:	01 00 6d f6 	mov.l	er6,@-er7
  ffc19a:	0f f6       	mov.l	er7,er6

00ffc19c <.LM8>:
/home/interrupt.c:27
  softvec_handler_t handler = SOFTVECS[type];
  ffc19c:	0d 02       	mov.w	r0,r2
  ffc19e:	17 f2       	exts.l	er2
  ffc1a0:	10 32       	shll.l	er2
  ffc1a2:	10 32       	shll.l	er2
  ffc1a4:	01 00 78 20 	mov.l	@(0xffbf20:32,er2),er2
  ffc1a8:	6b 22 00 ff 
  ffc1ac:	bf 20 

00ffc1ae <.LM9>:
/home/interrupt.c:28
  if (handler)
  ffc1ae:	47 02       	beq	.+2 (0xffc1b2)

00ffc1b0 <.LM10>:
/home/interrupt.c:29
    handler(type, sp);
  ffc1b0:	5d 20       	jsr	@er2

00ffc1b2 <.L3>:
/home/interrupt.c:30
}
  ffc1b2:	01 00 6d 76 	mov.l	@er7+,er6
  ffc1b6:	54 70       	rts	

00ffc1b8 <_memset>:
memset():
/home/lib.c:6
#include "defines.h"
#include "serial.h"
#include "lib.h"

void *memset(void *b, int c, long len)
{
  ffc1b8:	01 00 6d f6 	mov.l	er6,@-er7
  ffc1bc:	0f f6       	mov.l	er7,er6
  ffc1be:	01 00 6d f4 	mov.l	er4,@-er7

00ffc1c2 <.LM2>:
/home/lib.c:8
  char *p;
  for (p = b; len > 0; len--)
  ffc1c2:	0f 83       	mov.l	er0,er3
  ffc1c4:	0a 82       	add.l	er0,er2
  ffc1c6:	40 04       	bra	.+4 (0xffc1cc)

00ffc1c8 <.L3>:
/home/lib.c:9 (discriminator 3)
    *(p++) = c;
  ffc1c8:	68 b9       	mov.b	r1l,@er3
  ffc1ca:	0b 03       	adds	#1,er3

00ffc1cc <.L2>:
  ffc1cc:	0f a4       	mov.l	er2,er4
  ffc1ce:	1a b4       	sub.l	er3,er4

00ffc1d0 <.LM4>:
/home/lib.c:8 (discriminator 1)
  for (p = b; len > 0; len--)
  ffc1d0:	0f c4       	mov.l	er4,er4
  ffc1d2:	4e f4       	bgt	.-12 (0xffc1c8)

00ffc1d4 <.LM5>:
/home/lib.c:11
  return b;
}
  ffc1d4:	01 00 6d 74 	mov.l	@er7+,er4
  ffc1d8:	01 00 6d 76 	mov.l	@er7+,er6
  ffc1dc:	54 70       	rts	

00ffc1de <_memcpy>:
memcpy():
/home/lib.c:14

void *memcpy(void *dst, const void *src, long len)
{
  ffc1de:	01 00 6d f6 	mov.l	er6,@-er7
  ffc1e2:	0f f6       	mov.l	er7,er6
  ffc1e4:	01 00 6d f4 	mov.l	er4,@-er7
  ffc1e8:	01 00 6d f5 	mov.l	er5,@-er7

00ffc1ec <.LM7>:
/home/lib.c:17
  char *d = dst;
  const char *s = src;
  for (; len > 0; len--)
  ffc1ec:	1a b3       	sub.l	er3,er3
  ffc1ee:	40 0e       	bra	.+14 (0xffc1fe)

00ffc1f0 <.L6>:
/home/lib.c:18 (discriminator 2)
    *(d++) = *(s++);
  ffc1f0:	0f 94       	mov.l	er1,er4
  ffc1f2:	0a b4       	add.l	er3,er4
  ffc1f4:	68 4d       	mov.b	@er4,r5l
  ffc1f6:	0f 84       	mov.l	er0,er4
  ffc1f8:	0a b4       	add.l	er3,er4
  ffc1fa:	68 cd       	mov.b	r5l,@er4
  ffc1fc:	0b 03       	adds	#1,er3

00ffc1fe <.L5>:
  ffc1fe:	0f a4       	mov.l	er2,er4
  ffc200:	1a b4       	sub.l	er3,er4

00ffc202 <.LM9>:
/home/lib.c:17 (discriminator 1)
  for (; len > 0; len--)
  ffc202:	0f c4       	mov.l	er4,er4
  ffc204:	4e ea       	bgt	.-22 (0xffc1f0)

00ffc206 <.LM10>:
/home/lib.c:20
  return dst;
}
  ffc206:	01 00 6d 75 	mov.l	@er7+,er5
  ffc20a:	01 00 6d 74 	mov.l	@er7+,er4
  ffc20e:	01 00 6d 76 	mov.l	@er7+,er6
  ffc212:	54 70       	rts	

00ffc214 <_memcmp>:
memcmp():
/home/lib.c:23

int memcmp(const void *b1, const void *b2, long len)
{
  ffc214:	01 00 6d f6 	mov.l	er6,@-er7
  ffc218:	0f f6       	mov.l	er7,er6
  ffc21a:	01 00 6d f4 	mov.l	er4,@-er7
  ffc21e:	0a 82       	add.l	er0,er2

00ffc220 <.LM12>:
/home/lib.c:25
  const char *p1 = b1, *p2 = b2;
  for (; len > 0; len--) {
  ffc220:	40 14       	bra	.+20 (0xffc236)

00ffc222 <.L11>:
/home/lib.c:26
    if (*p1 != *p2)
  ffc222:	68 0c       	mov.b	@er0,r4l
  ffc224:	68 1b       	mov.b	@er1,r3l
  ffc226:	1c bc       	cmp.b	r3l,r4l
  ffc228:	47 08       	beq	.+8 (0xffc232)

00ffc22a <.LM14>:
/home/lib.c:27
      return (*p1 > *p2) ? 1 : -1;
  ffc22a:	42 16       	bhi	.+22 (0xffc242)
  ffc22c:	79 00 ff ff 	mov.w	#0xffff,r0
  ffc230:	40 14       	bra	.+20 (0xffc246)

00ffc232 <.L9>:
/home/lib.c:28
    p1++;
  ffc232:	0b 00       	adds	#1,er0

00ffc234 <.LM16>:
/home/lib.c:29
    p2++;
  ffc234:	0b 01       	adds	#1,er1

00ffc236 <.L8>:
  ffc236:	0f a3       	mov.l	er2,er3
  ffc238:	1a 83       	sub.l	er0,er3

00ffc23a <.LM17>:
/home/lib.c:25 (discriminator 1)
  for (; len > 0; len--) {
  ffc23a:	0f b3       	mov.l	er3,er3
  ffc23c:	4e e4       	bgt	.-28 (0xffc222)

00ffc23e <.LM18>:
/home/lib.c:31
  }
  return 0;
  ffc23e:	19 00       	sub.w	r0,r0
  ffc240:	40 04       	bra	.+4 (0xffc246)

00ffc242 <.L12>:
/home/lib.c:27
      return (*p1 > *p2) ? 1 : -1;
  ffc242:	79 00 00 01 	mov.w	#0x1,r0

00ffc246 <.L7>:
/home/lib.c:32
}
  ffc246:	01 00 6d 74 	mov.l	@er7+,er4
  ffc24a:	01 00 6d 76 	mov.l	@er7+,er6
  ffc24e:	54 70       	rts	

00ffc250 <_strlen>:
strlen():
/home/lib.c:35

int strlen(const char *s)
{
  ffc250:	01 00 6d f6 	mov.l	er6,@-er7
  ffc254:	0f f6       	mov.l	er7,er6

00ffc256 <.LM22>:
/home/lib.c:37
  int len;
  for (len = 0; *s; s++, len++)
  ffc256:	19 22       	sub.w	r2,r2
  ffc258:	40 04       	bra	.+4 (0xffc25e)

00ffc25a <.L15>:
/home/lib.c:37 (discriminator 3)
  ffc25a:	0b 00       	adds	#1,er0
  ffc25c:	0b 02       	adds	#1,er2

00ffc25e <.L14>:
/home/lib.c:37 (discriminator 1)
  ffc25e:	68 0b       	mov.b	@er0,r3l
  ffc260:	46 f8       	bne	.-8 (0xffc25a)

00ffc262 <.LM25>:
/home/lib.c:40
    ;
  return len;
}
  ffc262:	0d 20       	mov.w	r2,r0
  ffc264:	01 00 6d 76 	mov.l	@er7+,er6
  ffc268:	54 70       	rts	

00ffc26a <_strcpy>:
strcpy():
/home/lib.c:43

char *strcpy(char *dst, const char *src)
{
  ffc26a:	01 00 6d f6 	mov.l	er6,@-er7
  ffc26e:	0f f6       	mov.l	er7,er6

00ffc270 <.LM27>:
  ffc270:	0f 82       	mov.l	er0,er2

00ffc272 <.L18>:
/home/lib.c:46
  char *d = dst;
  for (;; dst++, src++) {
    *dst = *src;
  ffc272:	68 1b       	mov.b	@er1,r3l
  ffc274:	68 ab       	mov.b	r3l,@er2

00ffc276 <.LM29>:
/home/lib.c:47
    if (!*src) break;
  ffc276:	68 1b       	mov.b	@er1,r3l
  ffc278:	47 06       	beq	.+6 (0xffc280)

00ffc27a <.LM30>:
/home/lib.c:45
  for (;; dst++, src++) {
  ffc27a:	0b 02       	adds	#1,er2
  ffc27c:	0b 01       	adds	#1,er1

00ffc27e <.LM31>:
/home/lib.c:46
    *dst = *src;
  ffc27e:	40 f2       	bra	.-14 (0xffc272)

00ffc280 <.L17>:
/home/lib.c:50
  }
  return d;
}
  ffc280:	01 00 6d 76 	mov.l	@er7+,er6
  ffc284:	54 70       	rts	

00ffc286 <_strcmp>:
strcmp():
/home/lib.c:53

int strcmp(const char *s1, const char *s2)
{
  ffc286:	01 00 6d f6 	mov.l	er6,@-er7
  ffc28a:	0f f6       	mov.l	er7,er6

00ffc28c <.LM34>:
/home/lib.c:54
  while (*s1 || *s2) {
  ffc28c:	40 10       	bra	.+16 (0xffc29e)

00ffc28e <.L23>:
/home/lib.c:55
    if (*s1 != *s2)
  ffc28e:	1c ba       	cmp.b	r3l,r2l
  ffc290:	47 08       	beq	.+8 (0xffc29a)

00ffc292 <.LM36>:
/home/lib.c:56
      return (*s1 > *s2) ? 1 : -1;
  ffc292:	44 20       	bcc	.+32 (0xffc2b4)
  ffc294:	79 00 00 01 	mov.w	#0x1,r0
  ffc298:	40 1e       	bra	.+30 (0xffc2b8)

00ffc29a <.L21>:
/home/lib.c:57
    s1++;
  ffc29a:	0b 00       	adds	#1,er0

00ffc29c <.LM38>:
/home/lib.c:58
    s2++;
  ffc29c:	0b 01       	adds	#1,er1

00ffc29e <.L20>:
/home/lib.c:54
  while (*s1 || *s2) {
  ffc29e:	68 0b       	mov.b	@er0,r3l
  ffc2a0:	68 1a       	mov.b	@er1,r2l
  ffc2a2:	0c bb       	mov.b	r3l,r3l
  ffc2a4:	46 e8       	bne	.-24 (0xffc28e)

00ffc2a6 <.LM40>:
/home/lib.c:54 (discriminator 1)
  ffc2a6:	79 00 00 01 	mov.w	#0x1,r0
  ffc2aa:	0c aa       	mov.b	r2l,r2l
  ffc2ac:	46 02       	bne	.+2 (0xffc2b0)
  ffc2ae:	19 00       	sub.w	r0,r0

00ffc2b0 <.L24>:
  ffc2b0:	17 90       	neg.w	r0
  ffc2b2:	40 04       	bra	.+4 (0xffc2b8)

00ffc2b4 <.L25>:
/home/lib.c:56
      return (*s1 > *s2) ? 1 : -1;
  ffc2b4:	79 00 ff ff 	mov.w	#0xffff,r0

00ffc2b8 <.L19>:
/home/lib.c:61
  }
  return 0;
}
  ffc2b8:	01 00 6d 76 	mov.l	@er7+,er6
  ffc2bc:	54 70       	rts	

00ffc2be <_strncmp>:
strncmp():
/home/lib.c:64

int strncmp(const char *s1, const char *s2, int len)
{
  ffc2be:	01 00 6d f6 	mov.l	er6,@-er7
  ffc2c2:	0f f6       	mov.l	er7,er6
  ffc2c4:	01 00 6d f4 	mov.l	er4,@-er7

00ffc2c8 <.LM44>:
/home/lib.c:65
  while ((*s1 || *s2) && (len > 0)) {
  ffc2c8:	40 14       	bra	.+20 (0xffc2de)

00ffc2ca <.L32>:
/home/lib.c:66
    if (*s1 != *s2)
  ffc2ca:	68 1c       	mov.b	@er1,r4l
  ffc2cc:	1c bc       	cmp.b	r3l,r4l
  ffc2ce:	47 08       	beq	.+8 (0xffc2d8)

00ffc2d0 <.LM46>:
/home/lib.c:67
      return (*s1 > *s2) ? 1 : -1;
  ffc2d0:	45 1e       	bcs	.+30 (0xffc2f0)
  ffc2d2:	79 00 ff ff 	mov.w	#0xffff,r0
  ffc2d6:	40 2a       	bra	.+42 (0xffc302)

00ffc2d8 <.L28>:
/home/lib.c:68
    s1++;
  ffc2d8:	0b 00       	adds	#1,er0

00ffc2da <.LM48>:
/home/lib.c:69
    s2++;
  ffc2da:	0b 01       	adds	#1,er1

00ffc2dc <.LM49>:
/home/lib.c:70
    len--;
  ffc2dc:	1b 02       	subs	#1,er2

00ffc2de <.L27>:
/home/lib.c:65
  while ((*s1 || *s2) && (len > 0)) {
  ffc2de:	68 0b       	mov.b	@er0,r3l
  ffc2e0:	46 06       	bne	.+6 (0xffc2e8)

00ffc2e2 <.LM51>:
/home/lib.c:65 (discriminator 2)
  ffc2e2:	68 1b       	mov.b	@er1,r3l
  ffc2e4:	46 10       	bne	.+16 (0xffc2f6)
  ffc2e6:	40 04       	bra	.+4 (0xffc2ec)

00ffc2e8 <.L30>:
/home/lib.c:65 (discriminator 3)
  ffc2e8:	0d 22       	mov.w	r2,r2
  ffc2ea:	4e de       	bgt	.-34 (0xffc2ca)

00ffc2ec <.L35>:
/home/lib.c:72
  }
  return 0;
  ffc2ec:	19 00       	sub.w	r0,r0
  ffc2ee:	40 12       	bra	.+18 (0xffc302)

00ffc2f0 <.L34>:
/home/lib.c:67
      return (*s1 > *s2) ? 1 : -1;
  ffc2f0:	79 00 00 01 	mov.w	#0x1,r0
  ffc2f4:	40 0c       	bra	.+12 (0xffc302)

00ffc2f6 <.L31>:
/home/lib.c:65
  while ((*s1 || *s2) && (len > 0)) {
  ffc2f6:	79 00 00 01 	mov.w	#0x1,r0
  ffc2fa:	0d 22       	mov.w	r2,r2
  ffc2fc:	4e 02       	bgt	.+2 (0xffc300)
  ffc2fe:	19 00       	sub.w	r0,r0

00ffc300 <.L33>:
  ffc300:	17 90       	neg.w	r0

00ffc302 <.L26>:
/home/lib.c:73
}
  ffc302:	01 00 6d 74 	mov.l	@er7+,er4
  ffc306:	01 00 6d 76 	mov.l	@er7+,er6
  ffc30a:	54 70       	rts	

00ffc30c <_putc>:
putc():
/home/lib.c:77

/* １文字送信 */
int putc(unsigned char c)
{
  ffc30c:	01 00 6d f6 	mov.l	er6,@-er7
  ffc310:	0f f6       	mov.l	er7,er6
  ffc312:	01 00 6d f4 	mov.l	er4,@-er7
  ffc316:	0c 8c       	mov.b	r0l,r4l

00ffc318 <.LM58>:
/home/lib.c:78
  if (c == '\n')
  ffc318:	a8 0a       	cmp.b	#0xa,r0l
  ffc31a:	46 0a       	bne	.+10 (0xffc326)

00ffc31c <.LM59>:
/home/lib.c:79
    serial_send_byte(SERIAL_DEFAULT_DEVICE, '\r');
  ffc31c:	f9 0d       	mov.b	#0xd,r1l
  ffc31e:	79 00 00 01 	mov.w	#0x1,r0
  ffc322:	5e ff c4 98 	jsr	@0xffc498:24

00ffc326 <.L37>:
/home/lib.c:80
  return serial_send_byte(SERIAL_DEFAULT_DEVICE, c);
  ffc326:	0c c9       	mov.b	r4l,r1l
  ffc328:	79 00 00 01 	mov.w	#0x1,r0
  ffc32c:	5e ff c4 98 	jsr	@0xffc498:24

00ffc330 <.LM61>:
/home/lib.c:81
}
  ffc330:	01 00 6d 74 	mov.l	@er7+,er4
  ffc334:	01 00 6d 76 	mov.l	@er7+,er6
  ffc338:	54 70       	rts	

00ffc33a <_getc>:
getc():
/home/lib.c:85

/* １文字受信 */
unsigned char getc(void)
{
  ffc33a:	01 00 6d f6 	mov.l	er6,@-er7
  ffc33e:	0f f6       	mov.l	er7,er6
  ffc340:	01 00 6d f4 	mov.l	er4,@-er7

00ffc344 <.LM63>:
/home/lib.c:86
  unsigned char c = serial_recv_byte(SERIAL_DEFAULT_DEVICE);
  ffc344:	79 00 00 01 	mov.w	#0x1,r0
  ffc348:	5e ff c4 ee 	jsr	@0xffc4ee:24

00ffc34c <.LVL60>:
  ffc34c:	0c 8c       	mov.b	r0l,r4l

00ffc34e <.LM64>:
/home/lib.c:87
  c = (c == '\r') ? '\n' : c;
  ffc34e:	a8 0d       	cmp.b	#0xd,r0l
  ffc350:	46 02       	bne	.+2 (0xffc354)
  ffc352:	fc 0a       	mov.b	#0xa,r4l

00ffc354 <.L39>:
/home/lib.c:88 (discriminator 4)
  putc(c); /* エコー・バック */
  ffc354:	0c c8       	mov.b	r4l,r0l
  ffc356:	5e ff c3 0c 	jsr	@0xffc30c:24

00ffc35a <.LM66>:
/home/lib.c:90
  return c;
}
  ffc35a:	0c c8       	mov.b	r4l,r0l
  ffc35c:	01 00 6d 74 	mov.l	@er7+,er4
  ffc360:	01 00 6d 76 	mov.l	@er7+,er6
  ffc364:	54 70       	rts	

00ffc366 <_puts>:
puts():
/home/lib.c:94

/* 文字列送信 */
int puts(unsigned char *str)
{
  ffc366:	01 00 6d f6 	mov.l	er6,@-er7
  ffc36a:	0f f6       	mov.l	er7,er6
  ffc36c:	01 00 6d f4 	mov.l	er4,@-er7
  ffc370:	0f 84       	mov.l	er0,er4

00ffc372 <.LM68>:
/home/lib.c:95
  while (*str)
  ffc372:	40 06       	bra	.+6 (0xffc37a)

00ffc374 <.L42>:
/home/lib.c:96
    putc(*(str++));
  ffc374:	0b 04       	adds	#1,er4
  ffc376:	5e ff c3 0c 	jsr	@0xffc30c:24

00ffc37a <.L41>:
/home/lib.c:95
  while (*str)
  ffc37a:	68 48       	mov.b	@er4,r0l
  ffc37c:	46 f6       	bne	.-10 (0xffc374)

00ffc37e <.LM71>:
/home/lib.c:98
  return 0;
}
  ffc37e:	19 00       	sub.w	r0,r0
  ffc380:	01 00 6d 74 	mov.l	@er7+,er4
  ffc384:	01 00 6d 76 	mov.l	@er7+,er6
  ffc388:	54 70       	rts	

00ffc38a <_gets>:
gets():
/home/lib.c:102

/* 文字列受信 */
int gets(unsigned char *buf)
{
  ffc38a:	01 00 6d f6 	mov.l	er6,@-er7
  ffc38e:	0f f6       	mov.l	er7,er6
  ffc390:	01 00 6d f4 	mov.l	er4,@-er7
  ffc394:	01 00 6d f5 	mov.l	er5,@-er7
  ffc398:	1b 97       	subs	#4,er7
  ffc39a:	0f 85       	mov.l	er0,er5

00ffc39c <.LM73>:
  ffc39c:	0f 84       	mov.l	er0,er4

00ffc39e <.L45>:
  ffc39e:	0d 42       	mov.w	r4,r2
  ffc3a0:	19 52       	sub.w	r5,r2

00ffc3a2 <.LM74>:
/home/lib.c:106
  int i = 0;
  unsigned char c;
  do {
    c = getc();
  ffc3a2:	01 00 6f e2 	mov.l	er2,@(0xfff4:16,er6)
  ffc3a6:	ff f4 
  ffc3a8:	5e ff c3 3a 	jsr	@0xffc33a:24

00ffc3ac <.LM75>:
/home/lib.c:107
    if (c == '\n')
  ffc3ac:	01 00 6f 62 	mov.l	@(0xfff4:16,er6),er2
  ffc3b0:	ff f4 
  ffc3b2:	a8 0a       	cmp.b	#0xa,r0l
  ffc3b4:	46 02       	bne	.+2 (0xffc3b8)

00ffc3b6 <.LM76>:
/home/lib.c:108
      c = '\0';
  ffc3b6:	18 88       	sub.b	r0l,r0l

00ffc3b8 <.L44>:
/home/lib.c:109
    buf[i++] = c;
  ffc3b8:	68 c8       	mov.b	r0l,@er4
  ffc3ba:	0b 04       	adds	#1,er4

00ffc3bc <.LM78>:
/home/lib.c:110
  } while (c);
  ffc3bc:	46 e0       	bne	.-32 (0xffc39e)

00ffc3be <.LM79>:
/home/lib.c:112
  return i - 1;
}
  ffc3be:	0d 20       	mov.w	r2,r0
  ffc3c0:	0b 97       	adds	#4,er7
  ffc3c2:	01 00 6d 75 	mov.l	@er7+,er5
  ffc3c6:	01 00 6d 74 	mov.l	@er7+,er4
  ffc3ca:	01 00 6d 76 	mov.l	@er7+,er6
  ffc3ce:	54 70       	rts	

00ffc3d0 <_putxval>:
putxval():
/home/lib.c:116

/* 数値の16進表示 */
int putxval(unsigned long value, int column)
{
  ffc3d0:	01 00 6d f6 	mov.l	er6,@-er7
  ffc3d4:	0f f6       	mov.l	er7,er6
  ffc3d6:	01 00 6d f4 	mov.l	er4,@-er7
  ffc3da:	7a 37 00 00 	sub.l	#0xc,er7
  ffc3de:	00 0c 

00ffc3e0 <.LM81>:
/home/lib.c:121
  char buf[9];
  char *p;

  p = buf + sizeof(buf) - 1;
  *(p--) = '\0';
  ffc3e0:	18 aa       	sub.b	r2l,r2l
  ffc3e2:	6e ea ff fb 	mov.b	r2l,@(0xfffb:16,er6)

00ffc3e6 <.LM82>:
/home/lib.c:123

  if (!value && !column)
  ffc3e6:	0f 80       	mov.l	er0,er0
  ffc3e8:	46 08       	bne	.+8 (0xffc3f2)

00ffc3ea <.LM83>:
/home/lib.c:123 (discriminator 1)
  ffc3ea:	0d 11       	mov.w	r1,r1
  ffc3ec:	46 04       	bne	.+4 (0xffc3f2)

00ffc3ee <.LM84>:
/home/lib.c:124
    column++;
  ffc3ee:	79 01 00 01 	mov.w	#0x1,r1

00ffc3f2 <.L48>:
  ffc3f2:	0f e2       	mov.l	er6,er2
  ffc3f4:	1b 92       	subs	#4,er2
  ffc3f6:	1b 82       	subs	#2,er2

00ffc3f8 <.LM85>:
/home/lib.c:127

  while (value || column) {
    *(p--) = "0123456789abcdef"[value & 0xf];
  ffc3f8:	7a 04 00 ff 	mov.l	#0xffdb05,er4
  ffc3fc:	db 05 
  ffc3fe:	40 1c       	bra	.+28 (0xffc41c)

00ffc400 <.L51>:
  ffc400:	1a b3       	sub.l	er3,er3
  ffc402:	0c 8b       	mov.b	r0l,r3l
  ffc404:	eb 0f       	and.b	#0xf,r3l
  ffc406:	0a c3       	add.l	er4,er3
  ffc408:	68 3b       	mov.b	@er3,r3l
  ffc40a:	68 ab       	mov.b	r3l,@er2

00ffc40c <.LM86>:
/home/lib.c:128
    value >>= 4;
  ffc40c:	11 30       	shlr.l	er0
  ffc40e:	11 30       	shlr.l	er0
  ffc410:	11 30       	shlr.l	er0
  ffc412:	11 30       	shlr.l	er0

00ffc414 <.LM87>:
/home/lib.c:129
    if (column) column--;
  ffc414:	0d 11       	mov.w	r1,r1
  ffc416:	47 02       	beq	.+2 (0xffc41a)

00ffc418 <.LM88>:
/home/lib.c:129 (discriminator 1)
  ffc418:	1b 01       	subs	#1,er1

00ffc41a <.L50>:
  ffc41a:	1b 02       	subs	#1,er2

00ffc41c <.L49>:
/home/lib.c:126
  while (value || column) {
  ffc41c:	0f 80       	mov.l	er0,er0
  ffc41e:	46 e0       	bne	.-32 (0xffc400)

00ffc420 <.LM90>:
/home/lib.c:126 (discriminator 1)
  ffc420:	0d 11       	mov.w	r1,r1
  ffc422:	46 dc       	bne	.-36 (0xffc400)

00ffc424 <.LM91>:
/home/lib.c:132
  }

  puts(p + 1);
  ffc424:	0f a0       	mov.l	er2,er0
  ffc426:	0b 00       	adds	#1,er0
  ffc428:	5e ff c3 66 	jsr	@0xffc366:24

00ffc42c <.LM92>:
/home/lib.c:135

  return 0;
}
  ffc42c:	19 00       	sub.w	r0,r0
  ffc42e:	7a 17 00 00 	add.l	#0xc,er7
  ffc432:	00 0c 
  ffc434:	01 00 6d 74 	mov.l	@er7+,er4
  ffc438:	01 00 6d 76 	mov.l	@er7+,er6
  ffc43c:	54 70       	rts	

00ffc43e <_serial_init>:
serial_init():
/home/serial.c:59
  { H8_3069F_SCI2 }, 
};

/* デバイス初期化 */
int serial_init(int index)
{
  ffc43e:	01 00 6d f6 	mov.l	er6,@-er7
  ffc442:	0f f6       	mov.l	er7,er6

00ffc444 <.LM2>:
/home/serial.c:60
  volatile struct h8_3069f_sci *sci = regs[index].sci;
  ffc444:	17 f0       	exts.l	er0
  ffc446:	10 30       	shll.l	er0
  ffc448:	10 30       	shll.l	er0
  ffc44a:	01 00 78 00 	mov.l	@(0xffda88:32,er0),er2
  ffc44e:	6b 22 00 ff 
  ffc452:	da 88 

00ffc454 <.LM3>:
/home/serial.c:62

  sci->scr = 0;
  ffc454:	18 bb       	sub.b	r3l,r3l
  ffc456:	6e ab 00 02 	mov.b	r3l,@(0x2:16,er2)

00ffc45a <.LM4>:
/home/serial.c:63
  sci->smr = 0;
  ffc45a:	68 ab       	mov.b	r3l,@er2

00ffc45c <.LM5>:
/home/serial.c:64
  sci->brr = 64; /* 20MHzのクロックから9600bpsを生成(25MHzの場合は80にする) */
  ffc45c:	f8 40       	mov.b	#0x40,r0l
  ffc45e:	6e a8 00 01 	mov.b	r0l,@(0x1:16,er2)

00ffc462 <.LM6>:
/home/serial.c:65
  sci->scr = H8_3069F_SCI_SCR_RE | H8_3069F_SCI_SCR_TE; /* 送受信可能 */
  ffc462:	f8 30       	mov.b	#0x30,r0l
  ffc464:	6e a8 00 02 	mov.b	r0l,@(0x2:16,er2)

00ffc468 <.LM7>:
/home/serial.c:66
  sci->ssr = 0;
  ffc468:	6e ab 00 04 	mov.b	r3l,@(0x4:16,er2)

00ffc46c <.LM8>:
/home/serial.c:69

  return 0;
}
  ffc46c:	19 00       	sub.w	r0,r0
  ffc46e:	01 00 6d 76 	mov.l	@er7+,er6
  ffc472:	54 70       	rts	

00ffc474 <_serial_is_send_enable>:
serial_is_send_enable():
/home/serial.c:73

/* 送信可能か？ */
int serial_is_send_enable(int index)
{
  ffc474:	01 00 6d f6 	mov.l	er6,@-er7
  ffc478:	0f f6       	mov.l	er7,er6

00ffc47a <.LM10>:
/home/serial.c:74
  volatile struct h8_3069f_sci *sci = regs[index].sci;
  ffc47a:	17 f0       	exts.l	er0
  ffc47c:	10 30       	shll.l	er0
  ffc47e:	10 30       	shll.l	er0
  ffc480:	01 00 78 00 	mov.l	@(0xffda88:32,er0),er2
  ffc484:	6b 22 00 ff 
  ffc488:	da 88 

00ffc48a <.LM11>:
/home/serial.c:75
  return (sci->ssr & H8_3069F_SCI_SSR_TDRE);
  ffc48a:	6e 28 00 04 	mov.b	@(0x4:16,er2),r0l
  ffc48e:	e8 80       	and.b	#0x80,r0l

00ffc490 <.LM12>:
/home/serial.c:76
}
  ffc490:	17 50       	extu.w	r0
  ffc492:	01 00 6d 76 	mov.l	@er7+,er6
  ffc496:	54 70       	rts	

00ffc498 <_serial_send_byte>:
serial_send_byte():
/home/serial.c:80

/* １文字送信 */
int serial_send_byte(int index, unsigned char c)
{
  ffc498:	01 00 6d f6 	mov.l	er6,@-er7
  ffc49c:	0f f6       	mov.l	er7,er6

00ffc49e <.LM14>:
/home/serial.c:81
  volatile struct h8_3069f_sci *sci = regs[index].sci;
  ffc49e:	17 f0       	exts.l	er0
  ffc4a0:	10 30       	shll.l	er0
  ffc4a2:	10 30       	shll.l	er0
  ffc4a4:	01 00 78 00 	mov.l	@(0xffda88:32,er0),er2
  ffc4a8:	6b 22 00 ff 
  ffc4ac:	da 88 

00ffc4ae <.L4>:
serial_is_send_enable():
/home/serial.c:75 (discriminator 1)
  return (sci->ssr & H8_3069F_SCI_SSR_TDRE);
  ffc4ae:	6e 2b 00 04 	mov.b	@(0x4:16,er2),r3l

00ffc4b2 <.LM16>:
serial_send_byte():
/home/serial.c:84

  /* 送信可能になるまで待つ */
  while (!serial_is_send_enable(index))
  ffc4b2:	4c fa       	bge	.-6 (0xffc4ae)

00ffc4b4 <.LM17>:
/home/serial.c:86
    ;
  sci->tdr = c;
  ffc4b4:	6e a9 00 03 	mov.b	r1l,@(0x3:16,er2)

00ffc4b8 <.LM18>:
/home/serial.c:87
  sci->ssr &= ~H8_3069F_SCI_SSR_TDRE; /* 送信開始 */
  ffc4b8:	6e 2b 00 04 	mov.b	@(0x4:16,er2),r3l
  ffc4bc:	72 7b       	bclr	#0x7,r3l
  ffc4be:	6e ab 00 04 	mov.b	r3l,@(0x4:16,er2)

00ffc4c2 <.LM19>:
/home/serial.c:90

  return 0;
}
  ffc4c2:	19 00       	sub.w	r0,r0
  ffc4c4:	01 00 6d 76 	mov.l	@er7+,er6
  ffc4c8:	54 70       	rts	

00ffc4ca <_serial_is_recv_enable>:
serial_is_recv_enable():
/home/serial.c:94

/* 受信可能か？ */
int serial_is_recv_enable(int index)
{
  ffc4ca:	01 00 6d f6 	mov.l	er6,@-er7
  ffc4ce:	0f f6       	mov.l	er7,er6

00ffc4d0 <.LM21>:
/home/serial.c:95
  volatile struct h8_3069f_sci *sci = regs[index].sci;
  ffc4d0:	17 f0       	exts.l	er0
  ffc4d2:	10 30       	shll.l	er0
  ffc4d4:	10 30       	shll.l	er0
  ffc4d6:	01 00 78 00 	mov.l	@(0xffda88:32,er0),er2
  ffc4da:	6b 22 00 ff 
  ffc4de:	da 88 

00ffc4e0 <.LM22>:
/home/serial.c:96
  return (sci->ssr & H8_3069F_SCI_SSR_RDRF);
  ffc4e0:	6e 28 00 04 	mov.b	@(0x4:16,er2),r0l
  ffc4e4:	e8 40       	and.b	#0x40,r0l

00ffc4e6 <.LM23>:
/home/serial.c:97
}
  ffc4e6:	17 50       	extu.w	r0
  ffc4e8:	01 00 6d 76 	mov.l	@er7+,er6
  ffc4ec:	54 70       	rts	

00ffc4ee <_serial_recv_byte>:
serial_recv_byte():
/home/serial.c:101

/* １文字受信 */
unsigned char serial_recv_byte(int index)
{
  ffc4ee:	01 00 6d f6 	mov.l	er6,@-er7
  ffc4f2:	0f f6       	mov.l	er7,er6

00ffc4f4 <.LM25>:
/home/serial.c:102
  volatile struct h8_3069f_sci *sci = regs[index].sci;
  ffc4f4:	17 f0       	exts.l	er0
  ffc4f6:	10 30       	shll.l	er0
  ffc4f8:	10 30       	shll.l	er0
  ffc4fa:	01 00 78 00 	mov.l	@(0xffda88:32,er0),er2
  ffc4fe:	6b 22 00 ff 
  ffc502:	da 88 

00ffc504 <.L8>:
serial_is_recv_enable():
/home/serial.c:96 (discriminator 1)
  return (sci->ssr & H8_3069F_SCI_SSR_RDRF);
  ffc504:	6e 2b 00 04 	mov.b	@(0x4:16,er2),r3l

00ffc508 <.LM27>:
serial_recv_byte():
/home/serial.c:106
  unsigned char c;

  /* 受信文字が来るまで待つ */
  while (!serial_is_recv_enable(index))
  ffc508:	73 6b       	btst	#0x6,r3l
  ffc50a:	47 f8       	beq	.-8 (0xffc504)

00ffc50c <.LM28>:
/home/serial.c:108
    ;
  c = sci->rdr;
  ffc50c:	6e 28 00 05 	mov.b	@(0x5:16,er2),r0l

00ffc510 <.LM29>:
/home/serial.c:109
  sci->ssr &= ~H8_3069F_SCI_SSR_RDRF; /* 受信完了 */
  ffc510:	6e 2b 00 04 	mov.b	@(0x4:16,er2),r3l
  ffc514:	72 6b       	bclr	#0x6,r3l
  ffc516:	6e ab 00 04 	mov.b	r3l,@(0x4:16,er2)

00ffc51a <.LM30>:
/home/serial.c:112

  return c;
}
  ffc51a:	01 00 6d 76 	mov.l	@er7+,er6
  ffc51e:	54 70       	rts	

00ffc520 <_serial_intr_is_send_enable>:
serial_intr_is_send_enable():
/home/serial.c:116

/* 送信割込み有効か？ */
int serial_intr_is_send_enable(int index)
{
  ffc520:	01 00 6d f6 	mov.l	er6,@-er7
  ffc524:	0f f6       	mov.l	er7,er6

00ffc526 <.LM32>:
/home/serial.c:117
  volatile struct h8_3069f_sci *sci = regs[index].sci;
  ffc526:	17 f0       	exts.l	er0
  ffc528:	10 30       	shll.l	er0
  ffc52a:	10 30       	shll.l	er0
  ffc52c:	01 00 78 00 	mov.l	@(0xffda88:32,er0),er2
  ffc530:	6b 22 00 ff 
  ffc534:	da 88 

00ffc536 <.LM33>:
/home/serial.c:118
  return (sci->scr & H8_3069F_SCI_SCR_TIE) ? 1 : 0;
  ffc536:	6e 28 00 02 	mov.b	@(0x2:16,er2),r0l

00ffc53a <.LM34>:
/home/serial.c:119
}
  ffc53a:	77 78       	bld	#0x7,r0l
  ffc53c:	01 f0 65 00 	xor.l	er0,er0
  ffc540:	12 30       	rotxl.l	er0
  ffc542:	01 00 6d 76 	mov.l	@er7+,er6
  ffc546:	54 70       	rts	

00ffc548 <_serial_intr_send_enable>:
serial_intr_send_enable():
/home/serial.c:123

/* 送信割込み有効化 */
void serial_intr_send_enable(int index)
{
  ffc548:	01 00 6d f6 	mov.l	er6,@-er7
  ffc54c:	0f f6       	mov.l	er7,er6

00ffc54e <.LM36>:
/home/serial.c:124
  volatile struct h8_3069f_sci *sci = regs[index].sci;
  ffc54e:	17 f0       	exts.l	er0
  ffc550:	10 30       	shll.l	er0
  ffc552:	10 30       	shll.l	er0
  ffc554:	01 00 78 00 	mov.l	@(0xffda88:32,er0),er3
  ffc558:	6b 23 00 ff 
  ffc55c:	da 88 

00ffc55e <.LM37>:
/home/serial.c:125
  sci->scr |= H8_3069F_SCI_SCR_TIE;
  ffc55e:	6e 3a 00 02 	mov.b	@(0x2:16,er3),r2l
  ffc562:	70 7a       	bset	#0x7,r2l
  ffc564:	6e ba 00 02 	mov.b	r2l,@(0x2:16,er3)

00ffc568 <.LM38>:
/home/serial.c:126
}
  ffc568:	01 00 6d 76 	mov.l	@er7+,er6
  ffc56c:	54 70       	rts	

00ffc56e <_serial_intr_send_disable>:
serial_intr_send_disable():
/home/serial.c:130

/* 送信割込み無効化 */
void serial_intr_send_disable(int index)
{
  ffc56e:	01 00 6d f6 	mov.l	er6,@-er7
  ffc572:	0f f6       	mov.l	er7,er6

00ffc574 <.LM40>:
/home/serial.c:131
  volatile struct h8_3069f_sci *sci = regs[index].sci;
  ffc574:	17 f0       	exts.l	er0
  ffc576:	10 30       	shll.l	er0
  ffc578:	10 30       	shll.l	er0
  ffc57a:	01 00 78 00 	mov.l	@(0xffda88:32,er0),er3
  ffc57e:	6b 23 00 ff 
  ffc582:	da 88 

00ffc584 <.LM41>:
/home/serial.c:132
  sci->scr &= ~H8_3069F_SCI_SCR_TIE;
  ffc584:	6e 3a 00 02 	mov.b	@(0x2:16,er3),r2l
  ffc588:	72 7a       	bclr	#0x7,r2l
  ffc58a:	6e ba 00 02 	mov.b	r2l,@(0x2:16,er3)

00ffc58e <.LM42>:
/home/serial.c:133
}
  ffc58e:	01 00 6d 76 	mov.l	@er7+,er6
  ffc592:	54 70       	rts	

00ffc594 <_serial_intr_is_recv_enable>:
serial_intr_is_recv_enable():
/home/serial.c:137

/* 受信割込み有効か？ */
int serial_intr_is_recv_enable(int index)
{
  ffc594:	01 00 6d f6 	mov.l	er6,@-er7
  ffc598:	0f f6       	mov.l	er7,er6

00ffc59a <.LM44>:
/home/serial.c:138
  volatile struct h8_3069f_sci *sci = regs[index].sci;
  ffc59a:	17 f0       	exts.l	er0
  ffc59c:	10 30       	shll.l	er0
  ffc59e:	10 30       	shll.l	er0
  ffc5a0:	01 00 78 00 	mov.l	@(0xffda88:32,er0),er2
  ffc5a4:	6b 22 00 ff 
  ffc5a8:	da 88 

00ffc5aa <.LM45>:
/home/serial.c:139
  return (sci->scr & H8_3069F_SCI_SCR_RIE) ? 1 : 0;
  ffc5aa:	6e 28 00 02 	mov.b	@(0x2:16,er2),r0l

00ffc5ae <.LM46>:
/home/serial.c:140
}
  ffc5ae:	77 68       	bld	#0x6,r0l
  ffc5b0:	01 f0 65 00 	xor.l	er0,er0
  ffc5b4:	12 30       	rotxl.l	er0
  ffc5b6:	01 00 6d 76 	mov.l	@er7+,er6
  ffc5ba:	54 70       	rts	

00ffc5bc <_serial_intr_recv_enable>:
serial_intr_recv_enable():
/home/serial.c:144

/* 受信割込み有効化 */
void serial_intr_recv_enable(int index)
{
  ffc5bc:	01 00 6d f6 	mov.l	er6,@-er7
  ffc5c0:	0f f6       	mov.l	er7,er6

00ffc5c2 <.LM48>:
/home/serial.c:145
  volatile struct h8_3069f_sci *sci = regs[index].sci;
  ffc5c2:	17 f0       	exts.l	er0
  ffc5c4:	10 30       	shll.l	er0
  ffc5c6:	10 30       	shll.l	er0
  ffc5c8:	01 00 78 00 	mov.l	@(0xffda88:32,er0),er3
  ffc5cc:	6b 23 00 ff 
  ffc5d0:	da 88 

00ffc5d2 <.LM49>:
/home/serial.c:146
  sci->scr |= H8_3069F_SCI_SCR_RIE;
  ffc5d2:	6e 3a 00 02 	mov.b	@(0x2:16,er3),r2l
  ffc5d6:	70 6a       	bset	#0x6,r2l
  ffc5d8:	6e ba 00 02 	mov.b	r2l,@(0x2:16,er3)

00ffc5dc <.LM50>:
/home/serial.c:147
}
  ffc5dc:	01 00 6d 76 	mov.l	@er7+,er6
  ffc5e0:	54 70       	rts	

00ffc5e2 <_serial_intr_recv_disable>:
serial_intr_recv_disable():
/home/serial.c:151

/* 受信割込み無効化 */
void serial_intr_recv_disable(int index)
{
  ffc5e2:	01 00 6d f6 	mov.l	er6,@-er7
  ffc5e6:	0f f6       	mov.l	er7,er6

00ffc5e8 <.LM52>:
/home/serial.c:152
  volatile struct h8_3069f_sci *sci = regs[index].sci;
  ffc5e8:	17 f0       	exts.l	er0
  ffc5ea:	10 30       	shll.l	er0
  ffc5ec:	10 30       	shll.l	er0
  ffc5ee:	01 00 78 00 	mov.l	@(0xffda88:32,er0),er3
  ffc5f2:	6b 23 00 ff 
  ffc5f6:	da 88 

00ffc5f8 <.LM53>:
/home/serial.c:153
  sci->scr &= ~H8_3069F_SCI_SCR_RIE;
  ffc5f8:	6e 3a 00 02 	mov.b	@(0x2:16,er3),r2l
  ffc5fc:	72 6a       	bclr	#0x6,r2l
  ffc5fe:	6e ba 00 02 	mov.b	r2l,@(0x2:16,er3)

00ffc602 <.LM54>:
/home/serial.c:154
}
  ffc602:	01 00 6d 76 	mov.l	@er7+,er6
  ffc606:	54 70       	rts	

00ffc608 <_timer_start>:
timer_start():
/home/timer.c:57
  { H8_3069F_TMR23 }, 
};

/* タイマ開始 */
int timer_start(int index, int msec, int flags)
{
  ffc608:	01 00 6d f6 	mov.l	er6,@-er7
  ffc60c:	0f f6       	mov.l	er7,er6

00ffc60e <.LM2>:
/home/timer.c:58
  volatile struct h8_3069f_tmr *tmr = regs[index].tmr;
  ffc60e:	17 f0       	exts.l	er0
  ffc610:	10 30       	shll.l	er0
  ffc612:	10 30       	shll.l	er0
  ffc614:	01 00 78 00 	mov.l	@(0xffda94:32,er0),er3
  ffc618:	6b 23 00 ff 
  ffc61c:	da 94 

00ffc61e <.LM3>:
/home/timer.c:63
  int count;
  uint8 tcr;

  tcr = H8_3069F_TMR_TCR_OVF;
  if (flags & TIMER_START_FLAG_CYCLE)
  ffc61e:	ea 01       	and.b	#0x1,r2l
  ffc620:	46 04       	bne	.+4 (0xffc626)

00ffc622 <.LM4>:
/home/timer.c:66
    tcr |= H8_3069F_TMR_TCR_CCLR_CLRCMFA;
  else
    tcr |= H8_3069F_TMR_TCR_CCLR_DISCLR;
  ffc622:	fa 04       	mov.b	#0x4,r2l
  ffc624:	40 02       	bra	.+2 (0xffc628)

00ffc626 <.L3>:
/home/timer.c:64
    tcr |= H8_3069F_TMR_TCR_CCLR_CLRCMFA;
  ffc626:	fa 0c       	mov.b	#0xc,r2l

00ffc628 <.L2>:
/home/timer.c:67
  tmr->tcr0 = tcr;
  ffc628:	68 ba       	mov.b	r2l,@er3

00ffc62a <.LM7>:
/home/timer.c:68
  tmr->tcr1 = H8_3069F_TMR_TCR_CLK8192 | H8_3069F_TMR_TCR_CCLR_DISCLR;
  ffc62a:	fa 03       	mov.b	#0x3,r2l
  ffc62c:	6e ba 00 01 	mov.b	r2l,@(0x1:16,er3)

00ffc630 <.LM8>:
/home/timer.c:70

  tmr->tcsr0 = 0;
  ffc630:	18 aa       	sub.b	r2l,r2l
  ffc632:	6e ba 00 02 	mov.b	r2l,@(0x2:16,er3)

00ffc636 <.LM9>:
/home/timer.c:71
  tmr->tcsr1 = 0;
  ffc636:	6e ba 00 03 	mov.b	r2l,@(0x3:16,er3)

00ffc63a <.LM10>:
/home/timer.c:75

  count = msec / 105; /* 20MHz: (msec * 20000000 / 8192 / 256 / 1000) */

  tmr->tcnt = 0;
  ffc63a:	19 22       	sub.w	r2,r2
  ffc63c:	6f b2 00 08 	mov.w	r2,@(0x8:16,er3)

00ffc640 <.LM11>:
/home/timer.c:73
  count = msec / 105; /* 20MHz: (msec * 20000000 / 8192 / 256 / 1000) */
  ffc640:	17 f1       	exts.l	er1
  ffc642:	79 02 00 69 	mov.w	#0x69,r2
  ffc646:	01 d0 53 21 	divxs.w	r2,er1

00ffc64a <.LM12>:
/home/timer.c:76
  tmr->tcora0 = count;
  ffc64a:	6e b9 00 04 	mov.b	r1l,@(0x4:16,er3)

00ffc64e <.LM13>:
/home/timer.c:77
  tmr->tcr0 |= H8_3069F_TMR_TCR_CMIEA; /* 割込み有効化 */
  ffc64e:	7d 30 70 60 	bset	#0x6,@er3

00ffc652 <.LM14>:
/home/timer.c:80

  return 0;
}
  ffc652:	19 00       	sub.w	r0,r0
  ffc654:	01 00 6d 76 	mov.l	@er7+,er6
  ffc658:	54 70       	rts	

00ffc65a <_timer_is_expired>:
timer_is_expired():
/home/timer.c:84

/* タイマ満了したか？ */
int timer_is_expired(int index)
{
  ffc65a:	01 00 6d f6 	mov.l	er6,@-er7
  ffc65e:	0f f6       	mov.l	er7,er6

00ffc660 <.LM16>:
/home/timer.c:85
  volatile struct h8_3069f_tmr *tmr = regs[index].tmr;
  ffc660:	17 f0       	exts.l	er0
  ffc662:	10 30       	shll.l	er0
  ffc664:	10 30       	shll.l	er0
  ffc666:	01 00 78 00 	mov.l	@(0xffda94:32,er0),er2
  ffc66a:	6b 22 00 ff 
  ffc66e:	da 94 

00ffc670 <.LM17>:
/home/timer.c:86
  return (tmr->tcsr0 & H8_3069F_TMR_TCSR_CMFA) ? 1 : 0;
  ffc670:	6e 28 00 02 	mov.b	@(0x2:16,er2),r0l

00ffc674 <.LM18>:
/home/timer.c:87
}
  ffc674:	77 68       	bld	#0x6,r0l
  ffc676:	01 f0 65 00 	xor.l	er0,er0
  ffc67a:	12 30       	rotxl.l	er0
  ffc67c:	01 00 6d 76 	mov.l	@er7+,er6
  ffc680:	54 70       	rts	

00ffc682 <_timer_expire>:
timer_expire():
/home/timer.c:91

/* タイマ満了処理 */
int timer_expire(int index)
{
  ffc682:	01 00 6d f6 	mov.l	er6,@-er7
  ffc686:	0f f6       	mov.l	er7,er6

00ffc688 <.LM20>:
/home/timer.c:92
  volatile struct h8_3069f_tmr *tmr = regs[index].tmr;
  ffc688:	17 f0       	exts.l	er0
  ffc68a:	10 30       	shll.l	er0
  ffc68c:	10 30       	shll.l	er0
  ffc68e:	01 00 78 00 	mov.l	@(0xffda94:32,er0),er3
  ffc692:	6b 23 00 ff 
  ffc696:	da 94 

00ffc698 <.LM21>:
/home/timer.c:94

  tmr->tcsr0 &= ~H8_3069F_TMR_TCSR_CMFA;
  ffc698:	6e 3a 00 02 	mov.b	@(0x2:16,er3),r2l
  ffc69c:	72 6a       	bclr	#0x6,r2l
  ffc69e:	6e ba 00 02 	mov.b	r2l,@(0x2:16,er3)

00ffc6a2 <.LM22>:
/home/timer.c:97

  return 0;
}
  ffc6a2:	19 00       	sub.w	r0,r0
  ffc6a4:	01 00 6d 76 	mov.l	@er7+,er6
  ffc6a8:	54 70       	rts	

00ffc6aa <_timer_cancel>:
timer_cancel():
/home/timer.c:101

/* タイマキャンセル */
int timer_cancel(int index)
{
  ffc6aa:	01 00 6d f6 	mov.l	er6,@-er7
  ffc6ae:	0f f6       	mov.l	er7,er6
  ffc6b0:	01 00 6d f4 	mov.l	er4,@-er7

00ffc6b4 <.LM24>:
/home/timer.c:102
  volatile struct h8_3069f_tmr *tmr = regs[index].tmr;
  ffc6b4:	0d 02       	mov.w	r0,r2
  ffc6b6:	17 f2       	exts.l	er2
  ffc6b8:	10 32       	shll.l	er2
  ffc6ba:	10 32       	shll.l	er2
  ffc6bc:	01 00 78 20 	mov.l	@(0xffda94:32,er2),er4
  ffc6c0:	6b 24 00 ff 
  ffc6c4:	da 94 

00ffc6c6 <.LM25>:
/home/timer.c:104

  timer_expire(index);
  ffc6c6:	5e ff c6 82 	jsr	@0xffc682:24

00ffc6ca <.LM26>:
/home/timer.c:106

  tmr->tcr0 = 0;
  ffc6ca:	18 aa       	sub.b	r2l,r2l
  ffc6cc:	68 ca       	mov.b	r2l,@er4

00ffc6ce <.LM27>:
/home/timer.c:107
  tmr->tcr1 = 0;
  ffc6ce:	6e ca 00 01 	mov.b	r2l,@(0x1:16,er4)

00ffc6d2 <.LM28>:
/home/timer.c:109

  tmr->tcr0 &= ~H8_3069F_TMR_TCR_CMIEA; /* 割込み無効化 */
  ffc6d2:	68 4a       	mov.b	@er4,r2l
  ffc6d4:	72 6a       	bclr	#0x6,r2l
  ffc6d6:	68 ca       	mov.b	r2l,@er4

00ffc6d8 <.LM29>:
/home/timer.c:112

  return 0;
}
  ffc6d8:	19 00       	sub.w	r0,r0
  ffc6da:	01 00 6d 74 	mov.l	@er7+,er4
  ffc6de:	01 00 6d 76 	mov.l	@er7+,er6
  ffc6e2:	54 70       	rts	

00ffc6e4 <_timer_is_running>:
timer_is_running():
/home/timer.c:116

/* タイマ動作中か？ */
int timer_is_running(int index)
{
  ffc6e4:	01 00 6d f6 	mov.l	er6,@-er7
  ffc6e8:	0f f6       	mov.l	er7,er6

00ffc6ea <.LM31>:
/home/timer.c:117
  volatile struct h8_3069f_tmr *tmr = regs[index].tmr;
  ffc6ea:	17 f0       	exts.l	er0
  ffc6ec:	10 30       	shll.l	er0
  ffc6ee:	10 30       	shll.l	er0
  ffc6f0:	01 00 78 00 	mov.l	@(0xffda94:32,er0),er2
  ffc6f4:	6b 22 00 ff 
  ffc6f8:	da 94 

00ffc6fa <.LM32>:
/home/timer.c:118
  return (tmr->tcr0 & H8_3069F_TMR_TCR_CMIEA) ? 1 : 0;
  ffc6fa:	68 28       	mov.b	@er2,r0l

00ffc6fc <.LM33>:
/home/timer.c:119
}
  ffc6fc:	77 68       	bld	#0x6,r0l
  ffc6fe:	01 f0 65 00 	xor.l	er0,er0
  ffc702:	12 30       	rotxl.l	er0
  ffc704:	01 00 6d 76 	mov.l	@er7+,er6
  ffc708:	54 70       	rts	

00ffc70a <_timer_gettime>:
timer_gettime():
/home/timer.c:123

/* タイマの現在値 */
int timer_gettime(int index)
{
  ffc70a:	01 00 6d f6 	mov.l	er6,@-er7
  ffc70e:	0f f6       	mov.l	er7,er6
  ffc710:	01 00 6d f4 	mov.l	er4,@-er7
  ffc714:	1b 97       	subs	#4,er7

00ffc716 <.LM35>:
/home/timer.c:124
  volatile struct h8_3069f_tmr *tmr = regs[index].tmr;
  ffc716:	0d 02       	mov.w	r0,r2
  ffc718:	17 f2       	exts.l	er2
  ffc71a:	10 32       	shll.l	er2
  ffc71c:	10 32       	shll.l	er2
  ffc71e:	01 00 78 20 	mov.l	@(0xffda94:32,er2),er2
  ffc722:	6b 22 00 ff 
  ffc726:	da 94 

00ffc728 <.LM36>:
/home/timer.c:132

  /*
   * 周期タイマの場合は動作中かどうかのチェックの直後にタイマ満了すると
   * カウンタがゼロに初期化されてしまうので，前もって値を取得しておく．
   */
  count = tmr->tcnt;
  ffc728:	6f 22 00 08 	mov.w	@(0x8:16,er2),r2
  ffc72c:	6f e2 ff fa 	mov.w	r2,@(0xfffa:16,er6)

00ffc730 <.LM37>:
/home/timer.c:133
  msec = count * 2 / 5; /* 20MHz: (count * 8192 * 1000 / 20000000) */
  ffc730:	6f 62 ff fa 	mov.w	@(0xfffa:16,er6),r2
  ffc734:	10 12       	shll.w	r2
  ffc736:	79 04 66 67 	mov.w	#0x6667,r4
  ffc73a:	01 c0 52 24 	mulxs.w	r2,er4
  ffc73e:	0d c4       	mov.w	e4,r4
  ffc740:	17 f4       	exts.l	er4
  ffc742:	11 b4       	shar.l	er4
  ffc744:	10 02       	shll.b	r2h
  ffc746:	1e 22       	subx	r2h,r2h
  ffc748:	0c 2a       	mov.b	r2h,r2l
  ffc74a:	19 24       	sub.w	r2,r4

00ffc74c <.LM38>:
/home/timer.c:135

  return timer_is_running(index) ? msec : -1;
  ffc74c:	5e ff c6 e4 	jsr	@0xffc6e4:24

00ffc750 <.LVL26>:
  ffc750:	0d 00       	mov.w	r0,r0
  ffc752:	46 04       	bne	.+4 (0xffc758)
  ffc754:	79 04 ff ff 	mov.w	#0xffff,r4

00ffc758 <.L8>:
/home/timer.c:136
}
  ffc758:	0d 40       	mov.w	r4,r0
  ffc75a:	0b 97       	adds	#4,er7
  ffc75c:	01 00 6d 74 	mov.l	@er7+,er4
  ffc760:	01 00 6d 76 	mov.l	@er7+,er6
  ffc764:	54 70       	rts	

00ffc766 <_getcurrent>:
getcurrent():
/home/kozos.c:84

void dispatch(kz_context *context);

/* カレント・スレッドをレディー・キューから抜き出す */
static int getcurrent(void)
{
  ffc766:	01 00 6d f6 	mov.l	er6,@-er7
  ffc76a:	0f f6       	mov.l	er7,er6

00ffc76c <.LM2>:
/home/kozos.c:85
  if (current == NULL) {
  ffc76c:	01 00 6b 23 	mov.l	@0xffdd64:32,er3
  ffc770:	00 ff dd 64 
  ffc774:	47 3e       	beq	.+62 (0xffc7b4)

00ffc776 <.LM3>:
/home/kozos.c:88
    return -1;
  }
  if (!(current->flags & KZ_THREAD_FLAG_READY)) {
  ffc776:	01 00 6f 30 	mov.l	@(0x1c:16,er3),er0
  ffc77a:	00 1c 
  ffc77c:	73 08       	btst	#0x0,r0l
  ffc77e:	47 3a       	beq	.+58 (0xffc7ba)

00ffc780 <.LM4>:
/home/kozos.c:94
    /* すでに無い場合は無視 */
    return 1;
  }

  /* カレント・スレッドは必ず先頭にあるはずなので，先頭から抜き出す */
  readyque[current->priority].head = current->next;
  ffc780:	6f 32 00 14 	mov.w	@(0x14:16,er3),r2
  ffc784:	01 00 69 31 	mov.l	@er3,er1
  ffc788:	17 f2       	exts.l	er2
  ffc78a:	10 32       	shll.l	er2
  ffc78c:	10 32       	shll.l	er2
  ffc78e:	10 32       	shll.l	er2
  ffc790:	7a 12 00 ff 	add.l	#0xffdd68,er2
  ffc794:	dd 68 
  ffc796:	01 00 69 a1 	mov.l	er1,@er2

00ffc79a <.LM5>:
/home/kozos.c:95
  if (readyque[current->priority].head == NULL) {
  ffc79a:	46 06       	bne	.+6 (0xffc7a2)

00ffc79c <.LM6>:
/home/kozos.c:96
    readyque[current->priority].tail = NULL;
  ffc79c:	01 00 6f a1 	mov.l	er1,@(0x4:16,er2)
  ffc7a0:	00 04 

00ffc7a2 <.L3>:
/home/kozos.c:98
  }
  current->flags &= ~KZ_THREAD_FLAG_READY;
  ffc7a2:	e8 fe       	and.b	#0xfe,r0l
  ffc7a4:	01 00 6f b0 	mov.l	er0,@(0x1c:16,er3)
  ffc7a8:	00 1c 

00ffc7aa <.LM8>:
/home/kozos.c:99
  current->next = NULL;
  ffc7aa:	1a a2       	sub.l	er2,er2
  ffc7ac:	01 00 69 b2 	mov.l	er2,@er3

00ffc7b0 <.LM9>:
/home/kozos.c:101

  return 0;
  ffc7b0:	19 00       	sub.w	r0,r0
  ffc7b2:	40 0a       	bra	.+10 (0xffc7be)

00ffc7b4 <.L4>:
/home/kozos.c:86
    return -1;
  ffc7b4:	79 00 ff ff 	mov.w	#0xffff,r0
  ffc7b8:	40 04       	bra	.+4 (0xffc7be)

00ffc7ba <.L5>:
/home/kozos.c:90
    return 1;
  ffc7ba:	79 00 00 01 	mov.w	#0x1,r0

00ffc7be <.L1>:
/home/kozos.c:102
}
  ffc7be:	01 00 6d 76 	mov.l	@er7+,er6
  ffc7c2:	54 70       	rts	

00ffc7c4 <_putcurrent>:
putcurrent():
/home/kozos.c:106

/* カレント・スレッドをレディー・キューに繋げる */
static int putcurrent(void)
{
  ffc7c4:	01 00 6d f6 	mov.l	er6,@-er7
  ffc7c8:	0f f6       	mov.l	er7,er6
  ffc7ca:	01 00 6d f4 	mov.l	er4,@-er7
  ffc7ce:	01 00 6d f5 	mov.l	er5,@-er7

00ffc7d2 <.LM14>:
/home/kozos.c:107
  if (current == NULL) {
  ffc7d2:	01 00 6b 22 	mov.l	@0xffdd64:32,er2
  ffc7d6:	00 ff dd 64 
  ffc7da:	47 50       	beq	.+80 (0xffc82c)

00ffc7dc <.LM15>:
/home/kozos.c:110
    return -1;
  }
  if (current->flags & KZ_THREAD_FLAG_READY) {
  ffc7dc:	01 00 6f 24 	mov.l	@(0x1c:16,er2),er4
  ffc7e0:	00 1c 
  ffc7e2:	73 0c       	btst	#0x0,r4l
  ffc7e4:	46 4c       	bne	.+76 (0xffc832)

00ffc7e6 <.LM16>:
/home/kozos.c:116
    /* すでに有る場合は無視 */
    return 1;
  }

  /* レディー・キューの末尾に接続する */
  if (readyque[current->priority].tail) {
  ffc7e6:	6f 23 00 14 	mov.w	@(0x14:16,er2),r3
  ffc7ea:	7a 05 00 ff 	mov.l	#0xffdd68,er5
  ffc7ee:	dd 68 
  ffc7f0:	17 f3       	exts.l	er3
  ffc7f2:	0f b1       	mov.l	er3,er1
  ffc7f4:	10 31       	shll.l	er1
  ffc7f6:	10 31       	shll.l	er1
  ffc7f8:	10 31       	shll.l	er1
  ffc7fa:	0a d1       	add.l	er5,er1
  ffc7fc:	01 00 6f 10 	mov.l	@(0x4:16,er1),er0
  ffc800:	00 04 
  ffc802:	47 06       	beq	.+6 (0xffc80a)

00ffc804 <.LM17>:
/home/kozos.c:117
    readyque[current->priority].tail->next = current;
  ffc804:	01 00 69 82 	mov.l	er2,@er0
  ffc808:	40 04       	bra	.+4 (0xffc80e)

00ffc80a <.L8>:
/home/kozos.c:119
  } else {
    readyque[current->priority].head = current;
  ffc80a:	01 00 69 92 	mov.l	er2,@er1

00ffc80e <.L9>:
/home/kozos.c:121
  }
  readyque[current->priority].tail = current;
  ffc80e:	0f b0       	mov.l	er3,er0
  ffc810:	10 30       	shll.l	er0
  ffc812:	10 30       	shll.l	er0
  ffc814:	10 30       	shll.l	er0
  ffc816:	0a d0       	add.l	er5,er0
  ffc818:	01 00 6f 82 	mov.l	er2,@(0x4:16,er0)
  ffc81c:	00 04 

00ffc81e <.LM20>:
/home/kozos.c:122
  current->flags |= KZ_THREAD_FLAG_READY;
  ffc81e:	0f c3       	mov.l	er4,er3
  ffc820:	cb 01       	or.b	#0x1,r3l
  ffc822:	01 00 6f a3 	mov.l	er3,@(0x1c:16,er2)
  ffc826:	00 1c 

00ffc828 <.LM21>:
/home/kozos.c:124

  return 0;
  ffc828:	19 00       	sub.w	r0,r0
  ffc82a:	40 0a       	bra	.+10 (0xffc836)

00ffc82c <.L10>:
/home/kozos.c:108
    return -1;
  ffc82c:	79 00 ff ff 	mov.w	#0xffff,r0
  ffc830:	40 04       	bra	.+4 (0xffc836)

00ffc832 <.L11>:
/home/kozos.c:112
    return 1;
  ffc832:	79 00 00 01 	mov.w	#0x1,r0

00ffc836 <.L6>:
/home/kozos.c:125
}
  ffc836:	01 00 6d 75 	mov.l	@er7+,er5
  ffc83a:	01 00 6d 74 	mov.l	@er7+,er4
  ffc83e:	01 00 6d 76 	mov.l	@er7+,er6
  ffc842:	54 70       	rts	

00ffc844 <_thread_exit>:
thread_exit():
/home/kozos.c:212
  return (kz_thread_id_t)current;
}

/* システム・コールの処理(kz_exit():スレッドの終了) */
static int thread_exit(void)
{
  ffc844:	01 00 6d f6 	mov.l	er6,@-er7
  ffc848:	0f f6       	mov.l	er7,er6

00ffc84a <.LM26>:
/home/kozos.c:217
  /*
   * 本来ならスタックも解放して再利用できるようにすべきだが省略．
   * このため，スレッドを頻繁に生成・消去するようなことは現状でできない．
   */
  puts(current->name);
  ffc84a:	01 00 6b 20 	mov.l	@0xffdd64:32,er0
  ffc84e:	00 ff dd 64 
  ffc852:	0b 90       	adds	#4,er0
  ffc854:	5e ff c3 66 	jsr	@0xffc366:24

00ffc858 <.LM27>:
/home/kozos.c:218
  puts(" EXIT.\n");
  ffc858:	7a 00 00 ff 	mov.l	#0xffdb16,er0
  ffc85c:	db 16 
  ffc85e:	5e ff c3 66 	jsr	@0xffc366:24

00ffc862 <.LM28>:
/home/kozos.c:219
  memset(current, 0, sizeof(*current));
  ffc862:	1a a2       	sub.l	er2,er2
  ffc864:	8a 40       	add.b	#0x40,r2l
  ffc866:	19 11       	sub.w	r1,r1
  ffc868:	01 00 6b 20 	mov.l	@0xffdd64:32,er0
  ffc86c:	00 ff dd 64 
  ffc870:	5e ff c1 b8 	jsr	@0xffc1b8:24

00ffc874 <.LM29>:
/home/kozos.c:221
  return 0;
}
  ffc874:	19 00       	sub.w	r0,r0
  ffc876:	01 00 6d 76 	mov.l	@er7+,er6
  ffc87a:	54 70       	rts	

00ffc87c <_softerr_intr>:
softerr_intr():
/home/kozos.c:496
{
  syscall_proc(current->syscall.type, current->syscall.param);
}

static void softerr_intr(void)
{
  ffc87c:	01 00 6d f6 	mov.l	er6,@-er7
  ffc880:	0f f6       	mov.l	er7,er6

00ffc882 <.LM31>:
/home/kozos.c:497
  puts(current->name);
  ffc882:	01 00 6b 20 	mov.l	@0xffdd64:32,er0
  ffc886:	00 ff dd 64 
  ffc88a:	0b 90       	adds	#4,er0
  ffc88c:	5e ff c3 66 	jsr	@0xffc366:24

00ffc890 <.LM32>:
/home/kozos.c:498
  puts(" DOWN.\n");
  ffc890:	7a 00 00 ff 	mov.l	#0xffdb1e,er0
  ffc894:	db 1e 
  ffc896:	5e ff c3 66 	jsr	@0xffc366:24

00ffc89a <.LM33>:
/home/kozos.c:499
  getcurrent(); /* レディーキューから外す */
  ffc89a:	5e ff c7 66 	jsr	@0xffc766:24

00ffc89e <.LM34>:
/home/kozos.c:500
  thread_exit(); /* スレッド終了する */
  ffc89e:	5e ff c8 44 	jsr	@0xffc844:24

00ffc8a2 <.LM35>:
/home/kozos.c:501
}
  ffc8a2:	01 00 6d 76 	mov.l	@er7+,er6
  ffc8a6:	54 70       	rts	

00ffc8a8 <_recvmsg>:
recvmsg():
/home/kozos.c:306
{
  ffc8a8:	01 00 6d f6 	mov.l	er6,@-er7
  ffc8ac:	0f f6       	mov.l	er7,er6
  ffc8ae:	01 00 6d f4 	mov.l	er4,@-er7

00ffc8b2 <.LM37>:
/home/kozos.c:311
  mp = mboxp->head;
  ffc8b2:	01 00 6f 02 	mov.l	@(0x4:16,er0),er2
  ffc8b6:	00 04 

00ffc8b8 <.LM38>:
/home/kozos.c:312
  mboxp->head = mp->next;
  ffc8b8:	01 00 69 23 	mov.l	@er2,er3
  ffc8bc:	01 00 6f 83 	mov.l	er3,@(0x4:16,er0)
  ffc8c0:	00 04 

00ffc8c2 <.LM39>:
/home/kozos.c:313
  if (mboxp->head == NULL)
  ffc8c2:	46 06       	bne	.+6 (0xffc8ca)

00ffc8c4 <.LM40>:
/home/kozos.c:314
    mboxp->tail = NULL;
  ffc8c4:	01 00 6f 83 	mov.l	er3,@(0x8:16,er0)
  ffc8c8:	00 08 

00ffc8ca <.L15>:
/home/kozos.c:315
  mp->next = NULL;
  ffc8ca:	1a b3       	sub.l	er3,er3
  ffc8cc:	01 00 69 a3 	mov.l	er3,@er2

00ffc8d0 <.LM42>:
/home/kozos.c:318
  p = mboxp->receiver->syscall.param;
  ffc8d0:	01 00 69 03 	mov.l	@er0,er3
  ffc8d4:	01 00 6f 33 	mov.l	@(0x30:16,er3),er3
  ffc8d8:	00 30 

00ffc8da <.LM43>:
/home/kozos.c:319
  p->un.recv.ret = (kz_thread_id_t)mp->sender;
  ffc8da:	01 00 6f 21 	mov.l	@(0x4:16,er2),er1
  ffc8de:	00 04 
  ffc8e0:	01 00 6f b1 	mov.l	er1,@(0xc:16,er3)
  ffc8e4:	00 0c 

00ffc8e6 <.LM44>:
/home/kozos.c:320
  if (p->un.recv.sizep)
  ffc8e6:	01 00 6f 31 	mov.l	@(0x4:16,er3),er1
  ffc8ea:	00 04 
  ffc8ec:	47 06       	beq	.+6 (0xffc8f4)

00ffc8ee <.LM45>:
/home/kozos.c:321
    *(p->un.recv.sizep) = mp->param.size;
  ffc8ee:	6f 24 00 08 	mov.w	@(0x8:16,er2),r4
  ffc8f2:	69 94       	mov.w	r4,@er1

00ffc8f4 <.L16>:
/home/kozos.c:322
  if (p->un.recv.pp)
  ffc8f4:	01 00 6f 33 	mov.l	@(0x8:16,er3),er3
  ffc8f8:	00 08 
  ffc8fa:	47 0a       	beq	.+10 (0xffc906)

00ffc8fc <.LM47>:
/home/kozos.c:323
    *(p->un.recv.pp) = mp->param.p;
  ffc8fc:	01 00 6f 21 	mov.l	@(0xc:16,er2),er1
  ffc900:	00 0c 
  ffc902:	01 00 69 b1 	mov.l	er1,@er3

00ffc906 <.L17>:
/home/kozos.c:326
  mboxp->receiver = NULL;
  ffc906:	1a b3       	sub.l	er3,er3
  ffc908:	01 00 69 83 	mov.l	er3,@er0

00ffc90c <.LM49>:
/home/kozos.c:329
  kzmem_free(mp);
  ffc90c:	0f a0       	mov.l	er2,er0
  ffc90e:	5e ff d3 7c 	jsr	@0xffd37c:24

00ffc912 <.LM50>:
/home/kozos.c:330
}
  ffc912:	01 00 6d 74 	mov.l	@er7+,er4
  ffc916:	01 00 6d 76 	mov.l	@er7+,er6
  ffc91a:	54 70       	rts	

00ffc91c <_thread_run>:
thread_run():
/home/kozos.c:143
{
  ffc91c:	01 00 6d f6 	mov.l	er6,@-er7
  ffc920:	0f f6       	mov.l	er7,er6
  ffc922:	01 00 6d f4 	mov.l	er4,@-er7
  ffc926:	01 00 6d f5 	mov.l	er5,@-er7
  ffc92a:	7a 37 00 00 	sub.l	#0x14,er7
  ffc92e:	00 14 
  ffc930:	01 00 6f e0 	mov.l	er0,@(0xffec:16,er6)
  ffc934:	ff ec 
  ffc936:	01 00 6f e1 	mov.l	er1,@(0xffe8:16,er6)
  ffc93a:	ff e8 
  ffc93c:	6f e2 ff f6 	mov.w	r2,@(0xfff6:16,er6)

00ffc940 <.LM52>:
  ffc940:	1a 80       	sub.l	er0,er0

00ffc942 <.LM53>:
/home/kozos.c:151
  for (i = 0; i < THREAD_NUM; i++) {
  ffc942:	19 22       	sub.w	r2,r2

00ffc944 <.L26>:
/home/kozos.c:153
    if (!thp->init.func) /* 見つかった */
  ffc944:	01 00 78 00 	mov.l	@(0xffdc04:32,er0),er3
  ffc948:	6b 23 00 ff 
  ffc94c:	dc 04 
  ffc94e:	58 70 00 7e 	beq	.+126 (0xffc9d0)

00ffc952 <.LM55>:
/home/kozos.c:151 (discriminator 2)
  for (i = 0; i < THREAD_NUM; i++) {
  ffc952:	0b 02       	adds	#1,er2
  ffc954:	7a 10 00 00 	add.l	#0x40,er0
  ffc958:	00 40 
  ffc95a:	79 22 00 06 	cmp.w	#0x6,r2
  ffc95e:	46 e4       	bne	.-28 (0xffc944)

00ffc960 <.LM56>:
/home/kozos.c:157
    return -1;
  ffc960:	1a c4       	sub.l	er4,er4
  ffc962:	1b 04       	subs	#1,er4
  ffc964:	58 00 01 2a 	bra	.+298 (0xffca92)

00ffc968 <.L31>:
/home/kozos.c:185 (discriminator 2)
  *(--sp) = (uint32)thread_init | ((uint32)(priority ? 0 : 0xc0) << 24);
  ffc968:	79 4a c0 00 	or.w	#0xc000,e2

00ffc96c <.L28>:
/home/kozos.c:185 (discriminator 4)
  ffc96c:	01 00 6f d2 	mov.l	er2,@(0xfff8:16,er5)
  ffc970:	ff f8 

00ffc972 <.LM59>:
/home/kozos.c:187
  *(--sp) = 0; /* ER6 */
  ffc972:	1a a2       	sub.l	er2,er2
  ffc974:	01 00 6f d2 	mov.l	er2,@(0xfff4:16,er5)
  ffc978:	ff f4 

00ffc97a <.LM60>:
/home/kozos.c:188
  *(--sp) = 0; /* ER5 */
  ffc97a:	01 00 6f d2 	mov.l	er2,@(0xfff0:16,er5)
  ffc97e:	ff f0 

00ffc980 <.LM61>:
/home/kozos.c:189
  *(--sp) = 0; /* ER4 */
  ffc980:	01 00 6f d2 	mov.l	er2,@(0xffec:16,er5)
  ffc984:	ff ec 

00ffc986 <.LM62>:
/home/kozos.c:190
  *(--sp) = 0; /* ER3 */
  ffc986:	01 00 6f d2 	mov.l	er2,@(0xffe8:16,er5)
  ffc98a:	ff e8 

00ffc98c <.LM63>:
/home/kozos.c:191
  *(--sp) = 0; /* ER2 */
  ffc98c:	01 00 6f d2 	mov.l	er2,@(0xffe4:16,er5)
  ffc990:	ff e4 

00ffc992 <.LM64>:
/home/kozos.c:192
  *(--sp) = 0; /* ER1 */
  ffc992:	01 00 6f d2 	mov.l	er2,@(0xffe0:16,er5)
  ffc996:	ff e0 

00ffc998 <.LM65>:
/home/kozos.c:195
  *(--sp) = (uint32)thp;  /* ER0 */
  ffc998:	01 00 6f d4 	mov.l	er4,@(0xffdc:16,er5)
  ffc99c:	ff dc 

00ffc99e <.LM66>:
/home/kozos.c:198
  thp->context.sp = (uint32)sp;
  ffc99e:	01 00 6f 62 	mov.l	@(0xfff0:16,er6),er2
  ffc9a2:	ff f0 
  ffc9a4:	fb 06       	mov.b	#0x6,r3l

00ffc9a6 <.Llt4>:
  ffc9a6:	10 32       	shll.l	er2
  ffc9a8:	8b ff       	add.b	#0xff,r3l
  ffc9aa:	46 fa       	bne	.-6 (0xffc9a6)

00ffc9ac <.LM67>:
/home/kozos.c:195
  *(--sp) = (uint32)thp;  /* ER0 */
  ffc9ac:	7a 35 00 00 	sub.l	#0x24,er5
  ffc9b0:	00 24 

00ffc9b2 <.LM68>:
/home/kozos.c:198
  thp->context.sp = (uint32)sp;
  ffc9b2:	01 00 78 a0 	mov.l	er5,@(0xffdc18:32,er2)
  ffc9b6:	6b a5 00 ff 
  ffc9ba:	dc 18 

00ffc9bc <.LM69>:
/home/kozos.c:201
  putcurrent();
  ffc9bc:	5e ff c7 c4 	jsr	@0xffc7c4:24

00ffc9c0 <.LM70>:
/home/kozos.c:204
  current = thp;
  ffc9c0:	01 00 6b a4 	mov.l	er4,@0xffdd64:32
  ffc9c4:	00 ff dd 64 

00ffc9c8 <.LM71>:
/home/kozos.c:205
  putcurrent();
  ffc9c8:	5e ff c7 c4 	jsr	@0xffc7c4:24

00ffc9cc <.LM72>:
/home/kozos.c:207
  return (kz_thread_id_t)current;
  ffc9cc:	58 00 00 c2 	bra	.+194 (0xffca92)

00ffc9d0 <.L25>:
  ffc9d0:	17 f2       	exts.l	er2
  ffc9d2:	01 00 6f e2 	mov.l	er2,@(0xfff0:16,er6)
  ffc9d6:	ff f0 
  ffc9d8:	0f a5       	mov.l	er2,er5
  ffc9da:	fa 06       	mov.b	#0x6,r2l

00ffc9dc <.Llt5>:
  ffc9dc:	10 35       	shll.l	er5
  ffc9de:	8a ff       	add.b	#0xff,r2l
  ffc9e0:	46 fa       	bne	.-6 (0xffc9dc)

00ffc9e2 <.LM73>:
/home/kozos.c:152
    thp = &threads[i];
  ffc9e2:	0f d4       	mov.l	er5,er4
  ffc9e4:	7a 14 00 ff 	add.l	#0xffdbe4,er4
  ffc9e8:	db e4 

00ffc9ea <.LM74>:
/home/kozos.c:159
  memset(thp, 0, sizeof(*thp));
  ffc9ea:	1a a2       	sub.l	er2,er2
  ffc9ec:	8a 40       	add.b	#0x40,r2l
  ffc9ee:	19 11       	sub.w	r1,r1
  ffc9f0:	0f c0       	mov.l	er4,er0
  ffc9f2:	01 00 6f e3 	mov.l	er3,@(0xffe4:16,er6)
  ffc9f6:	ff e4 
  ffc9f8:	5e ff c1 b8 	jsr	@0xffc1b8:24

00ffc9fc <.LM75>:
/home/kozos.c:162
  strcpy(thp->name, name);
  ffc9fc:	01 00 6f 61 	mov.l	@(0xffe8:16,er6),er1
  ffca00:	ff e8 
  ffca02:	0f d0       	mov.l	er5,er0
  ffca04:	7a 10 00 ff 	add.l	#0xffdbe8,er0
  ffca08:	db e8 
  ffca0a:	5e ff c2 6a 	jsr	@0xffc26a:24

00ffca0e <.LM76>:
/home/kozos.c:163
  thp->next     = NULL;
  ffca0e:	01 00 6f 63 	mov.l	@(0xffe4:16,er6),er3
  ffca12:	ff e4 
  ffca14:	01 00 69 c3 	mov.l	er3,@er4

00ffca18 <.LM77>:
/home/kozos.c:164
  thp->priority = priority;
  ffca18:	6f 62 ff f6 	mov.w	@(0xfff6:16,er6),r2
  ffca1c:	6f c2 00 14 	mov.w	r2,@(0x14:16,er4)

00ffca20 <.LM78>:
/home/kozos.c:165
  thp->flags    = 0;
  ffca20:	01 00 6f c3 	mov.l	er3,@(0x1c:16,er4)
  ffca24:	00 1c 

00ffca26 <.LM79>:
/home/kozos.c:167
  thp->init.func = func;
  ffca26:	01 00 6f 63 	mov.l	@(0xffec:16,er6),er3
  ffca2a:	ff ec 
  ffca2c:	01 00 6f c3 	mov.l	er3,@(0x20:16,er4)
  ffca30:	00 20 

00ffca32 <.LM80>:
/home/kozos.c:168
  thp->init.argc = argc;
  ffca32:	6f 62 00 0e 	mov.w	@(0xe:16,er6),r2
  ffca36:	6f c2 00 24 	mov.w	r2,@(0x24:16,er4)

00ffca3a <.LM81>:
/home/kozos.c:169
  thp->init.argv = argv;
  ffca3a:	01 00 6f 62 	mov.l	@(0x10:16,er6),er2
  ffca3e:	00 10 
  ffca40:	01 00 6f c2 	mov.l	er2,@(0x28:16,er4)
  ffca44:	00 28 

00ffca46 <.LM82>:
/home/kozos.c:172
  memset(thread_stack, 0, stacksize);
  ffca46:	6f 65 00 0a 	mov.w	@(0xa:16,er6),r5
  ffca4a:	17 f5       	exts.l	er5
  ffca4c:	0f d2       	mov.l	er5,er2
  ffca4e:	19 11       	sub.w	r1,r1
  ffca50:	01 00 6b 20 	mov.l	@0xffdb74:32,er0
  ffca54:	00 ff db 74 
  ffca58:	5e ff c1 b8 	jsr	@0xffc1b8:24

00ffca5c <.LM83>:
/home/kozos.c:173
  thread_stack += stacksize;
  ffca5c:	01 00 6b 22 	mov.l	@0xffdb74:32,er2
  ffca60:	00 ff db 74 
  ffca64:	0a a5       	add.l	er2,er5
  ffca66:	01 00 6b a5 	mov.l	er5,@0xffdb74:32
  ffca6a:	00 ff db 74 

00ffca6e <.LM84>:
/home/kozos.c:175
  thp->stack = thread_stack; /* スタックを設定 */
  ffca6e:	01 00 6f c5 	mov.l	er5,@(0x18:16,er4)
  ffca72:	00 18 

00ffca74 <.LM85>:
/home/kozos.c:179
  *(--sp) = (uint32)thread_end;
  ffca74:	7a 02 00 ff 	mov.l	#0xffcaa8,er2
  ffca78:	ca a8 
  ffca7a:	01 00 6f d2 	mov.l	er2,@(0xfffc:16,er5)
  ffca7e:	ff fc 
  ffca80:	7a 02 00 ff 	mov.l	#0xffcab8,er2
  ffca84:	ca b8 

00ffca86 <.LM86>:
/home/kozos.c:185
  *(--sp) = (uint32)thread_init | ((uint32)(priority ? 0 : 0xc0) << 24);
  ffca86:	6f 63 ff f6 	mov.w	@(0xfff6:16,er6),r3
  ffca8a:	58 60 fe de 	bne	.-290 (0xffc96c)
  ffca8e:	58 00 fe d6 	bra	.-298 (0xffc968)

00ffca92 <.L24>:
/home/kozos.c:208
}
  ffca92:	0f c0       	mov.l	er4,er0
  ffca94:	7a 17 00 00 	add.l	#0x14,er7
  ffca98:	00 14 
  ffca9a:	01 00 6d 75 	mov.l	@er7+,er5
  ffca9e:	01 00 6d 74 	mov.l	@er7+,er4
  ffcaa2:	01 00 6d 76 	mov.l	@er7+,er6
  ffcaa6:	54 70       	rts	

00ffcaa8 <_thread_end>:
thread_end():
/home/kozos.c:128
{
  ffcaa8:	01 00 6d f6 	mov.l	er6,@-er7
  ffcaac:	0f f6       	mov.l	er7,er6

00ffcaae <.LM89>:
/home/kozos.c:129
  kz_exit();
  ffcaae:	5e ff cf 78 	jsr	@0xffcf78:24

00ffcab2 <.LM90>:
/home/kozos.c:130
}
  ffcab2:	01 00 6d 76 	mov.l	@er7+,er6
  ffcab6:	54 70       	rts	

00ffcab8 <_thread_init>:
thread_init():
/home/kozos.c:134
{
  ffcab8:	01 00 6d f6 	mov.l	er6,@-er7
  ffcabc:	0f f6       	mov.l	er7,er6

00ffcabe <.LM92>:
/home/kozos.c:136
  thp->init.func(thp->init.argc, thp->init.argv);
  ffcabe:	01 00 6f 02 	mov.l	@(0x20:16,er0),er2
  ffcac2:	00 20 
  ffcac4:	01 00 6f 01 	mov.l	@(0x28:16,er0),er1
  ffcac8:	00 28 
  ffcaca:	6f 00 00 24 	mov.w	@(0x24:16,er0),r0
  ffcace:	5d 20       	jsr	@er2

00ffcad0 <.LBB14>:
thread_end():
/home/kozos.c:129
  kz_exit();
  ffcad0:	5e ff cf 78 	jsr	@0xffcf78:24

00ffcad4 <.LM94>:
thread_init():
/home/kozos.c:138
}
  ffcad4:	01 00 6d 76 	mov.l	@er7+,er6
  ffcad8:	54 70       	rts	

00ffcada <_kz_start>:
kz_start():
/home/kozos.c:532
  /* ここには返ってこない */
}

void kz_start(kz_func_t func, char *name, int priority, int stacksize,
	      int argc, char *argv[])
{
  ffcada:	01 00 6d f6 	mov.l	er6,@-er7
  ffcade:	0f f6       	mov.l	er7,er6
  ffcae0:	01 00 6d f4 	mov.l	er4,@-er7
  ffcae4:	01 00 6d f5 	mov.l	er5,@-er7
  ffcae8:	1b 97       	subs	#4,er7
  ffcaea:	0f 84       	mov.l	er0,er4
  ffcaec:	0f 95       	mov.l	er1,er5
  ffcaee:	0d 23       	mov.w	r2,r3

00ffcaf0 <.LM96>:
/home/kozos.c:533
  kzmem_init(); /* 動的メモリの初期化 */
  ffcaf0:	01 00 6f e3 	mov.l	er3,@(0xfff4:16,er6)
  ffcaf4:	ff f4 
  ffcaf6:	5e ff d2 58 	jsr	@0xffd258:24

00ffcafa <.LM97>:
/home/kozos.c:539

  /*
   * 以降で呼び出すスレッド関連のライブラリ関数の内部で current を
   * 見ている場合があるので，current を NULL に初期化しておく．
   */
  current = NULL;
  ffcafa:	1a a2       	sub.l	er2,er2
  ffcafc:	01 00 6b a2 	mov.l	er2,@0xffdd64:32
  ffcb00:	00 ff dd 64 

00ffcb04 <.LM98>:
/home/kozos.c:541

  memset(readyque, 0, sizeof(readyque));
  ffcb04:	1a a2       	sub.l	er2,er2
  ffcb06:	8a 80       	add.b	#0x80,r2l
  ffcb08:	19 11       	sub.w	r1,r1
  ffcb0a:	7a 00 00 ff 	mov.l	#0xffdd68,er0
  ffcb0e:	dd 68 
  ffcb10:	5e ff c1 b8 	jsr	@0xffc1b8:24

00ffcb14 <.LM99>:
/home/kozos.c:542
  memset(threads,  0, sizeof(threads));
  ffcb14:	7a 02 00 00 	mov.l	#0x180,er2
  ffcb18:	01 80 
  ffcb1a:	19 11       	sub.w	r1,r1
  ffcb1c:	7a 00 00 ff 	mov.l	#0xffdbe4,er0
  ffcb20:	db e4 
  ffcb22:	5e ff c1 b8 	jsr	@0xffc1b8:24

00ffcb26 <.LM100>:
/home/kozos.c:543
  memset(handlers, 0, sizeof(handlers));
  ffcb26:	1a a2       	sub.l	er2,er2
  ffcb28:	8a 10       	add.b	#0x10,r2l
  ffcb2a:	19 11       	sub.w	r1,r1
  ffcb2c:	7a 00 00 ff 	mov.l	#0xffdbd4,er0
  ffcb30:	db d4 
  ffcb32:	5e ff c1 b8 	jsr	@0xffc1b8:24

00ffcb36 <.LM101>:
/home/kozos.c:544
  memset(msgboxes, 0, sizeof(msgboxes));
  ffcb36:	1a a2       	sub.l	er2,er2
  ffcb38:	8a 40       	add.b	#0x40,r2l
  ffcb3a:	19 11       	sub.w	r1,r1
  ffcb3c:	7a 00 00 ff 	mov.l	#0xffdb94,er0
  ffcb40:	db 94 
  ffcb42:	5e ff c1 b8 	jsr	@0xffc1b8:24

00ffcb46 <.LBB20>:
thread_setintr():
/home/kozos.c:383
  softvec_setintr(type, thread_intr);
  ffcb46:	7a 01 00 ff 	mov.l	#0xffce88,er1
  ffcb4a:	ce 88 
  ffcb4c:	79 00 00 01 	mov.w	#0x1,r0
  ffcb50:	5e ff c1 78 	jsr	@0xffc178:24

00ffcb54 <.LM103>:
/home/kozos.c:385
  handlers[type] = handler; /* OS側から呼び出す割込みハンドラを登録 */
  ffcb54:	7a 02 00 ff 	mov.l	#0xffce4e,er2
  ffcb58:	ce 4e 
  ffcb5a:	01 00 6b a2 	mov.l	er2,@0xffdbd8:32
  ffcb5e:	00 ff db d8 

00ffcb62 <.LM104>:
/home/kozos.c:386
  putcurrent();
  ffcb62:	5e ff c7 c4 	jsr	@0xffc7c4:24

00ffcb66 <.LBB22>:
/home/kozos.c:383
  softvec_setintr(type, thread_intr);
  ffcb66:	7a 01 00 ff 	mov.l	#0xffce88,er1
  ffcb6a:	ce 88 
  ffcb6c:	19 00       	sub.w	r0,r0
  ffcb6e:	5e ff c1 78 	jsr	@0xffc178:24

00ffcb72 <.LM106>:
/home/kozos.c:385
  handlers[type] = handler; /* OS側から呼び出す割込みハンドラを登録 */
  ffcb72:	7a 02 00 ff 	mov.l	#0xffc87c,er2
  ffcb76:	c8 7c 
  ffcb78:	01 00 6b a2 	mov.l	er2,@0xffdbd4:32
  ffcb7c:	00 ff db d4 

00ffcb80 <.LM107>:
/home/kozos.c:386
  putcurrent();
  ffcb80:	5e ff c7 c4 	jsr	@0xffc7c4:24

00ffcb84 <.LM108>:
kz_start():
/home/kozos.c:551
  /* 割込みハンドラの登録 */
  thread_setintr(SOFTVEC_TYPE_SYSCALL, syscall_intr); /* システム・コール */
  thread_setintr(SOFTVEC_TYPE_SOFTERR, softerr_intr); /* ダウン要因発生 */

  /* システム・コール発行不可なので直接関数を呼び出してスレッド作成する */
  current = (kz_thread *)thread_run(func, name, priority, stacksize,
  ffcb84:	01 00 6f 62 	mov.l	@(0x10:16,er6),er2
  ffcb88:	00 10 
  ffcb8a:	01 00 6d f2 	mov.l	er2,@-er7
  ffcb8e:	1b 97       	subs	#4,er7
  ffcb90:	1b 97       	subs	#4,er7
  ffcb92:	6f 62 00 0e 	mov.w	@(0xe:16,er6),r2
  ffcb96:	6f f2 00 06 	mov.w	r2,@(0x6:16,er7)
  ffcb9a:	6f 62 00 0a 	mov.w	@(0xa:16,er6),r2
  ffcb9e:	6f f2 00 02 	mov.w	r2,@(0x2:16,er7)
  ffcba2:	01 00 6f 63 	mov.l	@(0xfff4:16,er6),er3
  ffcba6:	ff f4 
  ffcba8:	0d 32       	mov.w	r3,r2
  ffcbaa:	0f d1       	mov.l	er5,er1
  ffcbac:	0f c0       	mov.l	er4,er0
  ffcbae:	5e ff c9 1c 	jsr	@0xffc91c:24

00ffcbb2 <.LVL54>:
  ffcbb2:	01 00 6b a0 	mov.l	er0,@0xffdd64:32
  ffcbb6:	00 ff dd 64 

00ffcbba <.LM109>:
/home/kozos.c:555
				    argc, argv);

  /* 最初のスレッドを起動 */
  dispatch(&current->context);
  ffcbba:	7a 10 00 00 	add.l	#0x34,er0
  ffcbbe:	00 34 
  ffcbc0:	5e ff c0 2c 	jsr	@0xffc02c:24

00ffcbc4 <.LM110>:
/home/kozos.c:558

  /* ここには返ってこない */
}
  ffcbc4:	7a 17 00 00 	add.l	#0x10,er7
  ffcbc8:	00 10 
  ffcbca:	01 00 6d 75 	mov.l	@er7+,er5
  ffcbce:	01 00 6d 74 	mov.l	@er7+,er4
  ffcbd2:	01 00 6d 76 	mov.l	@er7+,er6
  ffcbd6:	54 70       	rts	

00ffcbd8 <_kz_sysdown>:
kz_sysdown():
/home/kozos.c:561

void kz_sysdown(void)
{
  ffcbd8:	01 00 6d f6 	mov.l	er6,@-er7
  ffcbdc:	0f f6       	mov.l	er7,er6

00ffcbde <.LM112>:
/home/kozos.c:562
  puts("system error!\n");
  ffcbde:	7a 00 00 ff 	mov.l	#0xffdb26,er0
  ffcbe2:	db 26 
  ffcbe4:	5e ff c3 66 	jsr	@0xffc366:24

00ffcbe8 <.L36>:
  ffcbe8:	40 fe       	bra	.-2 (0xffcbe8)

00ffcbea <_call_functions>:
call_functions():
/home/kozos.c:392
{
  ffcbea:	01 00 6d f6 	mov.l	er6,@-er7
  ffcbee:	0f f6       	mov.l	er7,er6
  ffcbf0:	01 00 6d f4 	mov.l	er4,@-er7
  ffcbf4:	01 00 6d f5 	mov.l	er5,@-er7
  ffcbf8:	7a 37 00 00 	sub.l	#0xc,er7
  ffcbfc:	00 0c 
  ffcbfe:	0f 94       	mov.l	er1,er4

00ffcc00 <.LM114>:
/home/kozos.c:394
  switch (type) {
  ffcc00:	79 20 00 0b 	cmp.w	#0xb,r0
  ffcc04:	58 20 02 32 	bhi	.+562 (0xffce3a)
  ffcc08:	17 70       	extu.l	er0
  ffcc0a:	10 30       	shll.l	er0
  ffcc0c:	10 30       	shll.l	er0
  ffcc0e:	01 00 78 00 	mov.l	@(0xffda9c:32,er0),er2
  ffcc12:	6b 22 00 ff 
  ffcc16:	da 9c 
  ffcc18:	59 20       	jmp	@er2

00ffcc1a <.L39>:
/home/kozos.c:396
    p->un.run.ret = thread_run(p->un.run.func, p->un.run.name,
  ffcc1a:	01 00 6f 12 	mov.l	@(0x10:16,er1),er2
  ffcc1e:	00 10 
  ffcc20:	01 00 6d f2 	mov.l	er2,@-er7
  ffcc24:	1b 97       	subs	#4,er7
  ffcc26:	1b 97       	subs	#4,er7
  ffcc28:	6f 12 00 0c 	mov.w	@(0xc:16,er1),r2
  ffcc2c:	6f f2 00 06 	mov.w	r2,@(0x6:16,er7)
  ffcc30:	6f 12 00 0a 	mov.w	@(0xa:16,er1),r2
  ffcc34:	6f f2 00 02 	mov.w	r2,@(0x2:16,er7)
  ffcc38:	6f 12 00 08 	mov.w	@(0x8:16,er1),r2
  ffcc3c:	01 00 6f 11 	mov.l	@(0x4:16,er1),er1
  ffcc40:	00 04 
  ffcc42:	01 00 69 40 	mov.l	@er4,er0
  ffcc46:	5e ff c9 1c 	jsr	@0xffc91c:24

00ffcc4a <.LVL62>:
  ffcc4a:	01 00 6f c0 	mov.l	er0,@(0x14:16,er4)
  ffcc4e:	00 14 

00ffcc50 <.LM116>:
/home/kozos.c:399
    break;
  ffcc50:	7a 17 00 00 	add.l	#0xc,er7
  ffcc54:	00 0c 
  ffcc56:	58 00 01 e0 	bra	.+480 (0xffce3a)

00ffcc5a <.L41>:
/home/kozos.c:402
    thread_exit();
  ffcc5a:	5e ff c8 44 	jsr	@0xffc844:24

00ffcc5e <.LM118>:
/home/kozos.c:403
    break;
  ffcc5e:	58 00 01 d8 	bra	.+472 (0xffce3a)

00ffcc62 <.L42>:
thread_wait():
/home/kozos.c:226
  putcurrent();
  ffcc62:	5e ff c7 c4 	jsr	@0xffc7c4:24

00ffcc66 <.L43>:
call_functions():
/home/kozos.c:408
    p->un.sleep.ret = thread_sleep();
  ffcc66:	19 22       	sub.w	r2,r2
  ffcc68:	69 c2       	mov.w	r2,@er4

00ffcc6a <.LM121>:
/home/kozos.c:409
    break;
  ffcc6a:	58 00 01 cc 	bra	.+460 (0xffce3a)

00ffcc6e <.L44>:
/home/kozos.c:411
    p->un.wakeup.ret = thread_wakeup(p->un.wakeup.id);
  ffcc6e:	01 00 69 15 	mov.l	@er1,er5

00ffcc72 <.LBB46>:
thread_wakeup():
/home/kozos.c:240
  putcurrent();
  ffcc72:	5e ff c7 c4 	jsr	@0xffc7c4:24

00ffcc76 <.LM124>:
/home/kozos.c:243
  current = (kz_thread *)id;
  ffcc76:	01 00 6b a5 	mov.l	er5,@0xffdd64:32
  ffcc7a:	00 ff dd 64 
  ffcc7e:	40 54       	bra	.+84 (0xffccd4)

00ffcc80 <.L45>:
thread_getid():
/home/kozos.c:252
  putcurrent();
  ffcc80:	5e ff c7 c4 	jsr	@0xffc7c4:24

00ffcc84 <.LM126>:
call_functions():
/home/kozos.c:414
    p->un.getid.ret = thread_getid();
  ffcc84:	01 00 6b 22 	mov.l	@0xffdd64:32,er2
  ffcc88:	00 ff dd 64 
  ffcc8c:	01 00 69 c2 	mov.l	er2,@er4

00ffcc90 <.LM127>:
/home/kozos.c:415
    break;
  ffcc90:	58 00 01 a6 	bra	.+422 (0xffce3a)

00ffcc94 <.L46>:
/home/kozos.c:417
    p->un.chpri.ret = thread_chpri(p->un.chpri.priority);
  ffcc94:	69 13       	mov.w	@er1,r3

00ffcc96 <.LBB50>:
thread_chpri():
/home/kozos.c:259
  int old = current->priority;
  ffcc96:	01 00 6b 22 	mov.l	@0xffdd64:32,er2
  ffcc9a:	00 ff dd 64 
  ffcc9e:	6f 25 00 14 	mov.w	@(0x14:16,er2),r5

00ffcca2 <.LM130>:
/home/kozos.c:260
  if (priority >= 0)
  ffcca2:	0d 33       	mov.w	r3,r3
  ffcca4:	4d 04       	blt	.+4 (0xffccaa)

00ffcca6 <.LM131>:
/home/kozos.c:261
    current->priority = priority; /* 優先度変更 */
  ffcca6:	6f a3 00 14 	mov.w	r3,@(0x14:16,er2)

00ffccaa <.L52>:
/home/kozos.c:262
  putcurrent(); /* 新しい優先度のレディー・キューに繋ぎ直す */
  ffccaa:	5e ff c7 c4 	jsr	@0xffc7c4:24

00ffccae <.LM133>:
call_functions():
/home/kozos.c:417
    p->un.chpri.ret = thread_chpri(p->un.chpri.priority);
  ffccae:	6f c5 00 02 	mov.w	r5,@(0x2:16,er4)

00ffccb2 <.LM134>:
/home/kozos.c:418
    break;
  ffccb2:	58 00 01 84 	bra	.+388 (0xffce3a)

00ffccb6 <.L47>:
/home/kozos.c:420
    p->un.kmalloc.ret = thread_kmalloc(p->un.kmalloc.size);
  ffccb6:	69 15       	mov.w	@er1,r5

00ffccb8 <.LBB52>:
thread_kmalloc():
/home/kozos.c:269
  putcurrent();
  ffccb8:	5e ff c7 c4 	jsr	@0xffc7c4:24

00ffccbc <.LM137>:
/home/kozos.c:270
  return kzmem_alloc(size);
  ffccbc:	0d 50       	mov.w	r5,r0
  ffccbe:	5e ff d3 00 	jsr	@0xffd300:24

00ffccc2 <.LM138>:
call_functions():
/home/kozos.c:420
    p->un.kmalloc.ret = thread_kmalloc(p->un.kmalloc.size);
  ffccc2:	01 00 6f c0 	mov.l	er0,@(0x4:16,er4)
  ffccc6:	00 04 

00ffccc8 <.LM139>:
/home/kozos.c:421
    break;
  ffccc8:	58 00 01 6e 	bra	.+366 (0xffce3a)

00ffcccc <.L48>:
thread_kmfree():
/home/kozos.c:276
  kzmem_free(p);
  ffcccc:	01 00 69 10 	mov.l	@er1,er0
  ffccd0:	5e ff d3 7c 	jsr	@0xffd37c:24

00ffccd4 <.L64>:
/home/kozos.c:277
  putcurrent();
  ffccd4:	5e ff c7 c4 	jsr	@0xffc7c4:24

00ffccd8 <.LM142>:
call_functions():
/home/kozos.c:423
    p->un.kmfree.ret = thread_kmfree(p->un.kmfree.p);
  ffccd8:	19 22       	sub.w	r2,r2
  ffccda:	6f c2 00 04 	mov.w	r2,@(0x4:16,er4)

00ffccde <.LM143>:
/home/kozos.c:424
    break;
  ffccde:	58 00 01 58 	bra	.+344 (0xffce3a)

00ffcce2 <.L49>:
/home/kozos.c:426
    p->un.send.ret = thread_send(p->un.send.id,
  ffcce2:	01 00 6f 12 	mov.l	@(0x4:16,er1),er2
  ffcce6:	00 04 
  ffcce8:	6f 13 00 02 	mov.w	@(0x2:16,er1),r3
  ffccec:	6f e3 ff f6 	mov.w	r3,@(0xfff6:16,er6)
  ffccf0:	69 15       	mov.w	@er1,r5

00ffccf2 <.LBB56>:
thread_send():
/home/kozos.c:337
  putcurrent();
  ffccf2:	01 00 6f e2 	mov.l	er2,@(0xfff0:16,er6)
  ffccf6:	ff f0 
  ffccf8:	5e ff c7 c4 	jsr	@0xffc7c4:24

00ffccfc <.LM146>:
/home/kozos.c:338
  sendmsg(mboxp, current, size, p); /* メッセージの送信処理 */
  ffccfc:	01 00 6b 23 	mov.l	@0xffdd64:32,er3
  ffcd00:	00 ff dd 64 

00ffcd04 <.LBB58>:
sendmsg():
/home/kozos.c:287
  mp = (kz_msgbuf *)kzmem_alloc(sizeof(*mp));
  ffcd04:	79 00 00 10 	mov.w	#0x10,r0
  ffcd08:	01 00 6f e3 	mov.l	er3,@(0xffec:16,er6)
  ffcd0c:	ff ec 
  ffcd0e:	5e ff d3 00 	jsr	@0xffd300:24

00ffcd12 <.LM148>:
/home/kozos.c:288
  if (mp == NULL)
  ffcd12:	01 00 6f 62 	mov.l	@(0xfff0:16,er6),er2
  ffcd16:	ff f0 
  ffcd18:	01 00 6f 63 	mov.l	@(0xffec:16,er6),er3
  ffcd1c:	ff ec 
  ffcd1e:	0f 80       	mov.l	er0,er0
  ffcd20:	46 04       	bne	.+4 (0xffcd26)

00ffcd22 <.L57>:
/home/kozos.c:289
    kz_sysdown();
  ffcd22:	5e ff cb d8 	jsr	@0xffcbd8:24

00ffcd26 <.L53>:
/home/kozos.c:290
  mp->next       = NULL;
  ffcd26:	1a 91       	sub.l	er1,er1
  ffcd28:	01 00 69 81 	mov.l	er1,@er0

00ffcd2c <.LM151>:
/home/kozos.c:291
  mp->sender     = thp;
  ffcd2c:	01 00 6f 83 	mov.l	er3,@(0x4:16,er0)
  ffcd30:	00 04 

00ffcd32 <.LM152>:
/home/kozos.c:292
  mp->param.size = size;
  ffcd32:	6f 63 ff f6 	mov.w	@(0xfff6:16,er6),r3
  ffcd36:	6f 83 00 08 	mov.w	r3,@(0x8:16,er0)

00ffcd3a <.LM153>:
/home/kozos.c:293
  mp->param.p    = p;
  ffcd3a:	01 00 6f 82 	mov.l	er2,@(0xc:16,er0)
  ffcd3e:	00 0c 

00ffcd40 <.LM154>:
/home/kozos.c:296
  if (mboxp->tail) {
  ffcd40:	7a 03 00 ff 	mov.l	#0xffdb94,er3
  ffcd44:	db 94 
  ffcd46:	0d 52       	mov.w	r5,r2
  ffcd48:	17 72       	extu.l	er2
  ffcd4a:	0f a1       	mov.l	er2,er1
  ffcd4c:	10 31       	shll.l	er1
  ffcd4e:	10 31       	shll.l	er1
  ffcd50:	10 31       	shll.l	er1
  ffcd52:	10 31       	shll.l	er1
  ffcd54:	0a b1       	add.l	er3,er1
  ffcd56:	01 00 6f 15 	mov.l	@(0x8:16,er1),er5
  ffcd5a:	00 08 
  ffcd5c:	47 06       	beq	.+6 (0xffcd64)

00ffcd5e <.LM155>:
/home/kozos.c:297
    mboxp->tail->next = mp;
  ffcd5e:	01 00 69 d0 	mov.l	er0,@er5
  ffcd62:	40 06       	bra	.+6 (0xffcd6a)

00ffcd64 <.L54>:
/home/kozos.c:299
    mboxp->head = mp;
  ffcd64:	01 00 6f 90 	mov.l	er0,@(0x4:16,er1)
  ffcd68:	00 04 

00ffcd6a <.L55>:
/home/kozos.c:301
  mboxp->tail = mp;
  ffcd6a:	10 32       	shll.l	er2
  ffcd6c:	10 32       	shll.l	er2
  ffcd6e:	10 32       	shll.l	er2
  ffcd70:	10 32       	shll.l	er2
  ffcd72:	0a a3       	add.l	er2,er3
  ffcd74:	01 00 6f b0 	mov.l	er0,@(0x8:16,er3)
  ffcd78:	00 08 

00ffcd7a <.LM158>:
thread_send():
/home/kozos.c:341
  if (mboxp->receiver) {
  ffcd7a:	01 00 69 33 	mov.l	@er3,er3
  ffcd7e:	47 18       	beq	.+24 (0xffcd98)

00ffcd80 <.LM159>:
/home/kozos.c:342
    current = mboxp->receiver; /* 受信待ちスレッド */
  ffcd80:	01 00 6b a3 	mov.l	er3,@0xffdd64:32
  ffcd84:	00 ff dd 64 

00ffcd88 <.LM160>:
/home/kozos.c:343
    recvmsg(mboxp); /* メッセージの受信処理 */
  ffcd88:	0f a0       	mov.l	er2,er0
  ffcd8a:	7a 10 00 ff 	add.l	#0xffdb94,er0
  ffcd8e:	db 94 
  ffcd90:	5e ff c8 a8 	jsr	@0xffc8a8:24

00ffcd94 <.LM161>:
/home/kozos.c:344
    putcurrent(); /* 受信により動作可能になったので，ブロック解除する */
  ffcd94:	5e ff c7 c4 	jsr	@0xffc7c4:24

00ffcd98 <.L56>:
call_functions():
/home/kozos.c:426
    p->un.send.ret = thread_send(p->un.send.id,
  ffcd98:	6f 62 ff f6 	mov.w	@(0xfff6:16,er6),r2
  ffcd9c:	58 00 00 96 	bra	.+150 (0xffce36)

00ffcda0 <.L50>:
/home/kozos.c:430
    p->un.recv.ret = thread_recv(p->un.recv.id,
  ffcda0:	69 10       	mov.w	@er1,r0

00ffcda2 <.LBB60>:
thread_recv():
/home/kozos.c:355
  if (mboxp->receiver) /* 他のスレッドがすでに受信待ちしている */
  ffcda2:	17 70       	extu.l	er0
  ffcda4:	10 30       	shll.l	er0
  ffcda6:	10 30       	shll.l	er0
  ffcda8:	10 30       	shll.l	er0
  ffcdaa:	10 30       	shll.l	er0
  ffcdac:	0f 82       	mov.l	er0,er2
  ffcdae:	7a 12 00 ff 	add.l	#0xffdb94,er2
  ffcdb2:	db 94 
  ffcdb4:	01 00 69 23 	mov.l	@er2,er3
  ffcdb8:	58 60 ff 66 	bne	.-154 (0xffcd22)

00ffcdbc <.LM165>:
/home/kozos.c:358
  mboxp->receiver = current; /* 受信待ちスレッドに設定 */
  ffcdbc:	01 00 6b 23 	mov.l	@0xffdd64:32,er3
  ffcdc0:	00 ff dd 64 
  ffcdc4:	01 00 69 a3 	mov.l	er3,@er2

00ffcdc8 <.LM166>:
/home/kozos.c:360
  if (mboxp->head == NULL) {
  ffcdc8:	01 00 6f 22 	mov.l	@(0x4:16,er2),er2
  ffcdcc:	00 04 
  ffcdce:	47 24       	beq	.+36 (0xffcdf4)

00ffcdd0 <.LM167>:
/home/kozos.c:368
  recvmsg(mboxp); /* メッセージの受信処理 */
  ffcdd0:	7a 10 00 ff 	add.l	#0xffdb94,er0
  ffcdd4:	db 94 
  ffcdd6:	5e ff c8 a8 	jsr	@0xffc8a8:24

00ffcdda <.LM168>:
/home/kozos.c:369
  putcurrent(); /* メッセージを受信できたので，レディー状態にする */
  ffcdda:	5e ff c7 c4 	jsr	@0xffc7c4:24

00ffcdde <.LM169>:
/home/kozos.c:371
  return current->syscall.param->un.recv.ret;
  ffcdde:	01 00 6b 22 	mov.l	@0xffdd64:32,er2
  ffcde2:	00 ff dd 64 
  ffcde6:	01 00 6f 22 	mov.l	@(0x30:16,er2),er2
  ffcdea:	00 30 
  ffcdec:	01 00 6f 22 	mov.l	@(0xc:16,er2),er2
  ffcdf0:	00 0c 
  ffcdf2:	40 04       	bra	.+4 (0xffcdf8)

00ffcdf4 <.L59>:
/home/kozos.c:365
    return -1;
  ffcdf4:	1a a2       	sub.l	er2,er2
  ffcdf6:	1b 02       	subs	#1,er2

00ffcdf8 <.L58>:
call_functions():
/home/kozos.c:430
    p->un.recv.ret = thread_recv(p->un.recv.id,
  ffcdf8:	01 00 6f c2 	mov.l	er2,@(0xc:16,er4)
  ffcdfc:	00 0c 

00ffcdfe <.LM172>:
/home/kozos.c:432
    break;
  ffcdfe:	40 3a       	bra	.+58 (0xffce3a)

00ffce00 <.L51>:
/home/kozos.c:434
    p->un.setintr.ret = thread_setintr(p->un.setintr.type,
  ffce00:	01 00 6f 12 	mov.l	@(0x4:16,er1),er2
  ffce04:	00 04 
  ffce06:	69 15       	mov.w	@er1,r5

00ffce08 <.LBB62>:
thread_setintr():
/home/kozos.c:383
  softvec_setintr(type, thread_intr);
  ffce08:	7a 01 00 ff 	mov.l	#0xffce88,er1
  ffce0c:	ce 88 
  ffce0e:	0d 50       	mov.w	r5,r0
  ffce10:	01 00 6f e2 	mov.l	er2,@(0xfff0:16,er6)
  ffce14:	ff f0 
  ffce16:	5e ff c1 78 	jsr	@0xffc178:24

00ffce1a <.LM175>:
/home/kozos.c:385
  handlers[type] = handler; /* OS側から呼び出す割込みハンドラを登録 */
  ffce1a:	17 f5       	exts.l	er5
  ffce1c:	10 35       	shll.l	er5
  ffce1e:	10 35       	shll.l	er5
  ffce20:	01 00 6f 62 	mov.l	@(0xfff0:16,er6),er2
  ffce24:	ff f0 
  ffce26:	01 00 78 d0 	mov.l	er2,@(0xffdbd4:32,er5)
  ffce2a:	6b a2 00 ff 
  ffce2e:	db d4 

00ffce30 <.LM176>:
/home/kozos.c:386
  putcurrent();
  ffce30:	5e ff c7 c4 	jsr	@0xffc7c4:24

00ffce34 <.LM177>:
call_functions():
/home/kozos.c:434
    p->un.setintr.ret = thread_setintr(p->un.setintr.type,
  ffce34:	19 22       	sub.w	r2,r2

00ffce36 <.L63>:
  ffce36:	6f c2 00 08 	mov.w	r2,@(0x8:16,er4)

00ffce3a <.L37>:
/home/kozos.c:440
}
  ffce3a:	7a 17 00 00 	add.l	#0xc,er7
  ffce3e:	00 0c 
  ffce40:	01 00 6d 75 	mov.l	@er7+,er5
  ffce44:	01 00 6d 74 	mov.l	@er7+,er4
  ffce48:	01 00 6d 76 	mov.l	@er7+,er6
  ffce4c:	54 70       	rts	

00ffce4e <_syscall_intr>:
syscall_intr():
/home/kozos.c:491
{
  ffce4e:	01 00 6d f6 	mov.l	er6,@-er7
  ffce52:	0f f6       	mov.l	er7,er6
  ffce54:	01 00 6d f4 	mov.l	er4,@-er7
  ffce58:	01 00 6d f5 	mov.l	er5,@-er7

00ffce5c <.LM180>:
/home/kozos.c:492
  syscall_proc(current->syscall.type, current->syscall.param);
  ffce5c:	01 00 6b 22 	mov.l	@0xffdd64:32,er2
  ffce60:	00 ff dd 64 
  ffce64:	01 00 6f 25 	mov.l	@(0x30:16,er2),er5
  ffce68:	00 30 
  ffce6a:	6f 24 00 2c 	mov.w	@(0x2c:16,er2),r4

00ffce6e <.LBB66>:
syscall_proc():
/home/kozos.c:451
  getcurrent();
  ffce6e:	5e ff c7 66 	jsr	@0xffc766:24

00ffce72 <.LM182>:
/home/kozos.c:452
  call_functions(type, p);
  ffce72:	0f d1       	mov.l	er5,er1
  ffce74:	0d 40       	mov.w	r4,r0
  ffce76:	5e ff cb ea 	jsr	@0xffcbea:24

00ffce7a <.LM183>:
syscall_intr():
/home/kozos.c:493
}
  ffce7a:	01 00 6d 75 	mov.l	@er7+,er5
  ffce7e:	01 00 6d 74 	mov.l	@er7+,er4
  ffce82:	01 00 6d 76 	mov.l	@er7+,er6
  ffce86:	54 70       	rts	

00ffce88 <_thread_intr>:
thread_intr():
/home/kozos.c:505
{
  ffce88:	01 00 6d f6 	mov.l	er6,@-er7
  ffce8c:	0f f6       	mov.l	er7,er6

00ffce8e <.LM185>:
/home/kozos.c:507
  current->context.sp = sp;
  ffce8e:	01 00 6b 22 	mov.l	@0xffdd64:32,er2
  ffce92:	00 ff dd 64 
  ffce96:	01 00 6f a1 	mov.l	er1,@(0x34:16,er2)
  ffce9a:	00 34 

00ffce9c <.LM186>:
/home/kozos.c:517
  if (handlers[type])
  ffce9c:	17 f0       	exts.l	er0
  ffce9e:	10 30       	shll.l	er0
  ffcea0:	10 30       	shll.l	er0
  ffcea2:	01 00 78 00 	mov.l	@(0xffdbd4:32,er0),er2
  ffcea6:	6b 22 00 ff 
  ffceaa:	db d4 
  ffceac:	47 02       	beq	.+2 (0xffceb0)

00ffceae <.LM187>:
/home/kozos.c:518
    handlers[type]();
  ffceae:	5d 20       	jsr	@er2

00ffceb0 <.L67>:
  ffceb0:	7a 02 00 ff 	mov.l	#0xffdd68,er2
  ffceb4:	dd 68 

00ffceb6 <.LM188>:
/home/kozos.c:505
{
  ffceb6:	79 03 00 10 	mov.w	#0x10,r3

00ffceba <.L69>:
schedule():
/home/kozos.c:481
    if (readyque[i].head) /* 見つかった */
  ffceba:	01 00 69 20 	mov.l	@er2,er0
  ffcebe:	46 0e       	bne	.+14 (0xffcece)
  ffcec0:	1b 03       	subs	#1,er3
  ffcec2:	0b 92       	adds	#4,er2
  ffcec4:	0b 92       	adds	#4,er2

00ffcec6 <.LM190>:
/home/kozos.c:480
  for (i = 0; i < PRIORITY_NUM; i++) {
  ffcec6:	0d 33       	mov.w	r3,r3
  ffcec8:	46 f0       	bne	.-16 (0xffceba)

00ffceca <.LM191>:
/home/kozos.c:485
    kz_sysdown();
  ffceca:	5e ff cb d8 	jsr	@0xffcbd8:24

00ffcece <.L68>:
/home/kozos.c:487
  current = readyque[i].head; /* カレント・スレッドに設定する */
  ffcece:	01 00 6b a0 	mov.l	er0,@0xffdd64:32
  ffced2:	00 ff dd 64 

00ffced6 <.LM193>:
thread_intr():
/home/kozos.c:526
  dispatch(&current->context);
  ffced6:	7a 10 00 00 	add.l	#0x34,er0
  ffceda:	00 34 
  ffcedc:	5e ff c0 2c 	jsr	@0xffc02c:24

00ffcee0 <.LM194>:
/home/kozos.c:528
}
  ffcee0:	01 00 6d 76 	mov.l	@er7+,er6
  ffcee4:	54 70       	rts	

00ffcee6 <_kz_syscall>:
kz_syscall():
/home/kozos.c:569
    ;
}

/* システム・コール呼び出し用ライブラリ関数 */
void kz_syscall(kz_syscall_type_t type, kz_syscall_param_t *param)
{
  ffcee6:	01 00 6d f6 	mov.l	er6,@-er7
  ffceea:	0f f6       	mov.l	er7,er6

00ffceec <.LM196>:
/home/kozos.c:570
  current->syscall.type  = type;
  ffceec:	01 00 6b 22 	mov.l	@0xffdd64:32,er2
  ffcef0:	00 ff dd 64 
  ffcef4:	6f a0 00 2c 	mov.w	r0,@(0x2c:16,er2)

00ffcef8 <.LM197>:
/home/kozos.c:571
  current->syscall.param = param;
  ffcef8:	01 00 6f a1 	mov.l	er1,@(0x30:16,er2)
  ffcefc:	00 30 

00ffcefe <.LM198>:
/home/kozos.c:572
  asm volatile ("trapa #0"); /* トラップ割込み発行 */
  ffcefe:	57 00       	trapa	#0x0

00ffcf00 <.LM199>:
/home/kozos.c:573
}
  ffcf00:	01 00 6d 76 	mov.l	@er7+,er6
  ffcf04:	54 70       	rts	

00ffcf06 <_kz_srvcall>:
kz_srvcall():
/home/kozos.c:577

/* サービス・コール呼び出し用ライブラリ関数 */
void kz_srvcall(kz_syscall_type_t type, kz_syscall_param_t *param)
{
  ffcf06:	01 00 6d f6 	mov.l	er6,@-er7
  ffcf0a:	0f f6       	mov.l	er7,er6

00ffcf0c <.LBB74>:
srvcall_proc():
/home/kozos.c:467
  current = NULL;
  ffcf0c:	1a a2       	sub.l	er2,er2
  ffcf0e:	01 00 6b a2 	mov.l	er2,@0xffdd64:32
  ffcf12:	00 ff dd 64 

00ffcf16 <.LM202>:
/home/kozos.c:468
  call_functions(type, p);
  ffcf16:	5e ff cb ea 	jsr	@0xffcbea:24

00ffcf1a <.LM203>:
kz_srvcall():
/home/kozos.c:579
  srvcall_proc(type, param);
}
  ffcf1a:	01 00 6d 76 	mov.l	@er7+,er6
  ffcf1e:	54 70       	rts	

00ffcf20 <_kz_run>:
kz_run():
/home/syscall.c:10

/* システム・コール */

kz_thread_id_t kz_run(kz_func_t func, char *name, int priority, int stacksize,
		      int argc, char *argv[])
{
  ffcf20:	01 00 6d f6 	mov.l	er6,@-er7
  ffcf24:	0f f6       	mov.l	er7,er6
  ffcf26:	7a 37 00 00 	sub.l	#0x18,er7
  ffcf2a:	00 18 

00ffcf2c <.LM2>:
/home/syscall.c:12
  kz_syscall_param_t param;
  param.un.run.func = func;
  ffcf2c:	01 00 6f e0 	mov.l	er0,@(0xffe8:16,er6)
  ffcf30:	ff e8 

00ffcf32 <.LM3>:
/home/syscall.c:13
  param.un.run.name = name;
  ffcf32:	01 00 6f e1 	mov.l	er1,@(0xffec:16,er6)
  ffcf36:	ff ec 

00ffcf38 <.LM4>:
/home/syscall.c:14
  param.un.run.priority = priority;
  ffcf38:	6f e2 ff f0 	mov.w	r2,@(0xfff0:16,er6)

00ffcf3c <.LM5>:
/home/syscall.c:15
  param.un.run.stacksize = stacksize;
  ffcf3c:	6f 62 00 0a 	mov.w	@(0xa:16,er6),r2
  ffcf40:	6f e2 ff f2 	mov.w	r2,@(0xfff2:16,er6)

00ffcf44 <.LM6>:
/home/syscall.c:16
  param.un.run.argc = argc;
  ffcf44:	6f 62 00 0e 	mov.w	@(0xe:16,er6),r2
  ffcf48:	6f e2 ff f4 	mov.w	r2,@(0xfff4:16,er6)

00ffcf4c <.LM7>:
/home/syscall.c:17
  param.un.run.argv = argv;
  ffcf4c:	01 00 6f 62 	mov.l	@(0x10:16,er6),er2
  ffcf50:	00 10 
  ffcf52:	01 00 6f e2 	mov.l	er2,@(0xfff8:16,er6)
  ffcf56:	ff f8 

00ffcf58 <.LM8>:
/home/syscall.c:18
  kz_syscall(KZ_SYSCALL_TYPE_RUN, &param);
  ffcf58:	0f e1       	mov.l	er6,er1
  ffcf5a:	7a 31 00 00 	sub.l	#0x18,er1
  ffcf5e:	00 18 
  ffcf60:	19 00       	sub.w	r0,r0
  ffcf62:	5e ff ce e6 	jsr	@0xffcee6:24

00ffcf66 <.LM9>:
/home/syscall.c:20
  return param.un.run.ret;
}
  ffcf66:	01 00 6f 60 	mov.l	@(0xfffc:16,er6),er0
  ffcf6a:	ff fc 
  ffcf6c:	7a 17 00 00 	add.l	#0x18,er7
  ffcf70:	00 18 
  ffcf72:	01 00 6d 76 	mov.l	@er7+,er6
  ffcf76:	54 70       	rts	

00ffcf78 <_kz_exit>:
kz_exit():
/home/syscall.c:23

void kz_exit(void)
{
  ffcf78:	01 00 6d f6 	mov.l	er6,@-er7
  ffcf7c:	0f f6       	mov.l	er7,er6

00ffcf7e <.LM11>:
/home/syscall.c:24
  kz_syscall(KZ_SYSCALL_TYPE_EXIT, NULL);
  ffcf7e:	1a 91       	sub.l	er1,er1
  ffcf80:	79 00 00 01 	mov.w	#0x1,r0
  ffcf84:	5e ff ce e6 	jsr	@0xffcee6:24

00ffcf88 <.LM12>:
/home/syscall.c:25
}
  ffcf88:	01 00 6d 76 	mov.l	@er7+,er6
  ffcf8c:	54 70       	rts	

00ffcf8e <_kz_wait>:
kz_wait():
/home/syscall.c:28

int kz_wait(void)
{
  ffcf8e:	01 00 6d f6 	mov.l	er6,@-er7
  ffcf92:	0f f6       	mov.l	er7,er6
  ffcf94:	7a 37 00 00 	sub.l	#0x18,er7
  ffcf98:	00 18 

00ffcf9a <.LM14>:
/home/syscall.c:30
  kz_syscall_param_t param;
  kz_syscall(KZ_SYSCALL_TYPE_WAIT, &param);
  ffcf9a:	0f e1       	mov.l	er6,er1
  ffcf9c:	7a 31 00 00 	sub.l	#0x18,er1
  ffcfa0:	00 18 
  ffcfa2:	79 00 00 02 	mov.w	#0x2,r0
  ffcfa6:	5e ff ce e6 	jsr	@0xffcee6:24

00ffcfaa <.LM15>:
/home/syscall.c:32
  return param.un.wait.ret;
}
  ffcfaa:	6f 60 ff e8 	mov.w	@(0xffe8:16,er6),r0
  ffcfae:	7a 17 00 00 	add.l	#0x18,er7
  ffcfb2:	00 18 
  ffcfb4:	01 00 6d 76 	mov.l	@er7+,er6
  ffcfb8:	54 70       	rts	

00ffcfba <_kz_sleep>:
kz_sleep():
/home/syscall.c:35

int kz_sleep(void)
{
  ffcfba:	01 00 6d f6 	mov.l	er6,@-er7
  ffcfbe:	0f f6       	mov.l	er7,er6
  ffcfc0:	7a 37 00 00 	sub.l	#0x18,er7
  ffcfc4:	00 18 

00ffcfc6 <.LM17>:
/home/syscall.c:37
  kz_syscall_param_t param;
  kz_syscall(KZ_SYSCALL_TYPE_SLEEP, &param);
  ffcfc6:	0f e1       	mov.l	er6,er1
  ffcfc8:	7a 31 00 00 	sub.l	#0x18,er1
  ffcfcc:	00 18 
  ffcfce:	79 00 00 03 	mov.w	#0x3,r0
  ffcfd2:	5e ff ce e6 	jsr	@0xffcee6:24

00ffcfd6 <.LM18>:
/home/syscall.c:39
  return param.un.sleep.ret;
}
  ffcfd6:	6f 60 ff e8 	mov.w	@(0xffe8:16,er6),r0
  ffcfda:	7a 17 00 00 	add.l	#0x18,er7
  ffcfde:	00 18 
  ffcfe0:	01 00 6d 76 	mov.l	@er7+,er6
  ffcfe4:	54 70       	rts	

00ffcfe6 <_kz_wakeup>:
kz_wakeup():
/home/syscall.c:42

int kz_wakeup(kz_thread_id_t id)
{
  ffcfe6:	01 00 6d f6 	mov.l	er6,@-er7
  ffcfea:	0f f6       	mov.l	er7,er6
  ffcfec:	7a 37 00 00 	sub.l	#0x18,er7
  ffcff0:	00 18 

00ffcff2 <.LM20>:
/home/syscall.c:44
  kz_syscall_param_t param;
  param.un.wakeup.id = id;
  ffcff2:	01 00 6f e0 	mov.l	er0,@(0xffe8:16,er6)
  ffcff6:	ff e8 

00ffcff8 <.LM21>:
/home/syscall.c:45
  kz_syscall(KZ_SYSCALL_TYPE_WAKEUP, &param);
  ffcff8:	0f e1       	mov.l	er6,er1
  ffcffa:	7a 31 00 00 	sub.l	#0x18,er1
  ffcffe:	00 18 
  ffd000:	79 00 00 04 	mov.w	#0x4,r0
  ffd004:	5e ff ce e6 	jsr	@0xffcee6:24

00ffd008 <.LM22>:
/home/syscall.c:47
  return param.un.wakeup.ret;
}
  ffd008:	6f 60 ff ec 	mov.w	@(0xffec:16,er6),r0
  ffd00c:	7a 17 00 00 	add.l	#0x18,er7
  ffd010:	00 18 
  ffd012:	01 00 6d 76 	mov.l	@er7+,er6
  ffd016:	54 70       	rts	

00ffd018 <_kz_getid>:
kz_getid():
/home/syscall.c:50

kz_thread_id_t kz_getid(void)
{
  ffd018:	01 00 6d f6 	mov.l	er6,@-er7
  ffd01c:	0f f6       	mov.l	er7,er6
  ffd01e:	7a 37 00 00 	sub.l	#0x18,er7
  ffd022:	00 18 

00ffd024 <.LM24>:
/home/syscall.c:52
  kz_syscall_param_t param;
  kz_syscall(KZ_SYSCALL_TYPE_GETID, &param);
  ffd024:	0f e1       	mov.l	er6,er1
  ffd026:	7a 31 00 00 	sub.l	#0x18,er1
  ffd02a:	00 18 
  ffd02c:	79 00 00 05 	mov.w	#0x5,r0
  ffd030:	5e ff ce e6 	jsr	@0xffcee6:24

00ffd034 <.LM25>:
/home/syscall.c:54
  return param.un.getid.ret;
}
  ffd034:	01 00 6f 60 	mov.l	@(0xffe8:16,er6),er0
  ffd038:	ff e8 
  ffd03a:	7a 17 00 00 	add.l	#0x18,er7
  ffd03e:	00 18 
  ffd040:	01 00 6d 76 	mov.l	@er7+,er6
  ffd044:	54 70       	rts	

00ffd046 <_kz_chpri>:
kz_chpri():
/home/syscall.c:57

int kz_chpri(int priority)
{
  ffd046:	01 00 6d f6 	mov.l	er6,@-er7
  ffd04a:	0f f6       	mov.l	er7,er6
  ffd04c:	7a 37 00 00 	sub.l	#0x18,er7
  ffd050:	00 18 

00ffd052 <.LM27>:
/home/syscall.c:59
  kz_syscall_param_t param;
  param.un.chpri.priority = priority;
  ffd052:	6f e0 ff e8 	mov.w	r0,@(0xffe8:16,er6)

00ffd056 <.LM28>:
/home/syscall.c:60
  kz_syscall(KZ_SYSCALL_TYPE_CHPRI, &param);
  ffd056:	0f e1       	mov.l	er6,er1
  ffd058:	7a 31 00 00 	sub.l	#0x18,er1
  ffd05c:	00 18 
  ffd05e:	79 00 00 06 	mov.w	#0x6,r0
  ffd062:	5e ff ce e6 	jsr	@0xffcee6:24

00ffd066 <.LM29>:
/home/syscall.c:62
  return param.un.chpri.ret;
}
  ffd066:	6f 60 ff ea 	mov.w	@(0xffea:16,er6),r0
  ffd06a:	7a 17 00 00 	add.l	#0x18,er7
  ffd06e:	00 18 
  ffd070:	01 00 6d 76 	mov.l	@er7+,er6
  ffd074:	54 70       	rts	

00ffd076 <_kz_kmalloc>:
kz_kmalloc():
/home/syscall.c:65

void *kz_kmalloc(int size)
{
  ffd076:	01 00 6d f6 	mov.l	er6,@-er7
  ffd07a:	0f f6       	mov.l	er7,er6
  ffd07c:	7a 37 00 00 	sub.l	#0x18,er7
  ffd080:	00 18 

00ffd082 <.LM31>:
/home/syscall.c:67
  kz_syscall_param_t param;
  param.un.kmalloc.size = size;
  ffd082:	6f e0 ff e8 	mov.w	r0,@(0xffe8:16,er6)

00ffd086 <.LM32>:
/home/syscall.c:68
  kz_syscall(KZ_SYSCALL_TYPE_KMALLOC, &param);
  ffd086:	0f e1       	mov.l	er6,er1
  ffd088:	7a 31 00 00 	sub.l	#0x18,er1
  ffd08c:	00 18 
  ffd08e:	79 00 00 07 	mov.w	#0x7,r0
  ffd092:	5e ff ce e6 	jsr	@0xffcee6:24

00ffd096 <.LM33>:
/home/syscall.c:70
  return param.un.kmalloc.ret;
}
  ffd096:	01 00 6f 60 	mov.l	@(0xffec:16,er6),er0
  ffd09a:	ff ec 
  ffd09c:	7a 17 00 00 	add.l	#0x18,er7
  ffd0a0:	00 18 
  ffd0a2:	01 00 6d 76 	mov.l	@er7+,er6
  ffd0a6:	54 70       	rts	

00ffd0a8 <_kz_kmfree>:
kz_kmfree():
/home/syscall.c:73

int kz_kmfree(void *p)
{
  ffd0a8:	01 00 6d f6 	mov.l	er6,@-er7
  ffd0ac:	0f f6       	mov.l	er7,er6
  ffd0ae:	7a 37 00 00 	sub.l	#0x18,er7
  ffd0b2:	00 18 

00ffd0b4 <.LM35>:
/home/syscall.c:75
  kz_syscall_param_t param;
  param.un.kmfree.p = p;
  ffd0b4:	01 00 6f e0 	mov.l	er0,@(0xffe8:16,er6)
  ffd0b8:	ff e8 

00ffd0ba <.LM36>:
/home/syscall.c:76
  kz_syscall(KZ_SYSCALL_TYPE_KMFREE, &param);
  ffd0ba:	0f e1       	mov.l	er6,er1
  ffd0bc:	7a 31 00 00 	sub.l	#0x18,er1
  ffd0c0:	00 18 
  ffd0c2:	79 00 00 08 	mov.w	#0x8,r0
  ffd0c6:	5e ff ce e6 	jsr	@0xffcee6:24

00ffd0ca <.LM37>:
/home/syscall.c:78
  return param.un.kmfree.ret;
}
  ffd0ca:	6f 60 ff ec 	mov.w	@(0xffec:16,er6),r0
  ffd0ce:	7a 17 00 00 	add.l	#0x18,er7
  ffd0d2:	00 18 
  ffd0d4:	01 00 6d 76 	mov.l	@er7+,er6
  ffd0d8:	54 70       	rts	

00ffd0da <_kz_send>:
kz_send():
/home/syscall.c:81

int kz_send(kz_msgbox_id_t id, int size, char *p)
{
  ffd0da:	01 00 6d f6 	mov.l	er6,@-er7
  ffd0de:	0f f6       	mov.l	er7,er6
  ffd0e0:	7a 37 00 00 	sub.l	#0x18,er7
  ffd0e4:	00 18 

00ffd0e6 <.LM39>:
/home/syscall.c:83
  kz_syscall_param_t param;
  param.un.send.id = id;
  ffd0e6:	6f e0 ff e8 	mov.w	r0,@(0xffe8:16,er6)

00ffd0ea <.LM40>:
/home/syscall.c:84
  param.un.send.size = size;
  ffd0ea:	6f e1 ff ea 	mov.w	r1,@(0xffea:16,er6)

00ffd0ee <.LM41>:
/home/syscall.c:85
  param.un.send.p = p;
  ffd0ee:	01 00 6f e2 	mov.l	er2,@(0xffec:16,er6)
  ffd0f2:	ff ec 

00ffd0f4 <.LM42>:
/home/syscall.c:86
  kz_syscall(KZ_SYSCALL_TYPE_SEND, &param);
  ffd0f4:	0f e1       	mov.l	er6,er1
  ffd0f6:	7a 31 00 00 	sub.l	#0x18,er1
  ffd0fa:	00 18 
  ffd0fc:	79 00 00 09 	mov.w	#0x9,r0
  ffd100:	5e ff ce e6 	jsr	@0xffcee6:24

00ffd104 <.LM43>:
/home/syscall.c:88
  return param.un.send.ret;
}
  ffd104:	6f 60 ff f0 	mov.w	@(0xfff0:16,er6),r0
  ffd108:	7a 17 00 00 	add.l	#0x18,er7
  ffd10c:	00 18 
  ffd10e:	01 00 6d 76 	mov.l	@er7+,er6
  ffd112:	54 70       	rts	

00ffd114 <_kz_recv>:
kz_recv():
/home/syscall.c:91

kz_thread_id_t kz_recv(kz_msgbox_id_t id, int *sizep, char **pp)
{
  ffd114:	01 00 6d f6 	mov.l	er6,@-er7
  ffd118:	0f f6       	mov.l	er7,er6
  ffd11a:	7a 37 00 00 	sub.l	#0x18,er7
  ffd11e:	00 18 

00ffd120 <.LM45>:
/home/syscall.c:93
  kz_syscall_param_t param;
  param.un.recv.id = id;
  ffd120:	6f e0 ff e8 	mov.w	r0,@(0xffe8:16,er6)

00ffd124 <.LM46>:
/home/syscall.c:94
  param.un.recv.sizep = sizep;
  ffd124:	01 00 6f e1 	mov.l	er1,@(0xffec:16,er6)
  ffd128:	ff ec 

00ffd12a <.LM47>:
/home/syscall.c:95
  param.un.recv.pp = pp;
  ffd12a:	01 00 6f e2 	mov.l	er2,@(0xfff0:16,er6)
  ffd12e:	ff f0 

00ffd130 <.LM48>:
/home/syscall.c:96
  kz_syscall(KZ_SYSCALL_TYPE_RECV, &param);
  ffd130:	0f e1       	mov.l	er6,er1
  ffd132:	7a 31 00 00 	sub.l	#0x18,er1
  ffd136:	00 18 
  ffd138:	79 00 00 0a 	mov.w	#0xa,r0
  ffd13c:	5e ff ce e6 	jsr	@0xffcee6:24

00ffd140 <.LM49>:
/home/syscall.c:98
  return param.un.recv.ret;
}
  ffd140:	01 00 6f 60 	mov.l	@(0xfff4:16,er6),er0
  ffd144:	ff f4 
  ffd146:	7a 17 00 00 	add.l	#0x18,er7
  ffd14a:	00 18 
  ffd14c:	01 00 6d 76 	mov.l	@er7+,er6
  ffd150:	54 70       	rts	

00ffd152 <_kz_setintr>:
kz_setintr():
/home/syscall.c:101

int kz_setintr(softvec_type_t type, kz_handler_t handler)
{
  ffd152:	01 00 6d f6 	mov.l	er6,@-er7
  ffd156:	0f f6       	mov.l	er7,er6
  ffd158:	7a 37 00 00 	sub.l	#0x18,er7
  ffd15c:	00 18 

00ffd15e <.LM51>:
/home/syscall.c:103
  kz_syscall_param_t param;
  param.un.setintr.type = type;
  ffd15e:	6f e0 ff e8 	mov.w	r0,@(0xffe8:16,er6)

00ffd162 <.LM52>:
/home/syscall.c:104
  param.un.setintr.handler = handler;
  ffd162:	01 00 6f e1 	mov.l	er1,@(0xffec:16,er6)
  ffd166:	ff ec 

00ffd168 <.LM53>:
/home/syscall.c:105
  kz_syscall(KZ_SYSCALL_TYPE_SETINTR, &param);
  ffd168:	0f e1       	mov.l	er6,er1
  ffd16a:	7a 31 00 00 	sub.l	#0x18,er1
  ffd16e:	00 18 
  ffd170:	79 00 00 0b 	mov.w	#0xb,r0
  ffd174:	5e ff ce e6 	jsr	@0xffcee6:24

00ffd178 <.LM54>:
/home/syscall.c:107
  return param.un.setintr.ret;
}
  ffd178:	6f 60 ff f0 	mov.w	@(0xfff0:16,er6),r0
  ffd17c:	7a 17 00 00 	add.l	#0x18,er7
  ffd180:	00 18 
  ffd182:	01 00 6d 76 	mov.l	@er7+,er6
  ffd186:	54 70       	rts	

00ffd188 <_kx_wakeup>:
kx_wakeup():
/home/syscall.c:112

/* サービス・コール */

int kx_wakeup(kz_thread_id_t id)
{
  ffd188:	01 00 6d f6 	mov.l	er6,@-er7
  ffd18c:	0f f6       	mov.l	er7,er6
  ffd18e:	7a 37 00 00 	sub.l	#0x18,er7
  ffd192:	00 18 

00ffd194 <.LM56>:
/home/syscall.c:114
  kz_syscall_param_t param;
  param.un.wakeup.id = id;
  ffd194:	01 00 6f e0 	mov.l	er0,@(0xffe8:16,er6)
  ffd198:	ff e8 

00ffd19a <.LM57>:
/home/syscall.c:115
  kz_srvcall(KZ_SYSCALL_TYPE_WAKEUP, &param);
  ffd19a:	0f e1       	mov.l	er6,er1
  ffd19c:	7a 31 00 00 	sub.l	#0x18,er1
  ffd1a0:	00 18 
  ffd1a2:	79 00 00 04 	mov.w	#0x4,r0
  ffd1a6:	5e ff cf 06 	jsr	@0xffcf06:24

00ffd1aa <.LM58>:
/home/syscall.c:117
  return param.un.wakeup.ret;
}
  ffd1aa:	6f 60 ff ec 	mov.w	@(0xffec:16,er6),r0
  ffd1ae:	7a 17 00 00 	add.l	#0x18,er7
  ffd1b2:	00 18 
  ffd1b4:	01 00 6d 76 	mov.l	@er7+,er6
  ffd1b8:	54 70       	rts	

00ffd1ba <_kx_kmalloc>:
kx_kmalloc():
/home/syscall.c:120

void *kx_kmalloc(int size)
{
  ffd1ba:	01 00 6d f6 	mov.l	er6,@-er7
  ffd1be:	0f f6       	mov.l	er7,er6
  ffd1c0:	7a 37 00 00 	sub.l	#0x18,er7
  ffd1c4:	00 18 

00ffd1c6 <.LM60>:
/home/syscall.c:122
  kz_syscall_param_t param;
  param.un.kmalloc.size = size;
  ffd1c6:	6f e0 ff e8 	mov.w	r0,@(0xffe8:16,er6)

00ffd1ca <.LM61>:
/home/syscall.c:123
  kz_srvcall(KZ_SYSCALL_TYPE_KMALLOC, &param);
  ffd1ca:	0f e1       	mov.l	er6,er1
  ffd1cc:	7a 31 00 00 	sub.l	#0x18,er1
  ffd1d0:	00 18 
  ffd1d2:	79 00 00 07 	mov.w	#0x7,r0
  ffd1d6:	5e ff cf 06 	jsr	@0xffcf06:24

00ffd1da <.LM62>:
/home/syscall.c:125
  return param.un.kmalloc.ret;
}
  ffd1da:	01 00 6f 60 	mov.l	@(0xffec:16,er6),er0
  ffd1de:	ff ec 
  ffd1e0:	7a 17 00 00 	add.l	#0x18,er7
  ffd1e4:	00 18 
  ffd1e6:	01 00 6d 76 	mov.l	@er7+,er6
  ffd1ea:	54 70       	rts	

00ffd1ec <_kx_kmfree>:
kx_kmfree():
/home/syscall.c:128

int kx_kmfree(void *p)
{
  ffd1ec:	01 00 6d f6 	mov.l	er6,@-er7
  ffd1f0:	0f f6       	mov.l	er7,er6
  ffd1f2:	7a 37 00 00 	sub.l	#0x18,er7
  ffd1f6:	00 18 

00ffd1f8 <.LM64>:
/home/syscall.c:130
  kz_syscall_param_t param;
  param.un.kmfree.p = p;
  ffd1f8:	01 00 6f e0 	mov.l	er0,@(0xffe8:16,er6)
  ffd1fc:	ff e8 

00ffd1fe <.LM65>:
/home/syscall.c:131
  kz_srvcall(KZ_SYSCALL_TYPE_KMFREE, &param);
  ffd1fe:	0f e1       	mov.l	er6,er1
  ffd200:	7a 31 00 00 	sub.l	#0x18,er1
  ffd204:	00 18 
  ffd206:	79 00 00 08 	mov.w	#0x8,r0
  ffd20a:	5e ff cf 06 	jsr	@0xffcf06:24

00ffd20e <.LM66>:
/home/syscall.c:133
  return param.un.kmfree.ret;
}
  ffd20e:	6f 60 ff ec 	mov.w	@(0xffec:16,er6),r0
  ffd212:	7a 17 00 00 	add.l	#0x18,er7
  ffd216:	00 18 
  ffd218:	01 00 6d 76 	mov.l	@er7+,er6
  ffd21c:	54 70       	rts	

00ffd21e <_kx_send>:
kx_send():
/home/syscall.c:136

int kx_send(kz_msgbox_id_t id, int size, char *p)
{
  ffd21e:	01 00 6d f6 	mov.l	er6,@-er7
  ffd222:	0f f6       	mov.l	er7,er6
  ffd224:	7a 37 00 00 	sub.l	#0x18,er7
  ffd228:	00 18 

00ffd22a <.LM68>:
/home/syscall.c:138
  kz_syscall_param_t param;
  param.un.send.id = id;
  ffd22a:	6f e0 ff e8 	mov.w	r0,@(0xffe8:16,er6)

00ffd22e <.LM69>:
/home/syscall.c:139
  param.un.send.size = size;
  ffd22e:	6f e1 ff ea 	mov.w	r1,@(0xffea:16,er6)

00ffd232 <.LM70>:
/home/syscall.c:140
  param.un.send.p = p;
  ffd232:	01 00 6f e2 	mov.l	er2,@(0xffec:16,er6)
  ffd236:	ff ec 

00ffd238 <.LM71>:
/home/syscall.c:141
  kz_srvcall(KZ_SYSCALL_TYPE_SEND, &param);
  ffd238:	0f e1       	mov.l	er6,er1
  ffd23a:	7a 31 00 00 	sub.l	#0x18,er1
  ffd23e:	00 18 
  ffd240:	79 00 00 09 	mov.w	#0x9,r0
  ffd244:	5e ff cf 06 	jsr	@0xffcf06:24

00ffd248 <.LM72>:
/home/syscall.c:143
  return param.un.send.ret;
}
  ffd248:	6f 60 ff f0 	mov.w	@(0xfff0:16,er6),r0
  ffd24c:	7a 17 00 00 	add.l	#0x18,er7
  ffd250:	00 18 
  ffd252:	01 00 6d 76 	mov.l	@er7+,er6
  ffd256:	54 70       	rts	

00ffd258 <_kzmem_init>:
kzmem_init():
/home/memory.c:56
  return 0;
}

/* 動的メモリの初期化 */
int kzmem_init(void)
{
  ffd258:	01 00 6d f6 	mov.l	er6,@-er7
  ffd25c:	0f f6       	mov.l	er7,er6
  ffd25e:	01 00 6d f4 	mov.l	er4,@-er7
  ffd262:	01 00 6d f5 	mov.l	er5,@-er7
  ffd266:	7a 37 00 00 	sub.l	#0x8,er7
  ffd26a:	00 08 
  ffd26c:	7a 04 00 ff 	mov.l	#0xffdb7c,er4
  ffd270:	db 7c 
  ffd272:	7a 03 00 ff 	mov.l	#0xffdb7e,er3
  ffd276:	db 7e 

00ffd278 <.LM2>:
/home/memory.c:58
  int i;
  for (i = 0; i < MEMORY_AREA_NUM; i++) {
  ffd278:	40 6a       	bra	.+106 (0xffd2e4)

00ffd27a <.L5>:
kzmem_init_pool():
/home/memory.c:38 (discriminator 3)
  mp = (kzmem_block *)area;
  ffd27a:	01 00 6b 25 	mov.l	@0xffdb78:32,er5
  ffd27e:	00 ff db 78 
  ffd282:	0f c0       	mov.l	er4,er0
  ffd284:	0b 90       	adds	#4,er0

00ffd286 <.LM4>:
/home/memory.c:42
  for (i = 0; i < p->num; i++) {
  ffd286:	19 11       	sub.w	r1,r1
  ffd288:	6f e1 ff f6 	mov.w	r1,@(0xfff6:16,er6)
  ffd28c:	40 44       	bra	.+68 (0xffd2d2)

00ffd28e <.L4>:
/home/memory.c:43
    *mpp = mp;
  ffd28e:	01 00 69 85 	mov.l	er5,@er0

00ffd292 <.LM6>:
/home/memory.c:44
    memset(mp, 0, sizeof(*mp));
  ffd292:	1a a2       	sub.l	er2,er2
  ffd294:	8a 08       	add.b	#0x8,r2l
  ffd296:	19 11       	sub.w	r1,r1
  ffd298:	0f d0       	mov.l	er5,er0
  ffd29a:	01 00 6f e3 	mov.l	er3,@(0xfff0:16,er6)
  ffd29e:	ff f0 
  ffd2a0:	5e ff c1 b8 	jsr	@0xffc1b8:24

00ffd2a4 <.LM7>:
/home/memory.c:45
    mp->size = p->size;
  ffd2a4:	69 42       	mov.w	@er4,r2
  ffd2a6:	6f d2 00 04 	mov.w	r2,@(0x4:16,er5)

00ffd2aa <.LM8>:
/home/memory.c:46
    mpp = &(mp->next);
  ffd2aa:	0f d0       	mov.l	er5,er0

00ffd2ac <.LM9>:
/home/memory.c:47
    mp = (kzmem_block *)((char *)mp + p->size);
  ffd2ac:	17 f2       	exts.l	er2
  ffd2ae:	0a a5       	add.l	er2,er5

00ffd2b0 <.LM10>:
/home/memory.c:48
    area += p->size;
  ffd2b0:	01 00 6b 21 	mov.l	@0xffdb78:32,er1
  ffd2b4:	00 ff db 78 
  ffd2b8:	0a 92       	add.l	er1,er2
  ffd2ba:	01 00 6b a2 	mov.l	er2,@0xffdb78:32
  ffd2be:	00 ff db 78 

00ffd2c2 <.LM11>:
/home/memory.c:42
  for (i = 0; i < p->num; i++) {
  ffd2c2:	6f 62 ff f6 	mov.w	@(0xfff6:16,er6),r2
  ffd2c6:	0b 02       	adds	#1,er2
  ffd2c8:	6f e2 ff f6 	mov.w	r2,@(0xfff6:16,er6)
  ffd2cc:	01 00 6f 63 	mov.l	@(0xfff0:16,er6),er3
  ffd2d0:	ff f0 

00ffd2d2 <.L3>:
  ffd2d2:	69 32       	mov.w	@er3,r2
  ffd2d4:	6f 61 ff f6 	mov.w	@(0xfff6:16,er6),r1
  ffd2d8:	1d 21       	cmp.w	r2,r1
  ffd2da:	4d b2       	blt	.-78 (0xffd28e)
  ffd2dc:	0b 94       	adds	#4,er4
  ffd2de:	0b 94       	adds	#4,er4
  ffd2e0:	0b 93       	adds	#4,er3
  ffd2e2:	0b 93       	adds	#4,er3

00ffd2e4 <.L2>:
kzmem_init():
/home/memory.c:58 (discriminator 1)
  for (i = 0; i < MEMORY_AREA_NUM; i++) {
  ffd2e4:	7a 24 00 ff 	cmp.l	#0xffdb94,er4
  ffd2e8:	db 94 
  ffd2ea:	46 8e       	bne	.-114 (0xffd27a)

00ffd2ec <.LM13>:
/home/memory.c:62
    kzmem_init_pool(&pool[i]); /* 各メモリ・プールを初期化する */
  }
  return 0;
}
  ffd2ec:	19 00       	sub.w	r0,r0
  ffd2ee:	0b 97       	adds	#4,er7
  ffd2f0:	0b 97       	adds	#4,er7
  ffd2f2:	01 00 6d 75 	mov.l	@er7+,er5
  ffd2f6:	01 00 6d 74 	mov.l	@er7+,er4
  ffd2fa:	01 00 6d 76 	mov.l	@er7+,er6
  ffd2fe:	54 70       	rts	

00ffd300 <_kzmem_alloc>:
kzmem_alloc():
/home/memory.c:66

/* 動的メモリの獲得 */
void *kzmem_alloc(int size)
{
  ffd300:	01 00 6d f6 	mov.l	er6,@-er7
  ffd304:	0f f6       	mov.l	er7,er6

00ffd306 <.LM15>:
/home/memory.c:73
  kzmem_block *mp;
  kzmem_pool *p;

  for (i = 0; i < MEMORY_AREA_NUM; i++) {
    p = &pool[i];
    if (size <= p->size - sizeof(kzmem_block)) {
  ffd306:	17 f0       	exts.l	er0
  ffd308:	7a 02 00 ff 	mov.l	#0xffdb7c,er2
  ffd30c:	db 7c 
  ffd30e:	69 21       	mov.w	@er2,r1
  ffd310:	17 f1       	exts.l	er1
  ffd312:	1b 91       	subs	#4,er1
  ffd314:	1b 91       	subs	#4,er1
  ffd316:	0f a3       	mov.l	er2,er3
  ffd318:	1f 90       	cmp.l	er1,er0
  ffd31a:	43 26       	bls	.+38 (0xffd342)
  ffd31c:	6b 22 00 ff 	mov.w	@0xffdb84:32,r2
  ffd320:	db 84 
  ffd322:	17 f2       	exts.l	er2
  ffd324:	1b 92       	subs	#4,er2
  ffd326:	1b 92       	subs	#4,er2
  ffd328:	1f a0       	cmp.l	er2,er0
  ffd32a:	43 1a       	bls	.+26 (0xffd346)
  ffd32c:	6b 22 00 ff 	mov.w	@0xffdb8c:32,r2
  ffd330:	db 8c 
  ffd332:	17 f2       	exts.l	er2
  ffd334:	1b 92       	subs	#4,er2
  ffd336:	1b 92       	subs	#4,er2
  ffd338:	1f a0       	cmp.l	er2,er0
  ffd33a:	42 20       	bhi	.+32 (0xffd35c)

00ffd33c <.LM16>:
/home/memory.c:71
  for (i = 0; i < MEMORY_AREA_NUM; i++) {
  ffd33c:	79 02 00 02 	mov.w	#0x2,r2
  ffd340:	40 08       	bra	.+8 (0xffd34a)

00ffd342 <.L11>:
  ffd342:	19 22       	sub.w	r2,r2
  ffd344:	40 04       	bra	.+4 (0xffd34a)

00ffd346 <.L12>:
  ffd346:	79 02 00 01 	mov.w	#0x1,r2

00ffd34a <.L7>:
/home/memory.c:74
      if (p->free == NULL) { /* 解放済み領域が無い(メモリ・ブロック不足) */
  ffd34a:	17 f2       	exts.l	er2
  ffd34c:	10 32       	shll.l	er2
  ffd34e:	10 32       	shll.l	er2
  ffd350:	10 32       	shll.l	er2
  ffd352:	0a b2       	add.l	er3,er2
  ffd354:	0b 92       	adds	#4,er2
  ffd356:	01 00 69 20 	mov.l	@er2,er0
  ffd35a:	46 08       	bne	.+8 (0xffd364)

00ffd35c <.L8>:
/home/memory.c:75
	kz_sysdown();
  ffd35c:	5e ff cb d8 	jsr	@0xffcbd8:24

00ffd360 <.LM19>:
/home/memory.c:76
	return NULL;
  ffd360:	1a 80       	sub.l	er0,er0
  ffd362:	40 12       	bra	.+18 (0xffd376)

00ffd364 <.L9>:
/home/memory.c:80
      }
      /* 解放済みリンクリストから領域を取得する */
      mp = p->free;
      p->free = p->free->next;
  ffd364:	01 00 69 03 	mov.l	@er0,er3
  ffd368:	01 00 69 a3 	mov.l	er3,@er2

00ffd36c <.LM21>:
/home/memory.c:81
      mp->next = NULL;
  ffd36c:	1a a2       	sub.l	er2,er2
  ffd36e:	01 00 69 82 	mov.l	er2,@er0

00ffd372 <.LM22>:
/home/memory.c:87

      /*
       * 実際に利用可能な領域は，メモリ・ブロック構造体の直後の領域に
       * なるので，直後のアドレスを返す．
       */
      return mp + 1;
  ffd372:	0b 90       	adds	#4,er0
  ffd374:	0b 90       	adds	#4,er0

00ffd376 <.L6>:
/home/memory.c:94
  }

  /* 指定されたサイズの領域を格納できるメモリ・プールが無い */
  kz_sysdown();
  return NULL;
}
  ffd376:	01 00 6d 76 	mov.l	@er7+,er6
  ffd37a:	54 70       	rts	

00ffd37c <_kzmem_free>:
kzmem_free():
/home/memory.c:98

/* メモリの解放 */
void kzmem_free(void *mem)
{
  ffd37c:	01 00 6d f6 	mov.l	er6,@-er7
  ffd380:	0f f6       	mov.l	er7,er6
  ffd382:	01 00 6d f4 	mov.l	er4,@-er7

00ffd386 <.LM25>:
/home/memory.c:108
  /* 領域の直前にある(はずの)メモリ・ブロック構造体を取得 */
  mp = ((kzmem_block *)mem - 1);

  for (i = 0; i < MEMORY_AREA_NUM; i++) {
    p = &pool[i];
    if (mp->size == p->size) {
  ffd386:	6f 03 ff fc 	mov.w	@(0xfffc:16,er0),r3
  ffd38a:	7a 02 00 ff 	mov.l	#0xffdb7c,er2
  ffd38e:	db 7c 
  ffd390:	69 24       	mov.w	@er2,r4
  ffd392:	0f a1       	mov.l	er2,er1
  ffd394:	1d 43       	cmp.w	r4,r3
  ffd396:	47 1a       	beq	.+26 (0xffd3b2)
  ffd398:	6b 22 00 ff 	mov.w	@0xffdb84:32,r2
  ffd39c:	db 84 
  ffd39e:	1d 23       	cmp.w	r2,r3
  ffd3a0:	47 14       	beq	.+20 (0xffd3b6)
  ffd3a2:	6b 22 00 ff 	mov.w	@0xffdb8c:32,r2
  ffd3a6:	db 8c 
  ffd3a8:	1d 23       	cmp.w	r2,r3
  ffd3aa:	47 10       	beq	.+16 (0xffd3bc)

00ffd3ac <.LM26>:
/home/memory.c:116
      p->free = mp;
      return;
    }
  }

  kz_sysdown();
  ffd3ac:	5e ff cb d8 	jsr	@0xffcbd8:24

00ffd3b0 <.LVL30>:
  ffd3b0:	40 2c       	bra	.+44 (0xffd3de)

00ffd3b2 <.L16>:
/home/memory.c:106
  for (i = 0; i < MEMORY_AREA_NUM; i++) {
  ffd3b2:	19 22       	sub.w	r2,r2
  ffd3b4:	40 0a       	bra	.+10 (0xffd3c0)

00ffd3b6 <.L17>:
  ffd3b6:	79 02 00 01 	mov.w	#0x1,r2
  ffd3ba:	40 04       	bra	.+4 (0xffd3c0)

00ffd3bc <.L18>:
  ffd3bc:	79 02 00 02 	mov.w	#0x2,r2

00ffd3c0 <.L14>:
/home/memory.c:110
      mp->next = p->free;
  ffd3c0:	17 f2       	exts.l	er2
  ffd3c2:	10 32       	shll.l	er2
  ffd3c4:	10 32       	shll.l	er2
  ffd3c6:	10 32       	shll.l	er2
  ffd3c8:	0a 92       	add.l	er1,er2
  ffd3ca:	0b 92       	adds	#4,er2
  ffd3cc:	01 00 69 23 	mov.l	@er2,er3
  ffd3d0:	01 00 6f 83 	mov.l	er3,@(0xfff8:16,er0)
  ffd3d4:	ff f8 

00ffd3d6 <.LM29>:
/home/memory.c:104
  mp = ((kzmem_block *)mem - 1);
  ffd3d6:	1b 90       	subs	#4,er0
  ffd3d8:	1b 90       	subs	#4,er0

00ffd3da <.LM30>:
/home/memory.c:111
      p->free = mp;
  ffd3da:	01 00 69 a0 	mov.l	er0,@er2

00ffd3de <.L13>:
/home/memory.c:117
}
  ffd3de:	01 00 6d 74 	mov.l	@er7+,er4
  ffd3e2:	01 00 6d 76 	mov.l	@er7+,er6
  ffd3e6:	54 70       	rts	

00ffd3e8 <_send_char>:
send_char():
/home/consdrv.c:32
 * 場合は排他のため割込み禁止状態で呼ぶこと．
 */

/* 送信バッファの先頭１文字を送信する */
static void send_char(struct consreg *cons)
{
  ffd3e8:	01 00 6d f6 	mov.l	er6,@-er7
  ffd3ec:	0f f6       	mov.l	er7,er6
  ffd3ee:	01 00 6d f4 	mov.l	er4,@-er7
  ffd3f2:	0f 84       	mov.l	er0,er4

00ffd3f4 <.LM2>:
/home/consdrv.c:34
  int i;
  serial_send_byte(cons->index, cons->send_buf[0]);
  ffd3f4:	01 00 6f 02 	mov.l	@(0x8:16,er0),er2
  ffd3f8:	00 08 
  ffd3fa:	68 29       	mov.b	@er2,r1l
  ffd3fc:	6f 00 00 04 	mov.w	@(0x4:16,er0),r0
  ffd400:	5e ff c4 98 	jsr	@0xffc498:24

00ffd404 <.LM3>:
/home/consdrv.c:35
  cons->send_len--;
  ffd404:	6f 42 00 10 	mov.w	@(0x10:16,er4),r2
  ffd408:	1b 02       	subs	#1,er2
  ffd40a:	6f c2 00 10 	mov.w	r2,@(0x10:16,er4)

00ffd40e <.LM4>:
/home/consdrv.c:37
  /* 先頭文字を送信したので，１文字ぶんずらす */
  for (i = 0; i < cons->send_len; i++)
  ffd40e:	1a a2       	sub.l	er2,er2
  ffd410:	40 16       	bra	.+22 (0xffd428)

00ffd412 <.L3>:
/home/consdrv.c:38 (discriminator 3)
    cons->send_buf[i] = cons->send_buf[i + 1];
  ffd412:	01 00 6f 43 	mov.l	@(0x8:16,er4),er3
  ffd416:	00 08 
  ffd418:	0f a0       	mov.l	er2,er0
  ffd41a:	0b 00       	adds	#1,er0
  ffd41c:	0f b1       	mov.l	er3,er1
  ffd41e:	0a 81       	add.l	er0,er1
  ffd420:	68 19       	mov.b	@er1,r1l
  ffd422:	0a b2       	add.l	er3,er2
  ffd424:	68 a9       	mov.b	r1l,@er2
  ffd426:	0f 82       	mov.l	er0,er2

00ffd428 <.L2>:
/home/consdrv.c:37 (discriminator 1)
  for (i = 0; i < cons->send_len; i++)
  ffd428:	6f 43 00 10 	mov.w	@(0x10:16,er4),r3
  ffd42c:	1d 23       	cmp.w	r2,r3
  ffd42e:	4e e2       	bgt	.-30 (0xffd412)

00ffd430 <.LM7>:
/home/consdrv.c:39
}
  ffd430:	01 00 6d 74 	mov.l	@er7+,er4
  ffd434:	01 00 6d 76 	mov.l	@er7+,er6
  ffd438:	54 70       	rts	

00ffd43a <_send_string>:
send_string():
/home/consdrv.c:43

/* 文字列を送信バッファに書き込み送信開始する */
static void send_string(struct consreg *cons, char *str, int len)
{
  ffd43a:	01 00 6d f6 	mov.l	er6,@-er7
  ffd43e:	0f f6       	mov.l	er7,er6
  ffd440:	01 00 6d f4 	mov.l	er4,@-er7
  ffd444:	01 00 6d f5 	mov.l	er5,@-er7
  ffd448:	1b 97       	subs	#4,er7
  ffd44a:	0f 84       	mov.l	er0,er4

00ffd44c <.LM9>:
/home/consdrv.c:45
  int i;
  for (i = 0; i < len; i++) { /* 文字列を送信バッファにコピー */
  ffd44c:	19 00       	sub.w	r0,r0
  ffd44e:	40 40       	bra	.+64 (0xffd490)

00ffd450 <.L7>:
/home/consdrv.c:46
    if (str[i] == '\n') /* \n→\r\nに変換 */
  ffd450:	68 1d       	mov.b	@er1,r5l
  ffd452:	ad 0a       	cmp.b	#0xa,r5l
  ffd454:	46 16       	bne	.+22 (0xffd46c)

00ffd456 <.LM11>:
/home/consdrv.c:47
      cons->send_buf[cons->send_len++] = '\r';
  ffd456:	0d 35       	mov.w	r3,r5
  ffd458:	0b 05       	adds	#1,er5
  ffd45a:	6f c5 00 10 	mov.w	r5,@(0x10:16,er4)
  ffd45e:	17 f3       	exts.l	er3
  ffd460:	01 00 6f 45 	mov.l	@(0x8:16,er4),er5
  ffd464:	00 08 
  ffd466:	0a d3       	add.l	er5,er3
  ffd468:	fd 0d       	mov.b	#0xd,r5l
  ffd46a:	68 bd       	mov.b	r5l,@er3

00ffd46c <.L6>:
/home/consdrv.c:48 (discriminator 2)
    cons->send_buf[cons->send_len++] = str[i];
  ffd46c:	6f 43 00 10 	mov.w	@(0x10:16,er4),r3
  ffd470:	0d 35       	mov.w	r3,r5
  ffd472:	0b 05       	adds	#1,er5
  ffd474:	6f c5 00 10 	mov.w	r5,@(0x10:16,er4)
  ffd478:	6c 1d       	mov.b	@er1+,r5l
  ffd47a:	6e ed ff f7 	mov.b	r5l,@(0xfff7:16,er6)
  ffd47e:	17 f3       	exts.l	er3
  ffd480:	01 00 6f 45 	mov.l	@(0x8:16,er4),er5
  ffd484:	00 08 
  ffd486:	0a d3       	add.l	er5,er3
  ffd488:	6e 6d ff f7 	mov.b	@(0xfff7:16,er6),r5l
  ffd48c:	68 bd       	mov.b	r5l,@er3

00ffd48e <.LM13>:
/home/consdrv.c:45
  for (i = 0; i < len; i++) { /* 文字列を送信バッファにコピー */
  ffd48e:	0b 00       	adds	#1,er0

00ffd490 <.L5>:
  ffd490:	6f 43 00 10 	mov.w	@(0x10:16,er4),r3

00ffd494 <.LM14>:
/home/consdrv.c:45 (discriminator 1)
  ffd494:	1d 20       	cmp.w	r2,r0
  ffd496:	4d b8       	blt	.-72 (0xffd450)

00ffd498 <.LM15>:
/home/consdrv.c:55
  /*
   * 送信割込み無効ならば，送信開始されていないので送信開始する．
   * 送信割込み有効ならば送信開始されており，送信割込みの延長で
   * 送信バッファ内のデータが順次送信されるので，何もしなくてよい．
   */
  if (cons->send_len && !serial_intr_is_send_enable(cons->index)) {
  ffd498:	0d 33       	mov.w	r3,r3
  ffd49a:	47 1a       	beq	.+26 (0xffd4b6)

00ffd49c <.LM16>:
/home/consdrv.c:55 (discriminator 1)
  ffd49c:	6f 40 00 04 	mov.w	@(0x4:16,er4),r0
  ffd4a0:	5e ff c5 20 	jsr	@0xffc520:24

00ffd4a4 <.LVL14>:
  ffd4a4:	0d 00       	mov.w	r0,r0
  ffd4a6:	46 0e       	bne	.+14 (0xffd4b6)

00ffd4a8 <.LBB4>:
/home/consdrv.c:56
    serial_intr_send_enable(cons->index); /* 送信割込み有効化 */
  ffd4a8:	6f 40 00 04 	mov.w	@(0x4:16,er4),r0
  ffd4ac:	5e ff c5 48 	jsr	@0xffc548:24

00ffd4b0 <.LM18>:
/home/consdrv.c:57
    send_char(cons); /* 送信開始 */
  ffd4b0:	0f c0       	mov.l	er4,er0
  ffd4b2:	5e ff d3 e8 	jsr	@0xffd3e8:24

00ffd4b6 <.L4>:
/home/consdrv.c:59
  }
}
  ffd4b6:	0b 97       	adds	#4,er7
  ffd4b8:	01 00 6d 75 	mov.l	@er7+,er5
  ffd4bc:	01 00 6d 74 	mov.l	@er7+,er4
  ffd4c0:	01 00 6d 76 	mov.l	@er7+,er6
  ffd4c4:	54 70       	rts	

00ffd4c6 <_consdrv_intr>:
consdrv_intr():
/home/consdrv.c:116
  return 0;
}

/* 割込みハンドラ */
static void consdrv_intr(void)
{
  ffd4c6:	01 00 6d f6 	mov.l	er6,@-er7
  ffd4ca:	0f f6       	mov.l	er7,er6
  ffd4cc:	01 00 6d f4 	mov.l	er4,@-er7
  ffd4d0:	01 00 6d f5 	mov.l	er5,@-er7
  ffd4d4:	1b 97       	subs	#4,er7

00ffd4d6 <.LM21>:
/home/consdrv.c:122
  int i;
  struct consreg *cons;

  for (i = 0; i < CONSDRV_DEVICE_NUM; i++) {
    cons = &consreg[i];
    if (cons->id) {
  ffd4d6:	7a 04 00 ff 	mov.l	#0xffdde8,er4
  ffd4da:	dd e8 
  ffd4dc:	01 00 69 42 	mov.l	@er4,er2
  ffd4e0:	58 70 00 f6 	beq	.+246 (0xffd5da)

00ffd4e4 <.LM22>:
/home/consdrv.c:123
      if (serial_is_send_enable(cons->index) ||
  ffd4e4:	6b 20 00 ff 	mov.w	@0xffddec:32,r0
  ffd4e8:	dd ec 
  ffd4ea:	5e ff c4 74 	jsr	@0xffc474:24

00ffd4ee <.LVL20>:
  ffd4ee:	0d 00       	mov.w	r0,r0
  ffd4f0:	47 12       	beq	.+18 (0xffd504)

00ffd4f2 <.L17>:
consdrv_intrproc():
/home/consdrv.c:76
  if (serial_is_recv_enable(cons->index)) { /* 受信割込み */
  ffd4f2:	6b 20 00 ff 	mov.w	@0xffddec:32,r0
  ffd4f6:	dd ec 
  ffd4f8:	5e ff c4 ca 	jsr	@0xffc4ca:24

00ffd4fc <.LVL22>:
  ffd4fc:	0d 00       	mov.w	r0,r0
  ffd4fe:	58 70 00 a6 	beq	.+166 (0xffd5a8)
  ffd502:	40 12       	bra	.+18 (0xffd516)

00ffd504 <.L14>:
consdrv_intr():
/home/consdrv.c:124 (discriminator 1)
	  serial_is_recv_enable(cons->index))
  ffd504:	6b 20 00 ff 	mov.w	@0xffddec:32,r0
  ffd508:	dd ec 
  ffd50a:	5e ff c4 ca 	jsr	@0xffc4ca:24

00ffd50e <.LM25>:
/home/consdrv.c:123
      if (serial_is_send_enable(cons->index) ||
  ffd50e:	0d 00       	mov.w	r0,r0
  ffd510:	46 e0       	bne	.-32 (0xffd4f2)
  ffd512:	58 00 00 c4 	bra	.+196 (0xffd5da)

00ffd516 <.L15>:
consdrv_intrproc():
/home/consdrv.c:77
    c = serial_recv_byte(cons->index);
  ffd516:	6b 20 00 ff 	mov.w	@0xffddec:32,r0
  ffd51a:	dd ec 
  ffd51c:	5e ff c4 ee 	jsr	@0xffc4ee:24

00ffd520 <.LM27>:
/home/consdrv.c:78
    if (c == '\r') /* 改行コード変換(\r→\n) */
  ffd520:	a8 0d       	cmp.b	#0xd,r0l
  ffd522:	47 06       	beq	.+6 (0xffd52a)

00ffd524 <.LM28>:
/home/consdrv.c:77
    c = serial_recv_byte(cons->index);
  ffd524:	6e e8 ff f7 	mov.b	r0l,@(0xfff7:16,er6)
  ffd528:	40 06       	bra	.+6 (0xffd530)

00ffd52a <.L20>:
/home/consdrv.c:79
      c = '\n';
  ffd52a:	fa 0a       	mov.b	#0xa,r2l
  ffd52c:	6e ea ff f7 	mov.b	r2l,@(0xfff7:16,er6)

00ffd530 <.L21>:
/home/consdrv.c:81
    send_string(cons, &c, 1); /* エコーバック処理 */
  ffd530:	79 02 00 01 	mov.w	#0x1,r2
  ffd534:	0f e1       	mov.l	er6,er1
  ffd536:	7a 31 00 00 	sub.l	#0x9,er1
  ffd53a:	00 09 
  ffd53c:	7a 00 00 ff 	mov.l	#0xffdde8,er0
  ffd540:	dd e8 
  ffd542:	5e ff d4 3a 	jsr	@0xffd43a:24

00ffd546 <.LM31>:
/home/consdrv.c:83
    if (cons->id) {
  ffd546:	01 00 69 42 	mov.l	@er4,er2
  ffd54a:	47 5c       	beq	.+92 (0xffd5a8)

00ffd54c <.LM32>:
/home/consdrv.c:84
      if (c != '\n') {
  ffd54c:	6e 68 ff f7 	mov.b	@(0xfff7:16,er6),r0l
  ffd550:	a8 0a       	cmp.b	#0xa,r0l
  ffd552:	47 20       	beq	.+32 (0xffd574)

00ffd554 <.LM33>:
/home/consdrv.c:86
	cons->recv_buf[cons->recv_len++] = c;
  ffd554:	6b 22 00 ff 	mov.w	@0xffddfa:32,r2
  ffd558:	dd fa 
  ffd55a:	0d 23       	mov.w	r2,r3
  ffd55c:	0b 03       	adds	#1,er3
  ffd55e:	6b a3 00 ff 	mov.w	r3,@0xffddfa:32
  ffd562:	dd fa 
  ffd564:	17 f2       	exts.l	er2
  ffd566:	01 00 6b 23 	mov.l	@0xffddf4:32,er3
  ffd56a:	00 ff dd f4 
  ffd56e:	0a b2       	add.l	er3,er2
  ffd570:	68 a8       	mov.b	r0l,@er2
  ffd572:	40 34       	bra	.+52 (0xffd5a8)

00ffd574 <.L22>:
/home/consdrv.c:93
	p = kx_kmalloc(CONS_BUFFER_SIZE);
  ffd574:	79 00 00 18 	mov.w	#0x18,r0
  ffd578:	5e ff d1 ba 	jsr	@0xffd1ba:24

00ffd57c <.LVL28>:
  ffd57c:	0f 85       	mov.l	er0,er5

00ffd57e <.LM35>:
/home/consdrv.c:94
	memcpy(p, cons->recv_buf, cons->recv_len);
  ffd57e:	6b 22 00 ff 	mov.w	@0xffddfa:32,r2
  ffd582:	dd fa 
  ffd584:	17 f2       	exts.l	er2
  ffd586:	01 00 6b 21 	mov.l	@0xffddf4:32,er1
  ffd58a:	00 ff dd f4 
  ffd58e:	5e ff c1 de 	jsr	@0xffc1de:24

00ffd592 <.LM36>:
/home/consdrv.c:95
	kx_send(MSGBOX_ID_CONSINPUT, cons->recv_len, p);
  ffd592:	0f d2       	mov.l	er5,er2
  ffd594:	6b 21 00 ff 	mov.w	@0xffddfa:32,r1
  ffd598:	dd fa 
  ffd59a:	19 00       	sub.w	r0,r0
  ffd59c:	5e ff d2 1e 	jsr	@0xffd21e:24

00ffd5a0 <.LM37>:
/home/consdrv.c:96
	cons->recv_len = 0;
  ffd5a0:	19 22       	sub.w	r2,r2
  ffd5a2:	6b a2 00 ff 	mov.w	r2,@0xffddfa:32
  ffd5a6:	dd fa 

00ffd5a8 <.L19>:
/home/consdrv.c:101
  if (serial_is_send_enable(cons->index)) { /* 送信割込み */
  ffd5a8:	6b 20 00 ff 	mov.w	@0xffddec:32,r0
  ffd5ac:	dd ec 
  ffd5ae:	5e ff c4 74 	jsr	@0xffc474:24

00ffd5b2 <.LVL33>:
  ffd5b2:	0d 00       	mov.w	r0,r0
  ffd5b4:	47 24       	beq	.+36 (0xffd5da)

00ffd5b6 <.LM39>:
/home/consdrv.c:102
    if (!cons->id || !cons->send_len) {
  ffd5b6:	01 00 69 42 	mov.l	@er4,er2
  ffd5ba:	47 08       	beq	.+8 (0xffd5c4)
  ffd5bc:	6b 22 00 ff 	mov.w	@0xffddf8:32,r2
  ffd5c0:	dd f8 
  ffd5c2:	46 0c       	bne	.+12 (0xffd5d0)

00ffd5c4 <.L24>:
/home/consdrv.c:104
      serial_intr_send_disable(cons->index);
  ffd5c4:	6b 20 00 ff 	mov.w	@0xffddec:32,r0
  ffd5c8:	dd ec 
  ffd5ca:	5e ff c5 6e 	jsr	@0xffc56e:24

00ffd5ce <.LVL34>:
  ffd5ce:	40 0a       	bra	.+10 (0xffd5da)

00ffd5d0 <.L25>:
/home/consdrv.c:107
      send_char(cons);
  ffd5d0:	7a 00 00 ff 	mov.l	#0xffdde8,er0
  ffd5d4:	dd e8 
  ffd5d6:	5e ff d3 e8 	jsr	@0xffd3e8:24

00ffd5da <.L11>:
consdrv_intr():
/home/consdrv.c:129
	/* 割込みがあるならば，割込み処理を呼び出す */
	consdrv_intrproc(cons);
    }
  }
}
  ffd5da:	0b 97       	adds	#4,er7
  ffd5dc:	01 00 6d 75 	mov.l	@er7+,er5
  ffd5e0:	01 00 6d 74 	mov.l	@er7+,er4
  ffd5e4:	01 00 6d 76 	mov.l	@er7+,er6
  ffd5e8:	54 70       	rts	

00ffd5ea <_consdrv_main>:
consdrv_main():
/home/consdrv.c:171

  return 0;
}

int consdrv_main(int argc, char *argv[])
{
  ffd5ea:	01 00 6d f6 	mov.l	er6,@-er7
  ffd5ee:	0f f6       	mov.l	er7,er6
  ffd5f0:	7a 37 00 00 	sub.l	#0xc,er7
  ffd5f4:	00 0c 

00ffd5f6 <.LBB16>:
consdrv_init():
/home/consdrv.c:133
  memset(consreg, 0, sizeof(consreg));
  ffd5f6:	1a a2       	sub.l	er2,er2
  ffd5f8:	8a 20       	add.b	#0x20,r2l
  ffd5fa:	19 11       	sub.w	r1,r1
  ffd5fc:	7a 00 00 ff 	mov.l	#0xffdde8,er0
  ffd600:	dd e8 
  ffd602:	5e ff c1 b8 	jsr	@0xffc1b8:24

00ffd606 <.LM45>:
consdrv_main():
/home/consdrv.c:177
  int size, index;
  kz_thread_id_t id;
  char *p;

  consdrv_init();
  kz_setintr(SOFTVEC_TYPE_SERINTR, consdrv_intr); /* 割込みハンドラ設定 */
  ffd606:	7a 01 00 ff 	mov.l	#0xffd4c6,er1
  ffd60a:	d4 c6 
  ffd60c:	79 00 00 02 	mov.w	#0x2,r0
  ffd610:	5e ff d1 52 	jsr	@0xffd152:24

00ffd614 <.L39>:
/home/consdrv.c:180 (discriminator 1)

  while (1) {
    id = kz_recv(MSGBOX_ID_CONSOUTPUT, &size, &p);
  ffd614:	0f e2       	mov.l	er6,er2
  ffd616:	0f e1       	mov.l	er6,er1
  ffd618:	1b 81       	subs	#2,er1
  ffd61a:	79 00 00 01 	mov.w	#0x1,r0
  ffd61e:	5e ff d1 14 	jsr	@0xffd114:24

00ffd622 <.LM47>:
/home/consdrv.c:181
    index = p[0] - '0';
  ffd622:	01 00 69 61 	mov.l	@er6,er1
  ffd626:	68 1c       	mov.b	@er1,r4l
  ffd628:	17 54       	extu.w	r4
  ffd62a:	79 14 ff d0 	add.w	#0xffd0,r4

00ffd62e <.LBB18>:
consdrv_command():
/home/consdrv.c:141
  switch (command[0]) {
  ffd62e:	6e 1a 00 01 	mov.b	@(0x1:16,er1),r2l
  ffd632:	aa 75       	cmp.b	#0x75,r2l
  ffd634:	47 08       	beq	.+8 (0xffd63e)
  ffd636:	aa 77       	cmp.b	#0x77,r2l
  ffd638:	47 72       	beq	.+114 (0xffd6ac)
  ffd63a:	58 00 00 90 	bra	.+144 (0xffd6ce)

00ffd63e <.L37>:
/home/consdrv.c:143
    cons->id = id;
  ffd63e:	17 f4       	exts.l	er4
  ffd640:	fa 05       	mov.b	#0x5,r2l

00ffd642 <.Llt1>:
  ffd642:	10 34       	shll.l	er4
  ffd644:	8a ff       	add.b	#0xff,r2l
  ffd646:	46 fa       	bne	.-6 (0xffd642)
  ffd648:	0f c5       	mov.l	er4,er5
  ffd64a:	7a 15 00 ff 	add.l	#0xffdde8,er5
  ffd64e:	dd e8 
  ffd650:	01 00 69 d0 	mov.l	er0,@er5

00ffd654 <.LM50>:
/home/consdrv.c:144
    cons->index = command[1] - '0';
  ffd654:	0f d2       	mov.l	er5,er2
  ffd656:	0b 92       	adds	#4,er2
  ffd658:	6e 1b 00 02 	mov.b	@(0x2:16,er1),r3l
  ffd65c:	17 53       	extu.w	r3
  ffd65e:	79 13 ff d0 	add.w	#0xffd0,r3
  ffd662:	69 a3       	mov.w	r3,@er2

00ffd664 <.LM51>:
/home/consdrv.c:145
    cons->send_buf = kz_kmalloc(CONS_BUFFER_SIZE);
  ffd664:	79 00 00 18 	mov.w	#0x18,r0
  ffd668:	01 00 6f e2 	mov.l	er2,@(0xfff8:16,er6)
  ffd66c:	ff f8 
  ffd66e:	5e ff d0 76 	jsr	@0xffd076:24

00ffd672 <.LVL46>:
  ffd672:	01 00 6f d0 	mov.l	er0,@(0x8:16,er5)
  ffd676:	00 08 

00ffd678 <.LM52>:
/home/consdrv.c:146
    cons->recv_buf = kz_kmalloc(CONS_BUFFER_SIZE);
  ffd678:	79 00 00 18 	mov.w	#0x18,r0
  ffd67c:	5e ff d0 76 	jsr	@0xffd076:24

00ffd680 <.LVL47>:
  ffd680:	01 00 6f d0 	mov.l	er0,@(0xc:16,er5)
  ffd684:	00 0c 

00ffd686 <.LM53>:
/home/consdrv.c:147
    cons->send_len = 0;
  ffd686:	7a 14 00 ff 	add.l	#0xffddf8,er4
  ffd68a:	dd f8 
  ffd68c:	1a b3       	sub.l	er3,er3
  ffd68e:	01 00 69 c3 	mov.l	er3,@er4

00ffd692 <.LM54>:
/home/consdrv.c:149
    serial_init(cons->index);
  ffd692:	01 00 6f 62 	mov.l	@(0xfff8:16,er6),er2
  ffd696:	ff f8 
  ffd698:	69 20       	mov.w	@er2,r0
  ffd69a:	5e ff c4 3e 	jsr	@0xffc43e:24

00ffd69e <.LM55>:
/home/consdrv.c:150
    serial_intr_recv_enable(cons->index); /* 受信割込み有効化(受信開始) */
  ffd69e:	01 00 6f 62 	mov.l	@(0xfff8:16,er6),er2
  ffd6a2:	ff f8 
  ffd6a4:	69 20       	mov.w	@er2,r0
  ffd6a6:	5e ff c5 bc 	jsr	@0xffc5bc:24

00ffd6aa <.LVL49>:
  ffd6aa:	40 22       	bra	.+34 (0xffd6ce)

00ffd6ac <.L38>:
consdrv_main():
/home/consdrv.c:182
    consdrv_command(&consreg[index], id, index, size - 1, p + 1);
  ffd6ac:	6f 62 ff fe 	mov.w	@(0xfffe:16,er6),r2

00ffd6b0 <.LM57>:
consdrv_command():
/home/consdrv.c:158
    INTR_DISABLE;
  ffd6b0:	04 c0       	orc	#0xc0,ccr

00ffd6b2 <.LM58>:
consdrv_main():
/home/consdrv.c:182
    consdrv_command(&consreg[index], id, index, size - 1, p + 1);
  ffd6b2:	17 f4       	exts.l	er4
  ffd6b4:	0f c0       	mov.l	er4,er0
  ffd6b6:	fb 05       	mov.b	#0x5,r3l

00ffd6b8 <.Llt2>:
  ffd6b8:	10 30       	shll.l	er0
  ffd6ba:	8b ff       	add.b	#0xff,r3l
  ffd6bc:	46 fa       	bne	.-6 (0xffd6b8)

00ffd6be <.LM59>:
consdrv_command():
/home/consdrv.c:159
    send_string(cons, command + 1, size - 1); /* 文字列の送信 */
  ffd6be:	1b 82       	subs	#2,er2
  ffd6c0:	0b 81       	adds	#2,er1
  ffd6c2:	7a 10 00 ff 	add.l	#0xffdde8,er0
  ffd6c6:	dd e8 
  ffd6c8:	5e ff d4 3a 	jsr	@0xffd43a:24

00ffd6cc <.LM60>:
/home/consdrv.c:160
    INTR_ENABLE;
  ffd6cc:	06 3f       	andc	#0x3f,ccr

00ffd6ce <.L36>:
consdrv_main():
/home/consdrv.c:183
    kz_kmfree(p);
  ffd6ce:	01 00 69 60 	mov.l	@er6,er0
  ffd6d2:	5e ff d0 a8 	jsr	@0xffd0a8:24

00ffd6d6 <.LVL55>:
  ffd6d6:	58 00 ff 3a 	bra	.-198 (0xffd614)

00ffd6da <_timerdrv_intr>:
timerdrv_intr():
/home/timerdrv.c:31
 * ・スレッドから呼ばれることがあるが，割込み禁止で呼び出している．
 * また非コンテキスト状態で呼ばれるため，システム・コールは利用してはいけない．
 * (サービス・コールを利用すること)
 */
static void timerdrv_intr(void)
{
  ffd6da:	01 00 6d f6 	mov.l	er6,@-er7
  ffd6de:	0f f6       	mov.l	er7,er6

00ffd6e0 <.LM2>:
/home/timerdrv.c:34
  struct timerreg *tim = &timerreg;

  if (timer_is_expired(tim->index)) { /* タイマ割込み */
  ffd6e0:	6b 20 00 ff 	mov.w	@0xffde0c:32,r0
  ffd6e4:	de 0c 
  ffd6e6:	5e ff c6 5a 	jsr	@0xffc65a:24

00ffd6ea <.LVL1>:
  ffd6ea:	0d 00       	mov.w	r0,r0
  ffd6ec:	47 18       	beq	.+24 (0xffd706)

00ffd6ee <.LBB5>:
/home/timerdrv.c:35
    timer_cancel(tim->index);
  ffd6ee:	6b 20 00 ff 	mov.w	@0xffde0c:32,r0
  ffd6f2:	de 0c 
  ffd6f4:	5e ff c6 aa 	jsr	@0xffc6aa:24

00ffd6f8 <.LM4>:
/home/timerdrv.c:36
    kx_send(MSGBOX_ID_TIMDRIVE, TIMERDRV_CMD_EXPIRE, NULL);
  ffd6f8:	1a a2       	sub.l	er2,er2
  ffd6fa:	79 01 00 65 	mov.w	#0x65,r1
  ffd6fe:	79 00 00 02 	mov.w	#0x2,r0
  ffd702:	5e ff d2 1e 	jsr	@0xffd21e:24

00ffd706 <.L1>:
/home/timerdrv.c:38
  }
}
  ffd706:	01 00 6d 76 	mov.l	@er7+,er6
  ffd70a:	54 70       	rts	

00ffd70c <_timerdrv_main>:
timerdrv_main():
/home/timerdrv.c:111

  return 0;
}

int timerdrv_main(int argc, char *argv[])
{
  ffd70c:	01 00 6d f6 	mov.l	er6,@-er7
  ffd710:	0f f6       	mov.l	er7,er6
  ffd712:	7a 37 00 00 	sub.l	#0x8,er7
  ffd716:	00 08 

00ffd718 <.LBB10>:
timerdrv_init():
/home/timerdrv.c:42
  memset(&timerreg, 0, sizeof(timerreg));
  ffd718:	1a a2       	sub.l	er2,er2
  ffd71a:	8a 08       	add.b	#0x8,r2l
  ffd71c:	19 11       	sub.w	r1,r1
  ffd71e:	7a 00 00 ff 	mov.l	#0xffde08,er0
  ffd722:	de 08 
  ffd724:	5e ff c1 b8 	jsr	@0xffc1b8:24

00ffd728 <.LM8>:
/home/timerdrv.c:43
  timerreg.index = TIMER_DEFAULT_DEVICE;
  ffd728:	79 02 00 01 	mov.w	#0x1,r2
  ffd72c:	6b a2 00 ff 	mov.w	r2,@0xffde0c:32
  ffd730:	de 0c 

00ffd732 <.LM9>:
timerdrv_main():
/home/timerdrv.c:116
  int cmd;
  char *p;

  timerdrv_init();
  kz_setintr(SOFTVEC_TYPE_TIMINTR, timerdrv_intr); /* 割込みハンドラ設定 */
  ffd732:	7a 01 00 ff 	mov.l	#0xffd6da,er1
  ffd736:	d6 da 
  ffd738:	79 00 00 03 	mov.w	#0x3,r0
  ffd73c:	5e ff d1 52 	jsr	@0xffd152:24

00ffd740 <.L7>:
/home/timerdrv.c:119 (discriminator 1)

  while (1) {
    kz_recv(MSGBOX_ID_TIMDRIVE, &cmd, &p);
  ffd740:	0f e2       	mov.l	er6,er2
  ffd742:	0f e1       	mov.l	er6,er1
  ffd744:	1b 81       	subs	#2,er1
  ffd746:	79 00 00 02 	mov.w	#0x2,r0
  ffd74a:	5e ff d1 14 	jsr	@0xffd114:24

00ffd74e <.LBB12>:
timerdrv_command():
/home/timerdrv.c:55
  switch (cmd) {
  ffd74e:	6f 62 ff fe 	mov.w	@(0xfffe:16,er6),r2
  ffd752:	79 22 00 65 	cmp.w	#0x65,r2
  ffd756:	47 08       	beq	.+8 (0xffd760)
  ffd758:	79 22 00 73 	cmp.w	#0x73,r2
  ffd75c:	47 40       	beq	.+64 (0xffd79e)
  ffd75e:	40 e0       	bra	.-32 (0xffd740)

00ffd760 <.L9>:
/home/timerdrv.c:57
    tmbuf = tim->timers;
  ffd760:	7a 05 00 ff 	mov.l	#0xffde08,er5
  ffd764:	de 08 
  ffd766:	01 00 69 54 	mov.l	@er5,er4

00ffd76a <.LM13>:
/home/timerdrv.c:58
    if (tmbuf) {
  ffd76a:	47 d4       	beq	.-44 (0xffd740)

00ffd76c <.LM14>:
/home/timerdrv.c:59
      tim->timers = tmbuf->next;
  ffd76c:	01 00 69 42 	mov.l	@er4,er2
  ffd770:	01 00 69 d2 	mov.l	er2,@er5

00ffd774 <.LM15>:
/home/timerdrv.c:60
      kz_send(tmbuf->id, 0, NULL);
  ffd774:	1a a2       	sub.l	er2,er2
  ffd776:	19 11       	sub.w	r1,r1
  ffd778:	6f 40 00 04 	mov.w	@(0x4:16,er4),r0
  ffd77c:	5e ff d0 da 	jsr	@0xffd0da:24

00ffd780 <.LM16>:
/home/timerdrv.c:61
      kz_kmfree(tmbuf);
  ffd780:	0f c0       	mov.l	er4,er0
  ffd782:	5e ff d0 a8 	jsr	@0xffd0a8:24

00ffd786 <.LM17>:
/home/timerdrv.c:62
      if (tim->timers)
  ffd786:	01 00 69 53 	mov.l	@er5,er3
  ffd78a:	47 b4       	beq	.-76 (0xffd740)

00ffd78c <.LM18>:
/home/timerdrv.c:63
	timer_start(tim->index, tim->timers->msec, 0);
  ffd78c:	19 22       	sub.w	r2,r2
  ffd78e:	6f 31 00 06 	mov.w	@(0x6:16,er3),r1
  ffd792:	6b 20 00 ff 	mov.w	@0xffde0c:32,r0
  ffd796:	de 0c 
  ffd798:	5e ff c6 08 	jsr	@0xffc608:24

00ffd79c <.LVL13>:
  ffd79c:	40 a2       	bra	.-94 (0xffd740)

00ffd79e <.L10>:
timerdrv_main():
/home/timerdrv.c:120
    timerdrv_command(&timerreg, cmd, p);
  ffd79e:	01 00 69 65 	mov.l	@er6,er5

00ffd7a2 <.LM20>:
timerdrv_command():
/home/timerdrv.c:70
    tmbuf = kz_kmalloc(sizeof(*tmbuf));
  ffd7a2:	79 00 00 08 	mov.w	#0x8,r0
  ffd7a6:	5e ff d0 76 	jsr	@0xffd076:24

00ffd7aa <.LVL16>:
  ffd7aa:	0f 84       	mov.l	er0,er4

00ffd7ac <.LM21>:
/home/timerdrv.c:71
    tmbuf->next = NULL;
  ffd7ac:	1a a2       	sub.l	er2,er2
  ffd7ae:	01 00 69 82 	mov.l	er2,@er0

00ffd7b2 <.LM22>:
/home/timerdrv.c:72
    tmbuf->id   = req->id;
  ffd7b2:	69 52       	mov.w	@er5,r2
  ffd7b4:	6f 82 00 04 	mov.w	r2,@(0x4:16,er0)

00ffd7b8 <.LM23>:
/home/timerdrv.c:73
    tmbuf->msec = req->msec;
  ffd7b8:	6f 52 00 02 	mov.w	@(0x2:16,er5),r2
  ffd7bc:	6f 82 00 06 	mov.w	r2,@(0x6:16,er0)

00ffd7c0 <.LM24>:
/home/timerdrv.c:76
    if (tim->timers) {
  ffd7c0:	01 00 6b 22 	mov.l	@0xffde08:32,er2
  ffd7c4:	00 ff de 08 
  ffd7c8:	47 0c       	beq	.+12 (0xffd7d6)

00ffd7ca <.LM25>:
/home/timerdrv.c:77
      t = timer_gettime(tim->index);
  ffd7ca:	6b 20 00 ff 	mov.w	@0xffde0c:32,r0
  ffd7ce:	de 0c 
  ffd7d0:	5e ff c7 0a 	jsr	@0xffc70a:24

00ffd7d4 <.LVL20>:
  ffd7d4:	40 02       	bra	.+2 (0xffd7d8)

00ffd7d6 <.L19>:
/home/timerdrv.c:75
    t = 0;
  ffd7d6:	19 00       	sub.w	r0,r0

00ffd7d8 <.L13>:
  ffd7d8:	7a 03 00 ff 	mov.l	#0xffde08,er3
  ffd7dc:	de 08 

00ffd7de <.L18>:
/home/timerdrv.c:81
      if (*tmbufp == NULL) {
  ffd7de:	01 00 69 31 	mov.l	@er3,er1
  ffd7e2:	46 14       	bne	.+20 (0xffd7f8)

00ffd7e4 <.LM28>:
/home/timerdrv.c:82
	*tmbufp = tmbuf;
  ffd7e4:	01 00 69 b4 	mov.l	er4,@er3

00ffd7e8 <.LM29>:
/home/timerdrv.c:83
	if (tmbufp == &tim->timers)
  ffd7e8:	7a 23 00 ff 	cmp.l	#0xffde08,er3
  ffd7ec:	de 08 
  ffd7ee:	46 50       	bne	.+80 (0xffd840)

00ffd7f0 <.LM30>:
/home/timerdrv.c:84
	  timer_start(tim->index, tim->timers->msec, 0);
  ffd7f0:	19 22       	sub.w	r2,r2
  ffd7f2:	6f 41 00 06 	mov.w	@(0x6:16,er4),r1
  ffd7f6:	40 30       	bra	.+48 (0xffd828)

00ffd7f8 <.L14>:
/home/timerdrv.c:87
      msec = (*tmbufp)->msec - t;
  ffd7f8:	6f 12 00 06 	mov.w	@(0x6:16,er1),r2
  ffd7fc:	19 02       	sub.w	r0,r2
  ffd7fe:	0d 22       	mov.w	r2,r2
  ffd800:	4c 02       	bge	.+2 (0xffd804)
  ffd802:	19 22       	sub.w	r2,r2

00ffd804 <.L16>:
/home/timerdrv.c:89
      if (tmbuf->msec < msec) {
  ffd804:	6f 40 00 06 	mov.w	@(0x6:16,er4),r0
  ffd808:	1d 20       	cmp.w	r2,r0
  ffd80a:	4c 28       	bge	.+40 (0xffd834)

00ffd80c <.LM33>:
/home/timerdrv.c:90
	(*tmbufp)->msec = msec - tmbuf->msec;
  ffd80c:	19 02       	sub.w	r0,r2
  ffd80e:	6f 92 00 06 	mov.w	r2,@(0x6:16,er1)

00ffd812 <.LM34>:
/home/timerdrv.c:91
	tmbuf->next = *tmbufp;
  ffd812:	01 00 69 c1 	mov.l	er1,@er4

00ffd816 <.LM35>:
/home/timerdrv.c:92
	*tmbufp = tmbuf;
  ffd816:	01 00 69 b4 	mov.l	er4,@er3

00ffd81a <.LM36>:
/home/timerdrv.c:93
	timer_start(tim->index, tim->timers->msec, 0);
  ffd81a:	19 22       	sub.w	r2,r2
  ffd81c:	01 00 6b 23 	mov.l	@0xffde08:32,er3
  ffd820:	00 ff de 08 
  ffd824:	6f 31 00 06 	mov.w	@(0x6:16,er3),r1

00ffd828 <.L23>:
  ffd828:	6b 20 00 ff 	mov.w	@0xffde0c:32,r0
  ffd82c:	de 0c 
  ffd82e:	5e ff c6 08 	jsr	@0xffc608:24

00ffd832 <.LVL28>:
  ffd832:	40 0c       	bra	.+12 (0xffd840)

00ffd834 <.L17>:
/home/timerdrv.c:97
      tmbuf->msec -= msec;
  ffd834:	19 20       	sub.w	r2,r0
  ffd836:	6f c0 00 06 	mov.w	r0,@(0x6:16,er4)

00ffd83a <.LM38>:
/home/timerdrv.c:80
    for (tmbufp = &tim->timers;; tmbufp = &(*tmbufp)->next) {
  ffd83a:	0f 93       	mov.l	er1,er3

00ffd83c <.LM39>:
/home/timerdrv.c:96
      t = 0;
  ffd83c:	19 00       	sub.w	r0,r0
  ffd83e:	40 9e       	bra	.-98 (0xffd7de)

00ffd840 <.L15>:
/home/timerdrv.c:100
    kz_kmfree(p);
  ffd840:	0f d0       	mov.l	er5,er0
  ffd842:	5e ff d0 a8 	jsr	@0xffd0a8:24

00ffd846 <.LVL32>:
  ffd846:	58 00 fe f6 	bra	.-266 (0xffd740)

00ffd84a <_send_write>:
send_write():
/home/command.c:20
  kz_send(MSGBOX_ID_CONSOUTPUT, 3, p);
}

/* コンソールへの文字列出力をコンソール・ドライバに依頼する */
static void send_write(char *str)
{
  ffd84a:	01 00 6d f6 	mov.l	er6,@-er7
  ffd84e:	0f f6       	mov.l	er7,er6
  ffd850:	01 00 6d f4 	mov.l	er4,@-er7
  ffd854:	01 00 6d f5 	mov.l	er5,@-er7
  ffd858:	7a 37 00 00 	sub.l	#0x8,er7
  ffd85c:	00 08 

00ffd85e <.LM2>:
/home/command.c:23
  char *p;
  int len;
  len = strlen(str);
  ffd85e:	01 00 6f e0 	mov.l	er0,@(0xfff4:16,er6)
  ffd862:	ff f4 
  ffd864:	5e ff c2 50 	jsr	@0xffc250:24

00ffd868 <.LVL1>:
  ffd868:	0d 02       	mov.w	r0,r2

00ffd86a <.LM3>:
/home/command.c:24
  p = kz_kmalloc(len + 2);
  ffd86a:	0d 05       	mov.w	r0,r5
  ffd86c:	0b 85       	adds	#2,er5
  ffd86e:	0d 50       	mov.w	r5,r0
  ffd870:	01 00 6f e2 	mov.l	er2,@(0xfff0:16,er6)
  ffd874:	ff f0 
  ffd876:	5e ff d0 76 	jsr	@0xffd076:24

00ffd87a <.LVL4>:
  ffd87a:	0f 84       	mov.l	er0,er4

00ffd87c <.LM4>:
/home/command.c:25
  p[0] = '0';
  ffd87c:	fb 30       	mov.b	#0x30,r3l
  ffd87e:	68 8b       	mov.b	r3l,@er0

00ffd880 <.LM5>:
/home/command.c:26
  p[1] = CONSDRV_CMD_WRITE;
  ffd880:	fb 77       	mov.b	#0x77,r3l
  ffd882:	6e 8b 00 01 	mov.b	r3l,@(0x1:16,er0)

00ffd886 <.LM6>:
/home/command.c:27
  memcpy(&p[2], str, len);
  ffd886:	01 00 6f 62 	mov.l	@(0xfff0:16,er6),er2
  ffd88a:	ff f0 
  ffd88c:	17 f2       	exts.l	er2
  ffd88e:	01 00 6f 61 	mov.l	@(0xfff4:16,er6),er1
  ffd892:	ff f4 
  ffd894:	0b 80       	adds	#2,er0
  ffd896:	5e ff c1 de 	jsr	@0xffc1de:24

00ffd89a <.LM7>:
/home/command.c:28
  kz_send(MSGBOX_ID_CONSOUTPUT, len + 2, p);
  ffd89a:	0f c2       	mov.l	er4,er2
  ffd89c:	0d 51       	mov.w	r5,r1
  ffd89e:	79 00 00 01 	mov.w	#0x1,r0
  ffd8a2:	5e ff d0 da 	jsr	@0xffd0da:24

00ffd8a6 <.LM8>:
/home/command.c:29
}
  ffd8a6:	0b 97       	adds	#4,er7
  ffd8a8:	0b 97       	adds	#4,er7
  ffd8aa:	01 00 6d 75 	mov.l	@er7+,er5
  ffd8ae:	01 00 6d 74 	mov.l	@er7+,er4
  ffd8b2:	01 00 6d 76 	mov.l	@er7+,er6
  ffd8b6:	54 70       	rts	

00ffd8b8 <_command_main>:
command_main():
/home/command.c:42
  req->msec = msec;
  kz_send(MSGBOX_ID_TIMDRIVE, TIMERDRV_CMD_START, (char *)req);
}

int command_main(int argc, char *argv[])
{
  ffd8b8:	01 00 6d f6 	mov.l	er6,@-er7
  ffd8bc:	0f f6       	mov.l	er7,er6
  ffd8be:	7a 37 00 00 	sub.l	#0x8,er7
  ffd8c2:	00 08 

00ffd8c4 <.LBB6>:
send_use():
/home/command.c:11
  p = kz_kmalloc(3);
  ffd8c4:	79 00 00 03 	mov.w	#0x3,r0
  ffd8c8:	5e ff d0 76 	jsr	@0xffd076:24

00ffd8cc <.LVL14>:
  ffd8cc:	0f 82       	mov.l	er0,er2

00ffd8ce <.LM11>:
/home/command.c:12
  p[0] = '0';
  ffd8ce:	fb 30       	mov.b	#0x30,r3l
  ffd8d0:	68 8b       	mov.b	r3l,@er0

00ffd8d2 <.LM12>:
/home/command.c:13
  p[1] = CONSDRV_CMD_USE;
  ffd8d2:	fb 75       	mov.b	#0x75,r3l
  ffd8d4:	6e 8b 00 01 	mov.b	r3l,@(0x1:16,er0)

00ffd8d8 <.LM13>:
/home/command.c:14
  p[2] = '0' + index;
  ffd8d8:	fb 31       	mov.b	#0x31,r3l
  ffd8da:	6e 8b 00 02 	mov.b	r3l,@(0x2:16,er0)

00ffd8de <.LM14>:
/home/command.c:15
  kz_send(MSGBOX_ID_CONSOUTPUT, 3, p);
  ffd8de:	79 01 00 03 	mov.w	#0x3,r1
  ffd8e2:	79 00 00 01 	mov.w	#0x1,r0
  ffd8e6:	5e ff d0 da 	jsr	@0xffd0da:24

00ffd8ea <.L3>:
command_main():
/home/command.c:49
  int size;

  send_use(SERIAL_DEFAULT_DEVICE);

  while (1) {
    send_write("command> "); /* プロンプト表示 */
  ffd8ea:	7a 00 00 ff 	mov.l	#0xffdb35,er0
  ffd8ee:	db 35 
  ffd8f0:	5e ff d8 4a 	jsr	@0xffd84a:24

00ffd8f4 <.LM16>:
/home/command.c:52

    /* コンソールからの受信文字列を受け取る */
    kz_recv(MSGBOX_ID_CONSINPUT, &size, &p);
  ffd8f4:	0f e2       	mov.l	er6,er2
  ffd8f6:	0f e1       	mov.l	er6,er1
  ffd8f8:	1b 81       	subs	#2,er1
  ffd8fa:	19 00       	sub.w	r0,r0
  ffd8fc:	5e ff d1 14 	jsr	@0xffd114:24

00ffd900 <.LM17>:
/home/command.c:53
    if (p == NULL) {
  ffd900:	01 00 69 62 	mov.l	@er6,er2
  ffd904:	46 0c       	bne	.+12 (0xffd912)

00ffd906 <.LM18>:
/home/command.c:54
      send_write("expired.\n");
  ffd906:	7a 00 00 ff 	mov.l	#0xffdb3f,er0
  ffd90a:	db 3f 
  ffd90c:	5e ff d8 4a 	jsr	@0xffd84a:24

00ffd910 <.LM19>:
/home/command.c:55
      continue;
  ffd910:	40 d8       	bra	.-40 (0xffd8ea)

00ffd912 <.L4>:
/home/command.c:57
    }
    p[size] = '\0';
  ffd912:	6f 63 ff fe 	mov.w	@(0xfffe:16,er6),r3
  ffd916:	17 f3       	exts.l	er3
  ffd918:	0a b2       	add.l	er3,er2
  ffd91a:	18 bb       	sub.b	r3l,r3l
  ffd91c:	68 ab       	mov.b	r3l,@er2

00ffd91e <.LM21>:
/home/command.c:59

    if (!strncmp(p, "echo", 4)) { /* echoコマンド */
  ffd91e:	79 02 00 04 	mov.w	#0x4,r2
  ffd922:	7a 01 00 ff 	mov.l	#0xffdb49,er1
  ffd926:	db 49 
  ffd928:	01 00 69 60 	mov.l	@er6,er0
  ffd92c:	5e ff c2 be 	jsr	@0xffc2be:24

00ffd930 <.LVL21>:
  ffd930:	01 00 69 63 	mov.l	@er6,er3
  ffd934:	0d 00       	mov.w	r0,r0
  ffd936:	46 10       	bne	.+16 (0xffd948)

00ffd938 <.LM22>:
/home/command.c:60
      send_write(p + 4); /* echoに続く文字列を出力する */
  ffd938:	0f b0       	mov.l	er3,er0
  ffd93a:	0b 90       	adds	#4,er0
  ffd93c:	5e ff d8 4a 	jsr	@0xffd84a:24

00ffd940 <.LM23>:
/home/command.c:61
      send_write("\n");
  ffd940:	7a 00 00 ff 	mov.l	#0xffdafe,er0
  ffd944:	da fe 
  ffd946:	40 46       	bra	.+70 (0xffd98e)

00ffd948 <.L6>:
/home/command.c:62
    } else if (!strncmp(p, "timer", 4)) { /* timerコマンド */
  ffd948:	79 02 00 04 	mov.w	#0x4,r2
  ffd94c:	7a 01 00 ff 	mov.l	#0xffdb4e,er1
  ffd950:	db 4e 
  ffd952:	0f b0       	mov.l	er3,er0
  ffd954:	5e ff c2 be 	jsr	@0xffc2be:24

00ffd958 <.LVL23>:
  ffd958:	0d 04       	mov.w	r0,r4
  ffd95a:	46 2c       	bne	.+44 (0xffd988)

00ffd95c <.LM25>:
/home/command.c:63
      send_write("timer start.\n");
  ffd95c:	7a 00 00 ff 	mov.l	#0xffdb54,er0
  ffd960:	db 54 
  ffd962:	5e ff d8 4a 	jsr	@0xffd84a:24

00ffd966 <.LBB8>:
send_start():
/home/command.c:35
  req = kz_kmalloc(sizeof(*req));
  ffd966:	79 00 00 04 	mov.w	#0x4,r0
  ffd96a:	5e ff d0 76 	jsr	@0xffd076:24

00ffd96e <.LVL25>:
  ffd96e:	0f 82       	mov.l	er0,er2

00ffd970 <.LM27>:
/home/command.c:36
  req->id = MSGBOX_ID_CONSINPUT;
  ffd970:	69 84       	mov.w	r4,@er0

00ffd972 <.LM28>:
/home/command.c:37
  req->msec = msec;
  ffd972:	79 03 03 e8 	mov.w	#0x3e8,r3
  ffd976:	6f 83 00 02 	mov.w	r3,@(0x2:16,er0)

00ffd97a <.LM29>:
/home/command.c:38
  kz_send(MSGBOX_ID_TIMDRIVE, TIMERDRV_CMD_START, (char *)req);
  ffd97a:	79 01 00 73 	mov.w	#0x73,r1
  ffd97e:	79 00 00 02 	mov.w	#0x2,r0
  ffd982:	5e ff d0 da 	jsr	@0xffd0da:24

00ffd986 <.LVL28>:
  ffd986:	40 0a       	bra	.+10 (0xffd992)

00ffd988 <.L8>:
command_main():
/home/command.c:66
      send_start(1000);
    } else {
      send_write("unknown.\n");
  ffd988:	7a 00 00 ff 	mov.l	#0xffdb62,er0
  ffd98c:	db 62 

00ffd98e <.L9>:
  ffd98e:	5e ff d8 4a 	jsr	@0xffd84a:24

00ffd992 <.L7>:
/home/command.c:69
    }

    kz_kmfree(p);
  ffd992:	01 00 69 60 	mov.l	@er6,er0
  ffd996:	5e ff d0 a8 	jsr	@0xffd0a8:24

00ffd99a <.LVL31>:
  ffd99a:	58 00 ff 4c 	bra	.-180 (0xffd8ea)

00ffd99e <_send_start.constprop___1>:
send_start():
/home/clock.c:8
#include "consdrv.h"
#include "timerdrv.h"
#include "lib.h"

/* タイマのカウント開始をタイマ・ドライバに依頼する */
static void send_start(int msec)
  ffd99e:	01 00 6d f6 	mov.l	er6,@-er7
  ffd9a2:	0f f6       	mov.l	er7,er6

00ffd9a4 <.LM2>:
/home/clock.c:11
{
  struct timerreq *req;
  req = kz_kmalloc(sizeof(*req));
  ffd9a4:	79 00 00 04 	mov.w	#0x4,r0
  ffd9a8:	5e ff d0 76 	jsr	@0xffd076:24

00ffd9ac <.LVL1>:
  ffd9ac:	0f 82       	mov.l	er0,er2

00ffd9ae <.LM3>:
/home/clock.c:12
  req->id = MSGBOX_ID_TIMEXPIRE;
  ffd9ae:	79 03 00 03 	mov.w	#0x3,r3
  ffd9b2:	69 83       	mov.w	r3,@er0

00ffd9b4 <.LM4>:
/home/clock.c:13
  req->msec = msec;
  ffd9b4:	79 03 0b b8 	mov.w	#0xbb8,r3
  ffd9b8:	6f 83 00 02 	mov.w	r3,@(0x2:16,er0)

00ffd9bc <.LM5>:
/home/clock.c:14
  kz_send(MSGBOX_ID_TIMDRIVE, TIMERDRV_CMD_START, (char *)req);
  ffd9bc:	79 01 00 73 	mov.w	#0x73,r1
  ffd9c0:	79 00 00 02 	mov.w	#0x2,r0
  ffd9c4:	5e ff d0 da 	jsr	@0xffd0da:24

00ffd9c8 <.LM6>:
/home/clock.c:15
}
  ffd9c8:	01 00 6d 76 	mov.l	@er7+,er6
  ffd9cc:	54 70       	rts	

00ffd9ce <_clock_main>:
clock_main():
/home/clock.c:31
  memcpy(&p[2], str, len);
  kz_send(MSGBOX_ID_CONSOUTPUT, len + 2, p);
}

int clock_main(int argc, char *argv[])
{
  ffd9ce:	01 00 6d f6 	mov.l	er6,@-er7
  ffd9d2:	0f f6       	mov.l	er7,er6
  ffd9d4:	7a 37 00 00 	sub.l	#0x8,er7
  ffd9d8:	00 08 

00ffd9da <.LM8>:
/home/clock.c:32
  send_start(3000);
  ffd9da:	5e ff d9 9e 	jsr	@0xffd99e:24

00ffd9de <.LBB4>:
send_write():
/home/clock.c:22
  len = strlen(str);
  ffd9de:	7a 05 00 ff 	mov.l	#0xffdb6c,er5
  ffd9e2:	db 6c 

00ffd9e4 <.L3>:
clock_main():
/home/clock.c:35 (discriminator 1)

  while (1) {
    kz_recv(MSGBOX_ID_TIMEXPIRE, NULL, NULL);
  ffd9e4:	1a a2       	sub.l	er2,er2
  ffd9e6:	1a 91       	sub.l	er1,er1
  ffd9e8:	79 00 00 03 	mov.w	#0x3,r0
  ffd9ec:	5e ff d1 14 	jsr	@0xffd114:24

00ffd9f0 <.LM11>:
send_write():
/home/clock.c:22
  len = strlen(str);
  ffd9f0:	0f d0       	mov.l	er5,er0
  ffd9f2:	5e ff c2 50 	jsr	@0xffc250:24

00ffd9f6 <.LVL8>:
  ffd9f6:	0d 02       	mov.w	r0,r2

00ffd9f8 <.LM12>:
/home/clock.c:23
  p = kz_kmalloc(len + 2);
  ffd9f8:	0d 03       	mov.w	r0,r3
  ffd9fa:	0b 83       	adds	#2,er3
  ffd9fc:	0d 30       	mov.w	r3,r0
  ffd9fe:	01 00 6f e2 	mov.l	er2,@(0xfffc:16,er6)
  ffda02:	ff fc 
  ffda04:	01 00 69 e3 	mov.l	er3,@er6
  ffda08:	5e ff d0 76 	jsr	@0xffd076:24

00ffda0c <.LVL11>:
  ffda0c:	0f 84       	mov.l	er0,er4

00ffda0e <.LM13>:
/home/clock.c:24
  p[0] = '0';
  ffda0e:	f8 30       	mov.b	#0x30,r0l
  ffda10:	68 c8       	mov.b	r0l,@er4

00ffda12 <.LM14>:
/home/clock.c:25
  p[1] = CONSDRV_CMD_WRITE;
  ffda12:	f8 77       	mov.b	#0x77,r0l
  ffda14:	6e c8 00 01 	mov.b	r0l,@(0x1:16,er4)

00ffda18 <.LM15>:
/home/clock.c:26
  memcpy(&p[2], str, len);
  ffda18:	01 00 6f 62 	mov.l	@(0xfffc:16,er6),er2
  ffda1c:	ff fc 
  ffda1e:	17 f2       	exts.l	er2
  ffda20:	0f d1       	mov.l	er5,er1
  ffda22:	0f c0       	mov.l	er4,er0
  ffda24:	0b 80       	adds	#2,er0
  ffda26:	5e ff c1 de 	jsr	@0xffc1de:24

00ffda2a <.LM16>:
/home/clock.c:27
  kz_send(MSGBOX_ID_CONSOUTPUT, len + 2, p);
  ffda2a:	0f c2       	mov.l	er4,er2
  ffda2c:	01 00 69 63 	mov.l	@er6,er3
  ffda30:	0d 31       	mov.w	r3,r1
  ffda32:	79 00 00 01 	mov.w	#0x1,r0
  ffda36:	5e ff d0 da 	jsr	@0xffd0da:24

00ffda3a <.LM17>:
clock_main():
/home/clock.c:37
    send_write("ready.\n");
    send_start(3000);
  ffda3a:	5e ff d9 9e 	jsr	@0xffd99e:24

00ffda3e <.LVL16>:
  ffda3e:	40 a4       	bra	.-92 (0xffd9e4)

Disassembly of section .text.startup:

00ffda40 <_main>:
main():
/home/main.c:24

  return 0;
}

int main(void)
{
  ffda40:	01 00 6d f6 	mov.l	er6,@-er7
  ffda44:	0f f6       	mov.l	er7,er6

00ffda46 <.LM10>:
/home/main.c:25
  INTR_DISABLE; /* 割込み無効にする */
  ffda46:	04 c0       	orc	#0xc0,ccr

00ffda48 <.LM11>:
/home/main.c:27

  puts("kozos boot succeed!\n");
  ffda48:	7a 00 00 ff 	mov.l	#0xffdaeb,er0
  ffda4c:	da eb 
  ffda4e:	5e ff c3 66 	jsr	@0xffc366:24

00ffda52 <.LM12>:
/home/main.c:30

  /* OSの動作開始 */
  kz_start(start_threads, "idle", 0, 0x100, 0, NULL);
  ffda52:	1a a2       	sub.l	er2,er2
  ffda54:	01 00 6d f2 	mov.l	er2,@-er7
  ffda58:	1b 97       	subs	#4,er7
  ffda5a:	1b 97       	subs	#4,er7
  ffda5c:	6f f2 00 06 	mov.w	r2,@(0x6:16,er7)
  ffda60:	79 02 01 00 	mov.w	#0x100,r2
  ffda64:	6f f2 00 02 	mov.w	r2,@(0x2:16,er7)
  ffda68:	19 22       	sub.w	r2,r2
  ffda6a:	7a 01 00 ff 	mov.l	#0xffdb00,er1
  ffda6e:	db 00 
  ffda70:	7a 00 00 ff 	mov.l	#0xffc04e,er0
  ffda74:	c0 4e 
  ffda76:	5e ff ca da 	jsr	@0xffcada:24

00ffda7a <.LVL9>:
  ffda7a:	7a 17 00 00 	add.l	#0xc,er7
  ffda7e:	00 0c 

00ffda80 <.LM13>:
/home/main.c:34
  /* ここには戻ってこない */

  return 0;
}
  ffda80:	19 00       	sub.w	r0,r0
  ffda82:	01 00 6d 76 	mov.l	@er7+,er6
  ffda86:	54 70       	rts	
