
kozos.elf:     file format elf32-h8300


Disassembly of section .text:

00400100 <_start>:
_text_start():
  400100:	7a 07 00 ff 	mov.l	#0xffff00,er7
  400104:	ff 00 
  400106:	5e 40 02 74 	jsr	@0x400274:24

0040010a <.L11>:
.L11():
  40010a:	40 fe       	bra	.-2 (0x40010a)

0040010c <_dispatch>:
_dispatch():
  40010c:	01 00 69 07 	mov.l	@er0,er7
  400110:	01 00 6d 70 	mov.l	@er7+,er0
  400114:	01 00 6d 71 	mov.l	@er7+,er1
  400118:	01 00 6d 72 	mov.l	@er7+,er2
  40011c:	01 00 6d 73 	mov.l	@er7+,er3
  400120:	01 00 6d 74 	mov.l	@er7+,er4
  400124:	01 00 6d 75 	mov.l	@er7+,er5
  400128:	01 00 6d 76 	mov.l	@er7+,er6
  40012c:	56 70       	rte	

0040012e <_start_threads>:
start_threads():
/home/main.c:8
#include "interrupt.h"
#include "lib.h"

/* システム・タスクとユーザ・タスクの起動 */
static int start_threads(int argc, char *argv[])
{
  40012e:	01 00 6d f6 	mov.l	er6,@-er7
  400132:	0f f6       	mov.l	er7,er6
  400134:	7a 37 00 00 	sub.l	#0x8,er7
  400138:	00 08 
  40013a:	6f e0 ff fe 	mov.w	r0,@(0xfffe:16,er6)
  40013e:	01 00 6f e1 	mov.l	er1,@(0xfff8:16,er6)
  400142:	ff f8 

00400144 <.LM2>:
/home/main.c:9
  kz_run(consdrv_main,  "consdrv",  1, 0x200, 0, NULL);
  400144:	1a a2       	sub.l	er2,er2
  400146:	01 00 6d f2 	mov.l	er2,@-er7
  40014a:	0f f2       	mov.l	er7,er2
  40014c:	1b 92       	subs	#4,er2
  40014e:	0f a7       	mov.l	er2,er7
  400150:	19 22       	sub.w	r2,r2
  400152:	6f f2 00 02 	mov.w	r2,@(0x2:16,er7)
  400156:	0f f2       	mov.l	er7,er2
  400158:	1b 92       	subs	#4,er2
  40015a:	0f a7       	mov.l	er2,er7
  40015c:	79 02 02 00 	mov.w	#0x200,r2
  400160:	6f f2 00 02 	mov.w	r2,@(0x2:16,er7)
  400164:	79 02 00 01 	mov.w	#0x1,r2
  400168:	7a 01 00 40 	mov.l	#0x4040b8,er1
  40016c:	40 b8 
  40016e:	7a 00 00 40 	mov.l	#0x403b62,er0
  400172:	3b 62 
  400174:	5e 40 25 78 	jsr	@0x402578:24
  400178:	7a 17 00 00 	add.l	#0xc,er7
  40017c:	00 0c 

0040017e <.LM3>:
/home/main.c:10
  kz_run(command_main,  "command",  8, 0x200, 0, NULL);
  40017e:	1a a2       	sub.l	er2,er2
  400180:	01 00 6d f2 	mov.l	er2,@-er7
  400184:	0f f2       	mov.l	er7,er2
  400186:	1b 92       	subs	#4,er2
  400188:	0f a7       	mov.l	er2,er7
  40018a:	19 22       	sub.w	r2,r2
  40018c:	6f f2 00 02 	mov.w	r2,@(0x2:16,er7)
  400190:	0f f2       	mov.l	er7,er2
  400192:	1b 92       	subs	#4,er2
  400194:	0f a7       	mov.l	er2,er7
  400196:	79 02 02 00 	mov.w	#0x200,r2
  40019a:	6f f2 00 02 	mov.w	r2,@(0x2:16,er7)
  40019e:	79 02 00 08 	mov.w	#0x8,r2
  4001a2:	7a 01 00 40 	mov.l	#0x4040c0,er1
  4001a6:	40 c0 
  4001a8:	7a 00 00 40 	mov.l	#0x402da8,er0
  4001ac:	2d a8 
  4001ae:	5e 40 25 78 	jsr	@0x402578:24
  4001b2:	7a 17 00 00 	add.l	#0xc,er7
  4001b6:	00 0c 

004001b8 <.LM4>:
/home/main.c:11
  kz_run(timerdrv_main, "timerdrv", 2, 0x100, 0, NULL);
  4001b8:	1a a2       	sub.l	er2,er2
  4001ba:	01 00 6d f2 	mov.l	er2,@-er7
  4001be:	0f f2       	mov.l	er7,er2
  4001c0:	1b 92       	subs	#4,er2
  4001c2:	0f a7       	mov.l	er2,er7
  4001c4:	19 22       	sub.w	r2,r2
  4001c6:	6f f2 00 02 	mov.w	r2,@(0x2:16,er7)
  4001ca:	0f f2       	mov.l	er7,er2
  4001cc:	1b 92       	subs	#4,er2
  4001ce:	0f a7       	mov.l	er2,er7
  4001d0:	79 02 01 00 	mov.w	#0x100,r2
  4001d4:	6f f2 00 02 	mov.w	r2,@(0x2:16,er7)
  4001d8:	79 02 00 02 	mov.w	#0x2,r2
  4001dc:	7a 01 00 40 	mov.l	#0x4040c8,er1
  4001e0:	40 c8 
  4001e2:	7a 00 00 40 	mov.l	#0x403f20,er0
  4001e6:	3f 20 
  4001e8:	5e 40 25 78 	jsr	@0x402578:24
  4001ec:	7a 17 00 00 	add.l	#0xc,er7
  4001f0:	00 0c 

004001f2 <.LM5>:
/home/main.c:12
  kz_run(etherdrv_main, "etherdrv", 3, 0x200, 0, NULL);
  4001f2:	1a a2       	sub.l	er2,er2
  4001f4:	01 00 6d f2 	mov.l	er2,@-er7
  4001f8:	0f f2       	mov.l	er7,er2
  4001fa:	1b 92       	subs	#4,er2
  4001fc:	0f a7       	mov.l	er2,er7
  4001fe:	19 22       	sub.w	r2,r2
  400200:	6f f2 00 02 	mov.w	r2,@(0x2:16,er7)
  400204:	0f f2       	mov.l	er7,er2
  400206:	1b 92       	subs	#4,er2
  400208:	0f a7       	mov.l	er2,er7
  40020a:	79 02 02 00 	mov.w	#0x200,r2
  40020e:	6f f2 00 02 	mov.w	r2,@(0x2:16,er7)
  400212:	79 02 00 03 	mov.w	#0x3,r2
  400216:	7a 01 00 40 	mov.l	#0x4040d1,er1
  40021a:	40 d1 
  40021c:	7a 00 00 40 	mov.l	#0x40405a,er0
  400220:	40 5a 
  400222:	5e 40 25 78 	jsr	@0x402578:24
  400226:	7a 17 00 00 	add.l	#0xc,er7
  40022a:	00 0c 

0040022c <.LM6>:
/home/main.c:16
#if 0
  kz_run(clock_main,    "clock",    9, 0x100, 0, NULL);
#endif
  kz_run(ip_main,       "ip",      10, 0x200, 0, NULL);
  40022c:	1a a2       	sub.l	er2,er2
  40022e:	01 00 6d f2 	mov.l	er2,@-er7
  400232:	0f f2       	mov.l	er7,er2
  400234:	1b 92       	subs	#4,er2
  400236:	0f a7       	mov.l	er2,er7
  400238:	19 22       	sub.w	r2,r2
  40023a:	6f f2 00 02 	mov.w	r2,@(0x2:16,er7)
  40023e:	0f f2       	mov.l	er7,er2
  400240:	1b 92       	subs	#4,er2
  400242:	0f a7       	mov.l	er2,er7
  400244:	79 02 02 00 	mov.w	#0x200,r2
  400248:	6f f2 00 02 	mov.w	r2,@(0x2:16,er7)
  40024c:	79 02 00 0a 	mov.w	#0xa,r2
  400250:	7a 01 00 40 	mov.l	#0x4040da,er1
  400254:	40 da 
  400256:	7a 00 00 40 	mov.l	#0x403600,er0
  40025a:	36 00 
  40025c:	5e 40 25 78 	jsr	@0x402578:24
  400260:	7a 17 00 00 	add.l	#0xc,er7
  400264:	00 0c 

00400266 <.LM7>:
/home/main.c:18

  kz_chpri(15); /* 優先順位を下げて，アイドルスレッドに移行する */
  400266:	79 00 00 0f 	mov.w	#0xf,r0
  40026a:	5e 40 26 e0 	jsr	@0x4026e0:24

0040026e <.LM8>:
/home/main.c:19
  INTR_ENABLE; /* 割込み有効にする */
  40026e:	06 3f       	andc	#0x3f,ccr

00400270 <.L2>:
/home/main.c:21 (discriminator 1)
  while (1) {
    asm volatile ("sleep"); /* 省電力モードに移行 */
  400270:	01 80       	sleep	
  400272:	40 fc       	bra	.-4 (0x400270)

00400274 <_main>:
main():
/home/main.c:28

  return 0;
}

int main(void)
{
  400274:	01 00 6d f6 	mov.l	er6,@-er7
  400278:	0f f6       	mov.l	er7,er6

0040027a <.LM11>:
/home/main.c:29
  INTR_DISABLE; /* 割込み無効にする */
  40027a:	04 c0       	orc	#0xc0,ccr

0040027c <.LM12>:
/home/main.c:31

  puts("kozos boot succeed!\n");
  40027c:	7a 00 00 40 	mov.l	#0x4040dd,er0
  400280:	40 dd 
  400282:	5e 40 07 b6 	jsr	@0x4007b6:24

00400286 <.LM13>:
/home/main.c:34

  /* OSの動作開始 */
  kz_start(start_threads, "idle", 0, 0x100, 0, NULL);
  400286:	1a a2       	sub.l	er2,er2
  400288:	01 00 6d f2 	mov.l	er2,@-er7
  40028c:	0f f2       	mov.l	er7,er2
  40028e:	1b 92       	subs	#4,er2
  400290:	0f a7       	mov.l	er2,er7
  400292:	19 22       	sub.w	r2,r2
  400294:	6f f2 00 02 	mov.w	r2,@(0x2:16,er7)
  400298:	0f f2       	mov.l	er7,er2
  40029a:	1b 92       	subs	#4,er2
  40029c:	0f a7       	mov.l	er2,er7
  40029e:	79 02 01 00 	mov.w	#0x100,r2
  4002a2:	6f f2 00 02 	mov.w	r2,@(0x2:16,er7)
  4002a6:	19 22       	sub.w	r2,r2
  4002a8:	7a 01 00 40 	mov.l	#0x4040f2,er1
  4002ac:	40 f2 
  4002ae:	7a 00 00 40 	mov.l	#0x40012e,er0
  4002b2:	01 2e 
  4002b4:	5e 40 23 f2 	jsr	@0x4023f2:24
  4002b8:	7a 17 00 00 	add.l	#0xc,er7
  4002bc:	00 0c 

004002be <.LM14>:
/home/main.c:37
  /* ここには戻ってこない */

  return 0;
  4002be:	19 22       	sub.w	r2,r2

004002c0 <.LM15>:
/home/main.c:38
}
  4002c0:	0d 20       	mov.w	r2,r0
  4002c2:	01 00 6d 76 	mov.l	@er7+,er6
  4002c6:	54 70       	rts	

004002c8 <_softvec_init>:
softvec_init():
/home/interrupt.c:7
#include "intr.h"
#include "interrupt.h"

/* ソフトウエア・割込みベクタの初期化 */
int softvec_init(void)
{
  4002c8:	01 00 6d f6 	mov.l	er6,@-er7
  4002cc:	0f f6       	mov.l	er7,er6
  4002ce:	1b 97       	subs	#4,er7

004002d0 <.LM2>:
/home/interrupt.c:9
  int type;
  for (type = 0; type < SOFTVEC_TYPE_NUM; type++)
  4002d0:	19 22       	sub.w	r2,r2
  4002d2:	6f e2 ff fe 	mov.w	r2,@(0xfffe:16,er6)
  4002d6:	40 16       	bra	.+22 (0x4002ee)

004002d8 <.L3>:
/home/interrupt.c:10 (discriminator 3)
    softvec_setintr(type, NULL);
  4002d8:	6f 62 ff fe 	mov.w	@(0xfffe:16,er6),r2
  4002dc:	1a 91       	sub.l	er1,er1
  4002de:	0d 20       	mov.w	r2,r0
  4002e0:	5e 40 03 04 	jsr	@0x400304:24

004002e4 <.LM4>:
/home/interrupt.c:9
  for (type = 0; type < SOFTVEC_TYPE_NUM; type++)
  4002e4:	6f 62 ff fe 	mov.w	@(0xfffe:16,er6),r2
  4002e8:	0b 02       	adds	#1,er2
  4002ea:	6f e2 ff fe 	mov.w	r2,@(0xfffe:16,er6)

004002ee <.L2>:
/home/interrupt.c:9 (discriminator 1)
  4002ee:	6f 62 ff fe 	mov.w	@(0xfffe:16,er6),r2
  4002f2:	79 22 00 04 	cmp.w	#0x4,r2
  4002f6:	4f e0       	ble	.-32 (0x4002d8)

004002f8 <.LM6>:
/home/interrupt.c:11
  return 0;
  4002f8:	19 22       	sub.w	r2,r2

004002fa <.LM7>:
/home/interrupt.c:12
}
  4002fa:	0d 20       	mov.w	r2,r0
  4002fc:	0b 97       	adds	#4,er7
  4002fe:	01 00 6d 76 	mov.l	@er7+,er6
  400302:	54 70       	rts	

00400304 <_softvec_setintr>:
softvec_setintr():
/home/interrupt.c:16

/* ソフトウエア・割込みベクタの設定 */
int softvec_setintr(softvec_type_t type, softvec_handler_t handler)
{
  400304:	01 00 6d f6 	mov.l	er6,@-er7
  400308:	0f f6       	mov.l	er7,er6
  40030a:	7a 37 00 00 	sub.l	#0x8,er7
  40030e:	00 08 
  400310:	6f e0 ff fe 	mov.w	r0,@(0xfffe:16,er6)
  400314:	01 00 6f e1 	mov.l	er1,@(0xfff8:16,er6)
  400318:	ff f8 

0040031a <.LM9>:
/home/interrupt.c:17
  SOFTVECS[type] = handler;
  40031a:	6f 62 ff fe 	mov.w	@(0xfffe:16,er6),r2
  40031e:	17 f2       	exts.l	er2
  400320:	10 32       	shll.l	er2
  400322:	10 32       	shll.l	er2
  400324:	7a 12 00 ff 	add.l	#0xffbf20,er2
  400328:	bf 20 
  40032a:	01 00 6f 63 	mov.l	@(0xfff8:16,er6),er3
  40032e:	ff f8 
  400330:	01 00 69 a3 	mov.l	er3,@er2

00400334 <.LM10>:
/home/interrupt.c:18
  return 0;
  400334:	19 22       	sub.w	r2,r2

00400336 <.LM11>:
/home/interrupt.c:19
}
  400336:	0d 20       	mov.w	r2,r0
  400338:	0b 97       	adds	#4,er7
  40033a:	0b 97       	adds	#4,er7
  40033c:	01 00 6d 76 	mov.l	@er7+,er6
  400340:	54 70       	rts	

00400342 <_interrupt>:
interrupt():
/home/interrupt.c:26
/*
 * 共通割込みハンドラ．
 * ソフトウエア・割込みベクタを見て，各ハンドラに分岐する．
 */
void interrupt(softvec_type_t type, unsigned long sp)
{
  400342:	01 00 6d f6 	mov.l	er6,@-er7
  400346:	0f f6       	mov.l	er7,er6
  400348:	7a 37 00 00 	sub.l	#0xc,er7
  40034c:	00 0c 
  40034e:	6f e0 ff fa 	mov.w	r0,@(0xfffa:16,er6)
  400352:	01 00 6f e1 	mov.l	er1,@(0xfff4:16,er6)
  400356:	ff f4 

00400358 <.LM13>:
/home/interrupt.c:27
  softvec_handler_t handler = SOFTVECS[type];
  400358:	6f 62 ff fa 	mov.w	@(0xfffa:16,er6),r2
  40035c:	17 f2       	exts.l	er2
  40035e:	10 32       	shll.l	er2
  400360:	10 32       	shll.l	er2
  400362:	7a 12 00 ff 	add.l	#0xffbf20,er2
  400366:	bf 20 
  400368:	01 00 69 22 	mov.l	@er2,er2
  40036c:	01 00 6f e2 	mov.l	er2,@(0xfffc:16,er6)
  400370:	ff fc 

00400372 <.LM14>:
/home/interrupt.c:28
  if (handler)
  400372:	01 00 6f 62 	mov.l	@(0xfffc:16,er6),er2
  400376:	ff fc 
  400378:	0f a2       	mov.l	er2,er2
  40037a:	47 16       	beq	.+22 (0x400392)

0040037c <.LM15>:
/home/interrupt.c:29
    handler(type, sp);
  40037c:	01 00 6f 60 	mov.l	@(0xfff4:16,er6),er0
  400380:	ff f4 
  400382:	6f 63 ff fa 	mov.w	@(0xfffa:16,er6),r3
  400386:	01 00 6f 62 	mov.l	@(0xfffc:16,er6),er2
  40038a:	ff fc 
  40038c:	0f 81       	mov.l	er0,er1
  40038e:	0d 30       	mov.w	r3,r0
  400390:	5d 20       	jsr	@er2

00400392 <.L9>:
/home/interrupt.c:30
}
  400392:	00 00       	nop	
  400394:	7a 17 00 00 	add.l	#0xc,er7
  400398:	00 0c 
  40039a:	01 00 6d 76 	mov.l	@er7+,er6
  40039e:	54 70       	rts	

004003a0 <_memset>:
memset():
/home/lib.c:6
#include "defines.h"
#include "serial.h"
#include "lib.h"

void *memset(void *b, int c, long len)
{
  4003a0:	01 00 6d f6 	mov.l	er6,@-er7
  4003a4:	0f f6       	mov.l	er7,er6
  4003a6:	7a 37 00 00 	sub.l	#0x10,er7
  4003aa:	00 10 
  4003ac:	01 00 6f e0 	mov.l	er0,@(0xfff8:16,er6)
  4003b0:	ff f8 
  4003b2:	6f e1 ff f6 	mov.w	r1,@(0xfff6:16,er6)
  4003b6:	01 00 6f e2 	mov.l	er2,@(0xfff0:16,er6)
  4003ba:	ff f0 

004003bc <.LM2>:
/home/lib.c:8
  char *p;
  for (p = b; len > 0; len--)
  4003bc:	01 00 6f 62 	mov.l	@(0xfff8:16,er6),er2
  4003c0:	ff f8 
  4003c2:	01 00 6f e2 	mov.l	er2,@(0xfffc:16,er6)
  4003c6:	ff fc 
  4003c8:	40 24       	bra	.+36 (0x4003ee)

004003ca <.L3>:
/home/lib.c:9 (discriminator 3)
    *(p++) = c;
  4003ca:	01 00 6f 62 	mov.l	@(0xfffc:16,er6),er2
  4003ce:	ff fc 
  4003d0:	0f a3       	mov.l	er2,er3
  4003d2:	0b 03       	adds	#1,er3
  4003d4:	01 00 6f e3 	mov.l	er3,@(0xfffc:16,er6)
  4003d8:	ff fc 
  4003da:	6f 63 ff f6 	mov.w	@(0xfff6:16,er6),r3
  4003de:	68 ab       	mov.b	r3l,@er2

004003e0 <.LM4>:
/home/lib.c:8
  for (p = b; len > 0; len--)
  4003e0:	01 00 6f 62 	mov.l	@(0xfff0:16,er6),er2
  4003e4:	ff f0 
  4003e6:	1b 02       	subs	#1,er2
  4003e8:	01 00 6f e2 	mov.l	er2,@(0xfff0:16,er6)
  4003ec:	ff f0 

004003ee <.L2>:
/home/lib.c:8 (discriminator 1)
  4003ee:	01 00 6f 62 	mov.l	@(0xfff0:16,er6),er2
  4003f2:	ff f0 
  4003f4:	0f a2       	mov.l	er2,er2
  4003f6:	4e d2       	bgt	.-46 (0x4003ca)

004003f8 <.LM6>:
/home/lib.c:10
  return b;
  4003f8:	01 00 6f 62 	mov.l	@(0xfff8:16,er6),er2
  4003fc:	ff f8 

004003fe <.LM7>:
/home/lib.c:11
}
  4003fe:	0f a0       	mov.l	er2,er0
  400400:	7a 17 00 00 	add.l	#0x10,er7
  400404:	00 10 
  400406:	01 00 6d 76 	mov.l	@er7+,er6
  40040a:	54 70       	rts	

0040040c <_memcpy>:
memcpy():
/home/lib.c:14

void *memcpy(void *dst, const void *src, long len)
{
  40040c:	01 00 6d f6 	mov.l	er6,@-er7
  400410:	0f f6       	mov.l	er7,er6
  400412:	7a 37 00 00 	sub.l	#0x14,er7
  400416:	00 14 
  400418:	01 00 6f e0 	mov.l	er0,@(0xfff4:16,er6)
  40041c:	ff f4 
  40041e:	01 00 6f e1 	mov.l	er1,@(0xfff0:16,er6)
  400422:	ff f0 
  400424:	01 00 6f e2 	mov.l	er2,@(0xffec:16,er6)
  400428:	ff ec 

0040042a <.LM9>:
/home/lib.c:15
  char *d = dst;
  40042a:	01 00 6f 62 	mov.l	@(0xfff4:16,er6),er2
  40042e:	ff f4 
  400430:	01 00 6f e2 	mov.l	er2,@(0xfffc:16,er6)
  400434:	ff fc 

00400436 <.LM10>:
/home/lib.c:16
  const char *s = src;
  400436:	01 00 6f 62 	mov.l	@(0xfff0:16,er6),er2
  40043a:	ff f0 
  40043c:	01 00 6f e2 	mov.l	er2,@(0xfff8:16,er6)
  400440:	ff f8 

00400442 <.LM11>:
/home/lib.c:17
  for (; len > 0; len--)
  400442:	40 32       	bra	.+50 (0x400476)

00400444 <.L7>:
/home/lib.c:18 (discriminator 2)
    *(d++) = *(s++);
  400444:	01 00 6f 63 	mov.l	@(0xfff8:16,er6),er3
  400448:	ff f8 
  40044a:	0f b2       	mov.l	er3,er2
  40044c:	0b 02       	adds	#1,er2
  40044e:	01 00 6f e2 	mov.l	er2,@(0xfff8:16,er6)
  400452:	ff f8 
  400454:	01 00 6f 62 	mov.l	@(0xfffc:16,er6),er2
  400458:	ff fc 
  40045a:	0f a0       	mov.l	er2,er0
  40045c:	0b 00       	adds	#1,er0
  40045e:	01 00 6f e0 	mov.l	er0,@(0xfffc:16,er6)
  400462:	ff fc 
  400464:	68 3b       	mov.b	@er3,r3l
  400466:	68 ab       	mov.b	r3l,@er2

00400468 <.LM13>:
/home/lib.c:17
  for (; len > 0; len--)
  400468:	01 00 6f 62 	mov.l	@(0xffec:16,er6),er2
  40046c:	ff ec 
  40046e:	1b 02       	subs	#1,er2
  400470:	01 00 6f e2 	mov.l	er2,@(0xffec:16,er6)
  400474:	ff ec 

00400476 <.L6>:
/home/lib.c:17 (discriminator 1)
  400476:	01 00 6f 62 	mov.l	@(0xffec:16,er6),er2
  40047a:	ff ec 
  40047c:	0f a2       	mov.l	er2,er2
  40047e:	4e c4       	bgt	.-60 (0x400444)

00400480 <.LM15>:
/home/lib.c:19
  return dst;
  400480:	01 00 6f 62 	mov.l	@(0xfff4:16,er6),er2
  400484:	ff f4 

00400486 <.LM16>:
/home/lib.c:20
}
  400486:	0f a0       	mov.l	er2,er0
  400488:	7a 17 00 00 	add.l	#0x14,er7
  40048c:	00 14 
  40048e:	01 00 6d 76 	mov.l	@er7+,er6
  400492:	54 70       	rts	

00400494 <_memcmp>:
memcmp():
/home/lib.c:23

int memcmp(const void *b1, const void *b2, long len)
{
  400494:	01 00 6d f6 	mov.l	er6,@-er7
  400498:	0f f6       	mov.l	er7,er6
  40049a:	7a 37 00 00 	sub.l	#0x14,er7
  40049e:	00 14 
  4004a0:	01 00 6f e0 	mov.l	er0,@(0xfff4:16,er6)
  4004a4:	ff f4 
  4004a6:	01 00 6f e1 	mov.l	er1,@(0xfff0:16,er6)
  4004aa:	ff f0 
  4004ac:	01 00 6f e2 	mov.l	er2,@(0xffec:16,er6)
  4004b0:	ff ec 

004004b2 <.LM18>:
/home/lib.c:24
  const char *p1 = b1, *p2 = b2;
  4004b2:	01 00 6f 62 	mov.l	@(0xfff4:16,er6),er2
  4004b6:	ff f4 
  4004b8:	01 00 6f e2 	mov.l	er2,@(0xfffc:16,er6)
  4004bc:	ff fc 
  4004be:	01 00 6f 62 	mov.l	@(0xfff0:16,er6),er2
  4004c2:	ff f0 
  4004c4:	01 00 6f e2 	mov.l	er2,@(0xfff8:16,er6)
  4004c8:	ff f8 

004004ca <.LM19>:
/home/lib.c:25
  for (; len > 0; len--) {
  4004ca:	40 5e       	bra	.+94 (0x40052a)

004004cc <.L15>:
/home/lib.c:26
    if (*p1 != *p2)
  4004cc:	01 00 6f 62 	mov.l	@(0xfffc:16,er6),er2
  4004d0:	ff fc 
  4004d2:	68 2b       	mov.b	@er2,r3l
  4004d4:	01 00 6f 62 	mov.l	@(0xfff8:16,er6),er2
  4004d8:	ff f8 
  4004da:	68 2a       	mov.b	@er2,r2l
  4004dc:	1c ab       	cmp.b	r2l,r3l
  4004de:	47 20       	beq	.+32 (0x400500)

004004e0 <.LM21>:
/home/lib.c:27
      return (*p1 > *p2) ? 1 : -1;
  4004e0:	01 00 6f 62 	mov.l	@(0xfffc:16,er6),er2
  4004e4:	ff fc 
  4004e6:	68 2b       	mov.b	@er2,r3l
  4004e8:	01 00 6f 62 	mov.l	@(0xfff8:16,er6),er2
  4004ec:	ff f8 
  4004ee:	68 2a       	mov.b	@er2,r2l
  4004f0:	1c ab       	cmp.b	r2l,r3l
  4004f2:	43 06       	bls	.+6 (0x4004fa)

004004f4 <.LM22>:
/home/lib.c:27 (discriminator 1)
  4004f4:	79 02 00 01 	mov.w	#0x1,r2
  4004f8:	40 3c       	bra	.+60 (0x400536)

004004fa <.L12>:
/home/lib.c:27 (discriminator 2)
  4004fa:	79 02 ff ff 	mov.w	#0xffff,r2
  4004fe:	40 36       	bra	.+54 (0x400536)

00400500 <.L11>:
/home/lib.c:28
    p1++;
  400500:	01 00 6f 62 	mov.l	@(0xfffc:16,er6),er2
  400504:	ff fc 
  400506:	0b 02       	adds	#1,er2
  400508:	01 00 6f e2 	mov.l	er2,@(0xfffc:16,er6)
  40050c:	ff fc 

0040050e <.LM25>:
/home/lib.c:29
    p2++;
  40050e:	01 00 6f 62 	mov.l	@(0xfff8:16,er6),er2
  400512:	ff f8 
  400514:	0b 02       	adds	#1,er2
  400516:	01 00 6f e2 	mov.l	er2,@(0xfff8:16,er6)
  40051a:	ff f8 

0040051c <.LM26>:
/home/lib.c:25
  for (; len > 0; len--) {
  40051c:	01 00 6f 62 	mov.l	@(0xffec:16,er6),er2
  400520:	ff ec 
  400522:	1b 02       	subs	#1,er2
  400524:	01 00 6f e2 	mov.l	er2,@(0xffec:16,er6)
  400528:	ff ec 

0040052a <.L10>:
/home/lib.c:25 (discriminator 1)
  40052a:	01 00 6f 62 	mov.l	@(0xffec:16,er6),er2
  40052e:	ff ec 
  400530:	0f a2       	mov.l	er2,er2
  400532:	4e 98       	bgt	.-104 (0x4004cc)

00400534 <.LM28>:
/home/lib.c:31
  }
  return 0;
  400534:	19 22       	sub.w	r2,r2

00400536 <.L14>:
/home/lib.c:32
}
  400536:	0d 20       	mov.w	r2,r0
  400538:	7a 17 00 00 	add.l	#0x14,er7
  40053c:	00 14 
  40053e:	01 00 6d 76 	mov.l	@er7+,er6
  400542:	54 70       	rts	

00400544 <_strlen>:
strlen():
/home/lib.c:35

int strlen(const char *s)
{
  400544:	01 00 6d f6 	mov.l	er6,@-er7
  400548:	0f f6       	mov.l	er7,er6
  40054a:	7a 37 00 00 	sub.l	#0x8,er7
  40054e:	00 08 
  400550:	01 00 6f e0 	mov.l	er0,@(0xfff8:16,er6)
  400554:	ff f8 

00400556 <.LM31>:
/home/lib.c:37
  int len;
  for (len = 0; *s; s++, len++)
  400556:	19 22       	sub.w	r2,r2
  400558:	6f e2 ff fe 	mov.w	r2,@(0xfffe:16,er6)
  40055c:	40 18       	bra	.+24 (0x400576)

0040055e <.L18>:
/home/lib.c:37 (discriminator 3)
  40055e:	01 00 6f 62 	mov.l	@(0xfff8:16,er6),er2
  400562:	ff f8 
  400564:	0b 02       	adds	#1,er2
  400566:	01 00 6f e2 	mov.l	er2,@(0xfff8:16,er6)
  40056a:	ff f8 
  40056c:	6f 62 ff fe 	mov.w	@(0xfffe:16,er6),r2
  400570:	0b 02       	adds	#1,er2
  400572:	6f e2 ff fe 	mov.w	r2,@(0xfffe:16,er6)

00400576 <.L17>:
/home/lib.c:37 (discriminator 1)
  400576:	01 00 6f 62 	mov.l	@(0xfff8:16,er6),er2
  40057a:	ff f8 
  40057c:	68 2a       	mov.b	@er2,r2l
  40057e:	0c aa       	mov.b	r2l,r2l
  400580:	46 dc       	bne	.-36 (0x40055e)

00400582 <.LM34>:
/home/lib.c:39
    ;
  return len;
  400582:	6f 62 ff fe 	mov.w	@(0xfffe:16,er6),r2

00400586 <.LM35>:
/home/lib.c:40
}
  400586:	0d 20       	mov.w	r2,r0
  400588:	0b 97       	adds	#4,er7
  40058a:	0b 97       	adds	#4,er7
  40058c:	01 00 6d 76 	mov.l	@er7+,er6
  400590:	54 70       	rts	

00400592 <_strcpy>:
strcpy():
/home/lib.c:43

char *strcpy(char *dst, const char *src)
{
  400592:	01 00 6d f6 	mov.l	er6,@-er7
  400596:	0f f6       	mov.l	er7,er6
  400598:	7a 37 00 00 	sub.l	#0xc,er7
  40059c:	00 0c 
  40059e:	01 00 6f e0 	mov.l	er0,@(0xfff8:16,er6)
  4005a2:	ff f8 
  4005a4:	01 00 6f e1 	mov.l	er1,@(0xfff4:16,er6)
  4005a8:	ff f4 

004005aa <.LM37>:
/home/lib.c:44
  char *d = dst;
  4005aa:	01 00 6f 62 	mov.l	@(0xfff8:16,er6),er2
  4005ae:	ff f8 
  4005b0:	01 00 6f e2 	mov.l	er2,@(0xfffc:16,er6)
  4005b4:	ff fc 

004005b6 <.L23>:
/home/lib.c:46
  for (;; dst++, src++) {
    *dst = *src;
  4005b6:	01 00 6f 62 	mov.l	@(0xfff4:16,er6),er2
  4005ba:	ff f4 
  4005bc:	68 2b       	mov.b	@er2,r3l
  4005be:	01 00 6f 62 	mov.l	@(0xfff8:16,er6),er2
  4005c2:	ff f8 
  4005c4:	68 ab       	mov.b	r3l,@er2

004005c6 <.LM39>:
/home/lib.c:47
    if (!*src) break;
  4005c6:	01 00 6f 62 	mov.l	@(0xfff4:16,er6),er2
  4005ca:	ff f4 
  4005cc:	68 2a       	mov.b	@er2,r2l
  4005ce:	0c aa       	mov.b	r2l,r2l
  4005d0:	47 1e       	beq	.+30 (0x4005f0)

004005d2 <.LM40>:
/home/lib.c:45
  for (;; dst++, src++) {
  4005d2:	01 00 6f 62 	mov.l	@(0xfff8:16,er6),er2
  4005d6:	ff f8 
  4005d8:	0b 02       	adds	#1,er2
  4005da:	01 00 6f e2 	mov.l	er2,@(0xfff8:16,er6)
  4005de:	ff f8 
  4005e0:	01 00 6f 62 	mov.l	@(0xfff4:16,er6),er2
  4005e4:	ff f4 
  4005e6:	0b 02       	adds	#1,er2
  4005e8:	01 00 6f e2 	mov.l	er2,@(0xfff4:16,er6)
  4005ec:	ff f4 

004005ee <.LM41>:
/home/lib.c:46
    *dst = *src;
  4005ee:	40 c6       	bra	.-58 (0x4005b6)

004005f0 <.L26>:
	...

004005f2 <.LM43>:
/home/lib.c:49
  }
  return d;
  4005f2:	01 00 6f 62 	mov.l	@(0xfffc:16,er6),er2
  4005f6:	ff fc 

004005f8 <.LM44>:
/home/lib.c:50
}
  4005f8:	0f a0       	mov.l	er2,er0
  4005fa:	7a 17 00 00 	add.l	#0xc,er7
  4005fe:	00 0c 
  400600:	01 00 6d 76 	mov.l	@er7+,er6
  400604:	54 70       	rts	

00400606 <_strcmp>:
strcmp():
/home/lib.c:53

int strcmp(const char *s1, const char *s2)
{
  400606:	01 00 6d f6 	mov.l	er6,@-er7
  40060a:	0f f6       	mov.l	er7,er6
  40060c:	7a 37 00 00 	sub.l	#0x8,er7
  400610:	00 08 
  400612:	01 00 6f e0 	mov.l	er0,@(0xfffc:16,er6)
  400616:	ff fc 
  400618:	01 00 6f e1 	mov.l	er1,@(0xfff8:16,er6)
  40061c:	ff f8 

0040061e <.LM46>:
/home/lib.c:54
  while (*s1 || *s2) {
  40061e:	40 50       	bra	.+80 (0x400670)

00400620 <.L33>:
/home/lib.c:55
    if (*s1 != *s2)
  400620:	01 00 6f 62 	mov.l	@(0xfffc:16,er6),er2
  400624:	ff fc 
  400626:	68 2b       	mov.b	@er2,r3l
  400628:	01 00 6f 62 	mov.l	@(0xfff8:16,er6),er2
  40062c:	ff f8 
  40062e:	68 2a       	mov.b	@er2,r2l
  400630:	1c ab       	cmp.b	r2l,r3l
  400632:	47 20       	beq	.+32 (0x400654)

00400634 <.LM48>:
/home/lib.c:56
      return (*s1 > *s2) ? 1 : -1;
  400634:	01 00 6f 62 	mov.l	@(0xfffc:16,er6),er2
  400638:	ff fc 
  40063a:	68 2b       	mov.b	@er2,r3l
  40063c:	01 00 6f 62 	mov.l	@(0xfff8:16,er6),er2
  400640:	ff f8 
  400642:	68 2a       	mov.b	@er2,r2l
  400644:	1c ab       	cmp.b	r2l,r3l
  400646:	43 06       	bls	.+6 (0x40064e)

00400648 <.LM49>:
/home/lib.c:56 (discriminator 1)
  400648:	79 02 00 01 	mov.w	#0x1,r2
  40064c:	40 3c       	bra	.+60 (0x40068a)

0040064e <.L30>:
/home/lib.c:56 (discriminator 2)
  40064e:	79 02 ff ff 	mov.w	#0xffff,r2
  400652:	40 36       	bra	.+54 (0x40068a)

00400654 <.L29>:
/home/lib.c:57
    s1++;
  400654:	01 00 6f 62 	mov.l	@(0xfffc:16,er6),er2
  400658:	ff fc 
  40065a:	0b 02       	adds	#1,er2
  40065c:	01 00 6f e2 	mov.l	er2,@(0xfffc:16,er6)
  400660:	ff fc 

00400662 <.LM52>:
/home/lib.c:58
    s2++;
  400662:	01 00 6f 62 	mov.l	@(0xfff8:16,er6),er2
  400666:	ff f8 
  400668:	0b 02       	adds	#1,er2
  40066a:	01 00 6f e2 	mov.l	er2,@(0xfff8:16,er6)
  40066e:	ff f8 

00400670 <.L28>:
/home/lib.c:54
  while (*s1 || *s2) {
  400670:	01 00 6f 62 	mov.l	@(0xfffc:16,er6),er2
  400674:	ff fc 
  400676:	68 2a       	mov.b	@er2,r2l
  400678:	0c aa       	mov.b	r2l,r2l
  40067a:	46 a4       	bne	.-92 (0x400620)

0040067c <.LM54>:
/home/lib.c:54 (discriminator 1)
  40067c:	01 00 6f 62 	mov.l	@(0xfff8:16,er6),er2
  400680:	ff f8 
  400682:	68 2a       	mov.b	@er2,r2l
  400684:	0c aa       	mov.b	r2l,r2l
  400686:	46 98       	bne	.-104 (0x400620)

00400688 <.LM55>:
/home/lib.c:60
  }
  return 0;
  400688:	19 22       	sub.w	r2,r2

0040068a <.L32>:
/home/lib.c:61
}
  40068a:	0d 20       	mov.w	r2,r0
  40068c:	0b 97       	adds	#4,er7
  40068e:	0b 97       	adds	#4,er7
  400690:	01 00 6d 76 	mov.l	@er7+,er6
  400694:	54 70       	rts	

00400696 <_strncmp>:
strncmp():
/home/lib.c:64

int strncmp(const char *s1, const char *s2, int len)
{
  400696:	01 00 6d f6 	mov.l	er6,@-er7
  40069a:	0f f6       	mov.l	er7,er6
  40069c:	7a 37 00 00 	sub.l	#0xc,er7
  4006a0:	00 0c 
  4006a2:	01 00 6f e0 	mov.l	er0,@(0xfffc:16,er6)
  4006a6:	ff fc 
  4006a8:	01 00 6f e1 	mov.l	er1,@(0xfff8:16,er6)
  4006ac:	ff f8 
  4006ae:	6f e2 ff f6 	mov.w	r2,@(0xfff6:16,er6)

004006b2 <.LM58>:
/home/lib.c:65
  while ((*s1 || *s2) && (len > 0)) {
  4006b2:	40 5a       	bra	.+90 (0x40070e)

004006b4 <.L42>:
/home/lib.c:66
    if (*s1 != *s2)
  4006b4:	01 00 6f 62 	mov.l	@(0xfffc:16,er6),er2
  4006b8:	ff fc 
  4006ba:	68 2b       	mov.b	@er2,r3l
  4006bc:	01 00 6f 62 	mov.l	@(0xfff8:16,er6),er2
  4006c0:	ff f8 
  4006c2:	68 2a       	mov.b	@er2,r2l
  4006c4:	1c ab       	cmp.b	r2l,r3l
  4006c6:	47 20       	beq	.+32 (0x4006e8)

004006c8 <.LM60>:
/home/lib.c:67
      return (*s1 > *s2) ? 1 : -1;
  4006c8:	01 00 6f 62 	mov.l	@(0xfffc:16,er6),er2
  4006cc:	ff fc 
  4006ce:	68 2b       	mov.b	@er2,r3l
  4006d0:	01 00 6f 62 	mov.l	@(0xfff8:16,er6),er2
  4006d4:	ff f8 
  4006d6:	68 2a       	mov.b	@er2,r2l
  4006d8:	1c ab       	cmp.b	r2l,r3l
  4006da:	43 06       	bls	.+6 (0x4006e2)

004006dc <.LM61>:
/home/lib.c:67 (discriminator 1)
  4006dc:	79 02 00 01 	mov.w	#0x1,r2
  4006e0:	40 4e       	bra	.+78 (0x400730)

004006e2 <.L37>:
/home/lib.c:67 (discriminator 2)
  4006e2:	79 02 ff ff 	mov.w	#0xffff,r2
  4006e6:	40 48       	bra	.+72 (0x400730)

004006e8 <.L36>:
/home/lib.c:68
    s1++;
  4006e8:	01 00 6f 62 	mov.l	@(0xfffc:16,er6),er2
  4006ec:	ff fc 
  4006ee:	0b 02       	adds	#1,er2
  4006f0:	01 00 6f e2 	mov.l	er2,@(0xfffc:16,er6)
  4006f4:	ff fc 

004006f6 <.LM64>:
/home/lib.c:69
    s2++;
  4006f6:	01 00 6f 62 	mov.l	@(0xfff8:16,er6),er2
  4006fa:	ff f8 
  4006fc:	0b 02       	adds	#1,er2
  4006fe:	01 00 6f e2 	mov.l	er2,@(0xfff8:16,er6)
  400702:	ff f8 

00400704 <.LM65>:
/home/lib.c:70
    len--;
  400704:	6f 62 ff f6 	mov.w	@(0xfff6:16,er6),r2
  400708:	1b 02       	subs	#1,er2
  40070a:	6f e2 ff f6 	mov.w	r2,@(0xfff6:16,er6)

0040070e <.L35>:
/home/lib.c:65
  while ((*s1 || *s2) && (len > 0)) {
  40070e:	01 00 6f 62 	mov.l	@(0xfffc:16,er6),er2
  400712:	ff fc 
  400714:	68 2a       	mov.b	@er2,r2l
  400716:	0c aa       	mov.b	r2l,r2l
  400718:	46 0c       	bne	.+12 (0x400726)

0040071a <.LM67>:
/home/lib.c:65 (discriminator 2)
  40071a:	01 00 6f 62 	mov.l	@(0xfff8:16,er6),er2
  40071e:	ff f8 
  400720:	68 2a       	mov.b	@er2,r2l
  400722:	0c aa       	mov.b	r2l,r2l
  400724:	47 08       	beq	.+8 (0x40072e)

00400726 <.L40>:
/home/lib.c:65 (discriminator 3)
  400726:	6f 62 ff f6 	mov.w	@(0xfff6:16,er6),r2
  40072a:	0d 22       	mov.w	r2,r2
  40072c:	4e 86       	bgt	.-122 (0x4006b4)

0040072e <.L41>:
/home/lib.c:72
  }
  return 0;
  40072e:	19 22       	sub.w	r2,r2

00400730 <.L39>:
/home/lib.c:73
}
  400730:	0d 20       	mov.w	r2,r0
  400732:	7a 17 00 00 	add.l	#0xc,er7
  400736:	00 0c 
  400738:	01 00 6d 76 	mov.l	@er7+,er6
  40073c:	54 70       	rts	

0040073e <_putc>:
putc():
/home/lib.c:77

/* １文字送信 */
int putc(unsigned char c)
{
  40073e:	01 00 6d f6 	mov.l	er6,@-er7
  400742:	0f f6       	mov.l	er7,er6
  400744:	1b 97       	subs	#4,er7
  400746:	6e e8 ff ff 	mov.b	r0l,@(0xffff:16,er6)

0040074a <.LM72>:
/home/lib.c:78
  if (c == '\n')
  40074a:	6e 6a ff ff 	mov.b	@(0xffff:16,er6),r2l
  40074e:	aa 0a       	cmp.b	#0xa,r2l
  400750:	46 0a       	bne	.+10 (0x40075c)

00400752 <.LM73>:
/home/lib.c:79
    serial_send_byte(SERIAL_DEFAULT_DEVICE, '\r');
  400752:	f9 0d       	mov.b	#0xd,r1l
  400754:	79 00 00 01 	mov.w	#0x1,r0
  400758:	5e 40 09 ea 	jsr	@0x4009ea:24

0040075c <.L44>:
/home/lib.c:80
  return serial_send_byte(SERIAL_DEFAULT_DEVICE, c);
  40075c:	6e 6a ff ff 	mov.b	@(0xffff:16,er6),r2l
  400760:	0c a9       	mov.b	r2l,r1l
  400762:	79 00 00 01 	mov.w	#0x1,r0
  400766:	5e 40 09 ea 	jsr	@0x4009ea:24
  40076a:	0d 02       	mov.w	r0,r2

0040076c <.LM75>:
/home/lib.c:81
}
  40076c:	0d 20       	mov.w	r2,r0
  40076e:	0b 97       	adds	#4,er7
  400770:	01 00 6d 76 	mov.l	@er7+,er6
  400774:	54 70       	rts	

00400776 <_getc>:
getc():
/home/lib.c:85

/* １文字受信 */
unsigned char getc(void)
{
  400776:	01 00 6d f6 	mov.l	er6,@-er7
  40077a:	0f f6       	mov.l	er7,er6
  40077c:	1b 97       	subs	#4,er7

0040077e <.LM77>:
/home/lib.c:86
  unsigned char c = serial_recv_byte(SERIAL_DEFAULT_DEVICE);
  40077e:	79 00 00 01 	mov.w	#0x1,r0
  400782:	5e 40 0a a4 	jsr	@0x400aa4:24
  400786:	6e e8 ff ff 	mov.b	r0l,@(0xffff:16,er6)

0040078a <.LM78>:
/home/lib.c:87
  c = (c == '\r') ? '\n' : c;
  40078a:	6e 6a ff ff 	mov.b	@(0xffff:16,er6),r2l
  40078e:	aa 0d       	cmp.b	#0xd,r2l
  400790:	47 06       	beq	.+6 (0x400798)

00400792 <.LM79>:
/home/lib.c:87 (discriminator 1)
  400792:	6e 6a ff ff 	mov.b	@(0xffff:16,er6),r2l
  400796:	40 02       	bra	.+2 (0x40079a)

00400798 <.L47>:
/home/lib.c:87 (discriminator 2)
  400798:	fa 0a       	mov.b	#0xa,r2l

0040079a <.L48>:
/home/lib.c:87 (discriminator 4)
  40079a:	6e ea ff ff 	mov.b	r2l,@(0xffff:16,er6)

0040079e <.LM82>:
/home/lib.c:88
  putc(c); /* エコー・バック */
  40079e:	6e 6a ff ff 	mov.b	@(0xffff:16,er6),r2l
  4007a2:	0c a8       	mov.b	r2l,r0l
  4007a4:	5e 40 07 3e 	jsr	@0x40073e:24

004007a8 <.LM83>:
/home/lib.c:89
  return c;
  4007a8:	6e 6a ff ff 	mov.b	@(0xffff:16,er6),r2l

004007ac <.LM84>:
/home/lib.c:90
}
  4007ac:	0c a8       	mov.b	r2l,r0l
  4007ae:	0b 97       	adds	#4,er7
  4007b0:	01 00 6d 76 	mov.l	@er7+,er6
  4007b4:	54 70       	rts	

004007b6 <_puts>:
puts():
/home/lib.c:94

/* 文字列送信 */
int puts(unsigned char *str)
{
  4007b6:	01 00 6d f6 	mov.l	er6,@-er7
  4007ba:	0f f6       	mov.l	er7,er6
  4007bc:	1b 97       	subs	#4,er7
  4007be:	01 00 6f e0 	mov.l	er0,@(0xfffc:16,er6)
  4007c2:	ff fc 

004007c4 <.LM86>:
/home/lib.c:95
  while (*str)
  4007c4:	40 18       	bra	.+24 (0x4007de)

004007c6 <.L52>:
/home/lib.c:96
    putc(*(str++));
  4007c6:	01 00 6f 62 	mov.l	@(0xfffc:16,er6),er2
  4007ca:	ff fc 
  4007cc:	0f a3       	mov.l	er2,er3
  4007ce:	0b 03       	adds	#1,er3
  4007d0:	01 00 6f e3 	mov.l	er3,@(0xfffc:16,er6)
  4007d4:	ff fc 
  4007d6:	68 2a       	mov.b	@er2,r2l
  4007d8:	0c a8       	mov.b	r2l,r0l
  4007da:	5e 40 07 3e 	jsr	@0x40073e:24

004007de <.L51>:
/home/lib.c:95
  while (*str)
  4007de:	01 00 6f 62 	mov.l	@(0xfffc:16,er6),er2
  4007e2:	ff fc 
  4007e4:	68 2a       	mov.b	@er2,r2l
  4007e6:	0c aa       	mov.b	r2l,r2l
  4007e8:	46 dc       	bne	.-36 (0x4007c6)

004007ea <.LM89>:
/home/lib.c:97
  return 0;
  4007ea:	19 22       	sub.w	r2,r2

004007ec <.LM90>:
/home/lib.c:98
}
  4007ec:	0d 20       	mov.w	r2,r0
  4007ee:	0b 97       	adds	#4,er7
  4007f0:	01 00 6d 76 	mov.l	@er7+,er6
  4007f4:	54 70       	rts	

004007f6 <_gets>:
gets():
/home/lib.c:102

/* 文字列受信 */
int gets(unsigned char *buf)
{
  4007f6:	01 00 6d f6 	mov.l	er6,@-er7
  4007fa:	0f f6       	mov.l	er7,er6
  4007fc:	7a 37 00 00 	sub.l	#0x8,er7
  400800:	00 08 
  400802:	01 00 6f e0 	mov.l	er0,@(0xfff8:16,er6)
  400806:	ff f8 

00400808 <.LM92>:
/home/lib.c:103
  int i = 0;
  400808:	19 22       	sub.w	r2,r2
  40080a:	6f e2 ff fe 	mov.w	r2,@(0xfffe:16,er6)

0040080e <.L56>:
/home/lib.c:106
  unsigned char c;
  do {
    c = getc();
  40080e:	5e 40 07 76 	jsr	@0x400776:24
  400812:	6e e8 ff fd 	mov.b	r0l,@(0xfffd:16,er6)

00400816 <.LM94>:
/home/lib.c:107
    if (c == '\n')
  400816:	6e 6a ff fd 	mov.b	@(0xfffd:16,er6),r2l
  40081a:	aa 0a       	cmp.b	#0xa,r2l
  40081c:	46 06       	bne	.+6 (0x400824)

0040081e <.LM95>:
/home/lib.c:108
      c = '\0';
  40081e:	18 aa       	sub.b	r2l,r2l
  400820:	6e ea ff fd 	mov.b	r2l,@(0xfffd:16,er6)

00400824 <.L55>:
/home/lib.c:109
    buf[i++] = c;
  400824:	6f 62 ff fe 	mov.w	@(0xfffe:16,er6),r2
  400828:	0d 23       	mov.w	r2,r3
  40082a:	0b 03       	adds	#1,er3
  40082c:	6f e3 ff fe 	mov.w	r3,@(0xfffe:16,er6)
  400830:	17 f2       	exts.l	er2
  400832:	01 00 6f 63 	mov.l	@(0xfff8:16,er6),er3
  400836:	ff f8 
  400838:	0a b2       	add.l	er3,er2
  40083a:	6e 6b ff fd 	mov.b	@(0xfffd:16,er6),r3l
  40083e:	68 ab       	mov.b	r3l,@er2

00400840 <.LM97>:
/home/lib.c:110
  } while (c);
  400840:	6e 6a ff fd 	mov.b	@(0xfffd:16,er6),r2l
  400844:	0c aa       	mov.b	r2l,r2l
  400846:	46 c6       	bne	.-58 (0x40080e)

00400848 <.LM98>:
/home/lib.c:111
  return i - 1;
  400848:	6f 62 ff fe 	mov.w	@(0xfffe:16,er6),r2
  40084c:	1b 02       	subs	#1,er2

0040084e <.LM99>:
/home/lib.c:112
}
  40084e:	0d 20       	mov.w	r2,r0
  400850:	0b 97       	adds	#4,er7
  400852:	0b 97       	adds	#4,er7
  400854:	01 00 6d 76 	mov.l	@er7+,er6
  400858:	54 70       	rts	

0040085a <_putxval>:
putxval():
/home/lib.c:116

/* 数値の16進表示 */
int putxval(unsigned long value, int column)
{
  40085a:	01 00 6d f6 	mov.l	er6,@-er7
  40085e:	0f f6       	mov.l	er7,er6
  400860:	7a 37 00 00 	sub.l	#0x18,er7
  400864:	00 18 
  400866:	01 00 6f e0 	mov.l	er0,@(0xffec:16,er6)
  40086a:	ff ec 
  40086c:	6f e1 ff ea 	mov.w	r1,@(0xffea:16,er6)

00400870 <.LM101>:
/home/lib.c:120
  char buf[9];
  char *p;

  p = buf + sizeof(buf) - 1;
  400870:	0f e2       	mov.l	er6,er2
  400872:	7a 32 00 00 	sub.l	#0xd,er2
  400876:	00 0d 
  400878:	0b 92       	adds	#4,er2
  40087a:	0b 92       	adds	#4,er2
  40087c:	01 00 6f e2 	mov.l	er2,@(0xfffc:16,er6)
  400880:	ff fc 

00400882 <.LM102>:
/home/lib.c:121
  *(p--) = '\0';
  400882:	01 00 6f 62 	mov.l	@(0xfffc:16,er6),er2
  400886:	ff fc 
  400888:	0f a3       	mov.l	er2,er3
  40088a:	1b 03       	subs	#1,er3
  40088c:	01 00 6f e3 	mov.l	er3,@(0xfffc:16,er6)
  400890:	ff fc 
  400892:	18 bb       	sub.b	r3l,r3l
  400894:	68 ab       	mov.b	r3l,@er2

00400896 <.LM103>:
/home/lib.c:123

  if (!value && !column)
  400896:	01 00 6f 62 	mov.l	@(0xffec:16,er6),er2
  40089a:	ff ec 
  40089c:	0f a2       	mov.l	er2,er2
  40089e:	46 62       	bne	.+98 (0x400902)

004008a0 <.LM104>:
/home/lib.c:123 (discriminator 1)
  4008a0:	6f 62 ff ea 	mov.w	@(0xffea:16,er6),r2
  4008a4:	0d 22       	mov.w	r2,r2
  4008a6:	46 5a       	bne	.+90 (0x400902)

004008a8 <.LM105>:
/home/lib.c:124
    column++;
  4008a8:	6f 62 ff ea 	mov.w	@(0xffea:16,er6),r2
  4008ac:	0b 02       	adds	#1,er2
  4008ae:	6f e2 ff ea 	mov.w	r2,@(0xffea:16,er6)

004008b2 <.LM106>:
/home/lib.c:126

  while (value || column) {
  4008b2:	40 4e       	bra	.+78 (0x400902)

004008b4 <.L61>:
/home/lib.c:127
    *(p--) = "0123456789abcdef"[value & 0xf];
  4008b4:	01 00 6f 62 	mov.l	@(0xffec:16,er6),er2
  4008b8:	ff ec 
  4008ba:	0f a3       	mov.l	er2,er3
  4008bc:	7a 63 00 00 	and.l	#0xf,er3
  4008c0:	00 0f 
  4008c2:	01 00 6f 62 	mov.l	@(0xfffc:16,er6),er2
  4008c6:	ff fc 
  4008c8:	0f a0       	mov.l	er2,er0
  4008ca:	1b 00       	subs	#1,er0
  4008cc:	01 00 6f e0 	mov.l	er0,@(0xfffc:16,er6)
  4008d0:	ff fc 
  4008d2:	78 30 6a 2b 	mov.b	@(0x4040f7:32,er3),r3l
  4008d6:	00 40 40 f7 
  4008da:	68 ab       	mov.b	r3l,@er2

004008dc <.LM108>:
/home/lib.c:128
    value >>= 4;
  4008dc:	01 00 6f 62 	mov.l	@(0xffec:16,er6),er2
  4008e0:	ff ec 
  4008e2:	11 32       	shlr.l	er2
  4008e4:	11 32       	shlr.l	er2
  4008e6:	11 32       	shlr.l	er2
  4008e8:	11 32       	shlr.l	er2
  4008ea:	01 00 6f e2 	mov.l	er2,@(0xffec:16,er6)
  4008ee:	ff ec 

004008f0 <.LM109>:
/home/lib.c:129
    if (column) column--;
  4008f0:	6f 62 ff ea 	mov.w	@(0xffea:16,er6),r2
  4008f4:	0d 22       	mov.w	r2,r2
  4008f6:	47 0a       	beq	.+10 (0x400902)

004008f8 <.LM110>:
/home/lib.c:129 (discriminator 1)
  4008f8:	6f 62 ff ea 	mov.w	@(0xffea:16,er6),r2
  4008fc:	1b 02       	subs	#1,er2
  4008fe:	6f e2 ff ea 	mov.w	r2,@(0xffea:16,er6)

00400902 <.L60>:
/home/lib.c:126
  while (value || column) {
  400902:	01 00 6f 62 	mov.l	@(0xffec:16,er6),er2
  400906:	ff ec 
  400908:	0f a2       	mov.l	er2,er2
  40090a:	46 a8       	bne	.-88 (0x4008b4)

0040090c <.LM112>:
/home/lib.c:126 (discriminator 1)
  40090c:	6f 62 ff ea 	mov.w	@(0xffea:16,er6),r2
  400910:	0d 22       	mov.w	r2,r2
  400912:	46 a0       	bne	.-96 (0x4008b4)

00400914 <.LM113>:
/home/lib.c:132
  }

  puts(p + 1);
  400914:	01 00 6f 62 	mov.l	@(0xfffc:16,er6),er2
  400918:	ff fc 
  40091a:	0b 02       	adds	#1,er2
  40091c:	0f a0       	mov.l	er2,er0
  40091e:	5e 40 07 b6 	jsr	@0x4007b6:24

00400922 <.LM114>:
/home/lib.c:134

  return 0;
  400922:	19 22       	sub.w	r2,r2

00400924 <.LM115>:
/home/lib.c:135
}
  400924:	0d 20       	mov.w	r2,r0
  400926:	7a 17 00 00 	add.l	#0x18,er7
  40092a:	00 18 
  40092c:	01 00 6d 76 	mov.l	@er7+,er6
  400930:	54 70       	rts	

00400932 <_serial_init>:
serial_init():
/home/serial.c:59
  { H8_3069F_SCI2 }, 
};

/* デバイス初期化 */
int serial_init(int index)
{
  400932:	01 00 6d f6 	mov.l	er6,@-er7
  400936:	0f f6       	mov.l	er7,er6
  400938:	7a 37 00 00 	sub.l	#0x8,er7
  40093c:	00 08 
  40093e:	6f e0 ff fa 	mov.w	r0,@(0xfffa:16,er6)

00400942 <.LM2>:
/home/serial.c:60
  volatile struct h8_3069f_sci *sci = regs[index].sci;
  400942:	6f 62 ff fa 	mov.w	@(0xfffa:16,er6),r2
  400946:	17 f2       	exts.l	er2
  400948:	10 32       	shll.l	er2
  40094a:	10 32       	shll.l	er2
  40094c:	7a 12 00 40 	add.l	#0x4041d0,er2
  400950:	41 d0 
  400952:	01 00 69 22 	mov.l	@er2,er2
  400956:	01 00 6f e2 	mov.l	er2,@(0xfffc:16,er6)
  40095a:	ff fc 

0040095c <.LM3>:
/home/serial.c:62

  sci->scr = 0;
  40095c:	01 00 6f 62 	mov.l	@(0xfffc:16,er6),er2
  400960:	ff fc 
  400962:	18 bb       	sub.b	r3l,r3l
  400964:	6e ab 00 02 	mov.b	r3l,@(0x2:16,er2)

00400968 <.LM4>:
/home/serial.c:63
  sci->smr = 0;
  400968:	01 00 6f 62 	mov.l	@(0xfffc:16,er6),er2
  40096c:	ff fc 
  40096e:	18 bb       	sub.b	r3l,r3l
  400970:	68 ab       	mov.b	r3l,@er2

00400972 <.LM5>:
/home/serial.c:64
  sci->brr = 64; /* 20MHzのクロックから9600bpsを生成(25MHzの場合は80にする) */
  400972:	01 00 6f 62 	mov.l	@(0xfffc:16,er6),er2
  400976:	ff fc 
  400978:	fb 40       	mov.b	#0x40,r3l
  40097a:	6e ab 00 01 	mov.b	r3l,@(0x1:16,er2)

0040097e <.LM6>:
/home/serial.c:65
  sci->scr = H8_3069F_SCI_SCR_RE | H8_3069F_SCI_SCR_TE; /* 送受信可能 */
  40097e:	01 00 6f 62 	mov.l	@(0xfffc:16,er6),er2
  400982:	ff fc 
  400984:	fb 30       	mov.b	#0x30,r3l
  400986:	6e ab 00 02 	mov.b	r3l,@(0x2:16,er2)

0040098a <.LM7>:
/home/serial.c:66
  sci->ssr = 0;
  40098a:	01 00 6f 62 	mov.l	@(0xfffc:16,er6),er2
  40098e:	ff fc 
  400990:	18 bb       	sub.b	r3l,r3l
  400992:	6e ab 00 04 	mov.b	r3l,@(0x4:16,er2)

00400996 <.LM8>:
/home/serial.c:68

  return 0;
  400996:	19 22       	sub.w	r2,r2

00400998 <.LM9>:
/home/serial.c:69
}
  400998:	0d 20       	mov.w	r2,r0
  40099a:	0b 97       	adds	#4,er7
  40099c:	0b 97       	adds	#4,er7
  40099e:	01 00 6d 76 	mov.l	@er7+,er6
  4009a2:	54 70       	rts	

004009a4 <_serial_is_send_enable>:
serial_is_send_enable():
/home/serial.c:73

/* 送信可能か？ */
int serial_is_send_enable(int index)
{
  4009a4:	01 00 6d f6 	mov.l	er6,@-er7
  4009a8:	0f f6       	mov.l	er7,er6
  4009aa:	7a 37 00 00 	sub.l	#0x8,er7
  4009ae:	00 08 
  4009b0:	6f e0 ff fa 	mov.w	r0,@(0xfffa:16,er6)

004009b4 <.LM11>:
/home/serial.c:74
  volatile struct h8_3069f_sci *sci = regs[index].sci;
  4009b4:	6f 62 ff fa 	mov.w	@(0xfffa:16,er6),r2
  4009b8:	17 f2       	exts.l	er2
  4009ba:	10 32       	shll.l	er2
  4009bc:	10 32       	shll.l	er2
  4009be:	7a 12 00 40 	add.l	#0x4041d0,er2
  4009c2:	41 d0 
  4009c4:	01 00 69 22 	mov.l	@er2,er2
  4009c8:	01 00 6f e2 	mov.l	er2,@(0xfffc:16,er6)
  4009cc:	ff fc 

004009ce <.LM12>:
/home/serial.c:75
  return (sci->ssr & H8_3069F_SCI_SSR_TDRE);
  4009ce:	01 00 6f 62 	mov.l	@(0xfffc:16,er6),er2
  4009d2:	ff fc 
  4009d4:	6e 2a 00 04 	mov.b	@(0x4:16,er2),r2l
  4009d8:	17 52       	extu.w	r2
  4009da:	79 62 00 80 	and.w	#0x80,r2

004009de <.LM13>:
/home/serial.c:76
}
  4009de:	0d 20       	mov.w	r2,r0
  4009e0:	0b 97       	adds	#4,er7
  4009e2:	0b 97       	adds	#4,er7
  4009e4:	01 00 6d 76 	mov.l	@er7+,er6
  4009e8:	54 70       	rts	

004009ea <_serial_send_byte>:
serial_send_byte():
/home/serial.c:80

/* １文字送信 */
int serial_send_byte(int index, unsigned char c)
{
  4009ea:	01 00 6d f6 	mov.l	er6,@-er7
  4009ee:	0f f6       	mov.l	er7,er6
  4009f0:	7a 37 00 00 	sub.l	#0x8,er7
  4009f4:	00 08 
  4009f6:	6f e0 ff fa 	mov.w	r0,@(0xfffa:16,er6)
  4009fa:	6e e9 ff f9 	mov.b	r1l,@(0xfff9:16,er6)

004009fe <.LM15>:
/home/serial.c:81
  volatile struct h8_3069f_sci *sci = regs[index].sci;
  4009fe:	6f 62 ff fa 	mov.w	@(0xfffa:16,er6),r2
  400a02:	17 f2       	exts.l	er2
  400a04:	10 32       	shll.l	er2
  400a06:	10 32       	shll.l	er2
  400a08:	7a 12 00 40 	add.l	#0x4041d0,er2
  400a0c:	41 d0 
  400a0e:	01 00 69 22 	mov.l	@er2,er2
  400a12:	01 00 6f e2 	mov.l	er2,@(0xfffc:16,er6)
  400a16:	ff fc 

00400a18 <.LM16>:
	...

00400a1a <.L6>:
/home/serial.c:84 (discriminator 1)

  /* 送信可能になるまで待つ */
  while (!serial_is_send_enable(index))
  400a1a:	6f 62 ff fa 	mov.w	@(0xfffa:16,er6),r2
  400a1e:	0d 20       	mov.w	r2,r0
  400a20:	5e 40 09 a4 	jsr	@0x4009a4:24
  400a24:	0d 02       	mov.w	r0,r2
  400a26:	0d 22       	mov.w	r2,r2
  400a28:	47 f0       	beq	.-16 (0x400a1a)

00400a2a <.LM18>:
/home/serial.c:86
    ;
  sci->tdr = c;
  400a2a:	01 00 6f 62 	mov.l	@(0xfffc:16,er6),er2
  400a2e:	ff fc 
  400a30:	6e 6b ff f9 	mov.b	@(0xfff9:16,er6),r3l
  400a34:	6e ab 00 03 	mov.b	r3l,@(0x3:16,er2)

00400a38 <.LM19>:
/home/serial.c:87
  sci->ssr &= ~H8_3069F_SCI_SSR_TDRE; /* 送信開始 */
  400a38:	01 00 6f 62 	mov.l	@(0xfffc:16,er6),er2
  400a3c:	ff fc 
  400a3e:	6e 2a 00 04 	mov.b	@(0x4:16,er2),r2l
  400a42:	0c ab       	mov.b	r2l,r3l
  400a44:	72 7b       	bclr	#0x7,r3l
  400a46:	01 00 6f 62 	mov.l	@(0xfffc:16,er6),er2
  400a4a:	ff fc 
  400a4c:	6e ab 00 04 	mov.b	r3l,@(0x4:16,er2)

00400a50 <.LM20>:
/home/serial.c:89

  return 0;
  400a50:	19 22       	sub.w	r2,r2

00400a52 <.LM21>:
/home/serial.c:90
}
  400a52:	0d 20       	mov.w	r2,r0
  400a54:	0b 97       	adds	#4,er7
  400a56:	0b 97       	adds	#4,er7
  400a58:	01 00 6d 76 	mov.l	@er7+,er6
  400a5c:	54 70       	rts	

00400a5e <_serial_is_recv_enable>:
serial_is_recv_enable():
/home/serial.c:94

/* 受信可能か？ */
int serial_is_recv_enable(int index)
{
  400a5e:	01 00 6d f6 	mov.l	er6,@-er7
  400a62:	0f f6       	mov.l	er7,er6
  400a64:	7a 37 00 00 	sub.l	#0x8,er7
  400a68:	00 08 
  400a6a:	6f e0 ff fa 	mov.w	r0,@(0xfffa:16,er6)

00400a6e <.LM23>:
/home/serial.c:95
  volatile struct h8_3069f_sci *sci = regs[index].sci;
  400a6e:	6f 62 ff fa 	mov.w	@(0xfffa:16,er6),r2
  400a72:	17 f2       	exts.l	er2
  400a74:	10 32       	shll.l	er2
  400a76:	10 32       	shll.l	er2
  400a78:	7a 12 00 40 	add.l	#0x4041d0,er2
  400a7c:	41 d0 
  400a7e:	01 00 69 22 	mov.l	@er2,er2
  400a82:	01 00 6f e2 	mov.l	er2,@(0xfffc:16,er6)
  400a86:	ff fc 

00400a88 <.LM24>:
/home/serial.c:96
  return (sci->ssr & H8_3069F_SCI_SSR_RDRF);
  400a88:	01 00 6f 62 	mov.l	@(0xfffc:16,er6),er2
  400a8c:	ff fc 
  400a8e:	6e 2a 00 04 	mov.b	@(0x4:16,er2),r2l
  400a92:	17 52       	extu.w	r2
  400a94:	79 62 00 40 	and.w	#0x40,r2

00400a98 <.LM25>:
/home/serial.c:97
}
  400a98:	0d 20       	mov.w	r2,r0
  400a9a:	0b 97       	adds	#4,er7
  400a9c:	0b 97       	adds	#4,er7
  400a9e:	01 00 6d 76 	mov.l	@er7+,er6
  400aa2:	54 70       	rts	

00400aa4 <_serial_recv_byte>:
serial_recv_byte():
/home/serial.c:101

/* １文字受信 */
unsigned char serial_recv_byte(int index)
{
  400aa4:	01 00 6d f6 	mov.l	er6,@-er7
  400aa8:	0f f6       	mov.l	er7,er6
  400aaa:	7a 37 00 00 	sub.l	#0xc,er7
  400aae:	00 0c 
  400ab0:	6f e0 ff f6 	mov.w	r0,@(0xfff6:16,er6)

00400ab4 <.LM27>:
/home/serial.c:102
  volatile struct h8_3069f_sci *sci = regs[index].sci;
  400ab4:	6f 62 ff f6 	mov.w	@(0xfff6:16,er6),r2
  400ab8:	17 f2       	exts.l	er2
  400aba:	10 32       	shll.l	er2
  400abc:	10 32       	shll.l	er2
  400abe:	7a 12 00 40 	add.l	#0x4041d0,er2
  400ac2:	41 d0 
  400ac4:	01 00 69 22 	mov.l	@er2,er2
  400ac8:	01 00 6f e2 	mov.l	er2,@(0xfffc:16,er6)
  400acc:	ff fc 

00400ace <.LM28>:
	...

00400ad0 <.L11>:
/home/serial.c:106 (discriminator 1)
  unsigned char c;

  /* 受信文字が来るまで待つ */
  while (!serial_is_recv_enable(index))
  400ad0:	6f 62 ff f6 	mov.w	@(0xfff6:16,er6),r2
  400ad4:	0d 20       	mov.w	r2,r0
  400ad6:	5e 40 0a 5e 	jsr	@0x400a5e:24
  400ada:	0d 02       	mov.w	r0,r2
  400adc:	0d 22       	mov.w	r2,r2
  400ade:	47 f0       	beq	.-16 (0x400ad0)

00400ae0 <.LM30>:
/home/serial.c:108
    ;
  c = sci->rdr;
  400ae0:	01 00 6f 62 	mov.l	@(0xfffc:16,er6),er2
  400ae4:	ff fc 
  400ae6:	6e 2a 00 05 	mov.b	@(0x5:16,er2),r2l
  400aea:	6e ea ff fb 	mov.b	r2l,@(0xfffb:16,er6)

00400aee <.LM31>:
/home/serial.c:109
  sci->ssr &= ~H8_3069F_SCI_SSR_RDRF; /* 受信完了 */
  400aee:	01 00 6f 62 	mov.l	@(0xfffc:16,er6),er2
  400af2:	ff fc 
  400af4:	6e 2a 00 04 	mov.b	@(0x4:16,er2),r2l
  400af8:	0c ab       	mov.b	r2l,r3l
  400afa:	72 6b       	bclr	#0x6,r3l
  400afc:	01 00 6f 62 	mov.l	@(0xfffc:16,er6),er2
  400b00:	ff fc 
  400b02:	6e ab 00 04 	mov.b	r3l,@(0x4:16,er2)

00400b06 <.LM32>:
/home/serial.c:111

  return c;
  400b06:	6e 6a ff fb 	mov.b	@(0xfffb:16,er6),r2l

00400b0a <.LM33>:
/home/serial.c:112
}
  400b0a:	0c a8       	mov.b	r2l,r0l
  400b0c:	7a 17 00 00 	add.l	#0xc,er7
  400b10:	00 0c 
  400b12:	01 00 6d 76 	mov.l	@er7+,er6
  400b16:	54 70       	rts	

00400b18 <_serial_intr_is_send_enable>:
serial_intr_is_send_enable():
/home/serial.c:116

/* 送信割込み有効か？ */
int serial_intr_is_send_enable(int index)
{
  400b18:	01 00 6d f6 	mov.l	er6,@-er7
  400b1c:	0f f6       	mov.l	er7,er6
  400b1e:	7a 37 00 00 	sub.l	#0x8,er7
  400b22:	00 08 
  400b24:	6f e0 ff fa 	mov.w	r0,@(0xfffa:16,er6)

00400b28 <.LM35>:
/home/serial.c:117
  volatile struct h8_3069f_sci *sci = regs[index].sci;
  400b28:	6f 62 ff fa 	mov.w	@(0xfffa:16,er6),r2
  400b2c:	17 f2       	exts.l	er2
  400b2e:	10 32       	shll.l	er2
  400b30:	10 32       	shll.l	er2
  400b32:	7a 12 00 40 	add.l	#0x4041d0,er2
  400b36:	41 d0 
  400b38:	01 00 69 22 	mov.l	@er2,er2
  400b3c:	01 00 6f e2 	mov.l	er2,@(0xfffc:16,er6)
  400b40:	ff fc 

00400b42 <.LM36>:
/home/serial.c:118
  return (sci->scr & H8_3069F_SCI_SCR_TIE) ? 1 : 0;
  400b42:	01 00 6f 62 	mov.l	@(0xfffc:16,er6),er2
  400b46:	ff fc 
  400b48:	6e 2a 00 02 	mov.b	@(0x2:16,er2),r2l
  400b4c:	12 8a       	rotl.b	r2l
  400b4e:	ea 01       	and.b	#0x1,r2l
  400b50:	17 52       	extu.w	r2

00400b52 <.LM37>:
/home/serial.c:119
}
  400b52:	0d 20       	mov.w	r2,r0
  400b54:	0b 97       	adds	#4,er7
  400b56:	0b 97       	adds	#4,er7
  400b58:	01 00 6d 76 	mov.l	@er7+,er6
  400b5c:	54 70       	rts	

00400b5e <_serial_intr_send_enable>:
serial_intr_send_enable():
/home/serial.c:123

/* 送信割込み有効化 */
void serial_intr_send_enable(int index)
{
  400b5e:	01 00 6d f6 	mov.l	er6,@-er7
  400b62:	0f f6       	mov.l	er7,er6
  400b64:	7a 37 00 00 	sub.l	#0x8,er7
  400b68:	00 08 
  400b6a:	6f e0 ff fa 	mov.w	r0,@(0xfffa:16,er6)

00400b6e <.LM39>:
/home/serial.c:124
  volatile struct h8_3069f_sci *sci = regs[index].sci;
  400b6e:	6f 62 ff fa 	mov.w	@(0xfffa:16,er6),r2
  400b72:	17 f2       	exts.l	er2
  400b74:	10 32       	shll.l	er2
  400b76:	10 32       	shll.l	er2
  400b78:	7a 12 00 40 	add.l	#0x4041d0,er2
  400b7c:	41 d0 
  400b7e:	01 00 69 22 	mov.l	@er2,er2
  400b82:	01 00 6f e2 	mov.l	er2,@(0xfffc:16,er6)
  400b86:	ff fc 

00400b88 <.LM40>:
/home/serial.c:125
  sci->scr |= H8_3069F_SCI_SCR_TIE;
  400b88:	01 00 6f 62 	mov.l	@(0xfffc:16,er6),er2
  400b8c:	ff fc 
  400b8e:	6e 2a 00 02 	mov.b	@(0x2:16,er2),r2l
  400b92:	0c ab       	mov.b	r2l,r3l
  400b94:	70 7b       	bset	#0x7,r3l
  400b96:	01 00 6f 62 	mov.l	@(0xfffc:16,er6),er2
  400b9a:	ff fc 
  400b9c:	6e ab 00 02 	mov.b	r3l,@(0x2:16,er2)

00400ba0 <.LM41>:
/home/serial.c:126
}
  400ba0:	00 00       	nop	
  400ba2:	0b 97       	adds	#4,er7
  400ba4:	0b 97       	adds	#4,er7
  400ba6:	01 00 6d 76 	mov.l	@er7+,er6
  400baa:	54 70       	rts	

00400bac <_serial_intr_send_disable>:
serial_intr_send_disable():
/home/serial.c:130

/* 送信割込み無効化 */
void serial_intr_send_disable(int index)
{
  400bac:	01 00 6d f6 	mov.l	er6,@-er7
  400bb0:	0f f6       	mov.l	er7,er6
  400bb2:	7a 37 00 00 	sub.l	#0x8,er7
  400bb6:	00 08 
  400bb8:	6f e0 ff fa 	mov.w	r0,@(0xfffa:16,er6)

00400bbc <.LM43>:
/home/serial.c:131
  volatile struct h8_3069f_sci *sci = regs[index].sci;
  400bbc:	6f 62 ff fa 	mov.w	@(0xfffa:16,er6),r2
  400bc0:	17 f2       	exts.l	er2
  400bc2:	10 32       	shll.l	er2
  400bc4:	10 32       	shll.l	er2
  400bc6:	7a 12 00 40 	add.l	#0x4041d0,er2
  400bca:	41 d0 
  400bcc:	01 00 69 22 	mov.l	@er2,er2
  400bd0:	01 00 6f e2 	mov.l	er2,@(0xfffc:16,er6)
  400bd4:	ff fc 

00400bd6 <.LM44>:
/home/serial.c:132
  sci->scr &= ~H8_3069F_SCI_SCR_TIE;
  400bd6:	01 00 6f 62 	mov.l	@(0xfffc:16,er6),er2
  400bda:	ff fc 
  400bdc:	6e 2a 00 02 	mov.b	@(0x2:16,er2),r2l
  400be0:	0c ab       	mov.b	r2l,r3l
  400be2:	72 7b       	bclr	#0x7,r3l
  400be4:	01 00 6f 62 	mov.l	@(0xfffc:16,er6),er2
  400be8:	ff fc 
  400bea:	6e ab 00 02 	mov.b	r3l,@(0x2:16,er2)

00400bee <.LM45>:
/home/serial.c:133
}
  400bee:	00 00       	nop	
  400bf0:	0b 97       	adds	#4,er7
  400bf2:	0b 97       	adds	#4,er7
  400bf4:	01 00 6d 76 	mov.l	@er7+,er6
  400bf8:	54 70       	rts	

00400bfa <_serial_intr_is_recv_enable>:
serial_intr_is_recv_enable():
/home/serial.c:137

/* 受信割込み有効か？ */
int serial_intr_is_recv_enable(int index)
{
  400bfa:	01 00 6d f6 	mov.l	er6,@-er7
  400bfe:	0f f6       	mov.l	er7,er6
  400c00:	7a 37 00 00 	sub.l	#0x8,er7
  400c04:	00 08 
  400c06:	6f e0 ff fa 	mov.w	r0,@(0xfffa:16,er6)

00400c0a <.LM47>:
/home/serial.c:138
  volatile struct h8_3069f_sci *sci = regs[index].sci;
  400c0a:	6f 62 ff fa 	mov.w	@(0xfffa:16,er6),r2
  400c0e:	17 f2       	exts.l	er2
  400c10:	10 32       	shll.l	er2
  400c12:	10 32       	shll.l	er2
  400c14:	7a 12 00 40 	add.l	#0x4041d0,er2
  400c18:	41 d0 
  400c1a:	01 00 69 22 	mov.l	@er2,er2
  400c1e:	01 00 6f e2 	mov.l	er2,@(0xfffc:16,er6)
  400c22:	ff fc 

00400c24 <.LM48>:
/home/serial.c:139
  return (sci->scr & H8_3069F_SCI_SCR_RIE) ? 1 : 0;
  400c24:	01 00 6f 62 	mov.l	@(0xfffc:16,er6),er2
  400c28:	ff fc 
  400c2a:	6e 2a 00 02 	mov.b	@(0x2:16,er2),r2l
  400c2e:	17 52       	extu.w	r2
  400c30:	0d 23       	mov.w	r2,r3
  400c32:	79 63 00 40 	and.w	#0x40,r3
  400c36:	fa 01       	mov.b	#0x1,r2l
  400c38:	0d 33       	mov.w	r3,r3
  400c3a:	46 02       	bne	.+2 (0x400c3e)
  400c3c:	18 aa       	sub.b	r2l,r2l

00400c3e <.L18>:
  400c3e:	17 52       	extu.w	r2

00400c40 <.LM49>:
/home/serial.c:140
}
  400c40:	0d 20       	mov.w	r2,r0
  400c42:	0b 97       	adds	#4,er7
  400c44:	0b 97       	adds	#4,er7
  400c46:	01 00 6d 76 	mov.l	@er7+,er6
  400c4a:	54 70       	rts	

00400c4c <_serial_intr_recv_enable>:
serial_intr_recv_enable():
/home/serial.c:144

/* 受信割込み有効化 */
void serial_intr_recv_enable(int index)
{
  400c4c:	01 00 6d f6 	mov.l	er6,@-er7
  400c50:	0f f6       	mov.l	er7,er6
  400c52:	7a 37 00 00 	sub.l	#0x8,er7
  400c56:	00 08 
  400c58:	6f e0 ff fa 	mov.w	r0,@(0xfffa:16,er6)

00400c5c <.LM51>:
/home/serial.c:145
  volatile struct h8_3069f_sci *sci = regs[index].sci;
  400c5c:	6f 62 ff fa 	mov.w	@(0xfffa:16,er6),r2
  400c60:	17 f2       	exts.l	er2
  400c62:	10 32       	shll.l	er2
  400c64:	10 32       	shll.l	er2
  400c66:	7a 12 00 40 	add.l	#0x4041d0,er2
  400c6a:	41 d0 
  400c6c:	01 00 69 22 	mov.l	@er2,er2
  400c70:	01 00 6f e2 	mov.l	er2,@(0xfffc:16,er6)
  400c74:	ff fc 

00400c76 <.LM52>:
/home/serial.c:146
  sci->scr |= H8_3069F_SCI_SCR_RIE;
  400c76:	01 00 6f 62 	mov.l	@(0xfffc:16,er6),er2
  400c7a:	ff fc 
  400c7c:	6e 2a 00 02 	mov.b	@(0x2:16,er2),r2l
  400c80:	0c ab       	mov.b	r2l,r3l
  400c82:	70 6b       	bset	#0x6,r3l
  400c84:	01 00 6f 62 	mov.l	@(0xfffc:16,er6),er2
  400c88:	ff fc 
  400c8a:	6e ab 00 02 	mov.b	r3l,@(0x2:16,er2)

00400c8e <.LM53>:
/home/serial.c:147
}
  400c8e:	00 00       	nop	
  400c90:	0b 97       	adds	#4,er7
  400c92:	0b 97       	adds	#4,er7
  400c94:	01 00 6d 76 	mov.l	@er7+,er6
  400c98:	54 70       	rts	

00400c9a <_serial_intr_recv_disable>:
serial_intr_recv_disable():
/home/serial.c:151

/* 受信割込み無効化 */
void serial_intr_recv_disable(int index)
{
  400c9a:	01 00 6d f6 	mov.l	er6,@-er7
  400c9e:	0f f6       	mov.l	er7,er6
  400ca0:	7a 37 00 00 	sub.l	#0x8,er7
  400ca4:	00 08 
  400ca6:	6f e0 ff fa 	mov.w	r0,@(0xfffa:16,er6)

00400caa <.LM55>:
/home/serial.c:152
  volatile struct h8_3069f_sci *sci = regs[index].sci;
  400caa:	6f 62 ff fa 	mov.w	@(0xfffa:16,er6),r2
  400cae:	17 f2       	exts.l	er2
  400cb0:	10 32       	shll.l	er2
  400cb2:	10 32       	shll.l	er2
  400cb4:	7a 12 00 40 	add.l	#0x4041d0,er2
  400cb8:	41 d0 
  400cba:	01 00 69 22 	mov.l	@er2,er2
  400cbe:	01 00 6f e2 	mov.l	er2,@(0xfffc:16,er6)
  400cc2:	ff fc 

00400cc4 <.LM56>:
/home/serial.c:153
  sci->scr &= ~H8_3069F_SCI_SCR_RIE;
  400cc4:	01 00 6f 62 	mov.l	@(0xfffc:16,er6),er2
  400cc8:	ff fc 
  400cca:	6e 2a 00 02 	mov.b	@(0x2:16,er2),r2l
  400cce:	0c ab       	mov.b	r2l,r3l
  400cd0:	72 6b       	bclr	#0x6,r3l
  400cd2:	01 00 6f 62 	mov.l	@(0xfffc:16,er6),er2
  400cd6:	ff fc 
  400cd8:	6e ab 00 02 	mov.b	r3l,@(0x2:16,er2)

00400cdc <.LM57>:
/home/serial.c:154
}
  400cdc:	00 00       	nop	
  400cde:	0b 97       	adds	#4,er7
  400ce0:	0b 97       	adds	#4,er7
  400ce2:	01 00 6d 76 	mov.l	@er7+,er6
  400ce6:	54 70       	rts	

00400ce8 <_timer_start>:
timer_start():
/home/timer.c:57
  { H8_3069F_TMR23 }, 
};

/* タイマ開始 */
int timer_start(int index, int msec, int flags)
{
  400ce8:	01 00 6d f6 	mov.l	er6,@-er7
  400cec:	0f f6       	mov.l	er7,er6
  400cee:	7a 37 00 00 	sub.l	#0x14,er7
  400cf2:	00 14 
  400cf4:	6f e0 ff f2 	mov.w	r0,@(0xfff2:16,er6)
  400cf8:	6f e1 ff f0 	mov.w	r1,@(0xfff0:16,er6)
  400cfc:	6f e2 ff ee 	mov.w	r2,@(0xffee:16,er6)

00400d00 <.LM2>:
/home/timer.c:58
  volatile struct h8_3069f_tmr *tmr = regs[index].tmr;
  400d00:	6f 62 ff f2 	mov.w	@(0xfff2:16,er6),r2
  400d04:	17 f2       	exts.l	er2
  400d06:	10 32       	shll.l	er2
  400d08:	10 32       	shll.l	er2
  400d0a:	7a 12 00 40 	add.l	#0x4041dc,er2
  400d0e:	41 dc 
  400d10:	01 00 69 22 	mov.l	@er2,er2
  400d14:	01 00 6f e2 	mov.l	er2,@(0xfff8:16,er6)
  400d18:	ff f8 

00400d1a <.LM3>:
/home/timer.c:62
  int count;
  uint8 tcr;

  tcr = H8_3069F_TMR_TCR_OVF;
  400d1a:	fa 04       	mov.b	#0x4,r2l
  400d1c:	6e ea ff ff 	mov.b	r2l,@(0xffff:16,er6)

00400d20 <.LM4>:
/home/timer.c:63
  if (flags & TIMER_START_FLAG_CYCLE)
  400d20:	6f 62 ff ee 	mov.w	@(0xffee:16,er6),r2
  400d24:	79 62 00 01 	and.w	#0x1,r2
  400d28:	0d 22       	mov.w	r2,r2
  400d2a:	47 0a       	beq	.+10 (0x400d36)

00400d2c <.LM5>:
/home/timer.c:64
    tcr |= H8_3069F_TMR_TCR_CCLR_CLRCMFA;
  400d2c:	6e 6a ff ff 	mov.b	@(0xffff:16,er6),r2l
  400d30:	70 3a       	bset	#0x3,r2l
  400d32:	6e ea ff ff 	mov.b	r2l,@(0xffff:16,er6)

00400d36 <.L3>:
/home/timer.c:67
  else
    tcr |= H8_3069F_TMR_TCR_CCLR_DISCLR;
  tmr->tcr0 = tcr;
  400d36:	01 00 6f 62 	mov.l	@(0xfff8:16,er6),er2
  400d3a:	ff f8 
  400d3c:	6e 6b ff ff 	mov.b	@(0xffff:16,er6),r3l
  400d40:	68 ab       	mov.b	r3l,@er2

00400d42 <.LM7>:
/home/timer.c:68
  tmr->tcr1 = H8_3069F_TMR_TCR_CLK8192 | H8_3069F_TMR_TCR_CCLR_DISCLR;
  400d42:	01 00 6f 62 	mov.l	@(0xfff8:16,er6),er2
  400d46:	ff f8 
  400d48:	fb 03       	mov.b	#0x3,r3l
  400d4a:	6e ab 00 01 	mov.b	r3l,@(0x1:16,er2)

00400d4e <.LM8>:
/home/timer.c:70

  tmr->tcsr0 = 0;
  400d4e:	01 00 6f 62 	mov.l	@(0xfff8:16,er6),er2
  400d52:	ff f8 
  400d54:	18 bb       	sub.b	r3l,r3l
  400d56:	6e ab 00 02 	mov.b	r3l,@(0x2:16,er2)

00400d5a <.LM9>:
/home/timer.c:71
  tmr->tcsr1 = 0;
  400d5a:	01 00 6f 62 	mov.l	@(0xfff8:16,er6),er2
  400d5e:	ff f8 
  400d60:	18 bb       	sub.b	r3l,r3l
  400d62:	6e ab 00 03 	mov.b	r3l,@(0x3:16,er2)

00400d66 <.LM10>:
/home/timer.c:73

  count = msec / 105; /* 20MHz: (msec * 20000000 / 8192 / 256 / 1000) */
  400d66:	6f 62 ff f0 	mov.w	@(0xfff0:16,er6),r2
  400d6a:	0d 23       	mov.w	r2,r3
  400d6c:	17 f3       	exts.l	er3
  400d6e:	79 02 00 69 	mov.w	#0x69,r2
  400d72:	0f b0       	mov.l	er3,er0
  400d74:	01 d0 53 20 	divxs.w	r2,er0
  400d78:	0d 83       	mov.w	e0,r3
  400d7a:	0d 02       	mov.w	r0,r2
  400d7c:	6f e2 ff f6 	mov.w	r2,@(0xfff6:16,er6)

00400d80 <.LM11>:
/home/timer.c:75

  tmr->tcnt = 0;
  400d80:	01 00 6f 62 	mov.l	@(0xfff8:16,er6),er2
  400d84:	ff f8 
  400d86:	19 33       	sub.w	r3,r3
  400d88:	6f a3 00 08 	mov.w	r3,@(0x8:16,er2)

00400d8c <.LM12>:
/home/timer.c:76
  tmr->tcora0 = count;
  400d8c:	6f 62 ff f6 	mov.w	@(0xfff6:16,er6),r2
  400d90:	0c ab       	mov.b	r2l,r3l
  400d92:	01 00 6f 62 	mov.l	@(0xfff8:16,er6),er2
  400d96:	ff f8 
  400d98:	6e ab 00 04 	mov.b	r3l,@(0x4:16,er2)

00400d9c <.LM13>:
/home/timer.c:77
  tmr->tcr0 |= H8_3069F_TMR_TCR_CMIEA; /* 割込み有効化 */
  400d9c:	01 00 6f 62 	mov.l	@(0xfff8:16,er6),er2
  400da0:	ff f8 
  400da2:	68 2a       	mov.b	@er2,r2l
  400da4:	0c ab       	mov.b	r2l,r3l
  400da6:	70 6b       	bset	#0x6,r3l
  400da8:	01 00 6f 62 	mov.l	@(0xfff8:16,er6),er2
  400dac:	ff f8 
  400dae:	68 ab       	mov.b	r3l,@er2

00400db0 <.LM14>:
/home/timer.c:79

  return 0;
  400db0:	19 22       	sub.w	r2,r2

00400db2 <.LM15>:
/home/timer.c:80
}
  400db2:	0d 20       	mov.w	r2,r0
  400db4:	7a 17 00 00 	add.l	#0x14,er7
  400db8:	00 14 
  400dba:	01 00 6d 76 	mov.l	@er7+,er6
  400dbe:	54 70       	rts	

00400dc0 <_timer_is_expired>:
timer_is_expired():
/home/timer.c:84

/* タイマ満了したか？ */
int timer_is_expired(int index)
{
  400dc0:	01 00 6d f6 	mov.l	er6,@-er7
  400dc4:	0f f6       	mov.l	er7,er6
  400dc6:	7a 37 00 00 	sub.l	#0x8,er7
  400dca:	00 08 
  400dcc:	6f e0 ff fa 	mov.w	r0,@(0xfffa:16,er6)

00400dd0 <.LM17>:
/home/timer.c:85
  volatile struct h8_3069f_tmr *tmr = regs[index].tmr;
  400dd0:	6f 62 ff fa 	mov.w	@(0xfffa:16,er6),r2
  400dd4:	17 f2       	exts.l	er2
  400dd6:	10 32       	shll.l	er2
  400dd8:	10 32       	shll.l	er2
  400dda:	7a 12 00 40 	add.l	#0x4041dc,er2
  400dde:	41 dc 
  400de0:	01 00 69 22 	mov.l	@er2,er2
  400de4:	01 00 6f e2 	mov.l	er2,@(0xfffc:16,er6)
  400de8:	ff fc 

00400dea <.LM18>:
/home/timer.c:86
  return (tmr->tcsr0 & H8_3069F_TMR_TCSR_CMFA) ? 1 : 0;
  400dea:	01 00 6f 62 	mov.l	@(0xfffc:16,er6),er2
  400dee:	ff fc 
  400df0:	6e 2a 00 02 	mov.b	@(0x2:16,er2),r2l
  400df4:	17 52       	extu.w	r2
  400df6:	0d 23       	mov.w	r2,r3
  400df8:	79 63 00 40 	and.w	#0x40,r3
  400dfc:	fa 01       	mov.b	#0x1,r2l
  400dfe:	0d 33       	mov.w	r3,r3
  400e00:	46 02       	bne	.+2 (0x400e04)
  400e02:	18 aa       	sub.b	r2l,r2l

00400e04 <.L6>:
  400e04:	17 52       	extu.w	r2

00400e06 <.LM19>:
/home/timer.c:87
}
  400e06:	0d 20       	mov.w	r2,r0
  400e08:	0b 97       	adds	#4,er7
  400e0a:	0b 97       	adds	#4,er7
  400e0c:	01 00 6d 76 	mov.l	@er7+,er6
  400e10:	54 70       	rts	

00400e12 <_timer_expire>:
timer_expire():
/home/timer.c:91

/* タイマ満了処理 */
int timer_expire(int index)
{
  400e12:	01 00 6d f6 	mov.l	er6,@-er7
  400e16:	0f f6       	mov.l	er7,er6
  400e18:	7a 37 00 00 	sub.l	#0x8,er7
  400e1c:	00 08 
  400e1e:	6f e0 ff fa 	mov.w	r0,@(0xfffa:16,er6)

00400e22 <.LM21>:
/home/timer.c:92
  volatile struct h8_3069f_tmr *tmr = regs[index].tmr;
  400e22:	6f 62 ff fa 	mov.w	@(0xfffa:16,er6),r2
  400e26:	17 f2       	exts.l	er2
  400e28:	10 32       	shll.l	er2
  400e2a:	10 32       	shll.l	er2
  400e2c:	7a 12 00 40 	add.l	#0x4041dc,er2
  400e30:	41 dc 
  400e32:	01 00 69 22 	mov.l	@er2,er2
  400e36:	01 00 6f e2 	mov.l	er2,@(0xfffc:16,er6)
  400e3a:	ff fc 

00400e3c <.LM22>:
/home/timer.c:94

  tmr->tcsr0 &= ~H8_3069F_TMR_TCSR_CMFA;
  400e3c:	01 00 6f 62 	mov.l	@(0xfffc:16,er6),er2
  400e40:	ff fc 
  400e42:	6e 2a 00 02 	mov.b	@(0x2:16,er2),r2l
  400e46:	0c ab       	mov.b	r2l,r3l
  400e48:	72 6b       	bclr	#0x6,r3l
  400e4a:	01 00 6f 62 	mov.l	@(0xfffc:16,er6),er2
  400e4e:	ff fc 
  400e50:	6e ab 00 02 	mov.b	r3l,@(0x2:16,er2)

00400e54 <.LM23>:
/home/timer.c:96

  return 0;
  400e54:	19 22       	sub.w	r2,r2

00400e56 <.LM24>:
/home/timer.c:97
}
  400e56:	0d 20       	mov.w	r2,r0
  400e58:	0b 97       	adds	#4,er7
  400e5a:	0b 97       	adds	#4,er7
  400e5c:	01 00 6d 76 	mov.l	@er7+,er6
  400e60:	54 70       	rts	

00400e62 <_timer_cancel>:
timer_cancel():
/home/timer.c:101

/* タイマキャンセル */
int timer_cancel(int index)
{
  400e62:	01 00 6d f6 	mov.l	er6,@-er7
  400e66:	0f f6       	mov.l	er7,er6
  400e68:	7a 37 00 00 	sub.l	#0x8,er7
  400e6c:	00 08 
  400e6e:	6f e0 ff fa 	mov.w	r0,@(0xfffa:16,er6)

00400e72 <.LM26>:
/home/timer.c:102
  volatile struct h8_3069f_tmr *tmr = regs[index].tmr;
  400e72:	6f 62 ff fa 	mov.w	@(0xfffa:16,er6),r2
  400e76:	17 f2       	exts.l	er2
  400e78:	10 32       	shll.l	er2
  400e7a:	10 32       	shll.l	er2
  400e7c:	7a 12 00 40 	add.l	#0x4041dc,er2
  400e80:	41 dc 
  400e82:	01 00 69 22 	mov.l	@er2,er2
  400e86:	01 00 6f e2 	mov.l	er2,@(0xfffc:16,er6)
  400e8a:	ff fc 

00400e8c <.LM27>:
/home/timer.c:104

  timer_expire(index);
  400e8c:	6f 62 ff fa 	mov.w	@(0xfffa:16,er6),r2
  400e90:	0d 20       	mov.w	r2,r0
  400e92:	5e 40 0e 12 	jsr	@0x400e12:24

00400e96 <.LM28>:
/home/timer.c:106

  tmr->tcr0 = 0;
  400e96:	01 00 6f 62 	mov.l	@(0xfffc:16,er6),er2
  400e9a:	ff fc 
  400e9c:	18 bb       	sub.b	r3l,r3l
  400e9e:	68 ab       	mov.b	r3l,@er2

00400ea0 <.LM29>:
/home/timer.c:107
  tmr->tcr1 = 0;
  400ea0:	01 00 6f 62 	mov.l	@(0xfffc:16,er6),er2
  400ea4:	ff fc 
  400ea6:	18 bb       	sub.b	r3l,r3l
  400ea8:	6e ab 00 01 	mov.b	r3l,@(0x1:16,er2)

00400eac <.LM30>:
/home/timer.c:109

  tmr->tcr0 &= ~H8_3069F_TMR_TCR_CMIEA; /* 割込み無効化 */
  400eac:	01 00 6f 62 	mov.l	@(0xfffc:16,er6),er2
  400eb0:	ff fc 
  400eb2:	68 2a       	mov.b	@er2,r2l
  400eb4:	0c ab       	mov.b	r2l,r3l
  400eb6:	72 6b       	bclr	#0x6,r3l
  400eb8:	01 00 6f 62 	mov.l	@(0xfffc:16,er6),er2
  400ebc:	ff fc 
  400ebe:	68 ab       	mov.b	r3l,@er2

00400ec0 <.LM31>:
/home/timer.c:111

  return 0;
  400ec0:	19 22       	sub.w	r2,r2

00400ec2 <.LM32>:
/home/timer.c:112
}
  400ec2:	0d 20       	mov.w	r2,r0
  400ec4:	0b 97       	adds	#4,er7
  400ec6:	0b 97       	adds	#4,er7
  400ec8:	01 00 6d 76 	mov.l	@er7+,er6
  400ecc:	54 70       	rts	

00400ece <_timer_is_running>:
timer_is_running():
/home/timer.c:116

/* タイマ動作中か？ */
int timer_is_running(int index)
{
  400ece:	01 00 6d f6 	mov.l	er6,@-er7
  400ed2:	0f f6       	mov.l	er7,er6
  400ed4:	7a 37 00 00 	sub.l	#0x8,er7
  400ed8:	00 08 
  400eda:	6f e0 ff fa 	mov.w	r0,@(0xfffa:16,er6)

00400ede <.LM34>:
/home/timer.c:117
  volatile struct h8_3069f_tmr *tmr = regs[index].tmr;
  400ede:	6f 62 ff fa 	mov.w	@(0xfffa:16,er6),r2
  400ee2:	17 f2       	exts.l	er2
  400ee4:	10 32       	shll.l	er2
  400ee6:	10 32       	shll.l	er2
  400ee8:	7a 12 00 40 	add.l	#0x4041dc,er2
  400eec:	41 dc 
  400eee:	01 00 69 22 	mov.l	@er2,er2
  400ef2:	01 00 6f e2 	mov.l	er2,@(0xfffc:16,er6)
  400ef6:	ff fc 

00400ef8 <.LM35>:
/home/timer.c:118
  return (tmr->tcr0 & H8_3069F_TMR_TCR_CMIEA) ? 1 : 0;
  400ef8:	01 00 6f 62 	mov.l	@(0xfffc:16,er6),er2
  400efc:	ff fc 
  400efe:	68 2a       	mov.b	@er2,r2l
  400f00:	17 52       	extu.w	r2
  400f02:	0d 23       	mov.w	r2,r3
  400f04:	79 63 00 40 	and.w	#0x40,r3
  400f08:	fa 01       	mov.b	#0x1,r2l
  400f0a:	0d 33       	mov.w	r3,r3
  400f0c:	46 02       	bne	.+2 (0x400f10)
  400f0e:	18 aa       	sub.b	r2l,r2l

00400f10 <.L13>:
  400f10:	17 52       	extu.w	r2

00400f12 <.LM36>:
/home/timer.c:119
}
  400f12:	0d 20       	mov.w	r2,r0
  400f14:	0b 97       	adds	#4,er7
  400f16:	0b 97       	adds	#4,er7
  400f18:	01 00 6d 76 	mov.l	@er7+,er6
  400f1c:	54 70       	rts	

00400f1e <_timer_gettime>:
timer_gettime():
/home/timer.c:123

/* タイマの現在値 */
int timer_gettime(int index)
{
  400f1e:	01 00 6d f6 	mov.l	er6,@-er7
  400f22:	0f f6       	mov.l	er7,er6
  400f24:	7a 37 00 00 	sub.l	#0xc,er7
  400f28:	00 0c 
  400f2a:	6f e0 ff f6 	mov.w	r0,@(0xfff6:16,er6)

00400f2e <.LM38>:
/home/timer.c:124
  volatile struct h8_3069f_tmr *tmr = regs[index].tmr;
  400f2e:	6f 62 ff f6 	mov.w	@(0xfff6:16,er6),r2
  400f32:	17 f2       	exts.l	er2
  400f34:	10 32       	shll.l	er2
  400f36:	10 32       	shll.l	er2
  400f38:	7a 12 00 40 	add.l	#0x4041dc,er2
  400f3c:	41 dc 
  400f3e:	01 00 69 22 	mov.l	@er2,er2
  400f42:	01 00 6f e2 	mov.l	er2,@(0xfffc:16,er6)
  400f46:	ff fc 

00400f48 <.LM39>:
/home/timer.c:132

  /*
   * 周期タイマの場合は動作中かどうかのチェックの直後にタイマ満了すると
   * カウンタがゼロに初期化されてしまうので，前もって値を取得しておく．
   */
  count = tmr->tcnt;
  400f48:	01 00 6f 62 	mov.l	@(0xfffc:16,er6),er2
  400f4c:	ff fc 
  400f4e:	6f 22 00 08 	mov.w	@(0x8:16,er2),r2
  400f52:	6f e2 ff f8 	mov.w	r2,@(0xfff8:16,er6)

00400f56 <.LM40>:
/home/timer.c:133
  msec = count * 2 / 5; /* 20MHz: (count * 8192 * 1000 / 20000000) */
  400f56:	6f 62 ff f8 	mov.w	@(0xfff8:16,er6),r2
  400f5a:	10 12       	shll.w	r2
  400f5c:	79 03 66 67 	mov.w	#0x6667,r3
  400f60:	01 c0 52 23 	mulxs.w	r2,er3
  400f64:	0d b3       	mov.w	e3,r3
  400f66:	17 73       	extu.l	er3
  400f68:	11 93       	shar.w	r3
  400f6a:	10 02       	shll.b	r2h
  400f6c:	1e 22       	subx	r2h,r2h
  400f6e:	0c 2a       	mov.b	r2h,r2l
  400f70:	0d 30       	mov.w	r3,r0
  400f72:	19 20       	sub.w	r2,r0
  400f74:	0d 02       	mov.w	r0,r2
  400f76:	6f e2 ff fa 	mov.w	r2,@(0xfffa:16,er6)

00400f7a <.LM41>:
/home/timer.c:135

  return timer_is_running(index) ? msec : -1;
  400f7a:	6f 62 ff f6 	mov.w	@(0xfff6:16,er6),r2
  400f7e:	0d 20       	mov.w	r2,r0
  400f80:	5e 40 0e ce 	jsr	@0x400ece:24
  400f84:	0d 02       	mov.w	r0,r2
  400f86:	0d 22       	mov.w	r2,r2
  400f88:	47 06       	beq	.+6 (0x400f90)

00400f8a <.LM42>:
/home/timer.c:135 (discriminator 1)
  400f8a:	6f 62 ff fa 	mov.w	@(0xfffa:16,er6),r2
  400f8e:	40 04       	bra	.+4 (0x400f94)

00400f90 <.L16>:
/home/timer.c:135 (discriminator 2)
  400f90:	79 02 ff ff 	mov.w	#0xffff,r2

00400f94 <.L18>:
/home/timer.c:136 (discriminator 5)
}
  400f94:	0d 20       	mov.w	r2,r0
  400f96:	7a 17 00 00 	add.l	#0xc,er7
  400f9a:	00 0c 
  400f9c:	01 00 6d 76 	mov.l	@er7+,er6
  400fa0:	54 70       	rts	

00400fa2 <_udelay>:
udelay():
/home/ether.c:114
#define NE2000_TP_START 0x40
#define NE2000_RP_START 0x46
#define NE2000_RP_STOP  0x80

static void udelay(int usec)
{
  400fa2:	01 00 6d f6 	mov.l	er6,@-er7
  400fa6:	0f f6       	mov.l	er7,er6
  400fa8:	7a 37 00 00 	sub.l	#0x8,er7
  400fac:	00 08 
  400fae:	6f e0 ff fa 	mov.w	r0,@(0xfffa:16,er6)

00400fb2 <.LM2>:
/home/ether.c:116
  volatile int i;
  for (i = 0; i < 20; i++) /* 20MHz */
  400fb2:	19 22       	sub.w	r2,r2
  400fb4:	6f e2 ff fe 	mov.w	r2,@(0xfffe:16,er6)
  400fb8:	40 0a       	bra	.+10 (0x400fc4)

00400fba <.L3>:
/home/ether.c:116 (discriminator 3)
  400fba:	6f 62 ff fe 	mov.w	@(0xfffe:16,er6),r2
  400fbe:	0b 02       	adds	#1,er2
  400fc0:	6f e2 ff fe 	mov.w	r2,@(0xfffe:16,er6)

00400fc4 <.L2>:
/home/ether.c:116 (discriminator 1)
  400fc4:	6f 62 ff fe 	mov.w	@(0xfffe:16,er6),r2
  400fc8:	79 22 00 13 	cmp.w	#0x13,r2
  400fcc:	4f ec       	ble	.-20 (0x400fba)

00400fce <.LM5>:
/home/ether.c:118
    ;
}
  400fce:	00 00       	nop	
  400fd0:	0b 97       	adds	#4,er7
  400fd2:	0b 97       	adds	#4,er7
  400fd4:	01 00 6d 76 	mov.l	@er7+,er6
  400fd8:	54 70       	rts	

00400fda <_mdelay>:
mdelay():
/home/ether.c:121

static void mdelay(int msec)
{
  400fda:	01 00 6d f6 	mov.l	er6,@-er7
  400fde:	0f f6       	mov.l	er7,er6
  400fe0:	7a 37 00 00 	sub.l	#0x8,er7
  400fe4:	00 08 
  400fe6:	6f e0 ff fa 	mov.w	r0,@(0xfffa:16,er6)

00400fea <.LM7>:
/home/ether.c:123
  volatile int i;
  for (i = 0; i < msec; i++) {
  400fea:	19 22       	sub.w	r2,r2
  400fec:	6f e2 ff fe 	mov.w	r2,@(0xfffe:16,er6)
  400ff0:	40 12       	bra	.+18 (0x401004)

00400ff2 <.L6>:
/home/ether.c:124 (discriminator 3)
    udelay(1000);
  400ff2:	79 00 03 e8 	mov.w	#0x3e8,r0
  400ff6:	5e 40 0f a2 	jsr	@0x400fa2:24

00400ffa <.LM9>:
/home/ether.c:123
  for (i = 0; i < msec; i++) {
  400ffa:	6f 62 ff fe 	mov.w	@(0xfffe:16,er6),r2
  400ffe:	0b 02       	adds	#1,er2
  401000:	6f e2 ff fe 	mov.w	r2,@(0xfffe:16,er6)

00401004 <.L5>:
/home/ether.c:123 (discriminator 1)
  401004:	6f 62 ff fe 	mov.w	@(0xfffe:16,er6),r2
  401008:	6f 63 ff fa 	mov.w	@(0xfffa:16,er6),r3
  40100c:	1d 23       	cmp.w	r2,r3
  40100e:	4e e2       	bgt	.-30 (0x400ff2)

00401010 <.LM11>:
/home/ether.c:126
  }
}
  401010:	00 00       	nop	
  401012:	0b 97       	adds	#4,er7
  401014:	0b 97       	adds	#4,er7
  401016:	01 00 6d 76 	mov.l	@er7+,er6
  40101a:	54 70       	rts	

0040101c <_read_data>:
read_data():
/home/ether.c:130

// Ethernet フレームを Ethernet Phy から読み込む
static int read_data(int addr, int size, char *buf)
{
  40101c:	01 00 6d f6 	mov.l	er6,@-er7
  401020:	0f f6       	mov.l	er7,er6
  401022:	7a 37 00 00 	sub.l	#0xc,er7
  401026:	00 0c 
  401028:	6f e0 ff fa 	mov.w	r0,@(0xfffa:16,er6)
  40102c:	6f e1 ff f8 	mov.w	r1,@(0xfff8:16,er6)
  401030:	01 00 6f e2 	mov.l	er2,@(0xfff4:16,er6)
  401034:	ff f4 

00401036 <.LM13>:
/home/ether.c:137

  // CR(command register) PS1, PS0, RD2, RD1, RD0, TXP, STA, STP
  // PS: P0 => ページ0を選択
  // RD: ABORT => Abort/Complete remote DMA
  // STA=1, STP=0 => Start command (起動時はストップ)
  *NE2000_CR    = NE2000_CR_P0 | NE2000_CR_RD_ABORT | NE2000_CR_STA;
  401036:	7a 02 00 20 	mov.l	#0x200000,er2
  40103a:	00 00 
  40103c:	fb 22       	mov.b	#0x22,r3l
  40103e:	68 ab       	mov.b	r3l,@er2

00401040 <.LM14>:
/home/ether.c:142

  // RBCR(Remote Byte Count Registers)、書き込み用
  // レジスタに何バイトのデータが溜まっているか？を記録
  // 送信するデータのサイズを2バイトで表現(RBCR1 が上位バイト)
  *NE2000_RBCR0 = size & 0xff;
  401040:	7a 02 00 20 	mov.l	#0x20000a,er2
  401044:	00 0a 
  401046:	6f 63 ff f8 	mov.w	@(0xfff8:16,er6),r3
  40104a:	68 ab       	mov.b	r3l,@er2

0040104c <.LM15>:
/home/ether.c:143
  *NE2000_RBCR1 = (size >> 8) & 0xff;
  40104c:	6f 62 ff f8 	mov.w	@(0xfff8:16,er6),r2
  401050:	0c 2a       	mov.b	r2h,r2l
  401052:	17 52       	extu.w	r2
  401054:	7a 03 00 20 	mov.l	#0x20000b,er3
  401058:	00 0b 
  40105a:	68 ba       	mov.b	r2l,@er3

0040105c <.LM16>:
/home/ether.c:147

  // RSAR(Remote Start Address Registers)、書き込み用
  // リモート DMA の開始アドレスを設定する(RSAR1 が上位バイト)
  *NE2000_RSAR0 = addr & 0xff;
  40105c:	7a 02 00 20 	mov.l	#0x200008,er2
  401060:	00 08 
  401062:	6f 63 ff fa 	mov.w	@(0xfffa:16,er6),r3
  401066:	68 ab       	mov.b	r3l,@er2

00401068 <.LM17>:
/home/ether.c:148
  *NE2000_RSAR1 = (addr >> 8) & 0xff;
  401068:	6f 62 ff fa 	mov.w	@(0xfffa:16,er6),r2
  40106c:	0c 2a       	mov.b	r2h,r2l
  40106e:	17 52       	extu.w	r2
  401070:	7a 03 00 20 	mov.l	#0x200009,er3
  401074:	00 09 
  401076:	68 ba       	mov.b	r2l,@er3

00401078 <.LM18>:
/home/ether.c:151

  // command register を操作し、remote read を行う
  *NE2000_CR    = NE2000_CR_P0 | NE2000_CR_RD_READ | NE2000_CR_STA;
  401078:	7a 02 00 20 	mov.l	#0x200000,er2
  40107c:	00 00 
  40107e:	fb 0a       	mov.b	#0xa,r3l
  401080:	68 ab       	mov.b	r3l,@er2

00401082 <.LM19>:
/home/ether.c:152
  for (i = 0; i < size; i++) {
  401082:	19 22       	sub.w	r2,r2
  401084:	6f e2 ff fe 	mov.w	r2,@(0xfffe:16,er6)
  401088:	40 22       	bra	.+34 (0x4010ac)

0040108a <.L9>:
/home/ether.c:155 (discriminator 3)
    // RDMAP = remote DMA port で、RTL8019 に接続されている
    // ウェイトも入れずにどんどん読んでいいのか？
    buf[i] = *RTL8019_RDMAP;
  40108a:	7a 03 00 20 	mov.l	#0x200010,er3
  40108e:	00 10 
  401090:	6f 62 ff fe 	mov.w	@(0xfffe:16,er6),r2
  401094:	17 f2       	exts.l	er2
  401096:	01 00 6f 60 	mov.l	@(0xfff4:16,er6),er0
  40109a:	ff f4 
  40109c:	0a 82       	add.l	er0,er2
  40109e:	68 3b       	mov.b	@er3,r3l
  4010a0:	68 ab       	mov.b	r3l,@er2

004010a2 <.LM21>:
/home/ether.c:152
  for (i = 0; i < size; i++) {
  4010a2:	6f 62 ff fe 	mov.w	@(0xfffe:16,er6),r2
  4010a6:	0b 02       	adds	#1,er2
  4010a8:	6f e2 ff fe 	mov.w	r2,@(0xfffe:16,er6)

004010ac <.L8>:
/home/ether.c:152 (discriminator 1)
  4010ac:	6f 63 ff fe 	mov.w	@(0xfffe:16,er6),r3
  4010b0:	6f 62 ff f8 	mov.w	@(0xfff8:16,er6),r2
  4010b4:	1d 23       	cmp.w	r2,r3
  4010b6:	4d d2       	blt	.-46 (0x40108a)

004010b8 <.LM23>:
	...

004010ba <.L10>:
/home/ether.c:158 (discriminator 1)
  }
  // ISR の RDC ビットは、Remote DMA operation が完了するとセットされる
  while ((*NE2000_ISR & NE2000_ISR_RDC) == 0)
  4010ba:	7a 02 00 20 	mov.l	#0x200007,er2
  4010be:	00 07 
  4010c0:	68 2a       	mov.b	@er2,r2l
  4010c2:	17 52       	extu.w	r2
  4010c4:	79 62 00 40 	and.w	#0x40,r2
  4010c8:	0d 22       	mov.w	r2,r2
  4010ca:	47 ee       	beq	.-18 (0x4010ba)

004010cc <.LM25>:
/home/ether.c:161
    ;

  return 0;
  4010cc:	19 22       	sub.w	r2,r2

004010ce <.LM26>:
/home/ether.c:162
}
  4010ce:	0d 20       	mov.w	r2,r0
  4010d0:	7a 17 00 00 	add.l	#0xc,er7
  4010d4:	00 0c 
  4010d6:	01 00 6d 76 	mov.l	@er7+,er6
  4010da:	54 70       	rts	

004010dc <_write_data>:
write_data():
/home/ether.c:166

// Ethernet フレームを Ethernet Phy に書き込む
static int write_data(int addr, int size, char *buf)
{
  4010dc:	01 00 6d f6 	mov.l	er6,@-er7
  4010e0:	0f f6       	mov.l	er7,er6
  4010e2:	7a 37 00 00 	sub.l	#0xc,er7
  4010e6:	00 0c 
  4010e8:	6f e0 ff fa 	mov.w	r0,@(0xfffa:16,er6)
  4010ec:	6f e1 ff f8 	mov.w	r1,@(0xfff8:16,er6)
  4010f0:	01 00 6f e2 	mov.l	er2,@(0xfff4:16,er6)
  4010f4:	ff f4 

004010f6 <.LM28>:
/home/ether.c:170
  int i;
  
  // ページ0を選択しコマンドを開始する
  *NE2000_CR    = NE2000_CR_P0 | NE2000_CR_RD_ABORT | NE2000_CR_STA;
  4010f6:	7a 02 00 20 	mov.l	#0x200000,er2
  4010fa:	00 00 
  4010fc:	fb 22       	mov.b	#0x22,r3l
  4010fe:	68 ab       	mov.b	r3l,@er2

00401100 <.LM29>:
/home/ether.c:173

  // データサイズを指定
  *NE2000_RBCR0 = size & 0xff;
  401100:	7a 02 00 20 	mov.l	#0x20000a,er2
  401104:	00 0a 
  401106:	6f 63 ff f8 	mov.w	@(0xfff8:16,er6),r3
  40110a:	68 ab       	mov.b	r3l,@er2

0040110c <.LM30>:
/home/ether.c:174
  *NE2000_RBCR1 = (size >> 8) & 0xff;
  40110c:	6f 62 ff f8 	mov.w	@(0xfff8:16,er6),r2
  401110:	0c 2a       	mov.b	r2h,r2l
  401112:	17 52       	extu.w	r2
  401114:	7a 03 00 20 	mov.l	#0x20000b,er3
  401118:	00 0b 
  40111a:	68 ba       	mov.b	r2l,@er3

0040111c <.LM31>:
/home/ether.c:177

  // Remote DMA の開始アドレスを指定
  *NE2000_RSAR0 = addr & 0xff;
  40111c:	7a 02 00 20 	mov.l	#0x200008,er2
  401120:	00 08 
  401122:	6f 63 ff fa 	mov.w	@(0xfffa:16,er6),r3
  401126:	68 ab       	mov.b	r3l,@er2

00401128 <.LM32>:
/home/ether.c:178
  *NE2000_RSAR1 = (addr >> 8) & 0xff;
  401128:	6f 62 ff fa 	mov.w	@(0xfffa:16,er6),r2
  40112c:	0c 2a       	mov.b	r2h,r2l
  40112e:	17 52       	extu.w	r2
  401130:	7a 03 00 20 	mov.l	#0x200009,er3
  401134:	00 09 
  401136:	68 ba       	mov.b	r2l,@er3

00401138 <.LM33>:
/home/ether.c:182

  // command resiger を操作し、remote dma write を行う
  // H8 と RTL8019AS 間で DMA できるようになっている？
  *NE2000_CR    = NE2000_CR_P0 | NE2000_CR_RD_WRITE | NE2000_CR_STA;
  401138:	7a 02 00 20 	mov.l	#0x200000,er2
  40113c:	00 00 
  40113e:	fb 12       	mov.b	#0x12,r3l
  401140:	68 ab       	mov.b	r3l,@er2

00401142 <.LM34>:
/home/ether.c:183
  for (i = 0; i < size; i++) {
  401142:	19 22       	sub.w	r2,r2
  401144:	6f e2 ff fe 	mov.w	r2,@(0xfffe:16,er6)
  401148:	40 22       	bra	.+34 (0x40116c)

0040114a <.L14>:
/home/ether.c:192 (discriminator 3)
    // outb_p のように _p 付きのものが用意されている

    // ウェイトも入れずにどんどん書いていいのか？
    // RSAR で指定した値が徐々にずれていくのかも？
    // そのあたりの動作が明確に書かれた仕様が見つからない
    *RTL8019_RDMAP = buf[i];
  40114a:	6f 62 ff fe 	mov.w	@(0xfffe:16,er6),r2
  40114e:	17 f2       	exts.l	er2
  401150:	01 00 6f 63 	mov.l	@(0xfff4:16,er6),er3
  401154:	ff f4 
  401156:	0a a3       	add.l	er2,er3
  401158:	7a 02 00 20 	mov.l	#0x200010,er2
  40115c:	00 10 
  40115e:	68 3b       	mov.b	@er3,r3l
  401160:	68 ab       	mov.b	r3l,@er2

00401162 <.LM36>:
/home/ether.c:183
  for (i = 0; i < size; i++) {
  401162:	6f 62 ff fe 	mov.w	@(0xfffe:16,er6),r2
  401166:	0b 02       	adds	#1,er2
  401168:	6f e2 ff fe 	mov.w	r2,@(0xfffe:16,er6)

0040116c <.L13>:
/home/ether.c:183 (discriminator 1)
  40116c:	6f 63 ff fe 	mov.w	@(0xfffe:16,er6),r3
  401170:	6f 62 ff f8 	mov.w	@(0xfff8:16,er6),r2
  401174:	1d 23       	cmp.w	r2,r3
  401176:	4d d2       	blt	.-46 (0x40114a)

00401178 <.LM38>:
	...

0040117a <.L15>:
/home/ether.c:197 (discriminator 1)
  }

  // リモートコマンドの完了を待つ
  // 何をもって完了とするのか？
  while ((*NE2000_ISR & NE2000_ISR_RDC) == 0)
  40117a:	7a 02 00 20 	mov.l	#0x200007,er2
  40117e:	00 07 
  401180:	68 2a       	mov.b	@er2,r2l
  401182:	17 52       	extu.w	r2
  401184:	79 62 00 40 	and.w	#0x40,r2
  401188:	0d 22       	mov.w	r2,r2
  40118a:	47 ee       	beq	.-18 (0x40117a)

0040118c <.LM40>:
/home/ether.c:199
    ;
}
  40118c:	00 00       	nop	
  40118e:	0d 20       	mov.w	r2,r0
  401190:	7a 17 00 00 	add.l	#0xc,er7
  401194:	00 0c 
  401196:	01 00 6d 76 	mov.l	@er7+,er6
  40119a:	54 70       	rts	

0040119c <_port_init>:
port_init():
/home/ether.c:202

static int port_init()
{
  40119c:	01 00 6d f6 	mov.l	er6,@-er7
  4011a0:	0f f6       	mov.l	er7,er6

004011a2 <.LM42>:
/home/ether.c:212
#endif

#if 0
  *H8_3069F_P8DDR = 0xe8; /* CS1 */
#else
  *H8_3069F_P8DDR = 0xec; /* CS1(ether) and CS2(DRAM) */
  4011a2:	7a 02 00 fe 	mov.l	#0xfee007,er2
  4011a6:	e0 07 
  4011a8:	fb ec       	mov.b	#0xec,r3l
  4011aa:	68 ab       	mov.b	r3l,@er2

004011ac <.LM43>:
/home/ether.c:219

#if 0
  *H8_3069F_P9DDR = ...; /* IERの設定によるので設定不要 */
#endif

  *H8_3069F_ISCR = 0x00; /* lowレベルで割り込み */
  4011ac:	7a 02 00 fe 	mov.l	#0xfee014,er2
  4011b0:	e0 14 
  4011b2:	18 bb       	sub.b	r3l,r3l
  4011b4:	68 ab       	mov.b	r3l,@er2

004011b6 <.LM44>:
/home/ether.c:220
  *H8_3069F_IPRA = 0x00;
  4011b6:	7a 02 00 fe 	mov.l	#0xfee018,er2
  4011ba:	e0 18 
  4011bc:	18 bb       	sub.b	r3l,r3l
  4011be:	68 ab       	mov.b	r3l,@er2

004011c0 <.LM45>:
/home/ether.c:221
  *H8_3069F_IER  = 0x20; /* IRQ5割り込み有効化 */
  4011c0:	7a 02 00 fe 	mov.l	#0xfee015,er2
  4011c4:	e0 15 
  4011c6:	fb 20       	mov.b	#0x20,r3l
  4011c8:	68 ab       	mov.b	r3l,@er2

004011ca <.LM46>:
/home/ether.c:223

  return 0;
  4011ca:	19 22       	sub.w	r2,r2

004011cc <.LM47>:
/home/ether.c:224
}
  4011cc:	0d 20       	mov.w	r2,r0
  4011ce:	01 00 6d 76 	mov.l	@er7+,er6
  4011d2:	54 70       	rts	

004011d4 <_ether_init>:
ether_init():
/home/ether.c:227

int ether_init(int index)
{
  4011d4:	01 00 6d f6 	mov.l	er6,@-er7
  4011d8:	0f f6       	mov.l	er7,er6
  4011da:	7a 37 00 00 	sub.l	#0x1c,er7
  4011de:	00 1c 
  4011e0:	6f e0 ff e6 	mov.w	r0,@(0xffe6:16,er6)

004011e4 <.LM49>:
/home/ether.c:234
  unsigned char t2[12];
  unsigned char macaddr[6];
  int i;

  // 外部 IO を使えるようにするための設定など
  port_init();
  4011e4:	5e 40 11 9c 	jsr	@0x40119c:24

004011e8 <.LM50>:
/home/ether.c:238

  // RP: Reset port
  // 読み取りにはどんな意味が？なにを書いてもいい気がするけど…
  t1 = *RTL8019_RP;
  4011e8:	7a 02 00 20 	mov.l	#0x200018,er2
  4011ec:	00 18 
  4011ee:	68 2a       	mov.b	@er2,r2l
  4011f0:	6e ea ff fd 	mov.b	r2l,@(0xfffd:16,er6)

004011f4 <.LM51>:
/home/ether.c:239
  *RTL8019_RP = t1;
  4011f4:	7a 02 00 20 	mov.l	#0x200018,er2
  4011f8:	00 18 
  4011fa:	6e 6b ff fd 	mov.b	@(0xfffd:16,er6),r3l
  4011fe:	68 ab       	mov.b	r3l,@er2

00401200 <.LM52>:
/home/ether.c:242

  // リセットさせて、少し待つ
  mdelay(10);
  401200:	79 00 00 0a 	mov.w	#0xa,r0
  401204:	5e 40 0f da 	jsr	@0x400fda:24

00401208 <.LM53>:
/home/ether.c:245

  // リモートコマンドを停止(STP)
  *NE2000_CR     = NE2000_CR_P0 | NE2000_CR_RD_ABORT | NE2000_CR_STP;
  401208:	7a 02 00 20 	mov.l	#0x200000,er2
  40120c:	00 00 
  40120e:	fb 21       	mov.b	#0x21,r3l
  401210:	68 ab       	mov.b	r3l,@er2

00401212 <.LM54>:
/home/ether.c:251

  // DCR(data configuration register)、ページ0なので write できる
  // F1: FIFO threshold
  // LS: loopback select, セットすると normal operation となる
  // BOS: byte order select, not impelemented とあるので意味がない？
  *NE2000_DCR    = NE2000_DCR_F1 | NE2000_DCR_LS | NE2000_DCR_BOS;
  401212:	7a 02 00 20 	mov.l	#0x20000e,er2
  401216:	00 0e 
  401218:	fb 4a       	mov.b	#0x4a,r3l
  40121a:	68 ab       	mov.b	r3l,@er2

0040121c <.LM55>:
/home/ether.c:254

  // データサイズは 0 に
  *NE2000_RBCR0  = 0x00;
  40121c:	7a 02 00 20 	mov.l	#0x20000a,er2
  401220:	00 0a 
  401222:	18 bb       	sub.b	r3l,r3l
  401224:	68 ab       	mov.b	r3l,@er2

00401226 <.LM56>:
/home/ether.c:255
  *NE2000_RBCR1  = 0x00;
  401226:	7a 02 00 20 	mov.l	#0x20000b,er2
  40122a:	00 0b 
  40122c:	18 bb       	sub.b	r3l,r3l
  40122e:	68 ab       	mov.b	r3l,@er2

00401230 <.LM57>:
/home/ether.c:259

  // RCR(receive configuration register)
  // monitor mode、受信したパケットのチェックはするが、バッファしない？
  *NE2000_RCR    = NE2000_RCR_MON;
  401230:	7a 02 00 20 	mov.l	#0x20000c,er2
  401234:	00 0c 
  401236:	fb 20       	mov.b	#0x20,r3l
  401238:	68 ab       	mov.b	r3l,@er2

0040123a <.LM58>:
/home/ether.c:263

  // TCR(transmit configuration register)
  // ILB = internal loopback
  *NE2000_TCR    = NE2000_TCR_ILB;
  40123a:	7a 02 00 20 	mov.l	#0x20000d,er2
  40123e:	00 0d 
  401240:	fb 02       	mov.b	#0x2,r3l
  401242:	68 ab       	mov.b	r3l,@er2

00401244 <.LM59>:
/home/ether.c:271
  // 送信するパケットのスタートページのアドレスを指定する？
  // http://contiki.sourceforge.net/docs/2.6/a00626_source.html
  // buffer boundaries - transmit has 6 256-byte pages
  //   receive has 26 256-byte pages
  // NE2000_TP_START は 0x40 なので、64番目のページを使うという宣言？
  *NE2000_TPSR   = NE2000_TP_START;
  401244:	7a 02 00 20 	mov.l	#0x200004,er2
  401248:	00 04 
  40124a:	fb 40       	mov.b	#0x40,r3l
  40124c:	68 ab       	mov.b	r3l,@er2

0040124e <.LM60>:
/home/ether.c:275

  // PSTART(page start resgister)
  // 受信用のリングバッファの開始アドレス
  *NE2000_PSTART = NE2000_RP_START;
  40124e:	7a 02 00 20 	mov.l	#0x200001,er2
  401252:	00 01 
  401254:	fb 46       	mov.b	#0x46,r3l
  401256:	68 ab       	mov.b	r3l,@er2

00401258 <.LM61>:
/home/ether.c:279

  // BNRY(boundary register)
  // リングバッファ領域の末尾のアドレスを入れる(オーバーランを防ぐために使う)
  *NE2000_BNRY   = NE2000_RP_START;
  401258:	7a 02 00 20 	mov.l	#0x200003,er2
  40125c:	00 03 
  40125e:	fb 46       	mov.b	#0x46,r3l
  401260:	68 ab       	mov.b	r3l,@er2

00401262 <.LM62>:
/home/ether.c:283

  // PSTOP(page stop register)
  // 受信リングバッファが置かれたページアドレスを指定する
  *NE2000_PSTOP  = NE2000_RP_STOP;
  401262:	7a 02 00 20 	mov.l	#0x200002,er2
  401266:	00 02 
  401268:	fb 80       	mov.b	#0x80,r3l
  40126a:	68 ab       	mov.b	r3l,@er2

0040126c <.LM63>:
/home/ether.c:287

  // IMR(Interrupt mask register)
  // ISR の割込みを有効にするかどうかを決める
  *NE2000_IMR    = 0x00;
  40126c:	7a 02 00 20 	mov.l	#0x20000f,er2
  401270:	00 0f 
  401272:	18 bb       	sub.b	r3l,r3l
  401274:	68 ab       	mov.b	r3l,@er2

00401276 <.LM64>:
/home/ether.c:291

  // ISR(Interrupt status register)
  // NIC の状態と対応する
  *NE2000_ISR    = 0xff;
  401276:	7a 02 00 20 	mov.l	#0x200007,er2
  40127a:	00 07 
  40127c:	fb ff       	mov.b	#0xff,r3l
  40127e:	68 ab       	mov.b	r3l,@er2

00401280 <.LM65>:
/home/ether.c:294

  // SAPROM の 0 番地から 12 バイト読み込む(最初に MAC アドレスが入っている？)
  read_data(0, 12, t2);
  401280:	0f e2       	mov.l	er6,er2
  401282:	7a 32 00 00 	sub.l	#0xf,er2
  401286:	00 0f 
  401288:	79 01 00 0c 	mov.w	#0xc,r1
  40128c:	19 00       	sub.w	r0,r0
  40128e:	5e 40 10 1c 	jsr	@0x40101c:24

00401292 <.LM66>:
/home/ether.c:295
  puts("MAC: ");
  401292:	7a 00 00 40 	mov.l	#0x404108,er0
  401296:	41 08 
  401298:	5e 40 07 b6 	jsr	@0x4007b6:24

0040129c <.LM67>:
/home/ether.c:296
  for (i = 0; i < 6; i++) {
  40129c:	19 22       	sub.w	r2,r2
  40129e:	6f e2 ff fe 	mov.w	r2,@(0xfffe:16,er6)
  4012a2:	40 52       	bra	.+82 (0x4012f6)

004012a4 <.L20>:
/home/ether.c:297 (discriminator 3)
    macaddr[i] = t2[i * 2];
  4012a4:	6f 62 ff fe 	mov.w	@(0xfffe:16,er6),r2
  4012a8:	10 12       	shll.w	r2
  4012aa:	17 f2       	exts.l	er2
  4012ac:	0f e3       	mov.l	er6,er3
  4012ae:	7a 33 00 00 	sub.l	#0xf,er3
  4012b2:	00 0f 
  4012b4:	0a b2       	add.l	er3,er2
  4012b6:	68 2b       	mov.b	@er2,r3l
  4012b8:	6f 62 ff fe 	mov.w	@(0xfffe:16,er6),r2
  4012bc:	17 f2       	exts.l	er2
  4012be:	0f e0       	mov.l	er6,er0
  4012c0:	7a 30 00 00 	sub.l	#0x15,er0
  4012c4:	00 15 
  4012c6:	0a 82       	add.l	er0,er2
  4012c8:	68 ab       	mov.b	r3l,@er2

004012ca <.LM69>:
/home/ether.c:298
    putxval((unsigned char)macaddr[i], 2);
  4012ca:	6f 62 ff fe 	mov.w	@(0xfffe:16,er6),r2
  4012ce:	17 f2       	exts.l	er2
  4012d0:	0f e3       	mov.l	er6,er3
  4012d2:	7a 33 00 00 	sub.l	#0x15,er3
  4012d6:	00 15 
  4012d8:	0a b2       	add.l	er3,er2
  4012da:	68 2a       	mov.b	@er2,r2l
  4012dc:	0c aa       	mov.b	r2l,r2l
  4012de:	17 52       	extu.w	r2
  4012e0:	17 72       	extu.l	er2
  4012e2:	79 01 00 02 	mov.w	#0x2,r1
  4012e6:	0f a0       	mov.l	er2,er0
  4012e8:	5e 40 08 5a 	jsr	@0x40085a:24

004012ec <.LM70>:
/home/ether.c:296
  for (i = 0; i < 6; i++) {
  4012ec:	6f 62 ff fe 	mov.w	@(0xfffe:16,er6),r2
  4012f0:	0b 02       	adds	#1,er2
  4012f2:	6f e2 ff fe 	mov.w	r2,@(0xfffe:16,er6)

004012f6 <.L19>:
/home/ether.c:296 (discriminator 1)
  4012f6:	6f 62 ff fe 	mov.w	@(0xfffe:16,er6),r2
  4012fa:	79 22 00 05 	cmp.w	#0x5,r2
  4012fe:	4f a4       	ble	.-92 (0x4012a4)

00401300 <.LM72>:
/home/ether.c:300
  }
  puts("\n");
  401300:	7a 00 00 40 	mov.l	#0x40410e,er0
  401304:	41 0e 
  401306:	5e 40 07 b6 	jsr	@0x4007b6:24

0040130a <.LM73>:
/home/ether.c:302

  *NE2000_CR   = NE2000_CR_P1 | NE2000_CR_RD_ABORT | NE2000_CR_STP;
  40130a:	7a 02 00 20 	mov.l	#0x200000,er2
  40130e:	00 00 
  401310:	fb 61       	mov.b	#0x61,r3l
  401312:	68 ab       	mov.b	r3l,@er2

00401314 <.LM74>:
/home/ether.c:305

  // PAR0-5 に MAC アドレスを書き込む
  *NE2000_PAR0 = macaddr[0];
  401314:	7a 02 00 20 	mov.l	#0x200001,er2
  401318:	00 01 
  40131a:	6e 6b ff eb 	mov.b	@(0xffeb:16,er6),r3l
  40131e:	68 ab       	mov.b	r3l,@er2

00401320 <.LM75>:
/home/ether.c:306
  *NE2000_PAR1 = macaddr[1];
  401320:	7a 02 00 20 	mov.l	#0x200002,er2
  401324:	00 02 
  401326:	6e 6b ff ec 	mov.b	@(0xffec:16,er6),r3l
  40132a:	68 ab       	mov.b	r3l,@er2

0040132c <.LM76>:
/home/ether.c:307
  *NE2000_PAR2 = macaddr[2];
  40132c:	7a 02 00 20 	mov.l	#0x200003,er2
  401330:	00 03 
  401332:	6e 6b ff ed 	mov.b	@(0xffed:16,er6),r3l
  401336:	68 ab       	mov.b	r3l,@er2

00401338 <.LM77>:
/home/ether.c:308
  *NE2000_PAR3 = macaddr[3];
  401338:	7a 02 00 20 	mov.l	#0x200004,er2
  40133c:	00 04 
  40133e:	6e 6b ff ee 	mov.b	@(0xffee:16,er6),r3l
  401342:	68 ab       	mov.b	r3l,@er2

00401344 <.LM78>:
/home/ether.c:309
  *NE2000_PAR4 = macaddr[4];
  401344:	7a 02 00 20 	mov.l	#0x200005,er2
  401348:	00 05 
  40134a:	6e 6b ff ef 	mov.b	@(0xffef:16,er6),r3l
  40134e:	68 ab       	mov.b	r3l,@er2

00401350 <.LM79>:
/home/ether.c:310
  *NE2000_PAR5 = macaddr[5];
  401350:	7a 02 00 20 	mov.l	#0x200006,er2
  401354:	00 06 
  401356:	6e 6b ff f0 	mov.b	@(0xfff0:16,er6),r3l
  40135a:	68 ab       	mov.b	r3l,@er2

0040135c <.LM80>:
/home/ether.c:312

  *NE2000_CURR = NE2000_RP_START + 1;
  40135c:	7a 02 00 20 	mov.l	#0x200007,er2
  401360:	00 07 
  401362:	fb 47       	mov.b	#0x47,r3l
  401364:	68 ab       	mov.b	r3l,@er2

00401366 <.LM81>:
/home/ether.c:313
  *NE2000_MAR0 = 0x00;
  401366:	7a 02 00 20 	mov.l	#0x200008,er2
  40136a:	00 08 
  40136c:	18 bb       	sub.b	r3l,r3l
  40136e:	68 ab       	mov.b	r3l,@er2

00401370 <.LM82>:
/home/ether.c:314
  *NE2000_MAR1 = 0x00;
  401370:	7a 02 00 20 	mov.l	#0x200009,er2
  401374:	00 09 
  401376:	18 bb       	sub.b	r3l,r3l
  401378:	68 ab       	mov.b	r3l,@er2

0040137a <.LM83>:
/home/ether.c:315
  *NE2000_MAR2 = 0x00;
  40137a:	7a 02 00 20 	mov.l	#0x20000a,er2
  40137e:	00 0a 
  401380:	18 bb       	sub.b	r3l,r3l
  401382:	68 ab       	mov.b	r3l,@er2

00401384 <.LM84>:
/home/ether.c:316
  *NE2000_MAR3 = 0x00;
  401384:	7a 02 00 20 	mov.l	#0x20000b,er2
  401388:	00 0b 
  40138a:	18 bb       	sub.b	r3l,r3l
  40138c:	68 ab       	mov.b	r3l,@er2

0040138e <.LM85>:
/home/ether.c:317
  *NE2000_MAR4 = 0x00;
  40138e:	7a 02 00 20 	mov.l	#0x20000c,er2
  401392:	00 0c 
  401394:	18 bb       	sub.b	r3l,r3l
  401396:	68 ab       	mov.b	r3l,@er2

00401398 <.LM86>:
/home/ether.c:318
  *NE2000_MAR5 = 0x00;
  401398:	7a 02 00 20 	mov.l	#0x20000d,er2
  40139c:	00 0d 
  40139e:	18 bb       	sub.b	r3l,r3l
  4013a0:	68 ab       	mov.b	r3l,@er2

004013a2 <.LM87>:
/home/ether.c:319
  *NE2000_MAR6 = 0x00;
  4013a2:	7a 02 00 20 	mov.l	#0x20000e,er2
  4013a6:	00 0e 
  4013a8:	18 bb       	sub.b	r3l,r3l
  4013aa:	68 ab       	mov.b	r3l,@er2

004013ac <.LM88>:
/home/ether.c:320
  *NE2000_MAR7 = 0x00;
  4013ac:	7a 02 00 20 	mov.l	#0x20000f,er2
  4013b0:	00 0f 
  4013b2:	18 bb       	sub.b	r3l,r3l
  4013b4:	68 ab       	mov.b	r3l,@er2

004013b6 <.LM89>:
/home/ether.c:330
  *RTL8019_CONFIG1 = 0x80 | 0x40;
  *RTL8019_CONFIG2 = 0x00;
  *RTL8019_9346CR  = 0x00;
#endif

  *NE2000_CR   = NE2000_CR_P0 | NE2000_CR_RD_ABORT | NE2000_CR_STP;
  4013b6:	7a 02 00 20 	mov.l	#0x200000,er2
  4013ba:	00 00 
  4013bc:	fb 21       	mov.b	#0x21,r3l
  4013be:	68 ab       	mov.b	r3l,@er2

004013c0 <.LM90>:
/home/ether.c:331
  *NE2000_RCR  = NE2000_RCR_AM | NE2000_RCR_AB | NE2000_RCR_PRO;
  4013c0:	7a 02 00 20 	mov.l	#0x20000c,er2
  4013c4:	00 0c 
  4013c6:	fb 1c       	mov.b	#0x1c,r3l
  4013c8:	68 ab       	mov.b	r3l,@er2

004013ca <.LM91>:
/home/ether.c:332
  *NE2000_CR   = NE2000_CR_P0 | NE2000_CR_RD_ABORT | NE2000_CR_STA;
  4013ca:	7a 02 00 20 	mov.l	#0x200000,er2
  4013ce:	00 00 
  4013d0:	fb 22       	mov.b	#0x22,r3l
  4013d2:	68 ab       	mov.b	r3l,@er2

004013d4 <.LM92>:
/home/ether.c:333
  *NE2000_TCR  = NE2000_TCR_NORMAL;
  4013d4:	7a 02 00 20 	mov.l	#0x20000d,er2
  4013d8:	00 0d 
  4013da:	18 bb       	sub.b	r3l,r3l
  4013dc:	68 ab       	mov.b	r3l,@er2

004013de <.LM93>:
/home/ether.c:334
  *NE2000_IMR  = 0x00;
  4013de:	7a 02 00 20 	mov.l	#0x20000f,er2
  4013e2:	00 0f 
  4013e4:	18 bb       	sub.b	r3l,r3l
  4013e6:	68 ab       	mov.b	r3l,@er2

004013e8 <.LM94>:
/home/ether.c:336

  return 0;
  4013e8:	19 22       	sub.w	r2,r2

004013ea <.LM95>:
/home/ether.c:337
}
  4013ea:	0d 20       	mov.w	r2,r0
  4013ec:	7a 17 00 00 	add.l	#0x1c,er7
  4013f0:	00 1c 
  4013f2:	01 00 6d 76 	mov.l	@er7+,er6
  4013f6:	54 70       	rts	

004013f8 <_ether_intr_enable>:
ether_intr_enable():
/home/ether.c:341

// RTL からの割込みを有効にする
void ether_intr_enable(int index)
{
  4013f8:	01 00 6d f6 	mov.l	er6,@-er7
  4013fc:	0f f6       	mov.l	er7,er6
  4013fe:	1b 97       	subs	#4,er7
  401400:	6f e0 ff fe 	mov.w	r0,@(0xfffe:16,er6)

00401404 <.LM97>:
/home/ether.c:342
  *NE2000_CR  = NE2000_CR_P0 | NE2000_CR_RD_ABORT | NE2000_CR_STA;
  401404:	7a 02 00 20 	mov.l	#0x200000,er2
  401408:	00 00 
  40140a:	fb 22       	mov.b	#0x22,r3l
  40140c:	68 ab       	mov.b	r3l,@er2

0040140e <.LM98>:
/home/ether.c:343
  *NE2000_IMR = 0x01;
  40140e:	7a 02 00 20 	mov.l	#0x20000f,er2
  401412:	00 0f 
  401414:	fb 01       	mov.b	#0x1,r3l
  401416:	68 ab       	mov.b	r3l,@er2

00401418 <.LM99>:
/home/ether.c:344
}
  401418:	00 00       	nop	
  40141a:	0b 97       	adds	#4,er7
  40141c:	01 00 6d 76 	mov.l	@er7+,er6
  401420:	54 70       	rts	

00401422 <_ether_intr_disable>:
ether_intr_disable():
/home/ether.c:348

// RTL からの割込みを無効にする
void ether_intr_disable(int index)
{
  401422:	01 00 6d f6 	mov.l	er6,@-er7
  401426:	0f f6       	mov.l	er7,er6
  401428:	1b 97       	subs	#4,er7
  40142a:	6f e0 ff fe 	mov.w	r0,@(0xfffe:16,er6)

0040142e <.LM101>:
/home/ether.c:349
  *NE2000_CR  = NE2000_CR_P0 | NE2000_CR_RD_ABORT | NE2000_CR_STP;
  40142e:	7a 02 00 20 	mov.l	#0x200000,er2
  401432:	00 00 
  401434:	fb 21       	mov.b	#0x21,r3l
  401436:	68 ab       	mov.b	r3l,@er2

00401438 <.LM102>:
/home/ether.c:350
  *NE2000_IMR = 0x00;
  401438:	7a 02 00 20 	mov.l	#0x20000f,er2
  40143c:	00 0f 
  40143e:	18 bb       	sub.b	r3l,r3l
  401440:	68 ab       	mov.b	r3l,@er2

00401442 <.LM103>:
/home/ether.c:351
}
  401442:	00 00       	nop	
  401444:	0b 97       	adds	#4,er7
  401446:	01 00 6d 76 	mov.l	@er7+,er6
  40144a:	54 70       	rts	

0040144c <_ether_checkintr>:
ether_checkintr():
/home/ether.c:354

int ether_checkintr(int index)
{
  40144c:	01 00 6d f6 	mov.l	er6,@-er7
  401450:	0f f6       	mov.l	er7,er6
  401452:	7a 37 00 00 	sub.l	#0x8,er7
  401456:	00 08 
  401458:	6f e0 ff fa 	mov.w	r0,@(0xfffa:16,er6)

0040145c <.LM105>:
/home/ether.c:360
  unsigned char status;
#if 0
  status = *H8_3069F_ISR;
  return (status & 0x20) ? 1 : 0;
#else
  *NE2000_CR = NE2000_CR_P0 | NE2000_CR_RD_ABORT | NE2000_CR_STA;
  40145c:	7a 02 00 20 	mov.l	#0x200000,er2
  401460:	00 00 
  401462:	fb 22       	mov.b	#0x22,r3l
  401464:	68 ab       	mov.b	r3l,@er2

00401466 <.LM106>:
/home/ether.c:361
  status = *NE2000_ISR;
  401466:	7a 02 00 20 	mov.l	#0x200007,er2
  40146a:	00 07 
  40146c:	68 2a       	mov.b	@er2,r2l
  40146e:	6e ea ff ff 	mov.b	r2l,@(0xffff:16,er6)

00401472 <.LM107>:
/home/ether.c:362
  return (status & 0x01) ? 1 : 0;
  401472:	6e 6a ff ff 	mov.b	@(0xffff:16,er6),r2l
  401476:	17 52       	extu.w	r2
  401478:	79 62 00 01 	and.w	#0x1,r2

0040147c <.LM108>:
/home/ether.c:364
#endif
}
  40147c:	0d 20       	mov.w	r2,r0
  40147e:	0b 97       	adds	#4,er7
  401480:	0b 97       	adds	#4,er7
  401482:	01 00 6d 76 	mov.l	@er7+,er6
  401486:	54 70       	rts	

00401488 <_clear_irq>:
clear_irq():
/home/ether.c:368

// Ethernet Phy の割込みフラグをクリア
static int clear_irq(int index)
{
  401488:	01 00 6d f6 	mov.l	er6,@-er7
  40148c:	0f f6       	mov.l	er7,er6
  40148e:	1b 97       	subs	#4,er7
  401490:	6f e0 ff fe 	mov.w	r0,@(0xfffe:16,er6)

00401494 <.LM110>:
/home/ether.c:369
  if (ether_checkintr(index)) {
  401494:	6f 62 ff fe 	mov.w	@(0xfffe:16,er6),r2
  401498:	0d 20       	mov.w	r2,r0
  40149a:	5e 40 14 4c 	jsr	@0x40144c:24
  40149e:	0d 02       	mov.w	r0,r2
  4014a0:	0d 22       	mov.w	r2,r2
  4014a2:	47 1e       	beq	.+30 (0x4014c2)

004014a4 <.LM111>:
/home/ether.c:371
    // H8 のほうの ISR レジスタをクリアする
    *H8_3069F_ISR = 0x00;
  4014a4:	7a 02 00 fe 	mov.l	#0xfee016,er2
  4014a8:	e0 16 
  4014aa:	18 bb       	sub.b	r3l,r3l
  4014ac:	68 ab       	mov.b	r3l,@er2

004014ae <.LM112>:
/home/ether.c:373
    // ページ0にしてコマンドを準備
    *NE2000_CR    = NE2000_CR_P0 | NE2000_CR_RD_ABORT | NE2000_CR_STA;
  4014ae:	7a 02 00 20 	mov.l	#0x200000,er2
  4014b2:	00 00 
  4014b4:	fb 22       	mov.b	#0x22,r3l
  4014b6:	68 ab       	mov.b	r3l,@er2

004014b8 <.LM113>:
/home/ether.c:375
    // ステータスレジスタをクリア
    *NE2000_ISR   = 0xff;
  4014b8:	7a 02 00 20 	mov.l	#0x200007,er2
  4014bc:	00 07 
  4014be:	fb ff       	mov.b	#0xff,r3l
  4014c0:	68 ab       	mov.b	r3l,@er2

004014c2 <.L27>:
/home/ether.c:377
  }
  return 0;
  4014c2:	19 22       	sub.w	r2,r2

004014c4 <.LM115>:
/home/ether.c:378
}
  4014c4:	0d 20       	mov.w	r2,r0
  4014c6:	0b 97       	adds	#4,er7
  4014c8:	01 00 6d 76 	mov.l	@er7+,er6
  4014cc:	54 70       	rts	

004014ce <_ether_recv>:
ether_recv():
/home/ether.c:382

// Ethernet フレームを受信する
int ether_recv(int index, char *buf)
{
  4014ce:	01 00 6d f6 	mov.l	er6,@-er7
  4014d2:	0f f6       	mov.l	er7,er6
  4014d4:	7a 37 00 00 	sub.l	#0x10,er7
  4014d8:	00 10 
  4014da:	6f e0 ff f6 	mov.w	r0,@(0xfff6:16,er6)
  4014de:	01 00 6f e1 	mov.l	er1,@(0xfff0:16,er6)
  4014e2:	ff f0 

004014e4 <.LM117>:
/home/ether.c:391

  // BNRY: read ポインタ、この番号までは読み終えている、次回はこの番号の次から読む
  // CURR: write ポインタ、次にパケットを受信したら、この番号から書く

  // ページ0を選択しコマンドを開始
  *NE2000_CR = NE2000_CR_P0 | NE2000_CR_RD_ABORT | NE2000_CR_STA;
  4014e4:	7a 02 00 20 	mov.l	#0x200000,er2
  4014e8:	00 00 
  4014ea:	fb 22       	mov.b	#0x22,r3l
  4014ec:	68 ab       	mov.b	r3l,@er2

004014ee <.LM118>:
/home/ether.c:393
  // リングバッファの次の領域を開始アドレスにする
  start = *NE2000_BNRY + 1;
  4014ee:	7a 02 00 20 	mov.l	#0x200003,er2
  4014f2:	00 03 
  4014f4:	68 2a       	mov.b	@er2,r2l
  4014f6:	8a 01       	add.b	#0x1,r2l
  4014f8:	6e ea ff ff 	mov.b	r2l,@(0xffff:16,er6)

004014fc <.LM119>:
/home/ether.c:396

  // ページ1を選択しコマンドを開始
  *NE2000_CR = NE2000_CR_P1 | NE2000_CR_RD_ABORT | NE2000_CR_STA;
  4014fc:	7a 02 00 20 	mov.l	#0x200000,er2
  401500:	00 00 
  401502:	fb 62       	mov.b	#0x62,r3l
  401504:	68 ab       	mov.b	r3l,@er2

00401506 <.LM120>:
/home/ether.c:398
  // CURR(current page register): パケットを受信するために使う最初のバッファのページアドレス
  curr = *NE2000_CURR;
  401506:	7a 02 00 20 	mov.l	#0x200007,er2
  40150a:	00 07 
  40150c:	68 2a       	mov.b	@er2,r2l
  40150e:	6e ea ff fe 	mov.b	r2l,@(0xfffe:16,er6)

00401512 <.LM121>:
/home/ether.c:400

  if (curr < start)
  401512:	6e 6b ff fe 	mov.b	@(0xfffe:16,er6),r3l
  401516:	6e 6a ff ff 	mov.b	@(0xffff:16,er6),r2l
  40151a:	1c ab       	cmp.b	r2l,r3l
  40151c:	44 0a       	bcc	.+10 (0x401528)

0040151e <.LM122>:
/home/ether.c:402
    // 書き込みデータがリングバッファの先頭に戻ってしまっていたら
    curr += NE2000_RP_STOP - NE2000_RP_START;
  40151e:	6e 6a ff fe 	mov.b	@(0xfffe:16,er6),r2l
  401522:	8a 3a       	add.b	#0x3a,r2l
  401524:	6e ea ff fe 	mov.b	r2l,@(0xfffe:16,er6)

00401528 <.L30>:
/home/ether.c:403
  if (start == curr)
  401528:	6e 6b ff ff 	mov.b	@(0xffff:16,er6),r3l
  40152c:	6e 6a ff fe 	mov.b	@(0xfffe:16,er6),r2l
  401530:	1c ab       	cmp.b	r2l,r3l
  401532:	46 06       	bne	.+6 (0x40153a)

00401534 <.LM124>:
/home/ether.c:405
    // 何のデータも受信していない場合
    return 0;
  401534:	19 22       	sub.w	r2,r2
  401536:	58 00 00 96 	bra	.+150 (0x4015d0)

0040153a <.L31>:
/home/ether.c:406
  if (start == NE2000_RP_STOP)
  40153a:	6e 6a ff ff 	mov.b	@(0xffff:16,er6),r2l
  40153e:	aa 80       	cmp.b	#0x80,r2l
  401540:	46 06       	bne	.+6 (0x401548)

00401542 <.LM126>:
/home/ether.c:408
    // PSTOP を読もうとしたら、先頭に巻き戻す
    start = NE2000_RP_START;
  401542:	fa 46       	mov.b	#0x46,r2l
  401544:	6e ea ff ff 	mov.b	r2l,@(0xffff:16,er6)

00401548 <.L33>:
/home/ether.c:411

  // まずパケットのサイズを受信
  read_data(start * 256, 4, header);
  401548:	6e 6a ff ff 	mov.b	@(0xffff:16,er6),r2l
  40154c:	17 52       	extu.w	r2
  40154e:	0d 23       	mov.w	r2,r3
  401550:	0c b3       	mov.b	r3l,r3h
  401552:	18 bb       	sub.b	r3l,r3l
  401554:	0f e2       	mov.l	er6,er2
  401556:	1b 92       	subs	#4,er2
  401558:	1b 92       	subs	#4,er2
  40155a:	79 01 00 04 	mov.w	#0x4,r1
  40155e:	0d 30       	mov.w	r3,r0
  401560:	5e 40 10 1c 	jsr	@0x40101c:24

00401564 <.LM128>:
/home/ether.c:413
  // パケットのサイズは下位2バイト
  size = ((int)header[3] << 8) + header[2] - 4;
  401564:	6e 6a ff fb 	mov.b	@(0xfffb:16,er6),r2l
  401568:	17 52       	extu.w	r2
  40156a:	0c a2       	mov.b	r2l,r2h
  40156c:	18 aa       	sub.b	r2l,r2l
  40156e:	6e 6b ff fa 	mov.b	@(0xfffa:16,er6),r3l
  401572:	17 53       	extu.w	r3
  401574:	09 32       	add.w	r3,r2
  401576:	1b 92       	subs	#4,er2
  401578:	6f e2 ff fc 	mov.w	r2,@(0xfffc:16,er6)

0040157c <.LM129>:
/home/ether.c:417

  // パケットの本体を受信
  // リングバッファの末尾を超える可能性があるが、そこはハードがうまくやることを期待している
  read_data((start * 256) + 4, size, buf);
  40157c:	6e 6a ff ff 	mov.b	@(0xffff:16,er6),r2l
  401580:	17 52       	extu.w	r2
  401582:	0c a2       	mov.b	r2l,r2h
  401584:	18 aa       	sub.b	r2l,r2l
  401586:	0d 23       	mov.w	r2,r3
  401588:	0b 93       	adds	#4,er3
  40158a:	01 00 6f 62 	mov.l	@(0xfff0:16,er6),er2
  40158e:	ff f0 
  401590:	6f 60 ff fc 	mov.w	@(0xfffc:16,er6),r0
  401594:	0d 01       	mov.w	r0,r1
  401596:	0d 30       	mov.w	r3,r0
  401598:	5e 40 10 1c 	jsr	@0x40101c:24

0040159c <.LM130>:
/home/ether.c:420

  // ページを0に
  *NE2000_CR = NE2000_CR_P0 | NE2000_CR_RD_ABORT | NE2000_CR_STA;
  40159c:	7a 02 00 20 	mov.l	#0x200000,er2
  4015a0:	00 00 
  4015a2:	fb 22       	mov.b	#0x22,r3l
  4015a4:	68 ab       	mov.b	r3l,@er2

004015a6 <.LM131>:
/home/ether.c:421
  if (header[1] == NE2000_RP_START)
  4015a6:	6e 6a ff f9 	mov.b	@(0xfff9:16,er6),r2l
  4015aa:	aa 46       	cmp.b	#0x46,r2l
  4015ac:	46 06       	bne	.+6 (0x4015b4)

004015ae <.LM132>:
/home/ether.c:422
    header[1] = NE2000_RP_STOP;
  4015ae:	fa 80       	mov.b	#0x80,r2l
  4015b0:	6e ea ff f9 	mov.b	r2l,@(0xfff9:16,er6)

004015b4 <.L34>:
/home/ether.c:424
  // ヘッダの2バイト目には次のページのインデックスが書かれている
  *NE2000_BNRY = header[1] - 1;
  4015b4:	6e 6b ff f9 	mov.b	@(0xfff9:16,er6),r3l
  4015b8:	7a 02 00 20 	mov.l	#0x200003,er2
  4015bc:	00 03 
  4015be:	8b ff       	add.b	#0xff,r3l
  4015c0:	68 ab       	mov.b	r3l,@er2

004015c2 <.LM134>:
/home/ether.c:426

  clear_irq(index);
  4015c2:	6f 62 ff f6 	mov.w	@(0xfff6:16,er6),r2
  4015c6:	0d 20       	mov.w	r2,r0
  4015c8:	5e 40 14 88 	jsr	@0x401488:24

004015cc <.LM135>:
/home/ether.c:428

  return size;
  4015cc:	6f 62 ff fc 	mov.w	@(0xfffc:16,er6),r2

004015d0 <.L35>:
/home/ether.c:429 (discriminator 1)
}
  4015d0:	0d 20       	mov.w	r2,r0
  4015d2:	7a 17 00 00 	add.l	#0x10,er7
  4015d6:	00 10 
  4015d8:	01 00 6d 76 	mov.l	@er7+,er6
  4015dc:	54 70       	rts	

004015de <_ether_send>:
ether_send():
/home/ether.c:433

// Ethernet フレームを送信する
int ether_send(int index, int size, char *buf)
{
  4015de:	01 00 6d f6 	mov.l	er6,@-er7
  4015e2:	0f f6       	mov.l	er7,er6
  4015e4:	7a 37 00 00 	sub.l	#0x8,er7
  4015e8:	00 08 
  4015ea:	6f e0 ff fe 	mov.w	r0,@(0xfffe:16,er6)
  4015ee:	6f e1 ff fc 	mov.w	r1,@(0xfffc:16,er6)
  4015f2:	01 00 6f e2 	mov.l	er2,@(0xfff8:16,er6)
  4015f6:	ff f8 

004015f8 <.LM138>:
/home/ether.c:436
  // 送信時は必ず 0x40 の位置にデータを書く
  // 送信用のデータ領域は1パケット分しかないため
  write_data(NE2000_TP_START * 256, size, buf);
  4015f8:	01 00 6f 62 	mov.l	@(0xfff8:16,er6),er2
  4015fc:	ff f8 
  4015fe:	6f 63 ff fc 	mov.w	@(0xfffc:16,er6),r3
  401602:	0d 31       	mov.w	r3,r1
  401604:	79 00 40 00 	mov.w	#0x4000,r0
  401608:	5e 40 10 dc 	jsr	@0x4010dc:24

0040160c <.LM139>:
/home/ether.c:438
        
  if(size < 60)
  40160c:	6f 62 ff fc 	mov.w	@(0xfffc:16,er6),r2
  401610:	79 22 00 3b 	cmp.w	#0x3b,r2
  401614:	4e 08       	bgt	.+8 (0x40161e)

00401616 <.LM140>:
/home/ether.c:439
    size = 60;
  401616:	79 02 00 3c 	mov.w	#0x3c,r2
  40161a:	6f e2 ff fc 	mov.w	r2,@(0xfffc:16,er6)

0040161e <.L37>:
/home/ether.c:442

  // ページ0でコマンドを準備
  *NE2000_CR    = NE2000_CR_P0 | NE2000_CR_RD_ABORT | NE2000_CR_STA;
  40161e:	7a 02 00 20 	mov.l	#0x200000,er2
  401622:	00 00 
  401624:	fb 22       	mov.b	#0x22,r3l
  401626:	68 ab       	mov.b	r3l,@er2

00401628 <.LM142>:
/home/ether.c:444
  // パケットサイズを2バイトで指定
  *NE2000_TBCR0 = size & 0xff;        // 下位バイト
  401628:	7a 02 00 20 	mov.l	#0x200005,er2
  40162c:	00 05 
  40162e:	6f 63 ff fc 	mov.w	@(0xfffc:16,er6),r3
  401632:	68 ab       	mov.b	r3l,@er2

00401634 <.LM143>:
/home/ether.c:445
  *NE2000_TBCR1 = (size >> 8) & 0xff; // 上位バイト
  401634:	6f 62 ff fc 	mov.w	@(0xfffc:16,er6),r2
  401638:	0c 2a       	mov.b	r2h,r2l
  40163a:	17 52       	extu.w	r2
  40163c:	7a 03 00 20 	mov.l	#0x200006,er3
  401640:	00 06 
  401642:	68 ba       	mov.b	r2l,@er3

00401644 <.LM144>:
/home/ether.c:448

  // TPSR(transmit page start register): 送信されるパケットのスタートページアドレス
  *NE2000_TPSR  = NE2000_TP_START;
  401644:	7a 02 00 20 	mov.l	#0x200004,er2
  401648:	00 04 
  40164a:	fb 40       	mov.b	#0x40,r3l
  40164c:	68 ab       	mov.b	r3l,@er2

0040164e <.LM145>:
/home/ether.c:451

  // TXP をセットし送信を開始
  *NE2000_CR    = NE2000_CR_P0 | NE2000_CR_RD_ABORT | NE2000_CR_TXP | NE2000_CR_STA;
  40164e:	7a 02 00 20 	mov.l	#0x200000,er2
  401652:	00 00 
  401654:	fb 26       	mov.b	#0x26,r3l
  401656:	68 ab       	mov.b	r3l,@er2

00401658 <.LM146>:
	...

0040165a <.L38>:
/home/ether.c:454 (discriminator 1)

  // 送信が完了するまで(TXP ビットがクリアされるまで)ビジーループで待つ
  while ((*NE2000_CR & NE2000_CR_TXP) != 0)
  40165a:	7a 02 00 20 	mov.l	#0x200000,er2
  40165e:	00 00 
  401660:	68 2a       	mov.b	@er2,r2l
  401662:	17 52       	extu.w	r2
  401664:	79 62 00 04 	and.w	#0x4,r2
  401668:	0d 22       	mov.w	r2,r2
  40166a:	46 ee       	bne	.-18 (0x40165a)

0040166c <.LM148>:
/home/ether.c:457
    ;

  return 0;
  40166c:	19 22       	sub.w	r2,r2

0040166e <.LM149>:
/home/ether.c:458
}
  40166e:	0d 20       	mov.w	r2,r0
  401670:	0b 97       	adds	#4,er7
  401672:	0b 97       	adds	#4,er7
  401674:	01 00 6d 76 	mov.l	@er7+,er6
  401678:	54 70       	rts	

0040167a <_getcurrent>:
getcurrent():
/home/kozos.c:84

void dispatch(kz_context *context);

/* カレント・スレッドをレディー・キューから抜き出す */
static int getcurrent(void)
{
  40167a:	01 00 6d f6 	mov.l	er6,@-er7
  40167e:	0f f6       	mov.l	er7,er6

00401680 <.LM2>:
/home/kozos.c:85
  if (current == NULL) {
  401680:	01 00 6b 22 	mov.l	@0x404290:32,er2
  401684:	00 40 42 90 
  401688:	0f a2       	mov.l	er2,er2
  40168a:	46 08       	bne	.+8 (0x401694)

0040168c <.LM3>:
/home/kozos.c:86
    return -1;
  40168c:	79 02 ff ff 	mov.w	#0xffff,r2
  401690:	58 00 00 ba 	bra	.+186 (0x40174e)

00401694 <.L2>:
/home/kozos.c:88
  }
  if (!(current->flags & KZ_THREAD_FLAG_READY)) {
  401694:	01 00 6b 22 	mov.l	@0x404290:32,er2
  401698:	00 40 42 90 
  40169c:	01 00 6f 22 	mov.l	@(0x1c:16,er2),er2
  4016a0:	00 1c 
  4016a2:	7a 62 00 00 	and.l	#0x1,er2
  4016a6:	00 01 
  4016a8:	0f a2       	mov.l	er2,er2
  4016aa:	46 08       	bne	.+8 (0x4016b4)

004016ac <.LM5>:
/home/kozos.c:90
    /* すでに無い場合は無視 */
    return 1;
  4016ac:	79 02 00 01 	mov.w	#0x1,r2
  4016b0:	58 00 00 9a 	bra	.+154 (0x40174e)

004016b4 <.L4>:
/home/kozos.c:94
  }

  /* カレント・スレッドは必ず先頭にあるはずなので，先頭から抜き出す */
  readyque[current->priority].head = current->next;
  4016b4:	01 00 6b 23 	mov.l	@0x404290:32,er3
  4016b8:	00 40 42 90 
  4016bc:	01 00 6b 22 	mov.l	@0x404290:32,er2
  4016c0:	00 40 42 90 
  4016c4:	6f 22 00 14 	mov.w	@(0x14:16,er2),r2
  4016c8:	01 00 69 33 	mov.l	@er3,er3
  4016cc:	17 f2       	exts.l	er2
  4016ce:	10 32       	shll.l	er2
  4016d0:	10 32       	shll.l	er2
  4016d2:	10 32       	shll.l	er2
  4016d4:	7a 12 00 40 	add.l	#0x404210,er2
  4016d8:	42 10 
  4016da:	01 00 69 a3 	mov.l	er3,@er2

004016de <.LM7>:
/home/kozos.c:95
  if (readyque[current->priority].head == NULL) {
  4016de:	01 00 6b 22 	mov.l	@0x404290:32,er2
  4016e2:	00 40 42 90 
  4016e6:	6f 22 00 14 	mov.w	@(0x14:16,er2),r2
  4016ea:	17 f2       	exts.l	er2
  4016ec:	10 32       	shll.l	er2
  4016ee:	10 32       	shll.l	er2
  4016f0:	10 32       	shll.l	er2
  4016f2:	7a 12 00 40 	add.l	#0x404210,er2
  4016f6:	42 10 
  4016f8:	01 00 69 22 	mov.l	@er2,er2
  4016fc:	0f a2       	mov.l	er2,er2
  4016fe:	46 20       	bne	.+32 (0x401720)

00401700 <.LM8>:
/home/kozos.c:96
    readyque[current->priority].tail = NULL;
  401700:	01 00 6b 22 	mov.l	@0x404290:32,er2
  401704:	00 40 42 90 
  401708:	6f 22 00 14 	mov.w	@(0x14:16,er2),r2
  40170c:	17 f2       	exts.l	er2
  40170e:	10 32       	shll.l	er2
  401710:	10 32       	shll.l	er2
  401712:	10 32       	shll.l	er2
  401714:	7a 12 00 40 	add.l	#0x404214,er2
  401718:	42 14 
  40171a:	1a b3       	sub.l	er3,er3
  40171c:	01 00 69 a3 	mov.l	er3,@er2

00401720 <.L5>:
/home/kozos.c:98
  }
  current->flags &= ~KZ_THREAD_FLAG_READY;
  401720:	01 00 6b 22 	mov.l	@0x404290:32,er2
  401724:	00 40 42 90 
  401728:	01 00 6f 23 	mov.l	@(0x1c:16,er2),er3
  40172c:	00 1c 
  40172e:	01 00 6b 22 	mov.l	@0x404290:32,er2
  401732:	00 40 42 90 
  401736:	eb fe       	and.b	#0xfe,r3l
  401738:	01 00 6f a3 	mov.l	er3,@(0x1c:16,er2)
  40173c:	00 1c 

0040173e <.LM10>:
/home/kozos.c:99
  current->next = NULL;
  40173e:	01 00 6b 22 	mov.l	@0x404290:32,er2
  401742:	00 40 42 90 
  401746:	1a b3       	sub.l	er3,er3
  401748:	01 00 69 a3 	mov.l	er3,@er2

0040174c <.LM11>:
/home/kozos.c:101

  return 0;
  40174c:	19 22       	sub.w	r2,r2

0040174e <.L3>:
/home/kozos.c:102
}
  40174e:	0d 20       	mov.w	r2,r0
  401750:	01 00 6d 76 	mov.l	@er7+,er6
  401754:	54 70       	rts	

00401756 <_putcurrent>:
putcurrent():
/home/kozos.c:106

/* カレント・スレッドをレディー・キューに繋げる */
static int putcurrent(void)
{
  401756:	01 00 6d f6 	mov.l	er6,@-er7
  40175a:	0f f6       	mov.l	er7,er6

0040175c <.LM14>:
/home/kozos.c:107
  if (current == NULL) {
  40175c:	01 00 6b 22 	mov.l	@0x404290:32,er2
  401760:	00 40 42 90 
  401764:	0f a2       	mov.l	er2,er2
  401766:	46 08       	bne	.+8 (0x401770)

00401768 <.LM15>:
/home/kozos.c:108
    return -1;
  401768:	79 02 ff ff 	mov.w	#0xffff,r2
  40176c:	58 00 00 da 	bra	.+218 (0x40184a)

00401770 <.L7>:
/home/kozos.c:110
  }
  if (current->flags & KZ_THREAD_FLAG_READY) {
  401770:	01 00 6b 22 	mov.l	@0x404290:32,er2
  401774:	00 40 42 90 
  401778:	01 00 6f 22 	mov.l	@(0x1c:16,er2),er2
  40177c:	00 1c 
  40177e:	7a 62 00 00 	and.l	#0x1,er2
  401782:	00 01 
  401784:	0f a2       	mov.l	er2,er2
  401786:	47 08       	beq	.+8 (0x401790)

00401788 <.LM17>:
/home/kozos.c:112
    /* すでに有る場合は無視 */
    return 1;
  401788:	79 02 00 01 	mov.w	#0x1,r2
  40178c:	58 00 00 ba 	bra	.+186 (0x40184a)

00401790 <.L9>:
/home/kozos.c:116
  }

  /* レディー・キューの末尾に接続する */
  if (readyque[current->priority].tail) {
  401790:	01 00 6b 22 	mov.l	@0x404290:32,er2
  401794:	00 40 42 90 
  401798:	6f 22 00 14 	mov.w	@(0x14:16,er2),r2
  40179c:	17 f2       	exts.l	er2
  40179e:	10 32       	shll.l	er2
  4017a0:	10 32       	shll.l	er2
  4017a2:	10 32       	shll.l	er2
  4017a4:	7a 12 00 40 	add.l	#0x404214,er2
  4017a8:	42 14 
  4017aa:	01 00 69 22 	mov.l	@er2,er2
  4017ae:	0f a2       	mov.l	er2,er2
  4017b0:	47 2c       	beq	.+44 (0x4017de)

004017b2 <.LM19>:
/home/kozos.c:117
    readyque[current->priority].tail->next = current;
  4017b2:	01 00 6b 22 	mov.l	@0x404290:32,er2
  4017b6:	00 40 42 90 
  4017ba:	6f 22 00 14 	mov.w	@(0x14:16,er2),r2
  4017be:	17 f2       	exts.l	er2
  4017c0:	10 32       	shll.l	er2
  4017c2:	10 32       	shll.l	er2
  4017c4:	10 32       	shll.l	er2
  4017c6:	7a 12 00 40 	add.l	#0x404214,er2
  4017ca:	42 14 
  4017cc:	01 00 69 22 	mov.l	@er2,er2
  4017d0:	01 00 6b 23 	mov.l	@0x404290:32,er3
  4017d4:	00 40 42 90 
  4017d8:	01 00 69 a3 	mov.l	er3,@er2
  4017dc:	40 26       	bra	.+38 (0x401804)

004017de <.L10>:
/home/kozos.c:119
  } else {
    readyque[current->priority].head = current;
  4017de:	01 00 6b 22 	mov.l	@0x404290:32,er2
  4017e2:	00 40 42 90 
  4017e6:	6f 22 00 14 	mov.w	@(0x14:16,er2),r2
  4017ea:	01 00 6b 23 	mov.l	@0x404290:32,er3
  4017ee:	00 40 42 90 
  4017f2:	17 f2       	exts.l	er2
  4017f4:	10 32       	shll.l	er2
  4017f6:	10 32       	shll.l	er2
  4017f8:	10 32       	shll.l	er2
  4017fa:	7a 12 00 40 	add.l	#0x404210,er2
  4017fe:	42 10 
  401800:	01 00 69 a3 	mov.l	er3,@er2

00401804 <.L11>:
/home/kozos.c:121
  }
  readyque[current->priority].tail = current;
  401804:	01 00 6b 22 	mov.l	@0x404290:32,er2
  401808:	00 40 42 90 
  40180c:	6f 22 00 14 	mov.w	@(0x14:16,er2),r2
  401810:	01 00 6b 23 	mov.l	@0x404290:32,er3
  401814:	00 40 42 90 
  401818:	17 f2       	exts.l	er2
  40181a:	10 32       	shll.l	er2
  40181c:	10 32       	shll.l	er2
  40181e:	10 32       	shll.l	er2
  401820:	7a 12 00 40 	add.l	#0x404214,er2
  401824:	42 14 
  401826:	01 00 69 a3 	mov.l	er3,@er2

0040182a <.LM22>:
/home/kozos.c:122
  current->flags |= KZ_THREAD_FLAG_READY;
  40182a:	01 00 6b 22 	mov.l	@0x404290:32,er2
  40182e:	00 40 42 90 
  401832:	01 00 6f 23 	mov.l	@(0x1c:16,er2),er3
  401836:	00 1c 
  401838:	01 00 6b 22 	mov.l	@0x404290:32,er2
  40183c:	00 40 42 90 
  401840:	cb 01       	or.b	#0x1,r3l
  401842:	01 00 6f a3 	mov.l	er3,@(0x1c:16,er2)
  401846:	00 1c 

00401848 <.LM23>:
/home/kozos.c:124

  return 0;
  401848:	19 22       	sub.w	r2,r2

0040184a <.L8>:
/home/kozos.c:125
}
  40184a:	0d 20       	mov.w	r2,r0
  40184c:	01 00 6d 76 	mov.l	@er7+,er6
  401850:	54 70       	rts	

00401852 <_thread_end>:
thread_end():
/home/kozos.c:128

static void thread_end(void)
{
  401852:	01 00 6d f6 	mov.l	er6,@-er7
  401856:	0f f6       	mov.l	er7,er6

00401858 <.LM26>:
/home/kozos.c:129
  kz_exit();
  401858:	5e 40 25 f4 	jsr	@0x4025f4:24

0040185c <.LM27>:
/home/kozos.c:130
}
  40185c:	00 00       	nop	
  40185e:	01 00 6d 76 	mov.l	@er7+,er6
  401862:	54 70       	rts	

00401864 <_thread_init>:
thread_init():
/home/kozos.c:134

/* スレッドのスタート・アップ */
static void thread_init(kz_thread *thp)
{
  401864:	01 00 6d f6 	mov.l	er6,@-er7
  401868:	0f f6       	mov.l	er7,er6
  40186a:	1b 97       	subs	#4,er7
  40186c:	01 00 6f e0 	mov.l	er0,@(0xfffc:16,er6)
  401870:	ff fc 

00401872 <.LM29>:
/home/kozos.c:136
  /* スレッドのメイン関数を呼び出す */
  thp->init.func(thp->init.argc, thp->init.argv);
  401872:	01 00 6f 62 	mov.l	@(0xfffc:16,er6),er2
  401876:	ff fc 
  401878:	01 00 6f 22 	mov.l	@(0x20:16,er2),er2
  40187c:	00 20 
  40187e:	01 00 6f 63 	mov.l	@(0xfffc:16,er6),er3
  401882:	ff fc 
  401884:	01 00 6f 30 	mov.l	@(0x28:16,er3),er0
  401888:	00 28 
  40188a:	01 00 6f 63 	mov.l	@(0xfffc:16,er6),er3
  40188e:	ff fc 
  401890:	6f 33 00 24 	mov.w	@(0x24:16,er3),r3
  401894:	0f 81       	mov.l	er0,er1
  401896:	0d 30       	mov.w	r3,r0
  401898:	5d 20       	jsr	@er2

0040189a <.LM30>:
/home/kozos.c:137
  thread_end();
  40189a:	5e 40 18 52 	jsr	@0x401852:24

0040189e <.LM31>:
/home/kozos.c:138
}
  40189e:	00 00       	nop	
  4018a0:	0b 97       	adds	#4,er7
  4018a2:	01 00 6d 76 	mov.l	@er7+,er6
  4018a6:	54 70       	rts	

004018a8 <_thread_run>:
thread_run():
/home/kozos.c:143

/* システム・コールの処理(kz_run():スレッドの起動) */
static kz_thread_id_t thread_run(kz_func_t func, char *name, int priority,
				 int stacksize, int argc, char *argv[])
{
  4018a8:	01 00 6d f6 	mov.l	er6,@-er7
  4018ac:	0f f6       	mov.l	er7,er6
  4018ae:	7a 37 00 00 	sub.l	#0x18,er7
  4018b2:	00 18 
  4018b4:	01 00 6f e0 	mov.l	er0,@(0xfff0:16,er6)
  4018b8:	ff f0 
  4018ba:	01 00 6f e1 	mov.l	er1,@(0xffec:16,er6)
  4018be:	ff ec 
  4018c0:	6f e2 ff ea 	mov.w	r2,@(0xffea:16,er6)

004018c4 <.LM33>:
/home/kozos.c:151
  uint32 *sp;
  extern char userstack; /* リンカ・スクリプトで定義されるスタック領域 */
  static char *thread_stack = &userstack;

  /* 空いているタスク・コントロール・ブロックを検索 */
  for (i = 0; i < THREAD_NUM; i++) {
  4018c4:	19 22       	sub.w	r2,r2
  4018c6:	6f e2 ff fe 	mov.w	r2,@(0xfffe:16,er6)
  4018ca:	40 34       	bra	.+52 (0x401900)

004018cc <.L18>:
/home/kozos.c:152
    thp = &threads[i];
  4018cc:	6f 62 ff fe 	mov.w	@(0xfffe:16,er6),r2
  4018d0:	17 f2       	exts.l	er2
  4018d2:	fb 06       	mov.b	#0x6,r3l

004018d4 <.Llt8>:
  4018d4:	10 32       	shll.l	er2
  4018d6:	8b ff       	add.b	#0xff,r3l
  4018d8:	46 fa       	bne	.-6 (0x4018d4)
  4018da:	7a 12 00 40 	add.l	#0x404294,er2
  4018de:	42 94 
  4018e0:	01 00 6f e2 	mov.l	er2,@(0xfff8:16,er6)
  4018e4:	ff f8 

004018e6 <.LM35>:
/home/kozos.c:153
    if (!thp->init.func) /* 見つかった */
  4018e6:	01 00 6f 62 	mov.l	@(0xfff8:16,er6),er2
  4018ea:	ff f8 
  4018ec:	01 00 6f 22 	mov.l	@(0x20:16,er2),er2
  4018f0:	00 20 
  4018f2:	0f a2       	mov.l	er2,er2
  4018f4:	47 16       	beq	.+22 (0x40190c)

004018f6 <.LM36>:
/home/kozos.c:151 (discriminator 2)
  for (i = 0; i < THREAD_NUM; i++) {
  4018f6:	6f 62 ff fe 	mov.w	@(0xfffe:16,er6),r2
  4018fa:	0b 02       	adds	#1,er2
  4018fc:	6f e2 ff fe 	mov.w	r2,@(0xfffe:16,er6)

00401900 <.L15>:
/home/kozos.c:151 (discriminator 1)
  401900:	6f 62 ff fe 	mov.w	@(0xfffe:16,er6),r2
  401904:	79 22 00 05 	cmp.w	#0x5,r2
  401908:	4f c2       	ble	.-62 (0x4018cc)
  40190a:	40 02       	bra	.+2 (0x40190e)

0040190c <.L23>:
	...

0040190e <.L17>:
/home/kozos.c:156
      break;
  }
  if (i == THREAD_NUM) /* 見つからなかった */
  40190e:	6f 62 ff fe 	mov.w	@(0xfffe:16,er6),r2
  401912:	79 22 00 06 	cmp.w	#0x6,r2
  401916:	46 08       	bne	.+8 (0x401920)

00401918 <.LM40>:
/home/kozos.c:157
    return -1;
  401918:	1a a2       	sub.l	er2,er2
  40191a:	1b 02       	subs	#1,er2
  40191c:	58 00 02 10 	bra	.+528 (0x401b30)

00401920 <.L19>:
/home/kozos.c:159

  memset(thp, 0, sizeof(*thp));
  401920:	01 00 6f 63 	mov.l	@(0xfff8:16,er6),er3
  401924:	ff f8 
  401926:	1a a2       	sub.l	er2,er2
  401928:	8a 40       	add.b	#0x40,r2l
  40192a:	19 11       	sub.w	r1,r1
  40192c:	0f b0       	mov.l	er3,er0
  40192e:	5e 40 03 a0 	jsr	@0x4003a0:24

00401932 <.LM42>:
/home/kozos.c:162

  /* タスク・コントロール・ブロック(TCB)の設定 */
  strcpy(thp->name, name);
  401932:	01 00 6f 62 	mov.l	@(0xfff8:16,er6),er2
  401936:	ff f8 
  401938:	0b 92       	adds	#4,er2
  40193a:	01 00 6f 63 	mov.l	@(0xffec:16,er6),er3
  40193e:	ff ec 
  401940:	0f b1       	mov.l	er3,er1
  401942:	0f a0       	mov.l	er2,er0
  401944:	5e 40 05 92 	jsr	@0x400592:24

00401948 <.LM43>:
/home/kozos.c:163
  thp->next     = NULL;
  401948:	01 00 6f 62 	mov.l	@(0xfff8:16,er6),er2
  40194c:	ff f8 
  40194e:	1a b3       	sub.l	er3,er3
  401950:	01 00 69 a3 	mov.l	er3,@er2

00401954 <.LM44>:
/home/kozos.c:164
  thp->priority = priority;
  401954:	01 00 6f 62 	mov.l	@(0xfff8:16,er6),er2
  401958:	ff f8 
  40195a:	6f 63 ff ea 	mov.w	@(0xffea:16,er6),r3
  40195e:	6f a3 00 14 	mov.w	r3,@(0x14:16,er2)

00401962 <.LM45>:
/home/kozos.c:165
  thp->flags    = 0;
  401962:	01 00 6f 62 	mov.l	@(0xfff8:16,er6),er2
  401966:	ff f8 
  401968:	1a b3       	sub.l	er3,er3
  40196a:	01 00 6f a3 	mov.l	er3,@(0x1c:16,er2)
  40196e:	00 1c 

00401970 <.LM46>:
/home/kozos.c:167

  thp->init.func = func;
  401970:	01 00 6f 62 	mov.l	@(0xfff8:16,er6),er2
  401974:	ff f8 
  401976:	01 00 6f 63 	mov.l	@(0xfff0:16,er6),er3
  40197a:	ff f0 
  40197c:	01 00 6f a3 	mov.l	er3,@(0x20:16,er2)
  401980:	00 20 

00401982 <.LM47>:
/home/kozos.c:168
  thp->init.argc = argc;
  401982:	01 00 6f 62 	mov.l	@(0xfff8:16,er6),er2
  401986:	ff f8 
  401988:	6f 63 00 0e 	mov.w	@(0xe:16,er6),r3
  40198c:	6f a3 00 24 	mov.w	r3,@(0x24:16,er2)

00401990 <.LM48>:
/home/kozos.c:169
  thp->init.argv = argv;
  401990:	01 00 6f 62 	mov.l	@(0xfff8:16,er6),er2
  401994:	ff f8 
  401996:	01 00 6f 63 	mov.l	@(0x10:16,er6),er3
  40199a:	00 10 
  40199c:	01 00 6f a3 	mov.l	er3,@(0x28:16,er2)
  4019a0:	00 28 

004019a2 <.LM49>:
/home/kozos.c:172

  /* スタック領域を獲得 */
  memset(thread_stack, 0, stacksize);
  4019a2:	6f 62 00 0a 	mov.w	@(0xa:16,er6),r2
  4019a6:	17 f2       	exts.l	er2
  4019a8:	01 00 6b 23 	mov.l	@0x4041e4:32,er3
  4019ac:	00 40 41 e4 
  4019b0:	19 11       	sub.w	r1,r1
  4019b2:	0f b0       	mov.l	er3,er0
  4019b4:	5e 40 03 a0 	jsr	@0x4003a0:24

004019b8 <.LM50>:
/home/kozos.c:173
  thread_stack += stacksize;
  4019b8:	01 00 6b 23 	mov.l	@0x4041e4:32,er3
  4019bc:	00 40 41 e4 
  4019c0:	6f 62 00 0a 	mov.w	@(0xa:16,er6),r2
  4019c4:	17 f2       	exts.l	er2
  4019c6:	0a b2       	add.l	er3,er2
  4019c8:	01 00 6b a2 	mov.l	er2,@0x4041e4:32
  4019cc:	00 40 41 e4 

004019d0 <.LM51>:
/home/kozos.c:175

  thp->stack = thread_stack; /* スタックを設定 */
  4019d0:	01 00 6b 23 	mov.l	@0x4041e4:32,er3
  4019d4:	00 40 41 e4 
  4019d8:	01 00 6f 62 	mov.l	@(0xfff8:16,er6),er2
  4019dc:	ff f8 
  4019de:	01 00 6f a3 	mov.l	er3,@(0x18:16,er2)
  4019e2:	00 18 

004019e4 <.LM52>:
/home/kozos.c:178

  /* スタックの初期化 */
  sp = (uint32 *)thp->stack;
  4019e4:	01 00 6f 62 	mov.l	@(0xfff8:16,er6),er2
  4019e8:	ff f8 
  4019ea:	01 00 6f 22 	mov.l	@(0x18:16,er2),er2
  4019ee:	00 18 
  4019f0:	01 00 6f e2 	mov.l	er2,@(0xfff4:16,er6)
  4019f4:	ff f4 

004019f6 <.LM53>:
/home/kozos.c:179
  *(--sp) = (uint32)thread_end;
  4019f6:	01 00 6f 62 	mov.l	@(0xfff4:16,er6),er2
  4019fa:	ff f4 
  4019fc:	1b 92       	subs	#4,er2
  4019fe:	01 00 6f e2 	mov.l	er2,@(0xfff4:16,er6)
  401a02:	ff f4 
  401a04:	7a 03 00 40 	mov.l	#0x401852,er3
  401a08:	18 52 
  401a0a:	01 00 6f 62 	mov.l	@(0xfff4:16,er6),er2
  401a0e:	ff f4 
  401a10:	01 00 69 a3 	mov.l	er3,@er2

00401a14 <.LM54>:
/home/kozos.c:185

  /*
   * プログラム・カウンタを設定する．
   * スレッドの優先度がゼロの場合には，割込み禁止スレッドとする．
   */
  *(--sp) = (uint32)thread_init | ((uint32)(priority ? 0 : 0xc0) << 24);
  401a14:	6f 62 ff ea 	mov.w	@(0xffea:16,er6),r2
  401a18:	0d 22       	mov.w	r2,r2
  401a1a:	47 08       	beq	.+8 (0x401a24)

00401a1c <.LM55>:
/home/kozos.c:185 (discriminator 1)
  401a1c:	7a 02 00 40 	mov.l	#0x401864,er2
  401a20:	18 64 
  401a22:	40 0a       	bra	.+10 (0x401a2e)

00401a24 <.L21>:
/home/kozos.c:185 (discriminator 2)
  401a24:	7a 02 00 40 	mov.l	#0x401864,er2
  401a28:	18 64 
  401a2a:	79 4a c0 00 	or.w	#0xc000,e2

00401a2e <.L22>:
/home/kozos.c:185 (discriminator 4)
  401a2e:	01 00 6f 63 	mov.l	@(0xfff4:16,er6),er3
  401a32:	ff f4 
  401a34:	1b 93       	subs	#4,er3
  401a36:	01 00 6f e3 	mov.l	er3,@(0xfff4:16,er6)
  401a3a:	ff f4 
  401a3c:	01 00 6f 63 	mov.l	@(0xfff4:16,er6),er3
  401a40:	ff f4 
  401a42:	01 00 69 b2 	mov.l	er2,@er3

00401a46 <.LM58>:
/home/kozos.c:187

  *(--sp) = 0; /* ER6 */
  401a46:	01 00 6f 62 	mov.l	@(0xfff4:16,er6),er2
  401a4a:	ff f4 
  401a4c:	1b 92       	subs	#4,er2
  401a4e:	01 00 6f e2 	mov.l	er2,@(0xfff4:16,er6)
  401a52:	ff f4 
  401a54:	01 00 6f 62 	mov.l	@(0xfff4:16,er6),er2
  401a58:	ff f4 
  401a5a:	1a b3       	sub.l	er3,er3
  401a5c:	01 00 69 a3 	mov.l	er3,@er2

00401a60 <.LM59>:
/home/kozos.c:188
  *(--sp) = 0; /* ER5 */
  401a60:	01 00 6f 62 	mov.l	@(0xfff4:16,er6),er2
  401a64:	ff f4 
  401a66:	1b 92       	subs	#4,er2
  401a68:	01 00 6f e2 	mov.l	er2,@(0xfff4:16,er6)
  401a6c:	ff f4 
  401a6e:	01 00 6f 62 	mov.l	@(0xfff4:16,er6),er2
  401a72:	ff f4 
  401a74:	1a b3       	sub.l	er3,er3
  401a76:	01 00 69 a3 	mov.l	er3,@er2

00401a7a <.LM60>:
/home/kozos.c:189
  *(--sp) = 0; /* ER4 */
  401a7a:	01 00 6f 62 	mov.l	@(0xfff4:16,er6),er2
  401a7e:	ff f4 
  401a80:	1b 92       	subs	#4,er2
  401a82:	01 00 6f e2 	mov.l	er2,@(0xfff4:16,er6)
  401a86:	ff f4 
  401a88:	01 00 6f 62 	mov.l	@(0xfff4:16,er6),er2
  401a8c:	ff f4 
  401a8e:	1a b3       	sub.l	er3,er3
  401a90:	01 00 69 a3 	mov.l	er3,@er2

00401a94 <.LM61>:
/home/kozos.c:190
  *(--sp) = 0; /* ER3 */
  401a94:	01 00 6f 62 	mov.l	@(0xfff4:16,er6),er2
  401a98:	ff f4 
  401a9a:	1b 92       	subs	#4,er2
  401a9c:	01 00 6f e2 	mov.l	er2,@(0xfff4:16,er6)
  401aa0:	ff f4 
  401aa2:	01 00 6f 62 	mov.l	@(0xfff4:16,er6),er2
  401aa6:	ff f4 
  401aa8:	1a b3       	sub.l	er3,er3
  401aaa:	01 00 69 a3 	mov.l	er3,@er2

00401aae <.LM62>:
/home/kozos.c:191
  *(--sp) = 0; /* ER2 */
  401aae:	01 00 6f 62 	mov.l	@(0xfff4:16,er6),er2
  401ab2:	ff f4 
  401ab4:	1b 92       	subs	#4,er2
  401ab6:	01 00 6f e2 	mov.l	er2,@(0xfff4:16,er6)
  401aba:	ff f4 
  401abc:	01 00 6f 62 	mov.l	@(0xfff4:16,er6),er2
  401ac0:	ff f4 
  401ac2:	1a b3       	sub.l	er3,er3
  401ac4:	01 00 69 a3 	mov.l	er3,@er2

00401ac8 <.LM63>:
/home/kozos.c:192
  *(--sp) = 0; /* ER1 */
  401ac8:	01 00 6f 62 	mov.l	@(0xfff4:16,er6),er2
  401acc:	ff f4 
  401ace:	1b 92       	subs	#4,er2
  401ad0:	01 00 6f e2 	mov.l	er2,@(0xfff4:16,er6)
  401ad4:	ff f4 
  401ad6:	01 00 6f 62 	mov.l	@(0xfff4:16,er6),er2
  401ada:	ff f4 
  401adc:	1a b3       	sub.l	er3,er3
  401ade:	01 00 69 a3 	mov.l	er3,@er2

00401ae2 <.LM64>:
/home/kozos.c:195

  /* スレッドのスタート・アップ(thread_init())に渡す引数 */
  *(--sp) = (uint32)thp;  /* ER0 */
  401ae2:	01 00 6f 62 	mov.l	@(0xfff4:16,er6),er2
  401ae6:	ff f4 
  401ae8:	1b 92       	subs	#4,er2
  401aea:	01 00 6f e2 	mov.l	er2,@(0xfff4:16,er6)
  401aee:	ff f4 
  401af0:	01 00 6f 63 	mov.l	@(0xfff8:16,er6),er3
  401af4:	ff f8 
  401af6:	01 00 6f 62 	mov.l	@(0xfff4:16,er6),er2
  401afa:	ff f4 
  401afc:	01 00 69 a3 	mov.l	er3,@er2

00401b00 <.LM65>:
/home/kozos.c:198

  /* スレッドのコンテキストを設定 */
  thp->context.sp = (uint32)sp;
  401b00:	01 00 6f 63 	mov.l	@(0xfff4:16,er6),er3
  401b04:	ff f4 
  401b06:	01 00 6f 62 	mov.l	@(0xfff8:16,er6),er2
  401b0a:	ff f8 
  401b0c:	01 00 6f a3 	mov.l	er3,@(0x34:16,er2)
  401b10:	00 34 

00401b12 <.LM66>:
/home/kozos.c:201

  /* システム・コールを呼び出したスレッドをレディー・キューに戻す */
  putcurrent();
  401b12:	5e 40 17 56 	jsr	@0x401756:24

00401b16 <.LM67>:
/home/kozos.c:204

  /* 新規作成したスレッドを，レディー・キューに接続する */
  current = thp;
  401b16:	01 00 6f 62 	mov.l	@(0xfff8:16,er6),er2
  401b1a:	ff f8 
  401b1c:	01 00 6b a2 	mov.l	er2,@0x404290:32
  401b20:	00 40 42 90 

00401b24 <.LM68>:
/home/kozos.c:205
  putcurrent();
  401b24:	5e 40 17 56 	jsr	@0x401756:24

00401b28 <.LM69>:
/home/kozos.c:207

  return (kz_thread_id_t)current;
  401b28:	01 00 6b 22 	mov.l	@0x404290:32,er2
  401b2c:	00 40 42 90 

00401b30 <.L20>:
/home/kozos.c:208
}
  401b30:	0f a0       	mov.l	er2,er0
  401b32:	7a 17 00 00 	add.l	#0x18,er7
  401b36:	00 18 
  401b38:	01 00 6d 76 	mov.l	@er7+,er6
  401b3c:	54 70       	rts	

00401b3e <_thread_exit>:
thread_exit():
/home/kozos.c:212

/* システム・コールの処理(kz_exit():スレッドの終了) */
static int thread_exit(void)
{
  401b3e:	01 00 6d f6 	mov.l	er6,@-er7
  401b42:	0f f6       	mov.l	er7,er6

00401b44 <.LM72>:
/home/kozos.c:217
  /*
   * 本来ならスタックも解放して再利用できるようにすべきだが省略．
   * このため，スレッドを頻繁に生成・消去するようなことは現状でできない．
   */
  puts(current->name);
  401b44:	01 00 6b 22 	mov.l	@0x404290:32,er2
  401b48:	00 40 42 90 
  401b4c:	0b 92       	adds	#4,er2
  401b4e:	0f a0       	mov.l	er2,er0
  401b50:	5e 40 07 b6 	jsr	@0x4007b6:24

00401b54 <.LM73>:
/home/kozos.c:218
  puts(" EXIT.\n");
  401b54:	7a 00 00 40 	mov.l	#0x404110,er0
  401b58:	41 10 
  401b5a:	5e 40 07 b6 	jsr	@0x4007b6:24

00401b5e <.LM74>:
/home/kozos.c:219
  memset(current, 0, sizeof(*current));
  401b5e:	01 00 6b 23 	mov.l	@0x404290:32,er3
  401b62:	00 40 42 90 
  401b66:	1a a2       	sub.l	er2,er2
  401b68:	8a 40       	add.b	#0x40,r2l
  401b6a:	19 11       	sub.w	r1,r1
  401b6c:	0f b0       	mov.l	er3,er0
  401b6e:	5e 40 03 a0 	jsr	@0x4003a0:24

00401b72 <.LM75>:
/home/kozos.c:220
  return 0;
  401b72:	19 22       	sub.w	r2,r2

00401b74 <.LM76>:
/home/kozos.c:221
}
  401b74:	0d 20       	mov.w	r2,r0
  401b76:	01 00 6d 76 	mov.l	@er7+,er6
  401b7a:	54 70       	rts	

00401b7c <_thread_wait>:
thread_wait():
/home/kozos.c:225

/* システム・コールの処理(kz_wait():スレッドの実行権放棄) */
static int thread_wait(void)
{
  401b7c:	01 00 6d f6 	mov.l	er6,@-er7
  401b80:	0f f6       	mov.l	er7,er6

00401b82 <.LM78>:
/home/kozos.c:226
  putcurrent();
  401b82:	5e 40 17 56 	jsr	@0x401756:24

00401b86 <.LM79>:
/home/kozos.c:227
  return 0;
  401b86:	19 22       	sub.w	r2,r2

00401b88 <.LM80>:
/home/kozos.c:228
}
  401b88:	0d 20       	mov.w	r2,r0
  401b8a:	01 00 6d 76 	mov.l	@er7+,er6
  401b8e:	54 70       	rts	

00401b90 <_thread_sleep>:
thread_sleep():
/home/kozos.c:232

/* システム・コールの処理(kz_sleep():スレッドのスリープ) */
static int thread_sleep(void)
{
  401b90:	01 00 6d f6 	mov.l	er6,@-er7
  401b94:	0f f6       	mov.l	er7,er6

00401b96 <.LM82>:
/home/kozos.c:233
  return 0;
  401b96:	19 22       	sub.w	r2,r2

00401b98 <.LM83>:
/home/kozos.c:234
}
  401b98:	0d 20       	mov.w	r2,r0
  401b9a:	01 00 6d 76 	mov.l	@er7+,er6
  401b9e:	54 70       	rts	

00401ba0 <_thread_wakeup>:
thread_wakeup():
/home/kozos.c:238

/* システム・コールの処理(kz_wakeup():スレッドのウェイク・アップ) */
static int thread_wakeup(kz_thread_id_t id)
{
  401ba0:	01 00 6d f6 	mov.l	er6,@-er7
  401ba4:	0f f6       	mov.l	er7,er6
  401ba6:	1b 97       	subs	#4,er7
  401ba8:	01 00 6f e0 	mov.l	er0,@(0xfffc:16,er6)
  401bac:	ff fc 

00401bae <.LM85>:
/home/kozos.c:240
  /* ウェイク・アップを呼び出したスレッドをレディー・キューに戻す */
  putcurrent();
  401bae:	5e 40 17 56 	jsr	@0x401756:24

00401bb2 <.LM86>:
/home/kozos.c:243

  /* 指定されたスレッドをレディー・キューに接続してウェイク・アップする */
  current = (kz_thread *)id;
  401bb2:	01 00 6f 62 	mov.l	@(0xfffc:16,er6),er2
  401bb6:	ff fc 
  401bb8:	01 00 6b a2 	mov.l	er2,@0x404290:32
  401bbc:	00 40 42 90 

00401bc0 <.LM87>:
/home/kozos.c:244
  putcurrent();
  401bc0:	5e 40 17 56 	jsr	@0x401756:24

00401bc4 <.LM88>:
/home/kozos.c:246

  return 0;
  401bc4:	19 22       	sub.w	r2,r2

00401bc6 <.LM89>:
/home/kozos.c:247
}
  401bc6:	0d 20       	mov.w	r2,r0
  401bc8:	0b 97       	adds	#4,er7
  401bca:	01 00 6d 76 	mov.l	@er7+,er6
  401bce:	54 70       	rts	

00401bd0 <_thread_getid>:
thread_getid():
/home/kozos.c:251

/* システム・コールの処理(kz_getid():スレッドID取得) */
static kz_thread_id_t thread_getid(void)
{
  401bd0:	01 00 6d f6 	mov.l	er6,@-er7
  401bd4:	0f f6       	mov.l	er7,er6

00401bd6 <.LM91>:
/home/kozos.c:252
  putcurrent();
  401bd6:	5e 40 17 56 	jsr	@0x401756:24

00401bda <.LM92>:
/home/kozos.c:253
  return (kz_thread_id_t)current;
  401bda:	01 00 6b 22 	mov.l	@0x404290:32,er2
  401bde:	00 40 42 90 

00401be2 <.LM93>:
/home/kozos.c:254
}
  401be2:	0f a0       	mov.l	er2,er0
  401be4:	01 00 6d 76 	mov.l	@er7+,er6
  401be8:	54 70       	rts	

00401bea <_thread_chpri>:
thread_chpri():
/home/kozos.c:258

/* システム・コールの処理(kz_chpri():スレッドの優先度変更) */
static int thread_chpri(int priority)
{
  401bea:	01 00 6d f6 	mov.l	er6,@-er7
  401bee:	0f f6       	mov.l	er7,er6
  401bf0:	7a 37 00 00 	sub.l	#0x8,er7
  401bf4:	00 08 
  401bf6:	6f e0 ff fa 	mov.w	r0,@(0xfffa:16,er6)

00401bfa <.LM95>:
/home/kozos.c:259
  int old = current->priority;
  401bfa:	01 00 6b 22 	mov.l	@0x404290:32,er2
  401bfe:	00 40 42 90 
  401c02:	6f 22 00 14 	mov.w	@(0x14:16,er2),r2
  401c06:	6f e2 ff fe 	mov.w	r2,@(0xfffe:16,er6)

00401c0a <.LM96>:
/home/kozos.c:260
  if (priority >= 0)
  401c0a:	6f 62 ff fa 	mov.w	@(0xfffa:16,er6),r2
  401c0e:	0d 22       	mov.w	r2,r2
  401c10:	4d 10       	blt	.+16 (0x401c22)

00401c12 <.LM97>:
/home/kozos.c:261
    current->priority = priority; /* 優先度変更 */
  401c12:	01 00 6b 22 	mov.l	@0x404290:32,er2
  401c16:	00 40 42 90 
  401c1a:	6f 63 ff fa 	mov.w	@(0xfffa:16,er6),r3
  401c1e:	6f a3 00 14 	mov.w	r3,@(0x14:16,er2)

00401c22 <.L35>:
/home/kozos.c:262
  putcurrent(); /* 新しい優先度のレディー・キューに繋ぎ直す */
  401c22:	5e 40 17 56 	jsr	@0x401756:24

00401c26 <.LM99>:
/home/kozos.c:263
  return old;
  401c26:	6f 62 ff fe 	mov.w	@(0xfffe:16,er6),r2

00401c2a <.LM100>:
/home/kozos.c:264
}
  401c2a:	0d 20       	mov.w	r2,r0
  401c2c:	0b 97       	adds	#4,er7
  401c2e:	0b 97       	adds	#4,er7
  401c30:	01 00 6d 76 	mov.l	@er7+,er6
  401c34:	54 70       	rts	

00401c36 <_thread_kmalloc>:
thread_kmalloc():
/home/kozos.c:268

/* システム・コールの処理(kz_kmalloc():動的メモリ獲得) */
static void *thread_kmalloc(int size)
{
  401c36:	01 00 6d f6 	mov.l	er6,@-er7
  401c3a:	0f f6       	mov.l	er7,er6
  401c3c:	1b 97       	subs	#4,er7
  401c3e:	6f e0 ff fe 	mov.w	r0,@(0xfffe:16,er6)

00401c42 <.LM102>:
/home/kozos.c:269
  putcurrent();
  401c42:	5e 40 17 56 	jsr	@0x401756:24

00401c46 <.LM103>:
/home/kozos.c:270
  return kzmem_alloc(size);
  401c46:	6f 62 ff fe 	mov.w	@(0xfffe:16,er6),r2
  401c4a:	0d 20       	mov.w	r2,r0
  401c4c:	5e 40 2a e4 	jsr	@0x402ae4:24
  401c50:	0f 82       	mov.l	er0,er2

00401c52 <.LM104>:
/home/kozos.c:271
}
  401c52:	0f a0       	mov.l	er2,er0
  401c54:	0b 97       	adds	#4,er7
  401c56:	01 00 6d 76 	mov.l	@er7+,er6
  401c5a:	54 70       	rts	

00401c5c <_thread_kmfree>:
thread_kmfree():
/home/kozos.c:275

/* システム・コールの処理(kz_kfree():メモリ解放) */
static int thread_kmfree(char *p)
{
  401c5c:	01 00 6d f6 	mov.l	er6,@-er7
  401c60:	0f f6       	mov.l	er7,er6
  401c62:	1b 97       	subs	#4,er7
  401c64:	01 00 6f e0 	mov.l	er0,@(0xfffc:16,er6)
  401c68:	ff fc 

00401c6a <.LM106>:
/home/kozos.c:276
  kzmem_free(p);
  401c6a:	01 00 6f 62 	mov.l	@(0xfffc:16,er6),er2
  401c6e:	ff fc 
  401c70:	0f a0       	mov.l	er2,er0
  401c72:	5e 40 2b b8 	jsr	@0x402bb8:24

00401c76 <.LM107>:
/home/kozos.c:277
  putcurrent();
  401c76:	5e 40 17 56 	jsr	@0x401756:24

00401c7a <.LM108>:
/home/kozos.c:278
  return 0;
  401c7a:	19 22       	sub.w	r2,r2

00401c7c <.LM109>:
/home/kozos.c:279
}
  401c7c:	0d 20       	mov.w	r2,r0
  401c7e:	0b 97       	adds	#4,er7
  401c80:	01 00 6d 76 	mov.l	@er7+,er6
  401c84:	54 70       	rts	

00401c86 <_sendmsg>:
sendmsg():
/home/kozos.c:283

/* メッセージの送信処理 */
static void sendmsg(kz_msgbox *mboxp, kz_thread *thp, int size, char *p)
{
  401c86:	01 00 6d f6 	mov.l	er6,@-er7
  401c8a:	0f f6       	mov.l	er7,er6
  401c8c:	7a 37 00 00 	sub.l	#0x10,er7
  401c90:	00 10 
  401c92:	01 00 6f e0 	mov.l	er0,@(0xfff8:16,er6)
  401c96:	ff f8 
  401c98:	01 00 6f e1 	mov.l	er1,@(0xfff4:16,er6)
  401c9c:	ff f4 
  401c9e:	6f e2 ff f2 	mov.w	r2,@(0xfff2:16,er6)

00401ca2 <.LM111>:
/home/kozos.c:287
  kz_msgbuf *mp;

  /* メッセージ・バッファの作成 */
  mp = (kz_msgbuf *)kzmem_alloc(sizeof(*mp));
  401ca2:	79 00 00 10 	mov.w	#0x10,r0
  401ca6:	5e 40 2a e4 	jsr	@0x402ae4:24
  401caa:	01 00 6f e0 	mov.l	er0,@(0xfffc:16,er6)
  401cae:	ff fc 

00401cb0 <.LM112>:
/home/kozos.c:288
  if (mp == NULL)
  401cb0:	01 00 6f 62 	mov.l	@(0xfffc:16,er6),er2
  401cb4:	ff fc 
  401cb6:	0f a2       	mov.l	er2,er2
  401cb8:	46 04       	bne	.+4 (0x401cbe)

00401cba <.LM113>:
/home/kozos.c:289
    kz_sysdown();
  401cba:	5e 40 24 ea 	jsr	@0x4024ea:24

00401cbe <.L42>:
/home/kozos.c:290
  mp->next       = NULL;
  401cbe:	01 00 6f 62 	mov.l	@(0xfffc:16,er6),er2
  401cc2:	ff fc 
  401cc4:	1a b3       	sub.l	er3,er3
  401cc6:	01 00 69 a3 	mov.l	er3,@er2

00401cca <.LM115>:
/home/kozos.c:291
  mp->sender     = thp;
  401cca:	01 00 6f 62 	mov.l	@(0xfffc:16,er6),er2
  401cce:	ff fc 
  401cd0:	01 00 6f 63 	mov.l	@(0xfff4:16,er6),er3
  401cd4:	ff f4 
  401cd6:	01 00 6f a3 	mov.l	er3,@(0x4:16,er2)
  401cda:	00 04 

00401cdc <.LM116>:
/home/kozos.c:292
  mp->param.size = size;
  401cdc:	01 00 6f 62 	mov.l	@(0xfffc:16,er6),er2
  401ce0:	ff fc 
  401ce2:	6f 63 ff f2 	mov.w	@(0xfff2:16,er6),r3
  401ce6:	6f a3 00 08 	mov.w	r3,@(0x8:16,er2)

00401cea <.LM117>:
/home/kozos.c:293
  mp->param.p    = p;
  401cea:	01 00 6f 62 	mov.l	@(0xfffc:16,er6),er2
  401cee:	ff fc 
  401cf0:	01 00 6f 63 	mov.l	@(0x8:16,er6),er3
  401cf4:	00 08 
  401cf6:	01 00 6f a3 	mov.l	er3,@(0xc:16,er2)
  401cfa:	00 0c 

00401cfc <.LM118>:
/home/kozos.c:296

  /* メッセージ・ボックスの末尾にメッセージを接続する */
  if (mboxp->tail) {
  401cfc:	01 00 6f 62 	mov.l	@(0xfff8:16,er6),er2
  401d00:	ff f8 
  401d02:	01 00 6f 22 	mov.l	@(0x8:16,er2),er2
  401d06:	00 08 
  401d08:	0f a2       	mov.l	er2,er2
  401d0a:	47 18       	beq	.+24 (0x401d24)

00401d0c <.LM119>:
/home/kozos.c:297
    mboxp->tail->next = mp;
  401d0c:	01 00 6f 62 	mov.l	@(0xfff8:16,er6),er2
  401d10:	ff f8 
  401d12:	01 00 6f 22 	mov.l	@(0x8:16,er2),er2
  401d16:	00 08 
  401d18:	01 00 6f 63 	mov.l	@(0xfffc:16,er6),er3
  401d1c:	ff fc 
  401d1e:	01 00 69 a3 	mov.l	er3,@er2
  401d22:	40 12       	bra	.+18 (0x401d36)

00401d24 <.L43>:
/home/kozos.c:299
  } else {
    mboxp->head = mp;
  401d24:	01 00 6f 62 	mov.l	@(0xfff8:16,er6),er2
  401d28:	ff f8 
  401d2a:	01 00 6f 63 	mov.l	@(0xfffc:16,er6),er3
  401d2e:	ff fc 
  401d30:	01 00 6f a3 	mov.l	er3,@(0x4:16,er2)
  401d34:	00 04 

00401d36 <.L44>:
/home/kozos.c:301
  }
  mboxp->tail = mp;
  401d36:	01 00 6f 62 	mov.l	@(0xfff8:16,er6),er2
  401d3a:	ff f8 
  401d3c:	01 00 6f 63 	mov.l	@(0xfffc:16,er6),er3
  401d40:	ff fc 
  401d42:	01 00 6f a3 	mov.l	er3,@(0x8:16,er2)
  401d46:	00 08 

00401d48 <.LM122>:
/home/kozos.c:302
}
  401d48:	00 00       	nop	
  401d4a:	7a 17 00 00 	add.l	#0x10,er7
  401d4e:	00 10 
  401d50:	01 00 6d 76 	mov.l	@er7+,er6
  401d54:	54 70       	rts	

00401d56 <_recvmsg>:
recvmsg():
/home/kozos.c:306

/* メッセージの受信処理 */
static void recvmsg(kz_msgbox *mboxp)
{
  401d56:	01 00 6d f6 	mov.l	er6,@-er7
  401d5a:	0f f6       	mov.l	er7,er6
  401d5c:	7a 37 00 00 	sub.l	#0xc,er7
  401d60:	00 0c 
  401d62:	01 00 6f e0 	mov.l	er0,@(0xfff4:16,er6)
  401d66:	ff f4 

00401d68 <.LM124>:
/home/kozos.c:311
  kz_msgbuf *mp;
  kz_syscall_param_t *p;

  /* メッセージ・ボックスの先頭にあるメッセージを抜き出す */
  mp = mboxp->head;
  401d68:	01 00 6f 62 	mov.l	@(0xfff4:16,er6),er2
  401d6c:	ff f4 
  401d6e:	01 00 6f 22 	mov.l	@(0x4:16,er2),er2
  401d72:	00 04 
  401d74:	01 00 6f e2 	mov.l	er2,@(0xfffc:16,er6)
  401d78:	ff fc 

00401d7a <.LM125>:
/home/kozos.c:312
  mboxp->head = mp->next;
  401d7a:	01 00 6f 62 	mov.l	@(0xfffc:16,er6),er2
  401d7e:	ff fc 
  401d80:	01 00 69 23 	mov.l	@er2,er3
  401d84:	01 00 6f 62 	mov.l	@(0xfff4:16,er6),er2
  401d88:	ff f4 
  401d8a:	01 00 6f a3 	mov.l	er3,@(0x4:16,er2)
  401d8e:	00 04 

00401d90 <.LM126>:
/home/kozos.c:313
  if (mboxp->head == NULL)
  401d90:	01 00 6f 62 	mov.l	@(0xfff4:16,er6),er2
  401d94:	ff f4 
  401d96:	01 00 6f 22 	mov.l	@(0x4:16,er2),er2
  401d9a:	00 04 
  401d9c:	0f a2       	mov.l	er2,er2
  401d9e:	46 0e       	bne	.+14 (0x401dae)

00401da0 <.LM127>:
/home/kozos.c:314
    mboxp->tail = NULL;
  401da0:	01 00 6f 62 	mov.l	@(0xfff4:16,er6),er2
  401da4:	ff f4 
  401da6:	1a b3       	sub.l	er3,er3
  401da8:	01 00 6f a3 	mov.l	er3,@(0x8:16,er2)
  401dac:	00 08 

00401dae <.L46>:
/home/kozos.c:315
  mp->next = NULL;
  401dae:	01 00 6f 62 	mov.l	@(0xfffc:16,er6),er2
  401db2:	ff fc 
  401db4:	1a b3       	sub.l	er3,er3
  401db6:	01 00 69 a3 	mov.l	er3,@er2

00401dba <.LM129>:
/home/kozos.c:318

  /* メッセージを受信するスレッドに返す値を設定する */
  p = mboxp->receiver->syscall.param;
  401dba:	01 00 6f 62 	mov.l	@(0xfff4:16,er6),er2
  401dbe:	ff f4 
  401dc0:	01 00 69 22 	mov.l	@er2,er2
  401dc4:	01 00 6f 22 	mov.l	@(0x30:16,er2),er2
  401dc8:	00 30 
  401dca:	01 00 6f e2 	mov.l	er2,@(0xfff8:16,er6)
  401dce:	ff f8 

00401dd0 <.LM130>:
/home/kozos.c:319
  p->un.recv.ret = (kz_thread_id_t)mp->sender;
  401dd0:	01 00 6f 62 	mov.l	@(0xfffc:16,er6),er2
  401dd4:	ff fc 
  401dd6:	01 00 6f 22 	mov.l	@(0x4:16,er2),er2
  401dda:	00 04 
  401ddc:	0f a3       	mov.l	er2,er3
  401dde:	01 00 6f 62 	mov.l	@(0xfff8:16,er6),er2
  401de2:	ff f8 
  401de4:	01 00 6f a3 	mov.l	er3,@(0xc:16,er2)
  401de8:	00 0c 

00401dea <.LM131>:
/home/kozos.c:320
  if (p->un.recv.sizep)
  401dea:	01 00 6f 62 	mov.l	@(0xfff8:16,er6),er2
  401dee:	ff f8 
  401df0:	01 00 6f 22 	mov.l	@(0x4:16,er2),er2
  401df4:	00 04 
  401df6:	0f a2       	mov.l	er2,er2
  401df8:	47 18       	beq	.+24 (0x401e12)

00401dfa <.LM132>:
/home/kozos.c:321
    *(p->un.recv.sizep) = mp->param.size;
  401dfa:	01 00 6f 62 	mov.l	@(0xfff8:16,er6),er2
  401dfe:	ff f8 
  401e00:	01 00 6f 22 	mov.l	@(0x4:16,er2),er2
  401e04:	00 04 
  401e06:	01 00 6f 63 	mov.l	@(0xfffc:16,er6),er3
  401e0a:	ff fc 
  401e0c:	6f 33 00 08 	mov.w	@(0x8:16,er3),r3
  401e10:	69 a3       	mov.w	r3,@er2

00401e12 <.L47>:
/home/kozos.c:322
  if (p->un.recv.pp)
  401e12:	01 00 6f 62 	mov.l	@(0xfff8:16,er6),er2
  401e16:	ff f8 
  401e18:	01 00 6f 22 	mov.l	@(0x8:16,er2),er2
  401e1c:	00 08 
  401e1e:	0f a2       	mov.l	er2,er2
  401e20:	47 1c       	beq	.+28 (0x401e3e)

00401e22 <.LM134>:
/home/kozos.c:323
    *(p->un.recv.pp) = mp->param.p;
  401e22:	01 00 6f 62 	mov.l	@(0xfff8:16,er6),er2
  401e26:	ff f8 
  401e28:	01 00 6f 22 	mov.l	@(0x8:16,er2),er2
  401e2c:	00 08 
  401e2e:	01 00 6f 63 	mov.l	@(0xfffc:16,er6),er3
  401e32:	ff fc 
  401e34:	01 00 6f 33 	mov.l	@(0xc:16,er3),er3
  401e38:	00 0c 
  401e3a:	01 00 69 a3 	mov.l	er3,@er2

00401e3e <.L48>:
/home/kozos.c:326

  /* 受信待ちスレッドはいなくなったので，NULLに戻す */
  mboxp->receiver = NULL;
  401e3e:	01 00 6f 62 	mov.l	@(0xfff4:16,er6),er2
  401e42:	ff f4 
  401e44:	1a b3       	sub.l	er3,er3
  401e46:	01 00 69 a3 	mov.l	er3,@er2

00401e4a <.LM136>:
/home/kozos.c:329

  /* メッセージ・バッファの解放 */
  kzmem_free(mp);
  401e4a:	01 00 6f 62 	mov.l	@(0xfffc:16,er6),er2
  401e4e:	ff fc 
  401e50:	0f a0       	mov.l	er2,er0
  401e52:	5e 40 2b b8 	jsr	@0x402bb8:24

00401e56 <.LM137>:
/home/kozos.c:330
}
  401e56:	00 00       	nop	
  401e58:	7a 17 00 00 	add.l	#0xc,er7
  401e5c:	00 0c 
  401e5e:	01 00 6d 76 	mov.l	@er7+,er6
  401e62:	54 70       	rts	

00401e64 <_thread_send>:
thread_send():
/home/kozos.c:334

/* システム・コールの処理(kz_send():メッセージ送信) */
static int thread_send(kz_msgbox_id_t id, int size, char *p)
{
  401e64:	01 00 6d f6 	mov.l	er6,@-er7
  401e68:	0f f6       	mov.l	er7,er6
  401e6a:	7a 37 00 00 	sub.l	#0xc,er7
  401e6e:	00 0c 
  401e70:	6f e0 ff fa 	mov.w	r0,@(0xfffa:16,er6)
  401e74:	6f e1 ff f8 	mov.w	r1,@(0xfff8:16,er6)
  401e78:	01 00 6f e2 	mov.l	er2,@(0xfff4:16,er6)
  401e7c:	ff f4 

00401e7e <.LM139>:
/home/kozos.c:335
  kz_msgbox *mboxp = &msgboxes[id];
  401e7e:	6f 62 ff fa 	mov.w	@(0xfffa:16,er6),r2
  401e82:	17 72       	extu.l	er2
  401e84:	10 32       	shll.l	er2
  401e86:	10 32       	shll.l	er2
  401e88:	10 32       	shll.l	er2
  401e8a:	10 32       	shll.l	er2
  401e8c:	7a 12 00 40 	add.l	#0x404428,er2
  401e90:	44 28 
  401e92:	01 00 6f e2 	mov.l	er2,@(0xfffc:16,er6)
  401e96:	ff fc 

00401e98 <.LM140>:
/home/kozos.c:337

  putcurrent();
  401e98:	5e 40 17 56 	jsr	@0x401756:24

00401e9c <.LM141>:
/home/kozos.c:338
  sendmsg(mboxp, current, size, p); /* メッセージの送信処理 */
  401e9c:	01 00 6b 20 	mov.l	@0x404290:32,er0
  401ea0:	00 40 42 90 
  401ea4:	6f 61 ff f8 	mov.w	@(0xfff8:16,er6),r1
  401ea8:	01 00 6f 63 	mov.l	@(0xfffc:16,er6),er3
  401eac:	ff fc 
  401eae:	01 00 6f 62 	mov.l	@(0xfff4:16,er6),er2
  401eb2:	ff f4 
  401eb4:	01 00 6d f2 	mov.l	er2,@-er7
  401eb8:	0d 12       	mov.w	r1,r2
  401eba:	0f 81       	mov.l	er0,er1
  401ebc:	0f b0       	mov.l	er3,er0
  401ebe:	5e 40 1c 86 	jsr	@0x401c86:24
  401ec2:	0b 97       	adds	#4,er7

00401ec4 <.LM142>:
/home/kozos.c:341

  /* 受信待ちスレッドが存在している場合には受信処理を行う */
  if (mboxp->receiver) {
  401ec4:	01 00 6f 62 	mov.l	@(0xfffc:16,er6),er2
  401ec8:	ff fc 
  401eca:	01 00 69 22 	mov.l	@er2,er2
  401ece:	0f a2       	mov.l	er2,er2
  401ed0:	47 22       	beq	.+34 (0x401ef4)

00401ed2 <.LM143>:
/home/kozos.c:342
    current = mboxp->receiver; /* 受信待ちスレッド */
  401ed2:	01 00 6f 62 	mov.l	@(0xfffc:16,er6),er2
  401ed6:	ff fc 
  401ed8:	01 00 69 22 	mov.l	@er2,er2
  401edc:	01 00 6b a2 	mov.l	er2,@0x404290:32
  401ee0:	00 40 42 90 

00401ee4 <.LM144>:
/home/kozos.c:343
    recvmsg(mboxp); /* メッセージの受信処理 */
  401ee4:	01 00 6f 62 	mov.l	@(0xfffc:16,er6),er2
  401ee8:	ff fc 
  401eea:	0f a0       	mov.l	er2,er0
  401eec:	5e 40 1d 56 	jsr	@0x401d56:24

00401ef0 <.LM145>:
/home/kozos.c:344
    putcurrent(); /* 受信により動作可能になったので，ブロック解除する */
  401ef0:	5e 40 17 56 	jsr	@0x401756:24

00401ef4 <.L50>:
/home/kozos.c:347
  }

  return size;
  401ef4:	6f 62 ff f8 	mov.w	@(0xfff8:16,er6),r2

00401ef8 <.LM147>:
/home/kozos.c:348
}
  401ef8:	0d 20       	mov.w	r2,r0
  401efa:	7a 17 00 00 	add.l	#0xc,er7
  401efe:	00 0c 
  401f00:	01 00 6d 76 	mov.l	@er7+,er6
  401f04:	54 70       	rts	

00401f06 <_thread_recv>:
thread_recv():
/home/kozos.c:352

/* システム・コールの処理(kz_recv():メッセージ受信) */
static kz_thread_id_t thread_recv(kz_msgbox_id_t id, int *sizep, char **pp)
{
  401f06:	01 00 6d f6 	mov.l	er6,@-er7
  401f0a:	0f f6       	mov.l	er7,er6
  401f0c:	7a 37 00 00 	sub.l	#0x10,er7
  401f10:	00 10 
  401f12:	6f e0 ff fa 	mov.w	r0,@(0xfffa:16,er6)
  401f16:	01 00 6f e1 	mov.l	er1,@(0xfff4:16,er6)
  401f1a:	ff f4 
  401f1c:	01 00 6f e2 	mov.l	er2,@(0xfff0:16,er6)
  401f20:	ff f0 

00401f22 <.LM149>:
/home/kozos.c:353
  kz_msgbox *mboxp = &msgboxes[id];
  401f22:	6f 62 ff fa 	mov.w	@(0xfffa:16,er6),r2
  401f26:	17 72       	extu.l	er2
  401f28:	10 32       	shll.l	er2
  401f2a:	10 32       	shll.l	er2
  401f2c:	10 32       	shll.l	er2
  401f2e:	10 32       	shll.l	er2
  401f30:	7a 12 00 40 	add.l	#0x404428,er2
  401f34:	44 28 
  401f36:	01 00 6f e2 	mov.l	er2,@(0xfffc:16,er6)
  401f3a:	ff fc 

00401f3c <.LM150>:
/home/kozos.c:355

  if (mboxp->receiver) /* 他のスレッドがすでに受信待ちしている */
  401f3c:	01 00 6f 62 	mov.l	@(0xfffc:16,er6),er2
  401f40:	ff fc 
  401f42:	01 00 69 22 	mov.l	@er2,er2
  401f46:	0f a2       	mov.l	er2,er2
  401f48:	47 04       	beq	.+4 (0x401f4e)

00401f4a <.LM151>:
/home/kozos.c:356
    kz_sysdown();
  401f4a:	5e 40 24 ea 	jsr	@0x4024ea:24

00401f4e <.L53>:
/home/kozos.c:358

  mboxp->receiver = current; /* 受信待ちスレッドに設定 */
  401f4e:	01 00 6b 23 	mov.l	@0x404290:32,er3
  401f52:	00 40 42 90 
  401f56:	01 00 6f 62 	mov.l	@(0xfffc:16,er6),er2
  401f5a:	ff fc 
  401f5c:	01 00 69 a3 	mov.l	er3,@er2

00401f60 <.LM153>:
/home/kozos.c:360

  if (mboxp->head == NULL) {
  401f60:	01 00 6f 62 	mov.l	@(0xfffc:16,er6),er2
  401f64:	ff fc 
  401f66:	01 00 6f 22 	mov.l	@(0x4:16,er2),er2
  401f6a:	00 04 
  401f6c:	0f a2       	mov.l	er2,er2
  401f6e:	46 06       	bne	.+6 (0x401f76)

00401f70 <.LM154>:
/home/kozos.c:365
    /*
     * メッセージ・ボックスにメッセージが無いので，スレッドを
     * スリープさせる．(システム・コールがブロックする)
     */
    return -1;
  401f70:	1a a2       	sub.l	er2,er2
  401f72:	1b 02       	subs	#1,er2
  401f74:	40 24       	bra	.+36 (0x401f9a)

00401f76 <.L54>:
/home/kozos.c:368
  }

  recvmsg(mboxp); /* メッセージの受信処理 */
  401f76:	01 00 6f 62 	mov.l	@(0xfffc:16,er6),er2
  401f7a:	ff fc 
  401f7c:	0f a0       	mov.l	er2,er0
  401f7e:	5e 40 1d 56 	jsr	@0x401d56:24

00401f82 <.LM156>:
/home/kozos.c:369
  putcurrent(); /* メッセージを受信できたので，レディー状態にする */
  401f82:	5e 40 17 56 	jsr	@0x401756:24

00401f86 <.LM157>:
/home/kozos.c:371

  return current->syscall.param->un.recv.ret;
  401f86:	01 00 6b 22 	mov.l	@0x404290:32,er2
  401f8a:	00 40 42 90 
  401f8e:	01 00 6f 22 	mov.l	@(0x30:16,er2),er2
  401f92:	00 30 
  401f94:	01 00 6f 22 	mov.l	@(0xc:16,er2),er2
  401f98:	00 0c 

00401f9a <.L55>:
/home/kozos.c:372
}
  401f9a:	0f a0       	mov.l	er2,er0
  401f9c:	7a 17 00 00 	add.l	#0x10,er7
  401fa0:	00 10 
  401fa2:	01 00 6d 76 	mov.l	@er7+,er6
  401fa6:	54 70       	rts	

00401fa8 <_thread_setintr>:
thread_setintr():
/home/kozos.c:377

/* システム・コールの処理(kz_setintr():割込みハンドラ登録) */
  static void thread_intr(softvec_type_t type, unsigned long sp);
static int thread_setintr(softvec_type_t type, kz_handler_t handler)
{
  401fa8:	01 00 6d f6 	mov.l	er6,@-er7
  401fac:	0f f6       	mov.l	er7,er6
  401fae:	7a 37 00 00 	sub.l	#0x8,er7
  401fb2:	00 08 
  401fb4:	6f e0 ff fe 	mov.w	r0,@(0xfffe:16,er6)
  401fb8:	01 00 6f e1 	mov.l	er1,@(0xfff8:16,er6)
  401fbc:	ff f8 

00401fbe <.LM160>:
/home/kozos.c:383

  /*
   * 割込みを受け付けるために，ソフトウエア・割込みベクタに
   * OSの割込み処理の入口となる関数を登録する．
   */
  softvec_setintr(type, thread_intr);
  401fbe:	6f 62 ff fe 	mov.w	@(0xfffe:16,er6),r2
  401fc2:	7a 01 00 40 	mov.l	#0x402376,er1
  401fc6:	23 76 
  401fc8:	0d 20       	mov.w	r2,r0
  401fca:	5e 40 03 04 	jsr	@0x400304:24

00401fce <.LM161>:
/home/kozos.c:385

  handlers[type] = handler; /* OS側から呼び出す割込みハンドラを登録 */
  401fce:	6f 62 ff fe 	mov.w	@(0xfffe:16,er6),r2
  401fd2:	17 f2       	exts.l	er2
  401fd4:	10 32       	shll.l	er2
  401fd6:	10 32       	shll.l	er2
  401fd8:	7a 12 00 40 	add.l	#0x404414,er2
  401fdc:	44 14 
  401fde:	01 00 6f 63 	mov.l	@(0xfff8:16,er6),er3
  401fe2:	ff f8 
  401fe4:	01 00 69 a3 	mov.l	er3,@er2

00401fe8 <.LM162>:
/home/kozos.c:386
  putcurrent();
  401fe8:	5e 40 17 56 	jsr	@0x401756:24

00401fec <.LM163>:
/home/kozos.c:388

  return 0;
  401fec:	19 22       	sub.w	r2,r2

00401fee <.LM164>:
/home/kozos.c:389
}
  401fee:	0d 20       	mov.w	r2,r0
  401ff0:	0b 97       	adds	#4,er7
  401ff2:	0b 97       	adds	#4,er7
  401ff4:	01 00 6d 76 	mov.l	@er7+,er6
  401ff8:	54 70       	rts	

00401ffa <_call_functions>:
call_functions():
/home/kozos.c:392

static void call_functions(kz_syscall_type_t type, kz_syscall_param_t *p)
{
  401ffa:	01 00 6d f6 	mov.l	er6,@-er7
  401ffe:	0f f6       	mov.l	er7,er6
  402000:	01 00 6d f4 	mov.l	er4,@-er7
  402004:	01 00 6d f5 	mov.l	er5,@-er7
  402008:	7a 37 00 00 	sub.l	#0x8,er7
  40200c:	00 08 
  40200e:	6f e0 ff f6 	mov.w	r0,@(0xfff6:16,er6)
  402012:	01 00 6f e1 	mov.l	er1,@(0xfff0:16,er6)
  402016:	ff f0 

00402018 <.LM166>:
/home/kozos.c:394
  /* システム・コールの実行中にcurrentが書き換わるので注意 */
  switch (type) {
  402018:	6f 62 ff f6 	mov.w	@(0xfff6:16,er6),r2
  40201c:	79 22 00 0b 	cmp.w	#0xb,r2
  402020:	58 20 01 ee 	bhi	.+494 (0x402212)
  402024:	6f 62 ff f6 	mov.w	@(0xfff6:16,er6),r2
  402028:	17 72       	extu.l	er2
  40202a:	10 32       	shll.l	er2
  40202c:	10 32       	shll.l	er2
  40202e:	7a 12 00 40 	add.l	#0x404118,er2
  402032:	41 18 
  402034:	01 00 69 22 	mov.l	@er2,er2
  402038:	59 20       	jmp	@er2

0040203a <.L60>:
/home/kozos.c:396
  case KZ_SYSCALL_TYPE_RUN: /* kz_run() */
    p->un.run.ret = thread_run(p->un.run.func, p->un.run.name,
  40203a:	01 00 6f 62 	mov.l	@(0xfff0:16,er6),er2
  40203e:	ff f0 
  402040:	01 00 6f 20 	mov.l	@(0x10:16,er2),er0
  402044:	00 10 
  402046:	01 00 6f 62 	mov.l	@(0xfff0:16,er6),er2
  40204a:	ff f0 
  40204c:	6f 23 00 0c 	mov.w	@(0xc:16,er2),r3
  402050:	01 00 6f 62 	mov.l	@(0xfff0:16,er6),er2
  402054:	ff f0 
  402056:	6f 22 00 0a 	mov.w	@(0xa:16,er2),r2
  40205a:	01 00 6f 61 	mov.l	@(0xfff0:16,er6),er1
  40205e:	ff f0 
  402060:	6f 11 00 08 	mov.w	@(0x8:16,er1),r1
  402064:	6f e1 ff f4 	mov.w	r1,@(0xfff4:16,er6)
  402068:	01 00 6f 61 	mov.l	@(0xfff0:16,er6),er1
  40206c:	ff f0 
  40206e:	01 00 6f 15 	mov.l	@(0x4:16,er1),er5
  402072:	00 04 
  402074:	01 00 6f 61 	mov.l	@(0xfff0:16,er6),er1
  402078:	ff f0 
  40207a:	01 00 69 14 	mov.l	@er1,er4
  40207e:	01 00 6d f0 	mov.l	er0,@-er7
  402082:	0f f0       	mov.l	er7,er0
  402084:	1b 90       	subs	#4,er0
  402086:	0f 87       	mov.l	er0,er7
  402088:	6f f3 00 02 	mov.w	r3,@(0x2:16,er7)
  40208c:	0f f3       	mov.l	er7,er3
  40208e:	1b 93       	subs	#4,er3
  402090:	0f b7       	mov.l	er3,er7
  402092:	6f f2 00 02 	mov.w	r2,@(0x2:16,er7)
  402096:	6f 62 ff f4 	mov.w	@(0xfff4:16,er6),r2
  40209a:	0f d1       	mov.l	er5,er1
  40209c:	0f c0       	mov.l	er4,er0
  40209e:	5e 40 18 a8 	jsr	@0x4018a8:24
  4020a2:	7a 17 00 00 	add.l	#0xc,er7
  4020a6:	00 0c 
  4020a8:	0f 83       	mov.l	er0,er3
  4020aa:	01 00 6f 62 	mov.l	@(0xfff0:16,er6),er2
  4020ae:	ff f0 
  4020b0:	01 00 6f a3 	mov.l	er3,@(0x14:16,er2)
  4020b4:	00 14 

004020b6 <.LM168>:
/home/kozos.c:399
			       p->un.run.priority, p->un.run.stacksize,
			       p->un.run.argc, p->un.run.argv);
    break;
  4020b6:	58 00 01 5a 	bra	.+346 (0x402214)

004020ba <.L62>:
/home/kozos.c:402
  case KZ_SYSCALL_TYPE_EXIT: /* kz_exit() */
    /* TCBが消去されるので，戻り値を書き込んではいけない */
    thread_exit();
  4020ba:	5e 40 1b 3e 	jsr	@0x401b3e:24

004020be <.LM170>:
/home/kozos.c:403
    break;
  4020be:	58 00 01 52 	bra	.+338 (0x402214)

004020c2 <.L63>:
/home/kozos.c:405
  case KZ_SYSCALL_TYPE_WAIT: /* kz_wait() */
    p->un.wait.ret = thread_wait();
  4020c2:	5e 40 1b 7c 	jsr	@0x401b7c:24
  4020c6:	0d 03       	mov.w	r0,r3
  4020c8:	01 00 6f 62 	mov.l	@(0xfff0:16,er6),er2
  4020cc:	ff f0 
  4020ce:	69 a3       	mov.w	r3,@er2

004020d0 <.LM172>:
/home/kozos.c:406
    break;
  4020d0:	58 00 01 40 	bra	.+320 (0x402214)

004020d4 <.L64>:
/home/kozos.c:408
  case KZ_SYSCALL_TYPE_SLEEP: /* kz_sleep() */
    p->un.sleep.ret = thread_sleep();
  4020d4:	5e 40 1b 90 	jsr	@0x401b90:24
  4020d8:	0d 03       	mov.w	r0,r3
  4020da:	01 00 6f 62 	mov.l	@(0xfff0:16,er6),er2
  4020de:	ff f0 
  4020e0:	69 a3       	mov.w	r3,@er2

004020e2 <.LM174>:
/home/kozos.c:409
    break;
  4020e2:	58 00 01 2e 	bra	.+302 (0x402214)

004020e6 <.L65>:
/home/kozos.c:411
  case KZ_SYSCALL_TYPE_WAKEUP: /* kz_wakeup() */
    p->un.wakeup.ret = thread_wakeup(p->un.wakeup.id);
  4020e6:	01 00 6f 62 	mov.l	@(0xfff0:16,er6),er2
  4020ea:	ff f0 
  4020ec:	01 00 69 22 	mov.l	@er2,er2
  4020f0:	0f a0       	mov.l	er2,er0
  4020f2:	5e 40 1b a0 	jsr	@0x401ba0:24
  4020f6:	0d 03       	mov.w	r0,r3
  4020f8:	01 00 6f 62 	mov.l	@(0xfff0:16,er6),er2
  4020fc:	ff f0 
  4020fe:	6f a3 00 04 	mov.w	r3,@(0x4:16,er2)

00402102 <.LM176>:
/home/kozos.c:412
    break;
  402102:	58 00 01 0e 	bra	.+270 (0x402214)

00402106 <.L66>:
/home/kozos.c:414
  case KZ_SYSCALL_TYPE_GETID: /* kz_getid() */
    p->un.getid.ret = thread_getid();
  402106:	5e 40 1b d0 	jsr	@0x401bd0:24
  40210a:	0f 83       	mov.l	er0,er3
  40210c:	01 00 6f 62 	mov.l	@(0xfff0:16,er6),er2
  402110:	ff f0 
  402112:	01 00 69 a3 	mov.l	er3,@er2

00402116 <.LM178>:
/home/kozos.c:415
    break;
  402116:	58 00 00 fa 	bra	.+250 (0x402214)

0040211a <.L67>:
/home/kozos.c:417
  case KZ_SYSCALL_TYPE_CHPRI: /* kz_chpri() */
    p->un.chpri.ret = thread_chpri(p->un.chpri.priority);
  40211a:	01 00 6f 62 	mov.l	@(0xfff0:16,er6),er2
  40211e:	ff f0 
  402120:	69 22       	mov.w	@er2,r2
  402122:	0d 20       	mov.w	r2,r0
  402124:	5e 40 1b ea 	jsr	@0x401bea:24
  402128:	0d 03       	mov.w	r0,r3
  40212a:	01 00 6f 62 	mov.l	@(0xfff0:16,er6),er2
  40212e:	ff f0 
  402130:	6f a3 00 02 	mov.w	r3,@(0x2:16,er2)

00402134 <.LM180>:
/home/kozos.c:418
    break;
  402134:	58 00 00 dc 	bra	.+220 (0x402214)

00402138 <.L68>:
/home/kozos.c:420
  case KZ_SYSCALL_TYPE_KMALLOC: /* kz_kmalloc() */
    p->un.kmalloc.ret = thread_kmalloc(p->un.kmalloc.size);
  402138:	01 00 6f 62 	mov.l	@(0xfff0:16,er6),er2
  40213c:	ff f0 
  40213e:	69 22       	mov.w	@er2,r2
  402140:	0d 20       	mov.w	r2,r0
  402142:	5e 40 1c 36 	jsr	@0x401c36:24
  402146:	0f 83       	mov.l	er0,er3
  402148:	01 00 6f 62 	mov.l	@(0xfff0:16,er6),er2
  40214c:	ff f0 
  40214e:	01 00 6f a3 	mov.l	er3,@(0x4:16,er2)
  402152:	00 04 

00402154 <.LM182>:
/home/kozos.c:421
    break;
  402154:	58 00 00 bc 	bra	.+188 (0x402214)

00402158 <.L69>:
/home/kozos.c:423
  case KZ_SYSCALL_TYPE_KMFREE: /* kz_kmfree() */
    p->un.kmfree.ret = thread_kmfree(p->un.kmfree.p);
  402158:	01 00 6f 62 	mov.l	@(0xfff0:16,er6),er2
  40215c:	ff f0 
  40215e:	01 00 69 22 	mov.l	@er2,er2
  402162:	0f a0       	mov.l	er2,er0
  402164:	5e 40 1c 5c 	jsr	@0x401c5c:24
  402168:	0d 03       	mov.w	r0,r3
  40216a:	01 00 6f 62 	mov.l	@(0xfff0:16,er6),er2
  40216e:	ff f0 
  402170:	6f a3 00 04 	mov.w	r3,@(0x4:16,er2)

00402174 <.LM184>:
/home/kozos.c:424
    break;
  402174:	58 00 00 9c 	bra	.+156 (0x402214)

00402178 <.L70>:
/home/kozos.c:426
  case KZ_SYSCALL_TYPE_SEND: /* kz_send() */
    p->un.send.ret = thread_send(p->un.send.id,
  402178:	01 00 6f 62 	mov.l	@(0xfff0:16,er6),er2
  40217c:	ff f0 
  40217e:	01 00 6f 21 	mov.l	@(0x4:16,er2),er1
  402182:	00 04 
  402184:	01 00 6f 62 	mov.l	@(0xfff0:16,er6),er2
  402188:	ff f0 
  40218a:	6f 20 00 02 	mov.w	@(0x2:16,er2),r0
  40218e:	01 00 6f 62 	mov.l	@(0xfff0:16,er6),er2
  402192:	ff f0 
  402194:	69 23       	mov.w	@er2,r3
  402196:	0f 92       	mov.l	er1,er2
  402198:	0d 01       	mov.w	r0,r1
  40219a:	0d 30       	mov.w	r3,r0
  40219c:	5e 40 1e 64 	jsr	@0x401e64:24
  4021a0:	0d 03       	mov.w	r0,r3
  4021a2:	01 00 6f 62 	mov.l	@(0xfff0:16,er6),er2
  4021a6:	ff f0 
  4021a8:	6f a3 00 08 	mov.w	r3,@(0x8:16,er2)

004021ac <.LM186>:
/home/kozos.c:428
				 p->un.send.size, p->un.send.p);
    break;
  4021ac:	40 66       	bra	.+102 (0x402214)

004021ae <.L71>:
/home/kozos.c:430
  case KZ_SYSCALL_TYPE_RECV: /* kz_recv() */
    p->un.recv.ret = thread_recv(p->un.recv.id,
  4021ae:	01 00 6f 62 	mov.l	@(0xfff0:16,er6),er2
  4021b2:	ff f0 
  4021b4:	01 00 6f 21 	mov.l	@(0x8:16,er2),er1
  4021b8:	00 08 
  4021ba:	01 00 6f 62 	mov.l	@(0xfff0:16,er6),er2
  4021be:	ff f0 
  4021c0:	01 00 6f 20 	mov.l	@(0x4:16,er2),er0
  4021c4:	00 04 
  4021c6:	01 00 6f 62 	mov.l	@(0xfff0:16,er6),er2
  4021ca:	ff f0 
  4021cc:	69 23       	mov.w	@er2,r3
  4021ce:	0f 92       	mov.l	er1,er2
  4021d0:	0f 81       	mov.l	er0,er1
  4021d2:	0d 30       	mov.w	r3,r0
  4021d4:	5e 40 1f 06 	jsr	@0x401f06:24
  4021d8:	0f 83       	mov.l	er0,er3
  4021da:	01 00 6f 62 	mov.l	@(0xfff0:16,er6),er2
  4021de:	ff f0 
  4021e0:	01 00 6f a3 	mov.l	er3,@(0xc:16,er2)
  4021e4:	00 0c 

004021e6 <.LM188>:
/home/kozos.c:432
				 p->un.recv.sizep, p->un.recv.pp);
    break;
  4021e6:	40 2c       	bra	.+44 (0x402214)

004021e8 <.L72>:
/home/kozos.c:434
  case KZ_SYSCALL_TYPE_SETINTR: /* kz_setintr() */
    p->un.setintr.ret = thread_setintr(p->un.setintr.type,
  4021e8:	01 00 6f 62 	mov.l	@(0xfff0:16,er6),er2
  4021ec:	ff f0 
  4021ee:	01 00 6f 23 	mov.l	@(0x4:16,er2),er3
  4021f2:	00 04 
  4021f4:	01 00 6f 62 	mov.l	@(0xfff0:16,er6),er2
  4021f8:	ff f0 
  4021fa:	69 22       	mov.w	@er2,r2
  4021fc:	0f b1       	mov.l	er3,er1
  4021fe:	0d 20       	mov.w	r2,r0
  402200:	5e 40 1f a8 	jsr	@0x401fa8:24
  402204:	0d 03       	mov.w	r0,r3
  402206:	01 00 6f 62 	mov.l	@(0xfff0:16,er6),er2
  40220a:	ff f0 
  40220c:	6f a3 00 08 	mov.w	r3,@(0x8:16,er2)

00402210 <.LM190>:
/home/kozos.c:436
				       p->un.setintr.handler);
    break;
  402210:	40 02       	bra	.+2 (0x402214)

00402212 <.L74>:
	...

00402214 <.L73>:
/home/kozos.c:440
  default:
    break;
  }
}
  402214:	00 00       	nop	
  402216:	0b 97       	adds	#4,er7
  402218:	0b 97       	adds	#4,er7
  40221a:	01 00 6d 75 	mov.l	@er7+,er5
  40221e:	01 00 6d 74 	mov.l	@er7+,er4
  402222:	01 00 6d 76 	mov.l	@er7+,er6
  402226:	54 70       	rts	

00402228 <_syscall_proc>:
syscall_proc():
/home/kozos.c:444

/* システム・コールの処理 */
static void syscall_proc(kz_syscall_type_t type, kz_syscall_param_t *p)
{
  402228:	01 00 6d f6 	mov.l	er6,@-er7
  40222c:	0f f6       	mov.l	er7,er6
  40222e:	7a 37 00 00 	sub.l	#0x8,er7
  402232:	00 08 
  402234:	6f e0 ff fe 	mov.w	r0,@(0xfffe:16,er6)
  402238:	01 00 6f e1 	mov.l	er1,@(0xfff8:16,er6)
  40223c:	ff f8 

0040223e <.LM194>:
/home/kozos.c:451
   * システム・コールを呼び出したスレッドをレディー・キューから
   * 外した状態で処理関数を呼び出す．このためシステム・コールを
   * 呼び出したスレッドをそのまま動作継続させたい場合には，
   * 処理関数の内部で putcurrent() を行う必要がある．
   */
  getcurrent();
  40223e:	5e 40 16 7a 	jsr	@0x40167a:24

00402242 <.LM195>:
/home/kozos.c:452
  call_functions(type, p);
  402242:	01 00 6f 63 	mov.l	@(0xfff8:16,er6),er3
  402246:	ff f8 
  402248:	6f 62 ff fe 	mov.w	@(0xfffe:16,er6),r2
  40224c:	0f b1       	mov.l	er3,er1
  40224e:	0d 20       	mov.w	r2,r0
  402250:	5e 40 1f fa 	jsr	@0x401ffa:24

00402254 <.LM196>:
/home/kozos.c:453
}
  402254:	00 00       	nop	
  402256:	0b 97       	adds	#4,er7
  402258:	0b 97       	adds	#4,er7
  40225a:	01 00 6d 76 	mov.l	@er7+,er6
  40225e:	54 70       	rts	

00402260 <_srvcall_proc>:
srvcall_proc():
/home/kozos.c:457

/* サービス・コールの処理 */
static void srvcall_proc(kz_syscall_type_t type, kz_syscall_param_t *p)
{
  402260:	01 00 6d f6 	mov.l	er6,@-er7
  402264:	0f f6       	mov.l	er7,er6
  402266:	7a 37 00 00 	sub.l	#0x8,er7
  40226a:	00 08 
  40226c:	6f e0 ff fe 	mov.w	r0,@(0xfffe:16,er6)
  402270:	01 00 6f e1 	mov.l	er1,@(0xfff8:16,er6)
  402274:	ff f8 

00402276 <.LM198>:
/home/kozos.c:467
   * current が残っていると誤動作するため NULL に設定する．
   * サービス・コールは thread_intrvec() 内部の割込みハンドラ呼び出しの
   * 延長で呼ばれているはずでなので，呼び出し後に thread_intrvec() で
   * スケジューリング処理が行われ，current は再設定される．
   */
  current = NULL;
  402276:	1a a2       	sub.l	er2,er2
  402278:	01 00 6b a2 	mov.l	er2,@0x404290:32
  40227c:	00 40 42 90 

00402280 <.LM199>:
/home/kozos.c:468
  call_functions(type, p);
  402280:	01 00 6f 63 	mov.l	@(0xfff8:16,er6),er3
  402284:	ff f8 
  402286:	6f 62 ff fe 	mov.w	@(0xfffe:16,er6),r2
  40228a:	0f b1       	mov.l	er3,er1
  40228c:	0d 20       	mov.w	r2,r0
  40228e:	5e 40 1f fa 	jsr	@0x401ffa:24

00402292 <.LM200>:
/home/kozos.c:469
}
  402292:	00 00       	nop	
  402294:	0b 97       	adds	#4,er7
  402296:	0b 97       	adds	#4,er7
  402298:	01 00 6d 76 	mov.l	@er7+,er6
  40229c:	54 70       	rts	

0040229e <_schedule>:
schedule():
/home/kozos.c:473

/* スレッドのスケジューリング */
static void schedule(void)
{
  40229e:	01 00 6d f6 	mov.l	er6,@-er7
  4022a2:	0f f6       	mov.l	er7,er6
  4022a4:	1b 97       	subs	#4,er7

004022a6 <.LM202>:
/home/kozos.c:480

  /*
   * 優先順位の高い順(優先度の数値の小さい順)にレディー・キューを見て，
   * 動作可能なスレッドを検索する．
   */
  for (i = 0; i < PRIORITY_NUM; i++) {
  4022a6:	19 22       	sub.w	r2,r2
  4022a8:	6f e2 ff fe 	mov.w	r2,@(0xfffe:16,er6)
  4022ac:	40 24       	bra	.+36 (0x4022d2)

004022ae <.L81>:
/home/kozos.c:481
    if (readyque[i].head) /* 見つかった */
  4022ae:	6f 62 ff fe 	mov.w	@(0xfffe:16,er6),r2
  4022b2:	17 f2       	exts.l	er2
  4022b4:	10 32       	shll.l	er2
  4022b6:	10 32       	shll.l	er2
  4022b8:	10 32       	shll.l	er2
  4022ba:	7a 12 00 40 	add.l	#0x404210,er2
  4022be:	42 10 
  4022c0:	01 00 69 22 	mov.l	@er2,er2
  4022c4:	0f a2       	mov.l	er2,er2
  4022c6:	46 16       	bne	.+22 (0x4022de)

004022c8 <.LM204>:
/home/kozos.c:480 (discriminator 2)
  for (i = 0; i < PRIORITY_NUM; i++) {
  4022c8:	6f 62 ff fe 	mov.w	@(0xfffe:16,er6),r2
  4022cc:	0b 02       	adds	#1,er2
  4022ce:	6f e2 ff fe 	mov.w	r2,@(0xfffe:16,er6)

004022d2 <.L78>:
/home/kozos.c:480 (discriminator 1)
  4022d2:	6f 62 ff fe 	mov.w	@(0xfffe:16,er6),r2
  4022d6:	79 22 00 0f 	cmp.w	#0xf,r2
  4022da:	4f d2       	ble	.-46 (0x4022ae)
  4022dc:	40 02       	bra	.+2 (0x4022e0)

004022de <.L83>:
	...

004022e0 <.L80>:
/home/kozos.c:484
      break;
  }
  if (i == PRIORITY_NUM) /* 見つからなかった */
  4022e0:	6f 62 ff fe 	mov.w	@(0xfffe:16,er6),r2
  4022e4:	79 22 00 10 	cmp.w	#0x10,r2
  4022e8:	46 04       	bne	.+4 (0x4022ee)

004022ea <.LM208>:
/home/kozos.c:485
    kz_sysdown();
  4022ea:	5e 40 24 ea 	jsr	@0x4024ea:24

004022ee <.L82>:
/home/kozos.c:487

  current = readyque[i].head; /* カレント・スレッドに設定する */
  4022ee:	6f 62 ff fe 	mov.w	@(0xfffe:16,er6),r2
  4022f2:	17 f2       	exts.l	er2
  4022f4:	10 32       	shll.l	er2
  4022f6:	10 32       	shll.l	er2
  4022f8:	10 32       	shll.l	er2
  4022fa:	7a 12 00 40 	add.l	#0x404210,er2
  4022fe:	42 10 
  402300:	01 00 69 22 	mov.l	@er2,er2
  402304:	01 00 6b a2 	mov.l	er2,@0x404290:32
  402308:	00 40 42 90 

0040230c <.LM210>:
/home/kozos.c:488
}
  40230c:	00 00       	nop	
  40230e:	0b 97       	adds	#4,er7
  402310:	01 00 6d 76 	mov.l	@er7+,er6
  402314:	54 70       	rts	

00402316 <_syscall_intr>:
syscall_intr():
/home/kozos.c:491

static void syscall_intr(void)
{
  402316:	01 00 6d f6 	mov.l	er6,@-er7
  40231a:	0f f6       	mov.l	er7,er6

0040231c <.LM212>:
/home/kozos.c:492
  syscall_proc(current->syscall.type, current->syscall.param);
  40231c:	01 00 6b 22 	mov.l	@0x404290:32,er2
  402320:	00 40 42 90 
  402324:	01 00 6f 23 	mov.l	@(0x30:16,er2),er3
  402328:	00 30 
  40232a:	01 00 6b 22 	mov.l	@0x404290:32,er2
  40232e:	00 40 42 90 
  402332:	6f 22 00 2c 	mov.w	@(0x2c:16,er2),r2
  402336:	0f b1       	mov.l	er3,er1
  402338:	0d 20       	mov.w	r2,r0
  40233a:	5e 40 22 28 	jsr	@0x402228:24

0040233e <.LM213>:
/home/kozos.c:493
}
  40233e:	00 00       	nop	
  402340:	01 00 6d 76 	mov.l	@er7+,er6
  402344:	54 70       	rts	

00402346 <_softerr_intr>:
softerr_intr():
/home/kozos.c:496

static void softerr_intr(void)
{
  402346:	01 00 6d f6 	mov.l	er6,@-er7
  40234a:	0f f6       	mov.l	er7,er6

0040234c <.LM215>:
/home/kozos.c:497
  puts(current->name);
  40234c:	01 00 6b 22 	mov.l	@0x404290:32,er2
  402350:	00 40 42 90 
  402354:	0b 92       	adds	#4,er2
  402356:	0f a0       	mov.l	er2,er0
  402358:	5e 40 07 b6 	jsr	@0x4007b6:24

0040235c <.LM216>:
/home/kozos.c:498
  puts(" DOWN.\n");
  40235c:	7a 00 00 40 	mov.l	#0x404148,er0
  402360:	41 48 
  402362:	5e 40 07 b6 	jsr	@0x4007b6:24

00402366 <.LM217>:
/home/kozos.c:499
  getcurrent(); /* レディーキューから外す */
  402366:	5e 40 16 7a 	jsr	@0x40167a:24

0040236a <.LM218>:
/home/kozos.c:500
  thread_exit(); /* スレッド終了する */
  40236a:	5e 40 1b 3e 	jsr	@0x401b3e:24

0040236e <.LM219>:
/home/kozos.c:501
}
  40236e:	00 00       	nop	
  402370:	01 00 6d 76 	mov.l	@er7+,er6
  402374:	54 70       	rts	

00402376 <_thread_intr>:
thread_intr():
/home/kozos.c:505

/* 割込み処理の入口関数 */
static void thread_intr(softvec_type_t type, unsigned long sp)
{
  402376:	01 00 6d f6 	mov.l	er6,@-er7
  40237a:	0f f6       	mov.l	er7,er6
  40237c:	7a 37 00 00 	sub.l	#0x8,er7
  402380:	00 08 
  402382:	6f e0 ff fe 	mov.w	r0,@(0xfffe:16,er6)
  402386:	01 00 6f e1 	mov.l	er1,@(0xfff8:16,er6)
  40238a:	ff f8 

0040238c <.LM221>:
/home/kozos.c:507
  /* カレント・スレッドのコンテキストを保存する */
  current->context.sp = sp;
  40238c:	01 00 6b 22 	mov.l	@0x404290:32,er2
  402390:	00 40 42 90 
  402394:	01 00 6f 63 	mov.l	@(0xfff8:16,er6),er3
  402398:	ff f8 
  40239a:	01 00 6f a3 	mov.l	er3,@(0x34:16,er2)
  40239e:	00 34 

004023a0 <.LM222>:
/home/kozos.c:517
   * syscall_intr(), softerr_intr() がハンドラに登録されているので，
   * それらが実行される．
   * それ以外の場合は，kz_setintr()によってユーザ登録されたハンドラが
   * 実行される．
   */
  if (handlers[type])
  4023a0:	6f 62 ff fe 	mov.w	@(0xfffe:16,er6),r2
  4023a4:	17 f2       	exts.l	er2
  4023a6:	10 32       	shll.l	er2
  4023a8:	10 32       	shll.l	er2
  4023aa:	7a 12 00 40 	add.l	#0x404414,er2
  4023ae:	44 14 
  4023b0:	01 00 69 22 	mov.l	@er2,er2
  4023b4:	0f a2       	mov.l	er2,er2
  4023b6:	47 16       	beq	.+22 (0x4023ce)

004023b8 <.LM223>:
/home/kozos.c:518
    handlers[type]();
  4023b8:	6f 62 ff fe 	mov.w	@(0xfffe:16,er6),r2
  4023bc:	17 f2       	exts.l	er2
  4023be:	10 32       	shll.l	er2
  4023c0:	10 32       	shll.l	er2
  4023c2:	7a 12 00 40 	add.l	#0x404414,er2
  4023c6:	44 14 
  4023c8:	01 00 69 22 	mov.l	@er2,er2
  4023cc:	5d 20       	jsr	@er2

004023ce <.L87>:
/home/kozos.c:520

  schedule(); /* スレッドのスケジューリング */
  4023ce:	5e 40 22 9e 	jsr	@0x40229e:24

004023d2 <.LM225>:
/home/kozos.c:526

  /*
   * スレッドのディスパッチ
   * (dispatch()関数の本体はstartup.sにあり，アセンブラで記述されている)
   */
  dispatch(&current->context);
  4023d2:	01 00 6b 22 	mov.l	@0x404290:32,er2
  4023d6:	00 40 42 90 
  4023da:	7a 12 00 00 	add.l	#0x34,er2
  4023de:	00 34 
  4023e0:	0f a0       	mov.l	er2,er0
  4023e2:	5e 40 01 0c 	jsr	@0x40010c:24

004023e6 <.LM226>:
/home/kozos.c:528
  /* ここには返ってこない */
}
  4023e6:	00 00       	nop	
  4023e8:	0b 97       	adds	#4,er7
  4023ea:	0b 97       	adds	#4,er7
  4023ec:	01 00 6d 76 	mov.l	@er7+,er6
  4023f0:	54 70       	rts	

004023f2 <_kz_start>:
kz_start():
/home/kozos.c:532

void kz_start(kz_func_t func, char *name, int priority, int stacksize,
	      int argc, char *argv[])
{
  4023f2:	01 00 6d f6 	mov.l	er6,@-er7
  4023f6:	0f f6       	mov.l	er7,er6
  4023f8:	7a 37 00 00 	sub.l	#0xc,er7
  4023fc:	00 0c 
  4023fe:	01 00 6f e0 	mov.l	er0,@(0xfffc:16,er6)
  402402:	ff fc 
  402404:	01 00 6f e1 	mov.l	er1,@(0xfff8:16,er6)
  402408:	ff f8 
  40240a:	6f e2 ff f6 	mov.w	r2,@(0xfff6:16,er6)

0040240e <.LM228>:
/home/kozos.c:533
  kzmem_init(); /* 動的メモリの初期化 */
  40240e:	5e 40 2a 9c 	jsr	@0x402a9c:24

00402412 <.LM229>:
/home/kozos.c:539

  /*
   * 以降で呼び出すスレッド関連のライブラリ関数の内部で current を
   * 見ている場合があるので，current を NULL に初期化しておく．
   */
  current = NULL;
  402412:	1a a2       	sub.l	er2,er2
  402414:	01 00 6b a2 	mov.l	er2,@0x404290:32
  402418:	00 40 42 90 

0040241c <.LM230>:
/home/kozos.c:541

  memset(readyque, 0, sizeof(readyque));
  40241c:	1a a2       	sub.l	er2,er2
  40241e:	8a 80       	add.b	#0x80,r2l
  402420:	19 11       	sub.w	r1,r1
  402422:	7a 00 00 40 	mov.l	#0x404210,er0
  402426:	42 10 
  402428:	5e 40 03 a0 	jsr	@0x4003a0:24

0040242c <.LM231>:
/home/kozos.c:542
  memset(threads,  0, sizeof(threads));
  40242c:	7a 02 00 00 	mov.l	#0x180,er2
  402430:	01 80 
  402432:	19 11       	sub.w	r1,r1
  402434:	7a 00 00 40 	mov.l	#0x404294,er0
  402438:	42 94 
  40243a:	5e 40 03 a0 	jsr	@0x4003a0:24

0040243e <.LM232>:
/home/kozos.c:543
  memset(handlers, 0, sizeof(handlers));
  40243e:	1a a2       	sub.l	er2,er2
  402440:	8a 14       	add.b	#0x14,r2l
  402442:	19 11       	sub.w	r1,r1
  402444:	7a 00 00 40 	mov.l	#0x404414,er0
  402448:	44 14 
  40244a:	5e 40 03 a0 	jsr	@0x4003a0:24

0040244e <.LM233>:
/home/kozos.c:544
  memset(msgboxes, 0, sizeof(msgboxes));
  40244e:	1a a2       	sub.l	er2,er2
  402450:	8a 60       	add.b	#0x60,r2l
  402452:	19 11       	sub.w	r1,r1
  402454:	7a 00 00 40 	mov.l	#0x404428,er0
  402458:	44 28 
  40245a:	5e 40 03 a0 	jsr	@0x4003a0:24

0040245e <.LM234>:
/home/kozos.c:547

  /* 割込みハンドラの登録 */
  thread_setintr(SOFTVEC_TYPE_SYSCALL, syscall_intr); /* システム・コール */
  40245e:	7a 01 00 40 	mov.l	#0x402316,er1
  402462:	23 16 
  402464:	79 00 00 01 	mov.w	#0x1,r0
  402468:	5e 40 1f a8 	jsr	@0x401fa8:24

0040246c <.LM235>:
/home/kozos.c:548
  thread_setintr(SOFTVEC_TYPE_SOFTERR, softerr_intr); /* ダウン要因発生 */
  40246c:	7a 01 00 40 	mov.l	#0x402346,er1
  402470:	23 46 
  402472:	19 00       	sub.w	r0,r0
  402474:	5e 40 1f a8 	jsr	@0x401fa8:24

00402478 <.LM236>:
/home/kozos.c:551

  /* システム・コール発行不可なので直接関数を呼び出してスレッド作成する */
  current = (kz_thread *)thread_run(func, name, priority, stacksize,
  402478:	6f 61 ff f6 	mov.w	@(0xfff6:16,er6),r1
  40247c:	01 00 6f 60 	mov.l	@(0xfff8:16,er6),er0
  402480:	ff f8 
  402482:	01 00 6f 63 	mov.l	@(0xfffc:16,er6),er3
  402486:	ff fc 
  402488:	01 00 6f 62 	mov.l	@(0x10:16,er6),er2
  40248c:	00 10 
  40248e:	01 00 6d f2 	mov.l	er2,@-er7
  402492:	0f f2       	mov.l	er7,er2
  402494:	1b 92       	subs	#4,er2
  402496:	0f a7       	mov.l	er2,er7
  402498:	6f 62 00 0e 	mov.w	@(0xe:16,er6),r2
  40249c:	6f f2 00 02 	mov.w	r2,@(0x2:16,er7)
  4024a0:	0f f2       	mov.l	er7,er2
  4024a2:	1b 92       	subs	#4,er2
  4024a4:	0f a7       	mov.l	er2,er7
  4024a6:	6f 62 00 0a 	mov.w	@(0xa:16,er6),r2
  4024aa:	6f f2 00 02 	mov.w	r2,@(0x2:16,er7)
  4024ae:	0d 12       	mov.w	r1,r2
  4024b0:	0f 81       	mov.l	er0,er1
  4024b2:	0f b0       	mov.l	er3,er0
  4024b4:	5e 40 18 a8 	jsr	@0x4018a8:24
  4024b8:	7a 17 00 00 	add.l	#0xc,er7
  4024bc:	00 0c 
  4024be:	0f 82       	mov.l	er0,er2
  4024c0:	01 00 6b a2 	mov.l	er2,@0x404290:32
  4024c4:	00 40 42 90 

004024c8 <.LM237>:
/home/kozos.c:555
				    argc, argv);

  /* 最初のスレッドを起動 */
  dispatch(&current->context);
  4024c8:	01 00 6b 22 	mov.l	@0x404290:32,er2
  4024cc:	00 40 42 90 
  4024d0:	7a 12 00 00 	add.l	#0x34,er2
  4024d4:	00 34 
  4024d6:	0f a0       	mov.l	er2,er0
  4024d8:	5e 40 01 0c 	jsr	@0x40010c:24

004024dc <.LM238>:
/home/kozos.c:558

  /* ここには返ってこない */
}
  4024dc:	00 00       	nop	
  4024de:	7a 17 00 00 	add.l	#0xc,er7
  4024e2:	00 0c 
  4024e4:	01 00 6d 76 	mov.l	@er7+,er6
  4024e8:	54 70       	rts	

004024ea <_kz_sysdown>:
kz_sysdown():
/home/kozos.c:561

void kz_sysdown(void)
{
  4024ea:	01 00 6d f6 	mov.l	er6,@-er7
  4024ee:	0f f6       	mov.l	er7,er6

004024f0 <.LM240>:
/home/kozos.c:562
  puts("system error!\n");
  4024f0:	7a 00 00 40 	mov.l	#0x404150,er0
  4024f4:	41 50 
  4024f6:	5e 40 07 b6 	jsr	@0x4007b6:24

004024fa <.L90>:
/home/kozos.c:563 (discriminator 1)
  while (1)
  4024fa:	40 fe       	bra	.-2 (0x4024fa)

004024fc <_kz_syscall>:
kz_syscall():
/home/kozos.c:569
    ;
}

/* システム・コール呼び出し用ライブラリ関数 */
void kz_syscall(kz_syscall_type_t type, kz_syscall_param_t *param)
{
  4024fc:	01 00 6d f6 	mov.l	er6,@-er7
  402500:	0f f6       	mov.l	er7,er6
  402502:	7a 37 00 00 	sub.l	#0x8,er7
  402506:	00 08 
  402508:	6f e0 ff fe 	mov.w	r0,@(0xfffe:16,er6)
  40250c:	01 00 6f e1 	mov.l	er1,@(0xfff8:16,er6)
  402510:	ff f8 

00402512 <.LM243>:
/home/kozos.c:570
  current->syscall.type  = type;
  402512:	01 00 6b 22 	mov.l	@0x404290:32,er2
  402516:	00 40 42 90 
  40251a:	6f 63 ff fe 	mov.w	@(0xfffe:16,er6),r3
  40251e:	6f a3 00 2c 	mov.w	r3,@(0x2c:16,er2)

00402522 <.LM244>:
/home/kozos.c:571
  current->syscall.param = param;
  402522:	01 00 6b 22 	mov.l	@0x404290:32,er2
  402526:	00 40 42 90 
  40252a:	01 00 6f 63 	mov.l	@(0xfff8:16,er6),er3
  40252e:	ff f8 
  402530:	01 00 6f a3 	mov.l	er3,@(0x30:16,er2)
  402534:	00 30 

00402536 <.LM245>:
/home/kozos.c:572
  asm volatile ("trapa #0"); /* トラップ割込み発行 */
  402536:	57 00       	trapa	#0x0

00402538 <.LM246>:
/home/kozos.c:573
}
  402538:	00 00       	nop	
  40253a:	0b 97       	adds	#4,er7
  40253c:	0b 97       	adds	#4,er7
  40253e:	01 00 6d 76 	mov.l	@er7+,er6
  402542:	54 70       	rts	

00402544 <_kz_srvcall>:
kz_srvcall():
/home/kozos.c:577

/* サービス・コール呼び出し用ライブラリ関数 */
void kz_srvcall(kz_syscall_type_t type, kz_syscall_param_t *param)
{
  402544:	01 00 6d f6 	mov.l	er6,@-er7
  402548:	0f f6       	mov.l	er7,er6
  40254a:	7a 37 00 00 	sub.l	#0x8,er7
  40254e:	00 08 
  402550:	6f e0 ff fe 	mov.w	r0,@(0xfffe:16,er6)
  402554:	01 00 6f e1 	mov.l	er1,@(0xfff8:16,er6)
  402558:	ff f8 

0040255a <.LM248>:
/home/kozos.c:578
  srvcall_proc(type, param);
  40255a:	01 00 6f 63 	mov.l	@(0xfff8:16,er6),er3
  40255e:	ff f8 
  402560:	6f 62 ff fe 	mov.w	@(0xfffe:16,er6),r2
  402564:	0f b1       	mov.l	er3,er1
  402566:	0d 20       	mov.w	r2,r0
  402568:	5e 40 22 60 	jsr	@0x402260:24

0040256c <.LM249>:
/home/kozos.c:579
}
  40256c:	00 00       	nop	
  40256e:	0b 97       	adds	#4,er7
  402570:	0b 97       	adds	#4,er7
  402572:	01 00 6d 76 	mov.l	@er7+,er6
  402576:	54 70       	rts	

00402578 <_kz_run>:
kz_run():
/home/syscall.c:10

/* システム・コール */

kz_thread_id_t kz_run(kz_func_t func, char *name, int priority, int stacksize,
		      int argc, char *argv[])
{
  402578:	01 00 6d f6 	mov.l	er6,@-er7
  40257c:	0f f6       	mov.l	er7,er6
  40257e:	7a 37 00 00 	sub.l	#0x24,er7
  402582:	00 24 
  402584:	01 00 6f e0 	mov.l	er0,@(0xffe4:16,er6)
  402588:	ff e4 
  40258a:	01 00 6f e1 	mov.l	er1,@(0xffe0:16,er6)
  40258e:	ff e0 
  402590:	6f e2 ff de 	mov.w	r2,@(0xffde:16,er6)

00402594 <.LM2>:
/home/syscall.c:12
  kz_syscall_param_t param;
  param.un.run.func = func;
  402594:	01 00 6f 62 	mov.l	@(0xffe4:16,er6),er2
  402598:	ff e4 
  40259a:	01 00 6f e2 	mov.l	er2,@(0xffe8:16,er6)
  40259e:	ff e8 

004025a0 <.LM3>:
/home/syscall.c:13
  param.un.run.name = name;
  4025a0:	01 00 6f 62 	mov.l	@(0xffe0:16,er6),er2
  4025a4:	ff e0 
  4025a6:	01 00 6f e2 	mov.l	er2,@(0xffec:16,er6)
  4025aa:	ff ec 

004025ac <.LM4>:
/home/syscall.c:14
  param.un.run.priority = priority;
  4025ac:	6f 62 ff de 	mov.w	@(0xffde:16,er6),r2
  4025b0:	6f e2 ff f0 	mov.w	r2,@(0xfff0:16,er6)

004025b4 <.LM5>:
/home/syscall.c:15
  param.un.run.stacksize = stacksize;
  4025b4:	6f 62 00 0a 	mov.w	@(0xa:16,er6),r2
  4025b8:	6f e2 ff f2 	mov.w	r2,@(0xfff2:16,er6)

004025bc <.LM6>:
/home/syscall.c:16
  param.un.run.argc = argc;
  4025bc:	6f 62 00 0e 	mov.w	@(0xe:16,er6),r2
  4025c0:	6f e2 ff f4 	mov.w	r2,@(0xfff4:16,er6)

004025c4 <.LM7>:
/home/syscall.c:17
  param.un.run.argv = argv;
  4025c4:	01 00 6f 62 	mov.l	@(0x10:16,er6),er2
  4025c8:	00 10 
  4025ca:	01 00 6f e2 	mov.l	er2,@(0xfff8:16,er6)
  4025ce:	ff f8 

004025d0 <.LM8>:
/home/syscall.c:18
  kz_syscall(KZ_SYSCALL_TYPE_RUN, &param);
  4025d0:	0f e2       	mov.l	er6,er2
  4025d2:	7a 32 00 00 	sub.l	#0x18,er2
  4025d6:	00 18 
  4025d8:	0f a1       	mov.l	er2,er1
  4025da:	19 00       	sub.w	r0,r0
  4025dc:	5e 40 24 fc 	jsr	@0x4024fc:24

004025e0 <.LM9>:
/home/syscall.c:19
  return param.un.run.ret;
  4025e0:	01 00 6f 62 	mov.l	@(0xfffc:16,er6),er2
  4025e4:	ff fc 

004025e6 <.LM10>:
/home/syscall.c:20
}
  4025e6:	0f a0       	mov.l	er2,er0
  4025e8:	7a 17 00 00 	add.l	#0x24,er7
  4025ec:	00 24 
  4025ee:	01 00 6d 76 	mov.l	@er7+,er6
  4025f2:	54 70       	rts	

004025f4 <_kz_exit>:
kz_exit():
/home/syscall.c:23

void kz_exit(void)
{
  4025f4:	01 00 6d f6 	mov.l	er6,@-er7
  4025f8:	0f f6       	mov.l	er7,er6

004025fa <.LM12>:
/home/syscall.c:24
  kz_syscall(KZ_SYSCALL_TYPE_EXIT, NULL);
  4025fa:	1a 91       	sub.l	er1,er1
  4025fc:	79 00 00 01 	mov.w	#0x1,r0
  402600:	5e 40 24 fc 	jsr	@0x4024fc:24

00402604 <.LM13>:
/home/syscall.c:25
}
  402604:	00 00       	nop	
  402606:	01 00 6d 76 	mov.l	@er7+,er6
  40260a:	54 70       	rts	

0040260c <_kz_wait>:
kz_wait():
/home/syscall.c:28

int kz_wait(void)
{
  40260c:	01 00 6d f6 	mov.l	er6,@-er7
  402610:	0f f6       	mov.l	er7,er6
  402612:	7a 37 00 00 	sub.l	#0x18,er7
  402616:	00 18 

00402618 <.LM15>:
/home/syscall.c:30
  kz_syscall_param_t param;
  kz_syscall(KZ_SYSCALL_TYPE_WAIT, &param);
  402618:	0f e2       	mov.l	er6,er2
  40261a:	7a 32 00 00 	sub.l	#0x18,er2
  40261e:	00 18 
  402620:	0f a1       	mov.l	er2,er1
  402622:	79 00 00 02 	mov.w	#0x2,r0
  402626:	5e 40 24 fc 	jsr	@0x4024fc:24

0040262a <.LM16>:
/home/syscall.c:31
  return param.un.wait.ret;
  40262a:	6f 62 ff e8 	mov.w	@(0xffe8:16,er6),r2

0040262e <.LM17>:
/home/syscall.c:32
}
  40262e:	0d 20       	mov.w	r2,r0
  402630:	7a 17 00 00 	add.l	#0x18,er7
  402634:	00 18 
  402636:	01 00 6d 76 	mov.l	@er7+,er6
  40263a:	54 70       	rts	

0040263c <_kz_sleep>:
kz_sleep():
/home/syscall.c:35

int kz_sleep(void)
{
  40263c:	01 00 6d f6 	mov.l	er6,@-er7
  402640:	0f f6       	mov.l	er7,er6
  402642:	7a 37 00 00 	sub.l	#0x18,er7
  402646:	00 18 

00402648 <.LM19>:
/home/syscall.c:37
  kz_syscall_param_t param;
  kz_syscall(KZ_SYSCALL_TYPE_SLEEP, &param);
  402648:	0f e2       	mov.l	er6,er2
  40264a:	7a 32 00 00 	sub.l	#0x18,er2
  40264e:	00 18 
  402650:	0f a1       	mov.l	er2,er1
  402652:	79 00 00 03 	mov.w	#0x3,r0
  402656:	5e 40 24 fc 	jsr	@0x4024fc:24

0040265a <.LM20>:
/home/syscall.c:38
  return param.un.sleep.ret;
  40265a:	6f 62 ff e8 	mov.w	@(0xffe8:16,er6),r2

0040265e <.LM21>:
/home/syscall.c:39
}
  40265e:	0d 20       	mov.w	r2,r0
  402660:	7a 17 00 00 	add.l	#0x18,er7
  402664:	00 18 
  402666:	01 00 6d 76 	mov.l	@er7+,er6
  40266a:	54 70       	rts	

0040266c <_kz_wakeup>:
kz_wakeup():
/home/syscall.c:42

int kz_wakeup(kz_thread_id_t id)
{
  40266c:	01 00 6d f6 	mov.l	er6,@-er7
  402670:	0f f6       	mov.l	er7,er6
  402672:	7a 37 00 00 	sub.l	#0x1c,er7
  402676:	00 1c 
  402678:	01 00 6f e0 	mov.l	er0,@(0xffe4:16,er6)
  40267c:	ff e4 

0040267e <.LM23>:
/home/syscall.c:44
  kz_syscall_param_t param;
  param.un.wakeup.id = id;
  40267e:	01 00 6f 62 	mov.l	@(0xffe4:16,er6),er2
  402682:	ff e4 
  402684:	01 00 6f e2 	mov.l	er2,@(0xffe8:16,er6)
  402688:	ff e8 

0040268a <.LM24>:
/home/syscall.c:45
  kz_syscall(KZ_SYSCALL_TYPE_WAKEUP, &param);
  40268a:	0f e2       	mov.l	er6,er2
  40268c:	7a 32 00 00 	sub.l	#0x18,er2
  402690:	00 18 
  402692:	0f a1       	mov.l	er2,er1
  402694:	79 00 00 04 	mov.w	#0x4,r0
  402698:	5e 40 24 fc 	jsr	@0x4024fc:24

0040269c <.LM25>:
/home/syscall.c:46
  return param.un.wakeup.ret;
  40269c:	6f 62 ff ec 	mov.w	@(0xffec:16,er6),r2

004026a0 <.LM26>:
/home/syscall.c:47
}
  4026a0:	0d 20       	mov.w	r2,r0
  4026a2:	7a 17 00 00 	add.l	#0x1c,er7
  4026a6:	00 1c 
  4026a8:	01 00 6d 76 	mov.l	@er7+,er6
  4026ac:	54 70       	rts	

004026ae <_kz_getid>:
kz_getid():
/home/syscall.c:50

kz_thread_id_t kz_getid(void)
{
  4026ae:	01 00 6d f6 	mov.l	er6,@-er7
  4026b2:	0f f6       	mov.l	er7,er6
  4026b4:	7a 37 00 00 	sub.l	#0x18,er7
  4026b8:	00 18 

004026ba <.LM28>:
/home/syscall.c:52
  kz_syscall_param_t param;
  kz_syscall(KZ_SYSCALL_TYPE_GETID, &param);
  4026ba:	0f e2       	mov.l	er6,er2
  4026bc:	7a 32 00 00 	sub.l	#0x18,er2
  4026c0:	00 18 
  4026c2:	0f a1       	mov.l	er2,er1
  4026c4:	79 00 00 05 	mov.w	#0x5,r0
  4026c8:	5e 40 24 fc 	jsr	@0x4024fc:24

004026cc <.LM29>:
/home/syscall.c:53
  return param.un.getid.ret;
  4026cc:	01 00 6f 62 	mov.l	@(0xffe8:16,er6),er2
  4026d0:	ff e8 

004026d2 <.LM30>:
/home/syscall.c:54
}
  4026d2:	0f a0       	mov.l	er2,er0
  4026d4:	7a 17 00 00 	add.l	#0x18,er7
  4026d8:	00 18 
  4026da:	01 00 6d 76 	mov.l	@er7+,er6
  4026de:	54 70       	rts	

004026e0 <_kz_chpri>:
kz_chpri():
/home/syscall.c:57

int kz_chpri(int priority)
{
  4026e0:	01 00 6d f6 	mov.l	er6,@-er7
  4026e4:	0f f6       	mov.l	er7,er6
  4026e6:	7a 37 00 00 	sub.l	#0x1c,er7
  4026ea:	00 1c 
  4026ec:	6f e0 ff e6 	mov.w	r0,@(0xffe6:16,er6)

004026f0 <.LM32>:
/home/syscall.c:59
  kz_syscall_param_t param;
  param.un.chpri.priority = priority;
  4026f0:	6f 62 ff e6 	mov.w	@(0xffe6:16,er6),r2
  4026f4:	6f e2 ff e8 	mov.w	r2,@(0xffe8:16,er6)

004026f8 <.LM33>:
/home/syscall.c:60
  kz_syscall(KZ_SYSCALL_TYPE_CHPRI, &param);
  4026f8:	0f e2       	mov.l	er6,er2
  4026fa:	7a 32 00 00 	sub.l	#0x18,er2
  4026fe:	00 18 
  402700:	0f a1       	mov.l	er2,er1
  402702:	79 00 00 06 	mov.w	#0x6,r0
  402706:	5e 40 24 fc 	jsr	@0x4024fc:24

0040270a <.LM34>:
/home/syscall.c:61
  return param.un.chpri.ret;
  40270a:	6f 62 ff ea 	mov.w	@(0xffea:16,er6),r2

0040270e <.LM35>:
/home/syscall.c:62
}
  40270e:	0d 20       	mov.w	r2,r0
  402710:	7a 17 00 00 	add.l	#0x1c,er7
  402714:	00 1c 
  402716:	01 00 6d 76 	mov.l	@er7+,er6
  40271a:	54 70       	rts	

0040271c <_kz_kmalloc>:
kz_kmalloc():
/home/syscall.c:65

void *kz_kmalloc(int size)
{
  40271c:	01 00 6d f6 	mov.l	er6,@-er7
  402720:	0f f6       	mov.l	er7,er6
  402722:	7a 37 00 00 	sub.l	#0x1c,er7
  402726:	00 1c 
  402728:	6f e0 ff e6 	mov.w	r0,@(0xffe6:16,er6)

0040272c <.LM37>:
/home/syscall.c:67
  kz_syscall_param_t param;
  param.un.kmalloc.size = size;
  40272c:	6f 62 ff e6 	mov.w	@(0xffe6:16,er6),r2
  402730:	6f e2 ff e8 	mov.w	r2,@(0xffe8:16,er6)

00402734 <.LM38>:
/home/syscall.c:68
  kz_syscall(KZ_SYSCALL_TYPE_KMALLOC, &param);
  402734:	0f e2       	mov.l	er6,er2
  402736:	7a 32 00 00 	sub.l	#0x18,er2
  40273a:	00 18 
  40273c:	0f a1       	mov.l	er2,er1
  40273e:	79 00 00 07 	mov.w	#0x7,r0
  402742:	5e 40 24 fc 	jsr	@0x4024fc:24

00402746 <.LM39>:
/home/syscall.c:69
  return param.un.kmalloc.ret;
  402746:	01 00 6f 62 	mov.l	@(0xffec:16,er6),er2
  40274a:	ff ec 

0040274c <.LM40>:
/home/syscall.c:70
}
  40274c:	0f a0       	mov.l	er2,er0
  40274e:	7a 17 00 00 	add.l	#0x1c,er7
  402752:	00 1c 
  402754:	01 00 6d 76 	mov.l	@er7+,er6
  402758:	54 70       	rts	

0040275a <_kz_kmfree>:
kz_kmfree():
/home/syscall.c:73

int kz_kmfree(void *p)
{
  40275a:	01 00 6d f6 	mov.l	er6,@-er7
  40275e:	0f f6       	mov.l	er7,er6
  402760:	7a 37 00 00 	sub.l	#0x1c,er7
  402764:	00 1c 
  402766:	01 00 6f e0 	mov.l	er0,@(0xffe4:16,er6)
  40276a:	ff e4 

0040276c <.LM42>:
/home/syscall.c:75
  kz_syscall_param_t param;
  param.un.kmfree.p = p;
  40276c:	01 00 6f 62 	mov.l	@(0xffe4:16,er6),er2
  402770:	ff e4 
  402772:	01 00 6f e2 	mov.l	er2,@(0xffe8:16,er6)
  402776:	ff e8 

00402778 <.LM43>:
/home/syscall.c:76
  kz_syscall(KZ_SYSCALL_TYPE_KMFREE, &param);
  402778:	0f e2       	mov.l	er6,er2
  40277a:	7a 32 00 00 	sub.l	#0x18,er2
  40277e:	00 18 
  402780:	0f a1       	mov.l	er2,er1
  402782:	79 00 00 08 	mov.w	#0x8,r0
  402786:	5e 40 24 fc 	jsr	@0x4024fc:24

0040278a <.LM44>:
/home/syscall.c:77
  return param.un.kmfree.ret;
  40278a:	6f 62 ff ec 	mov.w	@(0xffec:16,er6),r2

0040278e <.LM45>:
/home/syscall.c:78
}
  40278e:	0d 20       	mov.w	r2,r0
  402790:	7a 17 00 00 	add.l	#0x1c,er7
  402794:	00 1c 
  402796:	01 00 6d 76 	mov.l	@er7+,er6
  40279a:	54 70       	rts	

0040279c <_kz_send>:
kz_send():
/home/syscall.c:81

int kz_send(kz_msgbox_id_t id, int size, char *p)
{
  40279c:	01 00 6d f6 	mov.l	er6,@-er7
  4027a0:	0f f6       	mov.l	er7,er6
  4027a2:	7a 37 00 00 	sub.l	#0x20,er7
  4027a6:	00 20 
  4027a8:	6f e0 ff e6 	mov.w	r0,@(0xffe6:16,er6)
  4027ac:	6f e1 ff e4 	mov.w	r1,@(0xffe4:16,er6)
  4027b0:	01 00 6f e2 	mov.l	er2,@(0xffe0:16,er6)
  4027b4:	ff e0 

004027b6 <.LM47>:
/home/syscall.c:83
  kz_syscall_param_t param;
  param.un.send.id = id;
  4027b6:	6f 62 ff e6 	mov.w	@(0xffe6:16,er6),r2
  4027ba:	6f e2 ff e8 	mov.w	r2,@(0xffe8:16,er6)

004027be <.LM48>:
/home/syscall.c:84
  param.un.send.size = size;
  4027be:	6f 62 ff e4 	mov.w	@(0xffe4:16,er6),r2
  4027c2:	6f e2 ff ea 	mov.w	r2,@(0xffea:16,er6)

004027c6 <.LM49>:
/home/syscall.c:85
  param.un.send.p = p;
  4027c6:	01 00 6f 62 	mov.l	@(0xffe0:16,er6),er2
  4027ca:	ff e0 
  4027cc:	01 00 6f e2 	mov.l	er2,@(0xffec:16,er6)
  4027d0:	ff ec 

004027d2 <.LM50>:
/home/syscall.c:86
  kz_syscall(KZ_SYSCALL_TYPE_SEND, &param);
  4027d2:	0f e2       	mov.l	er6,er2
  4027d4:	7a 32 00 00 	sub.l	#0x18,er2
  4027d8:	00 18 
  4027da:	0f a1       	mov.l	er2,er1
  4027dc:	79 00 00 09 	mov.w	#0x9,r0
  4027e0:	5e 40 24 fc 	jsr	@0x4024fc:24

004027e4 <.LM51>:
/home/syscall.c:87
  return param.un.send.ret;
  4027e4:	6f 62 ff f0 	mov.w	@(0xfff0:16,er6),r2

004027e8 <.LM52>:
/home/syscall.c:88
}
  4027e8:	0d 20       	mov.w	r2,r0
  4027ea:	7a 17 00 00 	add.l	#0x20,er7
  4027ee:	00 20 
  4027f0:	01 00 6d 76 	mov.l	@er7+,er6
  4027f4:	54 70       	rts	

004027f6 <_kz_recv>:
kz_recv():
/home/syscall.c:91

kz_thread_id_t kz_recv(kz_msgbox_id_t id, int *sizep, char **pp)
{
  4027f6:	01 00 6d f6 	mov.l	er6,@-er7
  4027fa:	0f f6       	mov.l	er7,er6
  4027fc:	7a 37 00 00 	sub.l	#0x24,er7
  402800:	00 24 
  402802:	6f e0 ff e6 	mov.w	r0,@(0xffe6:16,er6)
  402806:	01 00 6f e1 	mov.l	er1,@(0xffe0:16,er6)
  40280a:	ff e0 
  40280c:	01 00 6f e2 	mov.l	er2,@(0xffdc:16,er6)
  402810:	ff dc 

00402812 <.LM54>:
/home/syscall.c:93
  kz_syscall_param_t param;
  param.un.recv.id = id;
  402812:	6f 62 ff e6 	mov.w	@(0xffe6:16,er6),r2
  402816:	6f e2 ff e8 	mov.w	r2,@(0xffe8:16,er6)

0040281a <.LM55>:
/home/syscall.c:94
  param.un.recv.sizep = sizep;
  40281a:	01 00 6f 62 	mov.l	@(0xffe0:16,er6),er2
  40281e:	ff e0 
  402820:	01 00 6f e2 	mov.l	er2,@(0xffec:16,er6)
  402824:	ff ec 

00402826 <.LM56>:
/home/syscall.c:95
  param.un.recv.pp = pp;
  402826:	01 00 6f 62 	mov.l	@(0xffdc:16,er6),er2
  40282a:	ff dc 
  40282c:	01 00 6f e2 	mov.l	er2,@(0xfff0:16,er6)
  402830:	ff f0 

00402832 <.LM57>:
/home/syscall.c:96
  kz_syscall(KZ_SYSCALL_TYPE_RECV, &param);
  402832:	0f e2       	mov.l	er6,er2
  402834:	7a 32 00 00 	sub.l	#0x18,er2
  402838:	00 18 
  40283a:	0f a1       	mov.l	er2,er1
  40283c:	79 00 00 0a 	mov.w	#0xa,r0
  402840:	5e 40 24 fc 	jsr	@0x4024fc:24

00402844 <.LM58>:
/home/syscall.c:97
  return param.un.recv.ret;
  402844:	01 00 6f 62 	mov.l	@(0xfff4:16,er6),er2
  402848:	ff f4 

0040284a <.LM59>:
/home/syscall.c:98
}
  40284a:	0f a0       	mov.l	er2,er0
  40284c:	7a 17 00 00 	add.l	#0x24,er7
  402850:	00 24 
  402852:	01 00 6d 76 	mov.l	@er7+,er6
  402856:	54 70       	rts	

00402858 <_kz_setintr>:
kz_setintr():
/home/syscall.c:101

int kz_setintr(softvec_type_t type, kz_handler_t handler)
{
  402858:	01 00 6d f6 	mov.l	er6,@-er7
  40285c:	0f f6       	mov.l	er7,er6
  40285e:	7a 37 00 00 	sub.l	#0x20,er7
  402862:	00 20 
  402864:	6f e0 ff e6 	mov.w	r0,@(0xffe6:16,er6)
  402868:	01 00 6f e1 	mov.l	er1,@(0xffe0:16,er6)
  40286c:	ff e0 

0040286e <.LM61>:
/home/syscall.c:103
  kz_syscall_param_t param;
  param.un.setintr.type = type;
  40286e:	6f 62 ff e6 	mov.w	@(0xffe6:16,er6),r2
  402872:	6f e2 ff e8 	mov.w	r2,@(0xffe8:16,er6)

00402876 <.LM62>:
/home/syscall.c:104
  param.un.setintr.handler = handler;
  402876:	01 00 6f 62 	mov.l	@(0xffe0:16,er6),er2
  40287a:	ff e0 
  40287c:	01 00 6f e2 	mov.l	er2,@(0xffec:16,er6)
  402880:	ff ec 

00402882 <.LM63>:
/home/syscall.c:105
  kz_syscall(KZ_SYSCALL_TYPE_SETINTR, &param);
  402882:	0f e2       	mov.l	er6,er2
  402884:	7a 32 00 00 	sub.l	#0x18,er2
  402888:	00 18 
  40288a:	0f a1       	mov.l	er2,er1
  40288c:	79 00 00 0b 	mov.w	#0xb,r0
  402890:	5e 40 24 fc 	jsr	@0x4024fc:24

00402894 <.LM64>:
/home/syscall.c:106
  return param.un.setintr.ret;
  402894:	6f 62 ff f0 	mov.w	@(0xfff0:16,er6),r2

00402898 <.LM65>:
/home/syscall.c:107
}
  402898:	0d 20       	mov.w	r2,r0
  40289a:	7a 17 00 00 	add.l	#0x20,er7
  40289e:	00 20 
  4028a0:	01 00 6d 76 	mov.l	@er7+,er6
  4028a4:	54 70       	rts	

004028a6 <_kx_wakeup>:
kx_wakeup():
/home/syscall.c:112

/* サービス・コール */

int kx_wakeup(kz_thread_id_t id)
{
  4028a6:	01 00 6d f6 	mov.l	er6,@-er7
  4028aa:	0f f6       	mov.l	er7,er6
  4028ac:	7a 37 00 00 	sub.l	#0x1c,er7
  4028b0:	00 1c 
  4028b2:	01 00 6f e0 	mov.l	er0,@(0xffe4:16,er6)
  4028b6:	ff e4 

004028b8 <.LM67>:
/home/syscall.c:114
  kz_syscall_param_t param;
  param.un.wakeup.id = id;
  4028b8:	01 00 6f 62 	mov.l	@(0xffe4:16,er6),er2
  4028bc:	ff e4 
  4028be:	01 00 6f e2 	mov.l	er2,@(0xffe8:16,er6)
  4028c2:	ff e8 

004028c4 <.LM68>:
/home/syscall.c:115
  kz_srvcall(KZ_SYSCALL_TYPE_WAKEUP, &param);
  4028c4:	0f e2       	mov.l	er6,er2
  4028c6:	7a 32 00 00 	sub.l	#0x18,er2
  4028ca:	00 18 
  4028cc:	0f a1       	mov.l	er2,er1
  4028ce:	79 00 00 04 	mov.w	#0x4,r0
  4028d2:	5e 40 25 44 	jsr	@0x402544:24

004028d6 <.LM69>:
/home/syscall.c:116
  return param.un.wakeup.ret;
  4028d6:	6f 62 ff ec 	mov.w	@(0xffec:16,er6),r2

004028da <.LM70>:
/home/syscall.c:117
}
  4028da:	0d 20       	mov.w	r2,r0
  4028dc:	7a 17 00 00 	add.l	#0x1c,er7
  4028e0:	00 1c 
  4028e2:	01 00 6d 76 	mov.l	@er7+,er6
  4028e6:	54 70       	rts	

004028e8 <_kx_kmalloc>:
kx_kmalloc():
/home/syscall.c:120

void *kx_kmalloc(int size)
{
  4028e8:	01 00 6d f6 	mov.l	er6,@-er7
  4028ec:	0f f6       	mov.l	er7,er6
  4028ee:	7a 37 00 00 	sub.l	#0x1c,er7
  4028f2:	00 1c 
  4028f4:	6f e0 ff e6 	mov.w	r0,@(0xffe6:16,er6)

004028f8 <.LM72>:
/home/syscall.c:122
  kz_syscall_param_t param;
  param.un.kmalloc.size = size;
  4028f8:	6f 62 ff e6 	mov.w	@(0xffe6:16,er6),r2
  4028fc:	6f e2 ff e8 	mov.w	r2,@(0xffe8:16,er6)

00402900 <.LM73>:
/home/syscall.c:123
  kz_srvcall(KZ_SYSCALL_TYPE_KMALLOC, &param);
  402900:	0f e2       	mov.l	er6,er2
  402902:	7a 32 00 00 	sub.l	#0x18,er2
  402906:	00 18 
  402908:	0f a1       	mov.l	er2,er1
  40290a:	79 00 00 07 	mov.w	#0x7,r0
  40290e:	5e 40 25 44 	jsr	@0x402544:24

00402912 <.LM74>:
/home/syscall.c:124
  return param.un.kmalloc.ret;
  402912:	01 00 6f 62 	mov.l	@(0xffec:16,er6),er2
  402916:	ff ec 

00402918 <.LM75>:
/home/syscall.c:125
}
  402918:	0f a0       	mov.l	er2,er0
  40291a:	7a 17 00 00 	add.l	#0x1c,er7
  40291e:	00 1c 
  402920:	01 00 6d 76 	mov.l	@er7+,er6
  402924:	54 70       	rts	

00402926 <_kx_kmfree>:
kx_kmfree():
/home/syscall.c:128

int kx_kmfree(void *p)
{
  402926:	01 00 6d f6 	mov.l	er6,@-er7
  40292a:	0f f6       	mov.l	er7,er6
  40292c:	7a 37 00 00 	sub.l	#0x1c,er7
  402930:	00 1c 
  402932:	01 00 6f e0 	mov.l	er0,@(0xffe4:16,er6)
  402936:	ff e4 

00402938 <.LM77>:
/home/syscall.c:130
  kz_syscall_param_t param;
  param.un.kmfree.p = p;
  402938:	01 00 6f 62 	mov.l	@(0xffe4:16,er6),er2
  40293c:	ff e4 
  40293e:	01 00 6f e2 	mov.l	er2,@(0xffe8:16,er6)
  402942:	ff e8 

00402944 <.LM78>:
/home/syscall.c:131
  kz_srvcall(KZ_SYSCALL_TYPE_KMFREE, &param);
  402944:	0f e2       	mov.l	er6,er2
  402946:	7a 32 00 00 	sub.l	#0x18,er2
  40294a:	00 18 
  40294c:	0f a1       	mov.l	er2,er1
  40294e:	79 00 00 08 	mov.w	#0x8,r0
  402952:	5e 40 25 44 	jsr	@0x402544:24

00402956 <.LM79>:
/home/syscall.c:132
  return param.un.kmfree.ret;
  402956:	6f 62 ff ec 	mov.w	@(0xffec:16,er6),r2

0040295a <.LM80>:
/home/syscall.c:133
}
  40295a:	0d 20       	mov.w	r2,r0
  40295c:	7a 17 00 00 	add.l	#0x1c,er7
  402960:	00 1c 
  402962:	01 00 6d 76 	mov.l	@er7+,er6
  402966:	54 70       	rts	

00402968 <_kx_send>:
kx_send():
/home/syscall.c:136

int kx_send(kz_msgbox_id_t id, int size, char *p)
{
  402968:	01 00 6d f6 	mov.l	er6,@-er7
  40296c:	0f f6       	mov.l	er7,er6
  40296e:	7a 37 00 00 	sub.l	#0x20,er7
  402972:	00 20 
  402974:	6f e0 ff e6 	mov.w	r0,@(0xffe6:16,er6)
  402978:	6f e1 ff e4 	mov.w	r1,@(0xffe4:16,er6)
  40297c:	01 00 6f e2 	mov.l	er2,@(0xffe0:16,er6)
  402980:	ff e0 

00402982 <.LM82>:
/home/syscall.c:138
  kz_syscall_param_t param;
  param.un.send.id = id;
  402982:	6f 62 ff e6 	mov.w	@(0xffe6:16,er6),r2
  402986:	6f e2 ff e8 	mov.w	r2,@(0xffe8:16,er6)

0040298a <.LM83>:
/home/syscall.c:139
  param.un.send.size = size;
  40298a:	6f 62 ff e4 	mov.w	@(0xffe4:16,er6),r2
  40298e:	6f e2 ff ea 	mov.w	r2,@(0xffea:16,er6)

00402992 <.LM84>:
/home/syscall.c:140
  param.un.send.p = p;
  402992:	01 00 6f 62 	mov.l	@(0xffe0:16,er6),er2
  402996:	ff e0 
  402998:	01 00 6f e2 	mov.l	er2,@(0xffec:16,er6)
  40299c:	ff ec 

0040299e <.LM85>:
/home/syscall.c:141
  kz_srvcall(KZ_SYSCALL_TYPE_SEND, &param);
  40299e:	0f e2       	mov.l	er6,er2
  4029a0:	7a 32 00 00 	sub.l	#0x18,er2
  4029a4:	00 18 
  4029a6:	0f a1       	mov.l	er2,er1
  4029a8:	79 00 00 09 	mov.w	#0x9,r0
  4029ac:	5e 40 25 44 	jsr	@0x402544:24

004029b0 <.LM86>:
/home/syscall.c:142
  return param.un.send.ret;
  4029b0:	6f 62 ff f0 	mov.w	@(0xfff0:16,er6),r2

004029b4 <.LM87>:
/home/syscall.c:143
}
  4029b4:	0d 20       	mov.w	r2,r0
  4029b6:	7a 17 00 00 	add.l	#0x20,er7
  4029ba:	00 20 
  4029bc:	01 00 6d 76 	mov.l	@er7+,er6
  4029c0:	54 70       	rts	

004029c2 <_kzmem_init_pool>:
kzmem_init_pool():
/home/memory.c:31

#define MEMORY_AREA_NUM (sizeof(pool) / sizeof(*pool))

/* メモリ・プールの初期化 */
static int kzmem_init_pool(kzmem_pool *p)
{
  4029c2:	01 00 6d f6 	mov.l	er6,@-er7
  4029c6:	0f f6       	mov.l	er7,er6
  4029c8:	7a 37 00 00 	sub.l	#0x10,er7
  4029cc:	00 10 
  4029ce:	01 00 6f e0 	mov.l	er0,@(0xfff0:16,er6)
  4029d2:	ff f0 

004029d4 <.LM2>:
/home/memory.c:38
  kzmem_block *mp;
  kzmem_block **mpp;
  extern char freearea; /* リンカ・スクリプトで定義される空き領域 */
  static char *area = &freearea;

  mp = (kzmem_block *)area;
  4029d4:	01 00 6b 22 	mov.l	@0x404208:32,er2
  4029d8:	00 40 42 08 
  4029dc:	01 00 6f e2 	mov.l	er2,@(0xfff8:16,er6)
  4029e0:	ff f8 

004029e2 <.LM3>:
/home/memory.c:41

  /* 個々の領域をすべて解放済みリンクリストに繋ぐ */
  mpp = &p->free;
  4029e2:	01 00 6f 62 	mov.l	@(0xfff0:16,er6),er2
  4029e6:	ff f0 
  4029e8:	0b 92       	adds	#4,er2
  4029ea:	01 00 6f e2 	mov.l	er2,@(0xfff4:16,er6)
  4029ee:	ff f4 

004029f0 <.LM4>:
/home/memory.c:42
  for (i = 0; i < p->num; i++) {
  4029f0:	19 22       	sub.w	r2,r2
  4029f2:	6f e2 ff fe 	mov.w	r2,@(0xfffe:16,er6)
  4029f6:	58 00 00 7e 	bra	.+126 (0x402a78)

004029fa <.L3>:
/home/memory.c:43 (discriminator 3)
    *mpp = mp;
  4029fa:	01 00 6f 62 	mov.l	@(0xfff4:16,er6),er2
  4029fe:	ff f4 
  402a00:	01 00 6f 63 	mov.l	@(0xfff8:16,er6),er3
  402a04:	ff f8 
  402a06:	01 00 69 a3 	mov.l	er3,@er2

00402a0a <.LM6>:
/home/memory.c:44
    memset(mp, 0, sizeof(*mp));
  402a0a:	01 00 6f 63 	mov.l	@(0xfff8:16,er6),er3
  402a0e:	ff f8 
  402a10:	1a a2       	sub.l	er2,er2
  402a12:	8a 08       	add.b	#0x8,r2l
  402a14:	19 11       	sub.w	r1,r1
  402a16:	0f b0       	mov.l	er3,er0
  402a18:	5e 40 03 a0 	jsr	@0x4003a0:24

00402a1c <.LM7>:
/home/memory.c:45
    mp->size = p->size;
  402a1c:	01 00 6f 62 	mov.l	@(0xfff0:16,er6),er2
  402a20:	ff f0 
  402a22:	69 23       	mov.w	@er2,r3
  402a24:	01 00 6f 62 	mov.l	@(0xfff8:16,er6),er2
  402a28:	ff f8 
  402a2a:	6f a3 00 04 	mov.w	r3,@(0x4:16,er2)

00402a2e <.LM8>:
/home/memory.c:46
    mpp = &(mp->next);
  402a2e:	01 00 6f 62 	mov.l	@(0xfff8:16,er6),er2
  402a32:	ff f8 
  402a34:	01 00 6f e2 	mov.l	er2,@(0xfff4:16,er6)
  402a38:	ff f4 

00402a3a <.LM9>:
/home/memory.c:47
    mp = (kzmem_block *)((char *)mp + p->size);
  402a3a:	01 00 6f 62 	mov.l	@(0xfff0:16,er6),er2
  402a3e:	ff f0 
  402a40:	69 22       	mov.w	@er2,r2
  402a42:	17 f2       	exts.l	er2
  402a44:	01 00 6f 63 	mov.l	@(0xfff8:16,er6),er3
  402a48:	ff f8 
  402a4a:	0a b2       	add.l	er3,er2
  402a4c:	01 00 6f e2 	mov.l	er2,@(0xfff8:16,er6)
  402a50:	ff f8 

00402a52 <.LM10>:
/home/memory.c:48
    area += p->size;
  402a52:	01 00 6b 23 	mov.l	@0x404208:32,er3
  402a56:	00 40 42 08 
  402a5a:	01 00 6f 62 	mov.l	@(0xfff0:16,er6),er2
  402a5e:	ff f0 
  402a60:	69 22       	mov.w	@er2,r2
  402a62:	17 f2       	exts.l	er2
  402a64:	0a b2       	add.l	er3,er2
  402a66:	01 00 6b a2 	mov.l	er2,@0x404208:32
  402a6a:	00 40 42 08 

00402a6e <.LM11>:
/home/memory.c:42
  for (i = 0; i < p->num; i++) {
  402a6e:	6f 62 ff fe 	mov.w	@(0xfffe:16,er6),r2
  402a72:	0b 02       	adds	#1,er2
  402a74:	6f e2 ff fe 	mov.w	r2,@(0xfffe:16,er6)

00402a78 <.L2>:
/home/memory.c:42 (discriminator 1)
  402a78:	01 00 6f 62 	mov.l	@(0xfff0:16,er6),er2
  402a7c:	ff f0 
  402a7e:	6f 22 00 02 	mov.w	@(0x2:16,er2),r2
  402a82:	6f 63 ff fe 	mov.w	@(0xfffe:16,er6),r3
  402a86:	1d 23       	cmp.w	r2,r3
  402a88:	58 d0 ff 6e 	blt	.-146 (0x4029fa)

00402a8c <.LM13>:
/home/memory.c:51
  }

  return 0;
  402a8c:	19 22       	sub.w	r2,r2

00402a8e <.LM14>:
/home/memory.c:52
}
  402a8e:	0d 20       	mov.w	r2,r0
  402a90:	7a 17 00 00 	add.l	#0x10,er7
  402a94:	00 10 
  402a96:	01 00 6d 76 	mov.l	@er7+,er6
  402a9a:	54 70       	rts	

00402a9c <_kzmem_init>:
kzmem_init():
/home/memory.c:56

/* 動的メモリの初期化 */
int kzmem_init(void)
{
  402a9c:	01 00 6d f6 	mov.l	er6,@-er7
  402aa0:	0f f6       	mov.l	er7,er6
  402aa2:	1b 97       	subs	#4,er7

00402aa4 <.LM16>:
/home/memory.c:58
  int i;
  for (i = 0; i < MEMORY_AREA_NUM; i++) {
  402aa4:	19 22       	sub.w	r2,r2
  402aa6:	6f e2 ff fe 	mov.w	r2,@(0xfffe:16,er6)
  402aaa:	40 22       	bra	.+34 (0x402ace)

00402aac <.L7>:
/home/memory.c:59 (discriminator 3)
    kzmem_init_pool(&pool[i]); /* 各メモリ・プールを初期化する */
  402aac:	6f 62 ff fe 	mov.w	@(0xfffe:16,er6),r2
  402ab0:	17 f2       	exts.l	er2
  402ab2:	10 32       	shll.l	er2
  402ab4:	10 32       	shll.l	er2
  402ab6:	10 32       	shll.l	er2
  402ab8:	7a 12 00 40 	add.l	#0x4041e8,er2
  402abc:	41 e8 
  402abe:	0f a0       	mov.l	er2,er0
  402ac0:	5e 40 29 c2 	jsr	@0x4029c2:24

00402ac4 <.LM18>:
/home/memory.c:58
  for (i = 0; i < MEMORY_AREA_NUM; i++) {
  402ac4:	6f 62 ff fe 	mov.w	@(0xfffe:16,er6),r2
  402ac8:	0b 02       	adds	#1,er2
  402aca:	6f e2 ff fe 	mov.w	r2,@(0xfffe:16,er6)

00402ace <.L6>:
/home/memory.c:58 (discriminator 1)
  402ace:	6f 62 ff fe 	mov.w	@(0xfffe:16,er6),r2
  402ad2:	79 22 00 03 	cmp.w	#0x3,r2
  402ad6:	43 d4       	bls	.-44 (0x402aac)

00402ad8 <.LM20>:
/home/memory.c:61
  }
  return 0;
  402ad8:	19 22       	sub.w	r2,r2

00402ada <.LM21>:
/home/memory.c:62
}
  402ada:	0d 20       	mov.w	r2,r0
  402adc:	0b 97       	adds	#4,er7
  402ade:	01 00 6d 76 	mov.l	@er7+,er6
  402ae2:	54 70       	rts	

00402ae4 <_kzmem_alloc>:
kzmem_alloc():
/home/memory.c:66

/* 動的メモリの獲得 */
void *kzmem_alloc(int size)
{
  402ae4:	01 00 6d f6 	mov.l	er6,@-er7
  402ae8:	0f f6       	mov.l	er7,er6
  402aea:	7a 37 00 00 	sub.l	#0x10,er7
  402aee:	00 10 
  402af0:	6f e0 ff f2 	mov.w	r0,@(0xfff2:16,er6)

00402af4 <.LM23>:
/home/memory.c:71
  int i;
  kzmem_block *mp;
  kzmem_pool *p;

  for (i = 0; i < MEMORY_AREA_NUM; i++) {
  402af4:	19 22       	sub.w	r2,r2
  402af6:	6f e2 ff fe 	mov.w	r2,@(0xfffe:16,er6)
  402afa:	58 00 00 9a 	bra	.+154 (0x402b98)

00402afe <.L14>:
/home/memory.c:72
    p = &pool[i];
  402afe:	6f 62 ff fe 	mov.w	@(0xfffe:16,er6),r2
  402b02:	17 f2       	exts.l	er2
  402b04:	10 32       	shll.l	er2
  402b06:	10 32       	shll.l	er2
  402b08:	10 32       	shll.l	er2
  402b0a:	7a 12 00 40 	add.l	#0x4041e8,er2
  402b0e:	41 e8 
  402b10:	01 00 6f e2 	mov.l	er2,@(0xfff8:16,er6)
  402b14:	ff f8 

00402b16 <.LM25>:
/home/memory.c:73
    if (size <= p->size - sizeof(kzmem_block)) {
  402b16:	6f 62 ff f2 	mov.w	@(0xfff2:16,er6),r2
  402b1a:	0d 23       	mov.w	r2,r3
  402b1c:	17 f3       	exts.l	er3
  402b1e:	01 00 6f 62 	mov.l	@(0xfff8:16,er6),er2
  402b22:	ff f8 
  402b24:	69 22       	mov.w	@er2,r2
  402b26:	17 f2       	exts.l	er2
  402b28:	1b 92       	subs	#4,er2
  402b2a:	1b 92       	subs	#4,er2
  402b2c:	1f a3       	cmp.l	er2,er3
  402b2e:	42 5e       	bhi	.+94 (0x402b8e)

00402b30 <.LM26>:
/home/memory.c:74
      if (p->free == NULL) { /* 解放済み領域が無い(メモリ・ブロック不足) */
  402b30:	01 00 6f 62 	mov.l	@(0xfff8:16,er6),er2
  402b34:	ff f8 
  402b36:	01 00 6f 22 	mov.l	@(0x4:16,er2),er2
  402b3a:	00 04 
  402b3c:	0f a2       	mov.l	er2,er2
  402b3e:	46 08       	bne	.+8 (0x402b48)

00402b40 <.LM27>:
/home/memory.c:75
	kz_sysdown();
  402b40:	5e 40 24 ea 	jsr	@0x4024ea:24

00402b44 <.LM28>:
/home/memory.c:76
	return NULL;
  402b44:	1a a2       	sub.l	er2,er2
  402b46:	40 62       	bra	.+98 (0x402baa)

00402b48 <.L12>:
/home/memory.c:79
      }
      /* 解放済みリンクリストから領域を取得する */
      mp = p->free;
  402b48:	01 00 6f 62 	mov.l	@(0xfff8:16,er6),er2
  402b4c:	ff f8 
  402b4e:	01 00 6f 22 	mov.l	@(0x4:16,er2),er2
  402b52:	00 04 
  402b54:	01 00 6f e2 	mov.l	er2,@(0xfff4:16,er6)
  402b58:	ff f4 

00402b5a <.LM30>:
/home/memory.c:80
      p->free = p->free->next;
  402b5a:	01 00 6f 62 	mov.l	@(0xfff8:16,er6),er2
  402b5e:	ff f8 
  402b60:	01 00 6f 22 	mov.l	@(0x4:16,er2),er2
  402b64:	00 04 
  402b66:	01 00 69 23 	mov.l	@er2,er3
  402b6a:	01 00 6f 62 	mov.l	@(0xfff8:16,er6),er2
  402b6e:	ff f8 
  402b70:	01 00 6f a3 	mov.l	er3,@(0x4:16,er2)
  402b74:	00 04 

00402b76 <.LM31>:
/home/memory.c:81
      mp->next = NULL;
  402b76:	01 00 6f 62 	mov.l	@(0xfff4:16,er6),er2
  402b7a:	ff f4 
  402b7c:	1a b3       	sub.l	er3,er3
  402b7e:	01 00 69 a3 	mov.l	er3,@er2

00402b82 <.LM32>:
/home/memory.c:87

      /*
       * 実際に利用可能な領域は，メモリ・ブロック構造体の直後の領域に
       * なるので，直後のアドレスを返す．
       */
      return mp + 1;
  402b82:	01 00 6f 62 	mov.l	@(0xfff4:16,er6),er2
  402b86:	ff f4 
  402b88:	0b 92       	adds	#4,er2
  402b8a:	0b 92       	adds	#4,er2
  402b8c:	40 1c       	bra	.+28 (0x402baa)

00402b8e <.L11>:
/home/memory.c:71 (discriminator 2)
  for (i = 0; i < MEMORY_AREA_NUM; i++) {
  402b8e:	6f 62 ff fe 	mov.w	@(0xfffe:16,er6),r2
  402b92:	0b 02       	adds	#1,er2
  402b94:	6f e2 ff fe 	mov.w	r2,@(0xfffe:16,er6)

00402b98 <.L10>:
/home/memory.c:71 (discriminator 1)
  402b98:	6f 62 ff fe 	mov.w	@(0xfffe:16,er6),r2
  402b9c:	79 22 00 03 	cmp.w	#0x3,r2
  402ba0:	58 30 ff 5a 	bls	.-166 (0x402afe)

00402ba4 <.LM35>:
/home/memory.c:92
    }
  }

  /* 指定されたサイズの領域を格納できるメモリ・プールが無い */
  kz_sysdown();
  402ba4:	5e 40 24 ea 	jsr	@0x4024ea:24

00402ba8 <.LM36>:
/home/memory.c:93
  return NULL;
  402ba8:	1a a2       	sub.l	er2,er2

00402baa <.L13>:
/home/memory.c:94
}
  402baa:	0f a0       	mov.l	er2,er0
  402bac:	7a 17 00 00 	add.l	#0x10,er7
  402bb0:	00 10 
  402bb2:	01 00 6d 76 	mov.l	@er7+,er6
  402bb6:	54 70       	rts	

00402bb8 <_kzmem_free>:
kzmem_free():
/home/memory.c:98

/* メモリの解放 */
void kzmem_free(void *mem)
{
  402bb8:	01 00 6d f6 	mov.l	er6,@-er7
  402bbc:	0f f6       	mov.l	er7,er6
  402bbe:	7a 37 00 00 	sub.l	#0x10,er7
  402bc2:	00 10 
  402bc4:	01 00 6f e0 	mov.l	er0,@(0xfff0:16,er6)
  402bc8:	ff f0 

00402bca <.LM39>:
/home/memory.c:104
  int i;
  kzmem_block *mp;
  kzmem_pool *p;

  /* 領域の直前にある(はずの)メモリ・ブロック構造体を取得 */
  mp = ((kzmem_block *)mem - 1);
  402bca:	01 00 6f 62 	mov.l	@(0xfff0:16,er6),er2
  402bce:	ff f0 
  402bd0:	1b 92       	subs	#4,er2
  402bd2:	1b 92       	subs	#4,er2
  402bd4:	01 00 6f e2 	mov.l	er2,@(0xfff8:16,er6)
  402bd8:	ff f8 

00402bda <.LM40>:
/home/memory.c:106

  for (i = 0; i < MEMORY_AREA_NUM; i++) {
  402bda:	19 22       	sub.w	r2,r2
  402bdc:	6f e2 ff fe 	mov.w	r2,@(0xfffe:16,er6)
  402be0:	40 62       	bra	.+98 (0x402c44)

00402be2 <.L19>:
/home/memory.c:107
    p = &pool[i];
  402be2:	6f 62 ff fe 	mov.w	@(0xfffe:16,er6),r2
  402be6:	17 f2       	exts.l	er2
  402be8:	10 32       	shll.l	er2
  402bea:	10 32       	shll.l	er2
  402bec:	10 32       	shll.l	er2
  402bee:	7a 12 00 40 	add.l	#0x4041e8,er2
  402bf2:	41 e8 
  402bf4:	01 00 6f e2 	mov.l	er2,@(0xfff4:16,er6)
  402bf8:	ff f4 

00402bfa <.LM42>:
/home/memory.c:108
    if (mp->size == p->size) {
  402bfa:	01 00 6f 62 	mov.l	@(0xfff8:16,er6),er2
  402bfe:	ff f8 
  402c00:	6f 23 00 04 	mov.w	@(0x4:16,er2),r3
  402c04:	01 00 6f 62 	mov.l	@(0xfff4:16,er6),er2
  402c08:	ff f4 
  402c0a:	69 22       	mov.w	@er2,r2
  402c0c:	1d 23       	cmp.w	r2,r3
  402c0e:	46 2a       	bne	.+42 (0x402c3a)

00402c10 <.LM43>:
/home/memory.c:110
      /* 領域を解放済みリンクリストに戻す */
      mp->next = p->free;
  402c10:	01 00 6f 62 	mov.l	@(0xfff4:16,er6),er2
  402c14:	ff f4 
  402c16:	01 00 6f 23 	mov.l	@(0x4:16,er2),er3
  402c1a:	00 04 
  402c1c:	01 00 6f 62 	mov.l	@(0xfff8:16,er6),er2
  402c20:	ff f8 
  402c22:	01 00 69 a3 	mov.l	er3,@er2

00402c26 <.LM44>:
/home/memory.c:111
      p->free = mp;
  402c26:	01 00 6f 62 	mov.l	@(0xfff4:16,er6),er2
  402c2a:	ff f4 
  402c2c:	01 00 6f 63 	mov.l	@(0xfff8:16,er6),er3
  402c30:	ff f8 
  402c32:	01 00 6f a3 	mov.l	er3,@(0x4:16,er2)
  402c36:	00 04 

00402c38 <.LM45>:
/home/memory.c:112
      return;
  402c38:	40 18       	bra	.+24 (0x402c52)

00402c3a <.L17>:
/home/memory.c:106 (discriminator 2)
  for (i = 0; i < MEMORY_AREA_NUM; i++) {
  402c3a:	6f 62 ff fe 	mov.w	@(0xfffe:16,er6),r2
  402c3e:	0b 02       	adds	#1,er2
  402c40:	6f e2 ff fe 	mov.w	r2,@(0xfffe:16,er6)

00402c44 <.L16>:
/home/memory.c:106 (discriminator 1)
  402c44:	6f 62 ff fe 	mov.w	@(0xfffe:16,er6),r2
  402c48:	79 22 00 03 	cmp.w	#0x3,r2
  402c4c:	43 94       	bls	.-108 (0x402be2)

00402c4e <.LM48>:
/home/memory.c:116
    }
  }

  kz_sysdown();
  402c4e:	5e 40 24 ea 	jsr	@0x4024ea:24

00402c52 <.L15>:
/home/memory.c:117
}
  402c52:	7a 17 00 00 	add.l	#0x10,er7
  402c56:	00 10 
  402c58:	01 00 6d 76 	mov.l	@er7+,er6
  402c5c:	54 70       	rts	

00402c5e <_send_use>:
send_use():
/home/command.c:9
#include "timerdrv.h"
#include "lib.h"

/* コンソール・ドライバの使用開始をコンソール・ドライバに依頼する */
static void send_use(int index)
{
  402c5e:	01 00 6d f6 	mov.l	er6,@-er7
  402c62:	0f f6       	mov.l	er7,er6
  402c64:	7a 37 00 00 	sub.l	#0x8,er7
  402c68:	00 08 
  402c6a:	6f e0 ff fa 	mov.w	r0,@(0xfffa:16,er6)

00402c6e <.LM2>:
/home/command.c:11
  char *p;
  p = kz_kmalloc(3);
  402c6e:	79 00 00 03 	mov.w	#0x3,r0
  402c72:	5e 40 27 1c 	jsr	@0x40271c:24
  402c76:	01 00 6f e0 	mov.l	er0,@(0xfffc:16,er6)
  402c7a:	ff fc 

00402c7c <.LM3>:
/home/command.c:12
  p[0] = '0';
  402c7c:	01 00 6f 62 	mov.l	@(0xfffc:16,er6),er2
  402c80:	ff fc 
  402c82:	fb 30       	mov.b	#0x30,r3l
  402c84:	68 ab       	mov.b	r3l,@er2

00402c86 <.LM4>:
/home/command.c:13
  p[1] = CONSDRV_CMD_USE;
  402c86:	01 00 6f 62 	mov.l	@(0xfffc:16,er6),er2
  402c8a:	ff fc 
  402c8c:	0b 02       	adds	#1,er2
  402c8e:	fb 75       	mov.b	#0x75,r3l
  402c90:	68 ab       	mov.b	r3l,@er2

00402c92 <.LM5>:
/home/command.c:14
  p[2] = '0' + index;
  402c92:	6f 62 ff fa 	mov.w	@(0xfffa:16,er6),r2
  402c96:	0c ab       	mov.b	r2l,r3l
  402c98:	01 00 6f 62 	mov.l	@(0xfffc:16,er6),er2
  402c9c:	ff fc 
  402c9e:	0b 82       	adds	#2,er2
  402ca0:	8b 30       	add.b	#0x30,r3l
  402ca2:	68 ab       	mov.b	r3l,@er2

00402ca4 <.LM6>:
/home/command.c:15
  kz_send(MSGBOX_ID_CONSOUTPUT, 3, p);
  402ca4:	01 00 6f 62 	mov.l	@(0xfffc:16,er6),er2
  402ca8:	ff fc 
  402caa:	79 01 00 03 	mov.w	#0x3,r1
  402cae:	79 00 00 01 	mov.w	#0x1,r0
  402cb2:	5e 40 27 9c 	jsr	@0x40279c:24

00402cb6 <.LM7>:
/home/command.c:16
}
  402cb6:	00 00       	nop	
  402cb8:	0b 97       	adds	#4,er7
  402cba:	0b 97       	adds	#4,er7
  402cbc:	01 00 6d 76 	mov.l	@er7+,er6
  402cc0:	54 70       	rts	

00402cc2 <_send_write>:
send_write():
/home/command.c:20

/* コンソールへの文字列出力をコンソール・ドライバに依頼する */
static void send_write(char *str)
{
  402cc2:	01 00 6d f6 	mov.l	er6,@-er7
  402cc6:	0f f6       	mov.l	er7,er6
  402cc8:	7a 37 00 00 	sub.l	#0xc,er7
  402ccc:	00 0c 
  402cce:	01 00 6f e0 	mov.l	er0,@(0xfff4:16,er6)
  402cd2:	ff f4 

00402cd4 <.LM9>:
/home/command.c:23
  char *p;
  int len;
  len = strlen(str);
  402cd4:	01 00 6f 62 	mov.l	@(0xfff4:16,er6),er2
  402cd8:	ff f4 
  402cda:	0f a0       	mov.l	er2,er0
  402cdc:	5e 40 05 44 	jsr	@0x400544:24
  402ce0:	6f e0 ff fe 	mov.w	r0,@(0xfffe:16,er6)

00402ce4 <.LM10>:
/home/command.c:24
  p = kz_kmalloc(len + 2);
  402ce4:	6f 62 ff fe 	mov.w	@(0xfffe:16,er6),r2
  402ce8:	0b 82       	adds	#2,er2
  402cea:	0d 20       	mov.w	r2,r0
  402cec:	5e 40 27 1c 	jsr	@0x40271c:24
  402cf0:	01 00 6f e0 	mov.l	er0,@(0xfff8:16,er6)
  402cf4:	ff f8 

00402cf6 <.LM11>:
/home/command.c:25
  p[0] = '0';
  402cf6:	01 00 6f 62 	mov.l	@(0xfff8:16,er6),er2
  402cfa:	ff f8 
  402cfc:	fb 30       	mov.b	#0x30,r3l
  402cfe:	68 ab       	mov.b	r3l,@er2

00402d00 <.LM12>:
/home/command.c:26
  p[1] = CONSDRV_CMD_WRITE;
  402d00:	01 00 6f 62 	mov.l	@(0xfff8:16,er6),er2
  402d04:	ff f8 
  402d06:	0b 02       	adds	#1,er2
  402d08:	fb 77       	mov.b	#0x77,r3l
  402d0a:	68 ab       	mov.b	r3l,@er2

00402d0c <.LM13>:
/home/command.c:27
  memcpy(&p[2], str, len);
  402d0c:	6f 62 ff fe 	mov.w	@(0xfffe:16,er6),r2
  402d10:	0d 21       	mov.w	r2,r1
  402d12:	17 f1       	exts.l	er1
  402d14:	01 00 6f 62 	mov.l	@(0xfff8:16,er6),er2
  402d18:	ff f8 
  402d1a:	0f a3       	mov.l	er2,er3
  402d1c:	0b 83       	adds	#2,er3
  402d1e:	01 00 6f 60 	mov.l	@(0xfff4:16,er6),er0
  402d22:	ff f4 
  402d24:	0f 92       	mov.l	er1,er2
  402d26:	0f 81       	mov.l	er0,er1
  402d28:	0f b0       	mov.l	er3,er0
  402d2a:	5e 40 04 0c 	jsr	@0x40040c:24

00402d2e <.LM14>:
/home/command.c:28
  kz_send(MSGBOX_ID_CONSOUTPUT, len + 2, p);
  402d2e:	6f 62 ff fe 	mov.w	@(0xfffe:16,er6),r2
  402d32:	0d 23       	mov.w	r2,r3
  402d34:	0b 83       	adds	#2,er3
  402d36:	01 00 6f 62 	mov.l	@(0xfff8:16,er6),er2
  402d3a:	ff f8 
  402d3c:	0d 31       	mov.w	r3,r1
  402d3e:	79 00 00 01 	mov.w	#0x1,r0
  402d42:	5e 40 27 9c 	jsr	@0x40279c:24

00402d46 <.LM15>:
/home/command.c:29
}
  402d46:	00 00       	nop	
  402d48:	7a 17 00 00 	add.l	#0xc,er7
  402d4c:	00 0c 
  402d4e:	01 00 6d 76 	mov.l	@er7+,er6
  402d52:	54 70       	rts	

00402d54 <_send_start>:
send_start():
/home/command.c:33

/* タイマのカウント開始をタイマ・ドライバに依頼する */
static void send_start(int msec)
{
  402d54:	01 00 6d f6 	mov.l	er6,@-er7
  402d58:	0f f6       	mov.l	er7,er6
  402d5a:	7a 37 00 00 	sub.l	#0x8,er7
  402d5e:	00 08 
  402d60:	6f e0 ff fa 	mov.w	r0,@(0xfffa:16,er6)

00402d64 <.LM17>:
/home/command.c:35
  struct timerreq *req;
  req = kz_kmalloc(sizeof(*req));
  402d64:	79 00 00 04 	mov.w	#0x4,r0
  402d68:	5e 40 27 1c 	jsr	@0x40271c:24
  402d6c:	01 00 6f e0 	mov.l	er0,@(0xfffc:16,er6)
  402d70:	ff fc 

00402d72 <.LM18>:
/home/command.c:36
  req->id = MSGBOX_ID_CONSINPUT;
  402d72:	01 00 6f 62 	mov.l	@(0xfffc:16,er6),er2
  402d76:	ff fc 
  402d78:	19 33       	sub.w	r3,r3
  402d7a:	69 a3       	mov.w	r3,@er2

00402d7c <.LM19>:
/home/command.c:37
  req->msec = msec;
  402d7c:	01 00 6f 62 	mov.l	@(0xfffc:16,er6),er2
  402d80:	ff fc 
  402d82:	6f 63 ff fa 	mov.w	@(0xfffa:16,er6),r3
  402d86:	6f a3 00 02 	mov.w	r3,@(0x2:16,er2)

00402d8a <.LM20>:
/home/command.c:38
  kz_send(MSGBOX_ID_TIMDRIVE, TIMERDRV_CMD_START, (char *)req);
  402d8a:	01 00 6f 62 	mov.l	@(0xfffc:16,er6),er2
  402d8e:	ff fc 
  402d90:	79 01 00 73 	mov.w	#0x73,r1
  402d94:	79 00 00 02 	mov.w	#0x2,r0
  402d98:	5e 40 27 9c 	jsr	@0x40279c:24

00402d9c <.LM21>:
/home/command.c:39
}
  402d9c:	00 00       	nop	
  402d9e:	0b 97       	adds	#4,er7
  402da0:	0b 97       	adds	#4,er7
  402da2:	01 00 6d 76 	mov.l	@er7+,er6
  402da6:	54 70       	rts	

00402da8 <_command_main>:
command_main():
/home/command.c:42

int command_main(int argc, char *argv[])
{
  402da8:	01 00 6d f6 	mov.l	er6,@-er7
  402dac:	0f f6       	mov.l	er7,er6
  402dae:	7a 37 00 00 	sub.l	#0x10,er7
  402db2:	00 10 
  402db4:	6f e0 ff f6 	mov.w	r0,@(0xfff6:16,er6)
  402db8:	01 00 6f e1 	mov.l	er1,@(0xfff0:16,er6)
  402dbc:	ff f0 

00402dbe <.LM23>:
/home/command.c:46
  char *p;
  int size;

  send_use(SERIAL_DEFAULT_DEVICE);
  402dbe:	79 00 00 01 	mov.w	#0x1,r0
  402dc2:	5e 40 2c 5e 	jsr	@0x402c5e:24

00402dc6 <.L10>:
/home/command.c:49

  while (1) {
    send_write("command> "); /* プロンプト表示 */
  402dc6:	7a 00 00 40 	mov.l	#0x404160,er0
  402dca:	41 60 
  402dcc:	5e 40 2c c2 	jsr	@0x402cc2:24

00402dd0 <.LM25>:
/home/command.c:52

    /* コンソールからの受信文字列を受け取る */
    kz_recv(MSGBOX_ID_CONSINPUT, &size, &p);
  402dd0:	0f e2       	mov.l	er6,er2
  402dd2:	1b 92       	subs	#4,er2
  402dd4:	0f e3       	mov.l	er6,er3
  402dd6:	1b 93       	subs	#4,er3
  402dd8:	1b 83       	subs	#2,er3
  402dda:	0f b1       	mov.l	er3,er1
  402ddc:	19 00       	sub.w	r0,r0
  402dde:	5e 40 27 f6 	jsr	@0x4027f6:24

00402de2 <.LM26>:
/home/command.c:53
    if (p == NULL) {
  402de2:	01 00 6f 62 	mov.l	@(0xfffc:16,er6),er2
  402de6:	ff fc 
  402de8:	0f a2       	mov.l	er2,er2
  402dea:	46 0e       	bne	.+14 (0x402dfa)

00402dec <.LM27>:
/home/command.c:54
      send_write("expired.\n");
  402dec:	7a 00 00 40 	mov.l	#0x40416a,er0
  402df0:	41 6a 
  402df2:	5e 40 2c c2 	jsr	@0x402cc2:24

00402df6 <.LM28>:
/home/command.c:55
      continue;
  402df6:	58 00 00 8e 	bra	.+142 (0x402e88)

00402dfa <.L5>:
/home/command.c:57
    }
    p[size] = '\0';
  402dfa:	01 00 6f 63 	mov.l	@(0xfffc:16,er6),er3
  402dfe:	ff fc 
  402e00:	6f 62 ff fa 	mov.w	@(0xfffa:16,er6),r2
  402e04:	17 f2       	exts.l	er2
  402e06:	0a b2       	add.l	er3,er2
  402e08:	18 bb       	sub.b	r3l,r3l
  402e0a:	68 ab       	mov.b	r3l,@er2

00402e0c <.LM30>:
/home/command.c:59

    if (!strncmp(p, "echo", 4)) { /* echoコマンド */
  402e0c:	01 00 6f 63 	mov.l	@(0xfffc:16,er6),er3
  402e10:	ff fc 
  402e12:	79 02 00 04 	mov.w	#0x4,r2
  402e16:	7a 01 00 40 	mov.l	#0x404174,er1
  402e1a:	41 74 
  402e1c:	0f b0       	mov.l	er3,er0
  402e1e:	5e 40 06 96 	jsr	@0x400696:24
  402e22:	0d 02       	mov.w	r0,r2
  402e24:	0d 22       	mov.w	r2,r2
  402e26:	46 1a       	bne	.+26 (0x402e42)

00402e28 <.LM31>:
/home/command.c:60
      send_write(p + 4); /* echoに続く文字列を出力する */
  402e28:	01 00 6f 62 	mov.l	@(0xfffc:16,er6),er2
  402e2c:	ff fc 
  402e2e:	0b 92       	adds	#4,er2
  402e30:	0f a0       	mov.l	er2,er0
  402e32:	5e 40 2c c2 	jsr	@0x402cc2:24

00402e36 <.LM32>:
/home/command.c:61
      send_write("\n");
  402e36:	7a 00 00 40 	mov.l	#0x404179,er0
  402e3a:	41 79 
  402e3c:	5e 40 2c c2 	jsr	@0x402cc2:24
  402e40:	40 3a       	bra	.+58 (0x402e7c)

00402e42 <.L7>:
/home/command.c:62
    } else if (!strncmp(p, "timer", 4)) { /* timerコマンド */
  402e42:	01 00 6f 63 	mov.l	@(0xfffc:16,er6),er3
  402e46:	ff fc 
  402e48:	79 02 00 04 	mov.w	#0x4,r2
  402e4c:	7a 01 00 40 	mov.l	#0x40417b,er1
  402e50:	41 7b 
  402e52:	0f b0       	mov.l	er3,er0
  402e54:	5e 40 06 96 	jsr	@0x400696:24
  402e58:	0d 02       	mov.w	r0,r2
  402e5a:	0d 22       	mov.w	r2,r2
  402e5c:	46 14       	bne	.+20 (0x402e72)

00402e5e <.LM34>:
/home/command.c:63
      send_write("timer start.\n");
  402e5e:	7a 00 00 40 	mov.l	#0x404181,er0
  402e62:	41 81 
  402e64:	5e 40 2c c2 	jsr	@0x402cc2:24

00402e68 <.LM35>:
/home/command.c:64
      send_start(1000);
  402e68:	79 00 03 e8 	mov.w	#0x3e8,r0
  402e6c:	5e 40 2d 54 	jsr	@0x402d54:24
  402e70:	40 0a       	bra	.+10 (0x402e7c)

00402e72 <.L9>:
/home/command.c:66
    } else {
      send_write("unknown.\n");
  402e72:	7a 00 00 40 	mov.l	#0x40418f,er0
  402e76:	41 8f 
  402e78:	5e 40 2c c2 	jsr	@0x402cc2:24

00402e7c <.L8>:
/home/command.c:69
    }

    kz_kmfree(p);
  402e7c:	01 00 6f 62 	mov.l	@(0xfffc:16,er6),er2
  402e80:	ff fc 
  402e82:	0f a0       	mov.l	er2,er0
  402e84:	5e 40 27 5a 	jsr	@0x40275a:24

00402e88 <.L6>:
/home/command.c:49
    send_write("command> "); /* プロンプト表示 */
  402e88:	58 00 ff 3a 	bra	.-198 (0x402dc6)

00402e8c <_send_start>:
send_start():
/home/clock.c:9
#include "timerdrv.h"
#include "lib.h"

/* タイマのカウント開始をタイマ・ドライバに依頼する */
static void send_start(int msec)
{
  402e8c:	01 00 6d f6 	mov.l	er6,@-er7
  402e90:	0f f6       	mov.l	er7,er6
  402e92:	7a 37 00 00 	sub.l	#0x8,er7
  402e96:	00 08 
  402e98:	6f e0 ff fa 	mov.w	r0,@(0xfffa:16,er6)

00402e9c <.LM2>:
/home/clock.c:11
  struct timerreq *req;
  req = kz_kmalloc(sizeof(*req));
  402e9c:	79 00 00 04 	mov.w	#0x4,r0
  402ea0:	5e 40 27 1c 	jsr	@0x40271c:24
  402ea4:	01 00 6f e0 	mov.l	er0,@(0xfffc:16,er6)
  402ea8:	ff fc 

00402eaa <.LM3>:
/home/clock.c:12
  req->id = MSGBOX_ID_TIMEXPIRE;
  402eaa:	01 00 6f 62 	mov.l	@(0xfffc:16,er6),er2
  402eae:	ff fc 
  402eb0:	79 03 00 03 	mov.w	#0x3,r3
  402eb4:	69 a3       	mov.w	r3,@er2

00402eb6 <.LM4>:
/home/clock.c:13
  req->msec = msec;
  402eb6:	01 00 6f 62 	mov.l	@(0xfffc:16,er6),er2
  402eba:	ff fc 
  402ebc:	6f 63 ff fa 	mov.w	@(0xfffa:16,er6),r3
  402ec0:	6f a3 00 02 	mov.w	r3,@(0x2:16,er2)

00402ec4 <.LM5>:
/home/clock.c:14
  kz_send(MSGBOX_ID_TIMDRIVE, TIMERDRV_CMD_START, (char *)req);
  402ec4:	01 00 6f 62 	mov.l	@(0xfffc:16,er6),er2
  402ec8:	ff fc 
  402eca:	79 01 00 73 	mov.w	#0x73,r1
  402ece:	79 00 00 02 	mov.w	#0x2,r0
  402ed2:	5e 40 27 9c 	jsr	@0x40279c:24

00402ed6 <.LM6>:
/home/clock.c:15
}
  402ed6:	00 00       	nop	
  402ed8:	0b 97       	adds	#4,er7
  402eda:	0b 97       	adds	#4,er7
  402edc:	01 00 6d 76 	mov.l	@er7+,er6
  402ee0:	54 70       	rts	

00402ee2 <_send_write>:
send_write():
/home/clock.c:19

/* コンソールへの文字列出力をコンソール・ドライバに依頼する */
static void send_write(char *str)
{
  402ee2:	01 00 6d f6 	mov.l	er6,@-er7
  402ee6:	0f f6       	mov.l	er7,er6
  402ee8:	7a 37 00 00 	sub.l	#0xc,er7
  402eec:	00 0c 
  402eee:	01 00 6f e0 	mov.l	er0,@(0xfff4:16,er6)
  402ef2:	ff f4 

00402ef4 <.LM8>:
/home/clock.c:22
  char *p;
  int len;
  len = strlen(str);
  402ef4:	01 00 6f 62 	mov.l	@(0xfff4:16,er6),er2
  402ef8:	ff f4 
  402efa:	0f a0       	mov.l	er2,er0
  402efc:	5e 40 05 44 	jsr	@0x400544:24
  402f00:	6f e0 ff fe 	mov.w	r0,@(0xfffe:16,er6)

00402f04 <.LM9>:
/home/clock.c:23
  p = kz_kmalloc(len + 2);
  402f04:	6f 62 ff fe 	mov.w	@(0xfffe:16,er6),r2
  402f08:	0b 82       	adds	#2,er2
  402f0a:	0d 20       	mov.w	r2,r0
  402f0c:	5e 40 27 1c 	jsr	@0x40271c:24
  402f10:	01 00 6f e0 	mov.l	er0,@(0xfff8:16,er6)
  402f14:	ff f8 

00402f16 <.LM10>:
/home/clock.c:24
  p[0] = '0';
  402f16:	01 00 6f 62 	mov.l	@(0xfff8:16,er6),er2
  402f1a:	ff f8 
  402f1c:	fb 30       	mov.b	#0x30,r3l
  402f1e:	68 ab       	mov.b	r3l,@er2

00402f20 <.LM11>:
/home/clock.c:25
  p[1] = CONSDRV_CMD_WRITE;
  402f20:	01 00 6f 62 	mov.l	@(0xfff8:16,er6),er2
  402f24:	ff f8 
  402f26:	0b 02       	adds	#1,er2
  402f28:	fb 77       	mov.b	#0x77,r3l
  402f2a:	68 ab       	mov.b	r3l,@er2

00402f2c <.LM12>:
/home/clock.c:26
  memcpy(&p[2], str, len);
  402f2c:	6f 62 ff fe 	mov.w	@(0xfffe:16,er6),r2
  402f30:	0d 21       	mov.w	r2,r1
  402f32:	17 f1       	exts.l	er1
  402f34:	01 00 6f 62 	mov.l	@(0xfff8:16,er6),er2
  402f38:	ff f8 
  402f3a:	0f a3       	mov.l	er2,er3
  402f3c:	0b 83       	adds	#2,er3
  402f3e:	01 00 6f 60 	mov.l	@(0xfff4:16,er6),er0
  402f42:	ff f4 
  402f44:	0f 92       	mov.l	er1,er2
  402f46:	0f 81       	mov.l	er0,er1
  402f48:	0f b0       	mov.l	er3,er0
  402f4a:	5e 40 04 0c 	jsr	@0x40040c:24

00402f4e <.LM13>:
/home/clock.c:27
  kz_send(MSGBOX_ID_CONSOUTPUT, len + 2, p);
  402f4e:	6f 62 ff fe 	mov.w	@(0xfffe:16,er6),r2
  402f52:	0d 23       	mov.w	r2,r3
  402f54:	0b 83       	adds	#2,er3
  402f56:	01 00 6f 62 	mov.l	@(0xfff8:16,er6),er2
  402f5a:	ff f8 
  402f5c:	0d 31       	mov.w	r3,r1
  402f5e:	79 00 00 01 	mov.w	#0x1,r0
  402f62:	5e 40 27 9c 	jsr	@0x40279c:24

00402f66 <.LM14>:
/home/clock.c:28
}
  402f66:	00 00       	nop	
  402f68:	7a 17 00 00 	add.l	#0xc,er7
  402f6c:	00 0c 
  402f6e:	01 00 6d 76 	mov.l	@er7+,er6
  402f72:	54 70       	rts	

00402f74 <_clock_main>:
clock_main():
/home/clock.c:31

int clock_main(int argc, char *argv[])
{
  402f74:	01 00 6d f6 	mov.l	er6,@-er7
  402f78:	0f f6       	mov.l	er7,er6
  402f7a:	7a 37 00 00 	sub.l	#0x8,er7
  402f7e:	00 08 
  402f80:	6f e0 ff fe 	mov.w	r0,@(0xfffe:16,er6)
  402f84:	01 00 6f e1 	mov.l	er1,@(0xfff8:16,er6)
  402f88:	ff f8 

00402f8a <.LM16>:
/home/clock.c:32
  send_start(3000);
  402f8a:	79 00 0b b8 	mov.w	#0xbb8,r0
  402f8e:	5e 40 2e 8c 	jsr	@0x402e8c:24

00402f92 <.L4>:
/home/clock.c:36 (discriminator 1)

  // 3秒ごとにメッセージを表示するタスク
  while (1) {
    kz_recv(MSGBOX_ID_TIMEXPIRE, NULL, NULL);
  402f92:	1a a2       	sub.l	er2,er2
  402f94:	1a 91       	sub.l	er1,er1
  402f96:	79 00 00 03 	mov.w	#0x3,r0
  402f9a:	5e 40 27 f6 	jsr	@0x4027f6:24

00402f9e <.LM18>:
/home/clock.c:37
    send_write("ready.\n");
  402f9e:	7a 00 00 40 	mov.l	#0x404199,er0
  402fa2:	41 99 
  402fa4:	5e 40 2e e2 	jsr	@0x402ee2:24

00402fa8 <.LM19>:
/home/clock.c:38
    send_start(3000);
  402fa8:	79 00 0b b8 	mov.w	#0xbb8,r0
  402fac:	5e 40 2e 8c 	jsr	@0x402e8c:24

00402fb0 <.LM20>:
/home/clock.c:36
    kz_recv(MSGBOX_ID_TIMEXPIRE, NULL, NULL);
  402fb0:	40 e0       	bra	.-32 (0x402f92)

00402fb2 <_calc_checksum>:
calc_checksum():
/home/ip.c:96

// チェックサムエラーで ping 応答を受理してもらえていない？
// ICMP チェックサムと、IP のチェックサム
// ICMP 応答用のチェックサムを計算
static uint16 calc_checksum(int size, void *buf)
{
  402fb2:	01 00 6d f6 	mov.l	er6,@-er7
  402fb6:	0f f6       	mov.l	er7,er6
  402fb8:	7a 37 00 00 	sub.l	#0x14,er7
  402fbc:	00 14 
  402fbe:	6f e0 ff f2 	mov.w	r0,@(0xfff2:16,er6)
  402fc2:	01 00 6f e1 	mov.l	er1,@(0xffec:16,er6)
  402fc6:	ff ec 

00402fc8 <.LM2>:
/home/ip.c:99
  int i;
  uint16 val;
  uint32 sum = 0;
  402fc8:	1a a2       	sub.l	er2,er2
  402fca:	01 00 6f e2 	mov.l	er2,@(0xfff8:16,er6)
  402fce:	ff f8 

00402fd0 <.LM3>:
/home/ip.c:100
  uint16 *p = buf;
  402fd0:	01 00 6f 62 	mov.l	@(0xffec:16,er6),er2
  402fd4:	ff ec 
  402fd6:	01 00 6f e2 	mov.l	er2,@(0xfff4:16,er6)
  402fda:	ff f4 

00402fdc <.LM4>:
/home/ip.c:102

  for (i = 0; i < size; i += sizeof(uint16)) {
  402fdc:	19 22       	sub.w	r2,r2
  402fde:	6f e2 ff fe 	mov.w	r2,@(0xfffe:16,er6)
  402fe2:	40 60       	bra	.+96 (0x403044)

00402fe4 <.L5>:
/home/ip.c:103
    if (size - i == 1)
  402fe4:	6f 63 ff f2 	mov.w	@(0xfff2:16,er6),r3
  402fe8:	6f 62 ff fe 	mov.w	@(0xfffe:16,er6),r2
  402fec:	0d 30       	mov.w	r3,r0
  402fee:	19 20       	sub.w	r2,r0
  402ff0:	0d 02       	mov.w	r0,r2
  402ff2:	79 22 00 01 	cmp.w	#0x1,r2
  402ff6:	46 14       	bne	.+20 (0x40300c)

00402ff8 <.LM6>:
/home/ip.c:104
      val = *(unsigned char *)p << 8;
  402ff8:	01 00 6f 62 	mov.l	@(0xfff4:16,er6),er2
  402ffc:	ff f4 
  402ffe:	68 2a       	mov.b	@er2,r2l
  403000:	17 52       	extu.w	r2
  403002:	0c a2       	mov.b	r2l,r2h
  403004:	18 aa       	sub.b	r2l,r2l
  403006:	6f e2 ff fc 	mov.w	r2,@(0xfffc:16,er6)
  40300a:	40 0c       	bra	.+12 (0x403018)

0040300c <.L3>:
/home/ip.c:106
    else
      val = *p;
  40300c:	01 00 6f 62 	mov.l	@(0xfff4:16,er6),er2
  403010:	ff f4 
  403012:	69 22       	mov.w	@er2,r2
  403014:	6f e2 ff fc 	mov.w	r2,@(0xfffc:16,er6)

00403018 <.L4>:
/home/ip.c:107 (discriminator 2)
    sum += val;
  403018:	6f 62 ff fc 	mov.w	@(0xfffc:16,er6),r2
  40301c:	17 72       	extu.l	er2
  40301e:	01 00 6f 63 	mov.l	@(0xfff8:16,er6),er3
  403022:	ff f8 
  403024:	0a b2       	add.l	er3,er2
  403026:	01 00 6f e2 	mov.l	er2,@(0xfff8:16,er6)
  40302a:	ff f8 

0040302c <.LM9>:
/home/ip.c:108
    p++;
  40302c:	01 00 6f 62 	mov.l	@(0xfff4:16,er6),er2
  403030:	ff f4 
  403032:	0b 82       	adds	#2,er2
  403034:	01 00 6f e2 	mov.l	er2,@(0xfff4:16,er6)
  403038:	ff f4 

0040303a <.LM10>:
/home/ip.c:102
  for (i = 0; i < size; i += sizeof(uint16)) {
  40303a:	6f 62 ff fe 	mov.w	@(0xfffe:16,er6),r2
  40303e:	0b 82       	adds	#2,er2
  403040:	6f e2 ff fe 	mov.w	r2,@(0xfffe:16,er6)

00403044 <.L2>:
/home/ip.c:102 (discriminator 1)
  403044:	6f 63 ff fe 	mov.w	@(0xfffe:16,er6),r3
  403048:	6f 62 ff f2 	mov.w	@(0xfff2:16,er6),r2
  40304c:	1d 23       	cmp.w	r2,r3
  40304e:	4d 94       	blt	.-108 (0x402fe4)

00403050 <.LM12>:
/home/ip.c:111
  }

  while (sum > 0xffff)
  403050:	40 1a       	bra	.+26 (0x40306c)

00403052 <.L7>:
/home/ip.c:112
    sum = ((sum >> 16) & 0xffff) + (sum & 0xffff);
  403052:	01 00 6f 62 	mov.l	@(0xfff8:16,er6),er2
  403056:	ff f8 
  403058:	0d a2       	mov.w	e2,r2
  40305a:	17 72       	extu.l	er2
  40305c:	01 00 6f 63 	mov.l	@(0xfff8:16,er6),er3
  403060:	ff f8 
  403062:	19 bb       	sub.w	e3,e3
  403064:	0a b2       	add.l	er3,er2
  403066:	01 00 6f e2 	mov.l	er2,@(0xfff8:16,er6)
  40306a:	ff f8 

0040306c <.L6>:
/home/ip.c:111
  while (sum > 0xffff)
  40306c:	01 00 6f 62 	mov.l	@(0xfff8:16,er6),er2
  403070:	ff f8 
  403072:	7a 22 00 00 	cmp.l	#0xffff,er2
  403076:	ff ff 
  403078:	42 d8       	bhi	.-40 (0x403052)

0040307a <.LM15>:
/home/ip.c:114

  return ~sum & 0xffff;
  40307a:	01 00 6f 62 	mov.l	@(0xfff8:16,er6),er2
  40307e:	ff f8 
  403080:	17 12       	not.w	r2

00403082 <.LM16>:
/home/ip.c:115
}
  403082:	0d 20       	mov.w	r2,r0
  403084:	7a 17 00 00 	add.l	#0x14,er7
  403088:	00 14 
  40308a:	01 00 6d 76 	mov.l	@er7+,er6
  40308e:	54 70       	rts	

00403090 <_icmp_proc>:
icmp_proc():
/home/ip.c:119

// ICMP パケットを処理
static int icmp_proc(int size, struct icmp_header *hdr)
{
  403090:	01 00 6d f6 	mov.l	er6,@-er7
  403094:	0f f6       	mov.l	er7,er6
  403096:	7a 37 00 00 	sub.l	#0xc,er7
  40309a:	00 0c 
  40309c:	6f e0 ff fa 	mov.w	r0,@(0xfffa:16,er6)
  4030a0:	01 00 6f e1 	mov.l	er1,@(0xfff4:16,er6)
  4030a4:	ff f4 

004030a6 <.LM18>:
/home/ip.c:120
  int ret = 0;
  4030a6:	19 22       	sub.w	r2,r2
  4030a8:	6f e2 ff fe 	mov.w	r2,@(0xfffe:16,er6)

004030ac <.LM19>:
/home/ip.c:122

  switch (hdr->type) {
  4030ac:	01 00 6f 62 	mov.l	@(0xfff4:16,er6),er2
  4030b0:	ff f4 
  4030b2:	68 2a       	mov.b	@er2,r2l
  4030b4:	17 52       	extu.w	r2
  4030b6:	79 22 00 08 	cmp.w	#0x8,r2
  4030ba:	47 02       	beq	.+2 (0x4030be)

004030bc <.LM20>:
/home/ip.c:130
    hdr->checksum = 0;
    hdr->checksum = calc_checksum(size, hdr);
    ret = size;
    break;
  default:
    break;
  4030bc:	40 3e       	bra	.+62 (0x4030fc)

004030be <.L11>:
/home/ip.c:124
    hdr->type = ICMP_TYPE_REPLY;
  4030be:	01 00 6f 62 	mov.l	@(0xfff4:16,er6),er2
  4030c2:	ff f4 
  4030c4:	18 bb       	sub.b	r3l,r3l
  4030c6:	68 ab       	mov.b	r3l,@er2

004030c8 <.LM22>:
/home/ip.c:125
    hdr->checksum = 0;
  4030c8:	01 00 6f 62 	mov.l	@(0xfff4:16,er6),er2
  4030cc:	ff f4 
  4030ce:	19 33       	sub.w	r3,r3
  4030d0:	6f a3 00 02 	mov.w	r3,@(0x2:16,er2)

004030d4 <.LM23>:
/home/ip.c:126
    hdr->checksum = calc_checksum(size, hdr);
  4030d4:	01 00 6f 63 	mov.l	@(0xfff4:16,er6),er3
  4030d8:	ff f4 
  4030da:	6f 62 ff fa 	mov.w	@(0xfffa:16,er6),r2
  4030de:	0f b1       	mov.l	er3,er1
  4030e0:	0d 20       	mov.w	r2,r0
  4030e2:	5e 40 2f b2 	jsr	@0x402fb2:24
  4030e6:	0d 03       	mov.w	r0,r3
  4030e8:	01 00 6f 62 	mov.l	@(0xfff4:16,er6),er2
  4030ec:	ff f4 
  4030ee:	6f a3 00 02 	mov.w	r3,@(0x2:16,er2)

004030f2 <.LM24>:
/home/ip.c:127
    ret = size;
  4030f2:	6f 62 ff fa 	mov.w	@(0xfffa:16,er6),r2
  4030f6:	6f e2 ff fe 	mov.w	r2,@(0xfffe:16,er6)

004030fa <.LM25>:
	...

004030fc <.L12>:
/home/ip.c:133
  }

  return ret;
  4030fc:	6f 62 ff fe 	mov.w	@(0xfffe:16,er6),r2

00403100 <.LM27>:
/home/ip.c:134
}
  403100:	0d 20       	mov.w	r2,r0
  403102:	7a 17 00 00 	add.l	#0xc,er7
  403106:	00 0c 
  403108:	01 00 6d 76 	mov.l	@er7+,er6
  40310c:	54 70       	rts	

0040310e <_ip_proc>:
ip_proc():
/home/ip.c:138

// 通常の IP パケットなら
static int ip_proc(int size, struct ip_header *hdr)
{
  40310e:	01 00 6d f6 	mov.l	er6,@-er7
  403112:	0f f6       	mov.l	er7,er6
  403114:	7a 37 00 00 	sub.l	#0x14,er7
  403118:	00 14 
  40311a:	6f e0 ff f2 	mov.w	r0,@(0xfff2:16,er6)
  40311e:	01 00 6f e1 	mov.l	er1,@(0xffec:16,er6)
  403122:	ff ec 

00403124 <.LM29>:
/home/ip.c:139
  int ret = 0, hdrlen, nextsize;
  403124:	19 22       	sub.w	r2,r2
  403126:	6f e2 ff fe 	mov.w	r2,@(0xfffe:16,er6)

0040312a <.LM30>:
/home/ip.c:143
  void *nexthdr;

  // IPv4 でなければ無視
  if (((hdr->v_hl >> 4) & 0xf) != 4)
  40312a:	01 00 6f 62 	mov.l	@(0xffec:16,er6),er2
  40312e:	ff ec 
  403130:	68 2a       	mov.b	@er2,r2l
  403132:	11 0a       	shlr.b	r2l
  403134:	11 0a       	shlr.b	r2l
  403136:	11 0a       	shlr.b	r2l
  403138:	11 0a       	shlr.b	r2l
  40313a:	17 52       	extu.w	r2
  40313c:	79 62 00 0f 	and.w	#0xf,r2
  403140:	79 22 00 04 	cmp.w	#0x4,r2
  403144:	47 06       	beq	.+6 (0x40314c)

00403146 <.LM31>:
/home/ip.c:144
    return 0;
  403146:	19 22       	sub.w	r2,r2
  403148:	58 00 01 3e 	bra	.+318 (0x40328a)

0040314c <.L15>:
/home/ip.c:146
  // 宛先アドレスが自分でなければ無視
  if (memcmp(hdr->dst_addr, &ipaddr, IPADDR_SIZE))
  40314c:	01 00 6f 62 	mov.l	@(0xffec:16,er6),er2
  403150:	ff ec 
  403152:	0f a3       	mov.l	er2,er3
  403154:	7a 13 00 00 	add.l	#0x10,er3
  403158:	00 10 
  40315a:	1a a2       	sub.l	er2,er2
  40315c:	8a 04       	add.b	#0x4,r2l
  40315e:	7a 01 00 40 	mov.l	#0x40420c,er1
  403162:	42 0c 
  403164:	0f b0       	mov.l	er3,er0
  403166:	5e 40 04 94 	jsr	@0x400494:24
  40316a:	0d 02       	mov.w	r0,r2
  40316c:	0d 22       	mov.w	r2,r2
  40316e:	47 06       	beq	.+6 (0x403176)

00403170 <.LM33>:
/home/ip.c:147
    return 0;
  403170:	19 22       	sub.w	r2,r2
  403172:	58 00 01 14 	bra	.+276 (0x40328a)

00403176 <.L17>:
/home/ip.c:151

  // HL(header length) は、32ビット(4バイト)ワードが何個あるか？を表す
  // 4倍している
  hdrlen = (hdr->v_hl & 0xf) << 2;
  403176:	01 00 6f 62 	mov.l	@(0xffec:16,er6),er2
  40317a:	ff ec 
  40317c:	68 2a       	mov.b	@er2,r2l
  40317e:	17 52       	extu.w	r2
  403180:	10 12       	shll.w	r2
  403182:	10 12       	shll.w	r2
  403184:	79 62 00 3c 	and.w	#0x3c,r2
  403188:	6f e2 ff fc 	mov.w	r2,@(0xfffc:16,er6)

0040318c <.LM35>:
/home/ip.c:154

  // IPパケットのサイズよりも大きいサイズが指定されていたら、減らす
  if (size > hdr->total_length)
  40318c:	01 00 6f 62 	mov.l	@(0xffec:16,er6),er2
  403190:	ff ec 
  403192:	6f 23 00 02 	mov.w	@(0x2:16,er2),r3
  403196:	6f 62 ff f2 	mov.w	@(0xfff2:16,er6),r2
  40319a:	1d 23       	cmp.w	r2,r3
  40319c:	44 0e       	bcc	.+14 (0x4031ac)

0040319e <.LM36>:
/home/ip.c:155
    size = hdr->total_length;
  40319e:	01 00 6f 62 	mov.l	@(0xffec:16,er6),er2
  4031a2:	ff ec 
  4031a4:	6f 22 00 02 	mov.w	@(0x2:16,er2),r2
  4031a8:	6f e2 ff f2 	mov.w	r2,@(0xfff2:16,er6)

004031ac <.L18>:
/home/ip.c:158

  // IP ヘッダ分を削り、IP パケットのデータ部の大きさと先頭ポインタを用意
  nextsize = size - hdrlen;
  4031ac:	6f 63 ff f2 	mov.w	@(0xfff2:16,er6),r3
  4031b0:	6f 62 ff fc 	mov.w	@(0xfffc:16,er6),r2
  4031b4:	0d 30       	mov.w	r3,r0
  4031b6:	19 20       	sub.w	r2,r0
  4031b8:	0d 02       	mov.w	r0,r2
  4031ba:	6f e2 ff fa 	mov.w	r2,@(0xfffa:16,er6)

004031be <.LM38>:
/home/ip.c:159
  nexthdr = (char *)hdr + hdrlen;
  4031be:	6f 62 ff fc 	mov.w	@(0xfffc:16,er6),r2
  4031c2:	17 f2       	exts.l	er2
  4031c4:	01 00 6f 63 	mov.l	@(0xffec:16,er6),er3
  4031c8:	ff ec 
  4031ca:	0a b2       	add.l	er3,er2
  4031cc:	01 00 6f e2 	mov.l	er2,@(0xfff4:16,er6)
  4031d0:	ff f4 

004031d2 <.LM39>:
/home/ip.c:161

  switch (hdr->protocol) {
  4031d2:	01 00 6f 62 	mov.l	@(0xffec:16,er6),er2
  4031d6:	ff ec 
  4031d8:	6e 2a 00 09 	mov.b	@(0x9:16,er2),r2l
  4031dc:	17 52       	extu.w	r2
  4031de:	79 22 00 01 	cmp.w	#0x1,r2
  4031e2:	47 02       	beq	.+2 (0x4031e6)

004031e4 <.LM40>:
/home/ip.c:167
  case IP_PROTOCOL_ICMP:
    // ping に対して応答する(ICMP は IP 層のパケット)
    ret = icmp_proc(nextsize, nexthdr);
    break;
  default:
    break;
  4031e4:	40 18       	bra	.+24 (0x4031fe)

004031e6 <.L20>:
/home/ip.c:164
    ret = icmp_proc(nextsize, nexthdr);
  4031e6:	01 00 6f 63 	mov.l	@(0xfff4:16,er6),er3
  4031ea:	ff f4 
  4031ec:	6f 62 ff fa 	mov.w	@(0xfffa:16,er6),r2
  4031f0:	0f b1       	mov.l	er3,er1
  4031f2:	0d 20       	mov.w	r2,r0
  4031f4:	5e 40 30 90 	jsr	@0x403090:24
  4031f8:	6f e0 ff fe 	mov.w	r0,@(0xfffe:16,er6)

004031fc <.LM42>:
	...

004031fe <.L21>:
/home/ip.c:170
  }

  if (ret > 0) {
  4031fe:	6f 62 ff fe 	mov.w	@(0xfffe:16,er6),r2
  403202:	0d 22       	mov.w	r2,r2
  403204:	58 f0 00 7e 	ble	.+126 (0x403286)

00403208 <.LM44>:
/home/ip.c:172
    // 返送用パケットを準備
    memcpy(hdr->dst_addr, hdr->src_addr, IPADDR_SIZE);
  403208:	01 00 6f 62 	mov.l	@(0xffec:16,er6),er2
  40320c:	ff ec 
  40320e:	0f a0       	mov.l	er2,er0
  403210:	7a 10 00 00 	add.l	#0xc,er0
  403214:	00 0c 
  403216:	01 00 6f 62 	mov.l	@(0xffec:16,er6),er2
  40321a:	ff ec 
  40321c:	0f a3       	mov.l	er2,er3
  40321e:	7a 13 00 00 	add.l	#0x10,er3
  403222:	00 10 
  403224:	1a a2       	sub.l	er2,er2
  403226:	8a 04       	add.b	#0x4,r2l
  403228:	0f 81       	mov.l	er0,er1
  40322a:	0f b0       	mov.l	er3,er0
  40322c:	5e 40 04 0c 	jsr	@0x40040c:24

00403230 <.LM45>:
/home/ip.c:173
    memcpy(hdr->src_addr, &ipaddr, IPADDR_SIZE);
  403230:	01 00 6f 62 	mov.l	@(0xffec:16,er6),er2
  403234:	ff ec 
  403236:	0f a3       	mov.l	er2,er3
  403238:	7a 13 00 00 	add.l	#0xc,er3
  40323c:	00 0c 
  40323e:	1a a2       	sub.l	er2,er2
  403240:	8a 04       	add.b	#0x4,r2l
  403242:	7a 01 00 40 	mov.l	#0x40420c,er1
  403246:	42 0c 
  403248:	0f b0       	mov.l	er3,er0
  40324a:	5e 40 04 0c 	jsr	@0x40040c:24

0040324e <.LM46>:
/home/ip.c:174
    hdr->checksum = 0;
  40324e:	01 00 6f 62 	mov.l	@(0xffec:16,er6),er2
  403252:	ff ec 
  403254:	19 33       	sub.w	r3,r3
  403256:	6f a3 00 0a 	mov.w	r3,@(0xa:16,er2)

0040325a <.LM47>:
/home/ip.c:175
    hdr->checksum = calc_checksum(hdrlen, hdr);
  40325a:	01 00 6f 63 	mov.l	@(0xffec:16,er6),er3
  40325e:	ff ec 
  403260:	6f 62 ff fc 	mov.w	@(0xfffc:16,er6),r2
  403264:	0f b1       	mov.l	er3,er1
  403266:	0d 20       	mov.w	r2,r0
  403268:	5e 40 2f b2 	jsr	@0x402fb2:24
  40326c:	0d 03       	mov.w	r0,r3
  40326e:	01 00 6f 62 	mov.l	@(0xffec:16,er6),er2
  403272:	ff ec 
  403274:	6f a3 00 0a 	mov.w	r3,@(0xa:16,er2)

00403278 <.LM48>:
/home/ip.c:176
    ret += hdrlen;
  403278:	6f 63 ff fe 	mov.w	@(0xfffe:16,er6),r3
  40327c:	6f 62 ff fc 	mov.w	@(0xfffc:16,er6),r2
  403280:	09 32       	add.w	r3,r2
  403282:	6f e2 ff fe 	mov.w	r2,@(0xfffe:16,er6)

00403286 <.L22>:
/home/ip.c:179
  }

  return ret;
  403286:	6f 62 ff fe 	mov.w	@(0xfffe:16,er6),r2

0040328a <.L16>:
/home/ip.c:180
}
  40328a:	0d 20       	mov.w	r2,r0
  40328c:	7a 17 00 00 	add.l	#0x14,er7
  403290:	00 14 
  403292:	01 00 6d 76 	mov.l	@er7+,er6
  403296:	54 70       	rts	

00403298 <_arp_proc>:
arp_proc():
/home/ip.c:184

// arp 要求を受信したら、arp 応答を返す
static int arp_proc(int size, struct arp_header *hdr)
{
  403298:	01 00 6d f6 	mov.l	er6,@-er7
  40329c:	0f f6       	mov.l	er7,er6
  40329e:	7a 37 00 00 	sub.l	#0xc,er7
  4032a2:	00 0c 
  4032a4:	6f e0 ff fa 	mov.w	r0,@(0xfffa:16,er6)
  4032a8:	01 00 6f e1 	mov.l	er1,@(0xfff4:16,er6)
  4032ac:	ff f4 

004032ae <.LM52>:
/home/ip.c:185
  int ret = 0;
  4032ae:	19 22       	sub.w	r2,r2
  4032b0:	6f e2 ff fe 	mov.w	r2,@(0xfffe:16,er6)

004032b4 <.LM53>:
/home/ip.c:188

  // Ethernet じゃないフレームなら無視
  if (hdr->hardware != ARP_HARDWARE_ETHER)
  4032b4:	01 00 6f 62 	mov.l	@(0xfff4:16,er6),er2
  4032b8:	ff f4 
  4032ba:	69 22       	mov.w	@er2,r2
  4032bc:	79 22 00 01 	cmp.w	#0x1,r2
  4032c0:	47 06       	beq	.+6 (0x4032c8)

004032c2 <.LM54>:
/home/ip.c:189
    return 0;
  4032c2:	19 22       	sub.w	r2,r2
  4032c4:	58 00 01 5e 	bra	.+350 (0x403426)

004032c8 <.L24>:
/home/ip.c:191
  // IP じゃないパケットなら無視
  if (hdr->protocol != ETHERNET_TYPE_IP)
  4032c8:	01 00 6f 62 	mov.l	@(0xfff4:16,er6),er2
  4032cc:	ff f4 
  4032ce:	6f 22 00 02 	mov.w	@(0x2:16,er2),r2
  4032d2:	79 22 08 00 	cmp.w	#0x800,r2
  4032d6:	47 06       	beq	.+6 (0x4032de)

004032d8 <.LM56>:
/home/ip.c:192
    return 0;
  4032d8:	19 22       	sub.w	r2,r2
  4032da:	58 00 01 48 	bra	.+328 (0x403426)

004032de <.L26>:
/home/ip.c:194

  switch (hdr->operation) {
  4032de:	01 00 6f 62 	mov.l	@(0xfff4:16,er6),er2
  4032e2:	ff f4 
  4032e4:	6f 22 00 06 	mov.w	@(0x6:16,er2),r2
  4032e8:	79 22 00 01 	cmp.w	#0x1,r2
  4032ec:	47 04       	beq	.+4 (0x4032f2)

004032ee <.LM58>:
/home/ip.c:215
    memcpy(hdr->sender_hardware_addr, MACADDR, MACADDR_SIZE);
    memcpy(hdr->sender_protocol_addr, &ipaddr, IPADDR_SIZE);
    hdr->operation = ARP_OPERATION_REPLY;
    ret = size;
  default:
    break;
  4032ee:	58 00 01 30 	bra	.+304 (0x403422)

004032f2 <.L28>:
/home/ip.c:198
    putxval(hdr->target_protocol_addr[0], 2);
  4032f2:	01 00 6f 62 	mov.l	@(0xfff4:16,er6),er2
  4032f6:	ff f4 
  4032f8:	6e 2a 00 18 	mov.b	@(0x18:16,er2),r2l
  4032fc:	0c aa       	mov.b	r2l,r2l
  4032fe:	17 52       	extu.w	r2
  403300:	17 72       	extu.l	er2
  403302:	79 01 00 02 	mov.w	#0x2,r1
  403306:	0f a0       	mov.l	er2,er0
  403308:	5e 40 08 5a 	jsr	@0x40085a:24

0040330c <.LM60>:
/home/ip.c:199
    putxval(hdr->target_protocol_addr[1], 2);
  40330c:	01 00 6f 62 	mov.l	@(0xfff4:16,er6),er2
  403310:	ff f4 
  403312:	6e 2a 00 19 	mov.b	@(0x19:16,er2),r2l
  403316:	0c aa       	mov.b	r2l,r2l
  403318:	17 52       	extu.w	r2
  40331a:	17 72       	extu.l	er2
  40331c:	79 01 00 02 	mov.w	#0x2,r1
  403320:	0f a0       	mov.l	er2,er0
  403322:	5e 40 08 5a 	jsr	@0x40085a:24

00403326 <.LM61>:
/home/ip.c:200
    putxval(hdr->target_protocol_addr[2], 2);
  403326:	01 00 6f 62 	mov.l	@(0xfff4:16,er6),er2
  40332a:	ff f4 
  40332c:	6e 2a 00 1a 	mov.b	@(0x1a:16,er2),r2l
  403330:	0c aa       	mov.b	r2l,r2l
  403332:	17 52       	extu.w	r2
  403334:	17 72       	extu.l	er2
  403336:	79 01 00 02 	mov.w	#0x2,r1
  40333a:	0f a0       	mov.l	er2,er0
  40333c:	5e 40 08 5a 	jsr	@0x40085a:24

00403340 <.LM62>:
/home/ip.c:201
    putxval(hdr->target_protocol_addr[3], 2);
  403340:	01 00 6f 62 	mov.l	@(0xfff4:16,er6),er2
  403344:	ff f4 
  403346:	6e 2a 00 1b 	mov.b	@(0x1b:16,er2),r2l
  40334a:	0c aa       	mov.b	r2l,r2l
  40334c:	17 52       	extu.w	r2
  40334e:	17 72       	extu.l	er2
  403350:	79 01 00 02 	mov.w	#0x2,r1
  403354:	0f a0       	mov.l	er2,er0
  403356:	5e 40 08 5a 	jsr	@0x40085a:24

0040335a <.LM63>:
/home/ip.c:204
    if (memcmp(hdr->target_protocol_addr, &ipaddr, IPADDR_SIZE))
  40335a:	01 00 6f 62 	mov.l	@(0xfff4:16,er6),er2
  40335e:	ff f4 
  403360:	0f a3       	mov.l	er2,er3
  403362:	7a 13 00 00 	add.l	#0x18,er3
  403366:	00 18 
  403368:	1a a2       	sub.l	er2,er2
  40336a:	8a 04       	add.b	#0x4,r2l
  40336c:	7a 01 00 40 	mov.l	#0x40420c,er1
  403370:	42 0c 
  403372:	0f b0       	mov.l	er3,er0
  403374:	5e 40 04 94 	jsr	@0x400494:24
  403378:	0d 02       	mov.w	r0,r2
  40337a:	0d 22       	mov.w	r2,r2
  40337c:	58 60 00 a0 	bne	.+160 (0x403420)

00403380 <.LM64>:
/home/ip.c:208
    memcpy(hdr->target_hardware_addr, hdr->sender_hardware_addr, MACADDR_SIZE);
  403380:	01 00 6f 62 	mov.l	@(0xfff4:16,er6),er2
  403384:	ff f4 
  403386:	0f a0       	mov.l	er2,er0
  403388:	0b 90       	adds	#4,er0
  40338a:	0b 90       	adds	#4,er0
  40338c:	01 00 6f 62 	mov.l	@(0xfff4:16,er6),er2
  403390:	ff f4 
  403392:	0f a3       	mov.l	er2,er3
  403394:	7a 13 00 00 	add.l	#0x12,er3
  403398:	00 12 
  40339a:	1a a2       	sub.l	er2,er2
  40339c:	8a 06       	add.b	#0x6,r2l
  40339e:	0f 81       	mov.l	er0,er1
  4033a0:	0f b0       	mov.l	er3,er0
  4033a2:	5e 40 04 0c 	jsr	@0x40040c:24

004033a6 <.LM65>:
/home/ip.c:209
    memcpy(hdr->target_protocol_addr, hdr->sender_protocol_addr, IPADDR_SIZE);
  4033a6:	01 00 6f 62 	mov.l	@(0xfff4:16,er6),er2
  4033aa:	ff f4 
  4033ac:	0f a0       	mov.l	er2,er0
  4033ae:	7a 10 00 00 	add.l	#0xe,er0
  4033b2:	00 0e 
  4033b4:	01 00 6f 62 	mov.l	@(0xfff4:16,er6),er2
  4033b8:	ff f4 
  4033ba:	0f a3       	mov.l	er2,er3
  4033bc:	7a 13 00 00 	add.l	#0x18,er3
  4033c0:	00 18 
  4033c2:	1a a2       	sub.l	er2,er2
  4033c4:	8a 04       	add.b	#0x4,r2l
  4033c6:	0f 81       	mov.l	er0,er1
  4033c8:	0f b0       	mov.l	er3,er0
  4033ca:	5e 40 04 0c 	jsr	@0x40040c:24

004033ce <.LM66>:
/home/ip.c:210
    memcpy(hdr->sender_hardware_addr, MACADDR, MACADDR_SIZE);
  4033ce:	01 00 6f 62 	mov.l	@(0xfff4:16,er6),er2
  4033d2:	ff f4 
  4033d4:	0f a3       	mov.l	er2,er3
  4033d6:	0b 93       	adds	#4,er3
  4033d8:	0b 93       	adds	#4,er3
  4033da:	1a a2       	sub.l	er2,er2
  4033dc:	8a 06       	add.b	#0x6,r2l
  4033de:	7a 01 00 40 	mov.l	#0x4041a1,er1
  4033e2:	41 a1 
  4033e4:	0f b0       	mov.l	er3,er0
  4033e6:	5e 40 04 0c 	jsr	@0x40040c:24

004033ea <.LM67>:
/home/ip.c:211
    memcpy(hdr->sender_protocol_addr, &ipaddr, IPADDR_SIZE);
  4033ea:	01 00 6f 62 	mov.l	@(0xfff4:16,er6),er2
  4033ee:	ff f4 
  4033f0:	0f a3       	mov.l	er2,er3
  4033f2:	7a 13 00 00 	add.l	#0xe,er3
  4033f6:	00 0e 
  4033f8:	1a a2       	sub.l	er2,er2
  4033fa:	8a 04       	add.b	#0x4,r2l
  4033fc:	7a 01 00 40 	mov.l	#0x40420c,er1
  403400:	42 0c 
  403402:	0f b0       	mov.l	er3,er0
  403404:	5e 40 04 0c 	jsr	@0x40040c:24

00403408 <.LM68>:
/home/ip.c:212
    hdr->operation = ARP_OPERATION_REPLY;
  403408:	01 00 6f 62 	mov.l	@(0xfff4:16,er6),er2
  40340c:	ff f4 
  40340e:	79 03 00 02 	mov.w	#0x2,r3
  403412:	6f a3 00 06 	mov.w	r3,@(0x6:16,er2)

00403416 <.LM69>:
/home/ip.c:213
    ret = size;
  403416:	6f 62 ff fa 	mov.w	@(0xfffa:16,er6),r2
  40341a:	6f e2 ff fe 	mov.w	r2,@(0xfffe:16,er6)

0040341e <.LM70>:
/home/ip.c:215
    break;
  40341e:	40 02       	bra	.+2 (0x403422)

00403420 <.L31>:
	...

00403422 <.L30>:
/home/ip.c:218
  }

  return ret;
  403422:	6f 62 ff fe 	mov.w	@(0xfffe:16,er6),r2

00403426 <.L25>:
/home/ip.c:219
}
  403426:	0d 20       	mov.w	r2,r0
  403428:	7a 17 00 00 	add.l	#0xc,er7
  40342c:	00 0c 
  40342e:	01 00 6d 76 	mov.l	@er7+,er6
  403432:	54 70       	rts	

00403434 <_ethernet_proc>:
ethernet_proc():
/home/ip.c:224

// 受信した Ethernet フレームを処理する
// 応答が必要な場合は戻り値として 0 以上のデータの大きさを返す
static int ethernet_proc(int size, struct ethernet_header *hdr)
{
  403434:	01 00 6d f6 	mov.l	er6,@-er7
  403438:	0f f6       	mov.l	er7,er6
  40343a:	7a 37 00 00 	sub.l	#0x10,er7
  40343e:	00 10 
  403440:	6f e0 ff f6 	mov.w	r0,@(0xfff6:16,er6)
  403444:	01 00 6f e1 	mov.l	er1,@(0xfff0:16,er6)
  403448:	ff f0 

0040344a <.LM75>:
/home/ip.c:225
  int ret = 0, nextsize;
  40344a:	19 22       	sub.w	r2,r2
  40344c:	6f e2 ff fe 	mov.w	r2,@(0xfffe:16,er6)

00403450 <.LM76>:
/home/ip.c:229
  void *nexthdr;

  // 自分宛のパケットでなかったら破棄
  if (!(hdr->dst_addr[0] & 1) && memcmp(hdr->dst_addr, MACADDR, MACADDR_SIZE))
  403450:	01 00 6f 62 	mov.l	@(0xfff0:16,er6),er2
  403454:	ff f0 
  403456:	68 2a       	mov.b	@er2,r2l
  403458:	17 52       	extu.w	r2
  40345a:	79 62 00 01 	and.w	#0x1,r2
  40345e:	0d 22       	mov.w	r2,r2
  403460:	46 22       	bne	.+34 (0x403484)

00403462 <.LM77>:
/home/ip.c:229 (discriminator 1)
  403462:	01 00 6f 63 	mov.l	@(0xfff0:16,er6),er3
  403466:	ff f0 
  403468:	1a a2       	sub.l	er2,er2
  40346a:	8a 06       	add.b	#0x6,r2l
  40346c:	7a 01 00 40 	mov.l	#0x4041a1,er1
  403470:	41 a1 
  403472:	0f b0       	mov.l	er3,er0
  403474:	5e 40 04 94 	jsr	@0x400494:24
  403478:	0d 02       	mov.w	r0,r2
  40347a:	0d 22       	mov.w	r2,r2
  40347c:	47 06       	beq	.+6 (0x403484)

0040347e <.LM78>:
/home/ip.c:230
    return 0;
  40347e:	19 22       	sub.w	r2,r2
  403480:	58 00 00 b8 	bra	.+184 (0x40353c)

00403484 <.L33>:
/home/ip.c:233

  // Ethernet ヘッダを取り除く(Ethernet ヘッダは IP ヘッダの前にある)
  nextsize = size - ETHERNET_HEADER_SIZE;
  403484:	6f 62 ff f6 	mov.w	@(0xfff6:16,er6),r2
  403488:	79 12 ff f2 	add.w	#0xfff2,r2
  40348c:	6f e2 ff fc 	mov.w	r2,@(0xfffc:16,er6)

00403490 <.LM80>:
/home/ip.c:234
  nexthdr = (char *)hdr + ETHERNET_HEADER_SIZE;
  403490:	01 00 6f 62 	mov.l	@(0xfff0:16,er6),er2
  403494:	ff f0 
  403496:	7a 12 00 00 	add.l	#0xe,er2
  40349a:	00 0e 
  40349c:	01 00 6f e2 	mov.l	er2,@(0xfff8:16,er6)
  4034a0:	ff f8 

004034a2 <.LM81>:
/home/ip.c:237

  // Ethernet フレームの種類に応じて処理を実行
  switch (hdr->type) {
  4034a2:	01 00 6f 62 	mov.l	@(0xfff0:16,er6),er2
  4034a6:	ff f0 
  4034a8:	6f 22 00 0c 	mov.w	@(0xc:16,er2),r2
  4034ac:	79 22 08 00 	cmp.w	#0x800,r2
  4034b0:	47 20       	beq	.+32 (0x4034d2)
  4034b2:	79 22 08 06 	cmp.w	#0x806,r2
  4034b6:	47 02       	beq	.+2 (0x4034ba)

004034b8 <.LM82>:
/home/ip.c:247
  case ETHERNET_TYPE_IP:
    // IP パケットであれば IP レイヤで処理する
    ret = ip_proc(nextsize, nexthdr);
    break;
  default:
    break;
  4034b8:	40 30       	bra	.+48 (0x4034ea)

004034ba <.L37>:
/home/ip.c:240
    ret = arp_proc(nextsize, nexthdr);
  4034ba:	01 00 6f 63 	mov.l	@(0xfff8:16,er6),er3
  4034be:	ff f8 
  4034c0:	6f 62 ff fc 	mov.w	@(0xfffc:16,er6),r2
  4034c4:	0f b1       	mov.l	er3,er1
  4034c6:	0d 20       	mov.w	r2,r0
  4034c8:	5e 40 32 98 	jsr	@0x403298:24
  4034cc:	6f e0 ff fe 	mov.w	r0,@(0xfffe:16,er6)

004034d0 <.LM84>:
/home/ip.c:241
    break;
  4034d0:	40 18       	bra	.+24 (0x4034ea)

004034d2 <.L36>:
/home/ip.c:244
    ret = ip_proc(nextsize, nexthdr);
  4034d2:	01 00 6f 63 	mov.l	@(0xfff8:16,er6),er3
  4034d6:	ff f8 
  4034d8:	6f 62 ff fc 	mov.w	@(0xfffc:16,er6),r2
  4034dc:	0f b1       	mov.l	er3,er1
  4034de:	0d 20       	mov.w	r2,r0
  4034e0:	5e 40 31 0e 	jsr	@0x40310e:24
  4034e4:	6f e0 ff fe 	mov.w	r0,@(0xfffe:16,er6)

004034e8 <.LM86>:
	...

004034ea <.L38>:
/home/ip.c:250
  }

  if (ret > 0) {
  4034ea:	6f 62 ff fe 	mov.w	@(0xfffe:16,er6),r2
  4034ee:	0d 22       	mov.w	r2,r2
  4034f0:	4f 46       	ble	.+70 (0x403538)

004034f2 <.LM88>:
/home/ip.c:252
    // DST に元のパケットの SRC を設定し、送信元に送り返すようにする
    memcpy(hdr->dst_addr, hdr->src_addr, MACADDR_SIZE);
  4034f2:	01 00 6f 62 	mov.l	@(0xfff0:16,er6),er2
  4034f6:	ff f0 
  4034f8:	0f a0       	mov.l	er2,er0
  4034fa:	0b 90       	adds	#4,er0
  4034fc:	0b 80       	adds	#2,er0
  4034fe:	01 00 6f 63 	mov.l	@(0xfff0:16,er6),er3
  403502:	ff f0 
  403504:	1a a2       	sub.l	er2,er2
  403506:	8a 06       	add.b	#0x6,r2l
  403508:	0f 81       	mov.l	er0,er1
  40350a:	0f b0       	mov.l	er3,er0
  40350c:	5e 40 04 0c 	jsr	@0x40040c:24

00403510 <.LM89>:
/home/ip.c:253
    memcpy(hdr->src_addr, MACADDR, MACADDR_SIZE);
  403510:	01 00 6f 62 	mov.l	@(0xfff0:16,er6),er2
  403514:	ff f0 
  403516:	0f a3       	mov.l	er2,er3
  403518:	0b 93       	adds	#4,er3
  40351a:	0b 83       	adds	#2,er3
  40351c:	1a a2       	sub.l	er2,er2
  40351e:	8a 06       	add.b	#0x6,r2l
  403520:	7a 01 00 40 	mov.l	#0x4041a1,er1
  403524:	41 a1 
  403526:	0f b0       	mov.l	er3,er0
  403528:	5e 40 04 0c 	jsr	@0x40040c:24

0040352c <.LM90>:
/home/ip.c:255
    // Ethernet ヘッダ分のサイズを追加し、Ethernet フレームを返すようにする
    ret += ETHERNET_HEADER_SIZE;
  40352c:	6f 62 ff fe 	mov.w	@(0xfffe:16,er6),r2
  403530:	79 12 00 0e 	add.w	#0xe,r2
  403534:	6f e2 ff fe 	mov.w	r2,@(0xfffe:16,er6)

00403538 <.L39>:
/home/ip.c:258
  }

  return ret;
  403538:	6f 62 ff fe 	mov.w	@(0xfffe:16,er6),r2

0040353c <.L34>:
/home/ip.c:259
}
  40353c:	0d 20       	mov.w	r2,r0
  40353e:	7a 17 00 00 	add.l	#0x10,er7
  403542:	00 10 
  403544:	01 00 6d 76 	mov.l	@er7+,er6
  403548:	54 70       	rts	

0040354a <_send_use>:
send_use():
/home/ip.c:264

// Ethernet を初期化
// ドライバ初期化を指示するメッセージを etherdrv に送る
static void send_use(void)
{
  40354a:	01 00 6d f6 	mov.l	er6,@-er7
  40354e:	0f f6       	mov.l	er7,er6
  403550:	1b 97       	subs	#4,er7

00403552 <.LM94>:
/home/ip.c:266
  char *p;
  p = kz_kmalloc(1);
  403552:	79 00 00 01 	mov.w	#0x1,r0
  403556:	5e 40 27 1c 	jsr	@0x40271c:24
  40355a:	01 00 6f e0 	mov.l	er0,@(0xfffc:16,er6)
  40355e:	ff fc 

00403560 <.LM95>:
/home/ip.c:267
  p[0] = ETHERDRV_CMD_USE;
  403560:	01 00 6f 62 	mov.l	@(0xfffc:16,er6),er2
  403564:	ff fc 
  403566:	fb 75       	mov.b	#0x75,r3l
  403568:	68 ab       	mov.b	r3l,@er2

0040356a <.LM96>:
/home/ip.c:268
  kz_send(MSGBOX_ID_ETHOUTPUT, 1, p);
  40356a:	01 00 6f 62 	mov.l	@(0xfffc:16,er6),er2
  40356e:	ff fc 
  403570:	79 01 00 01 	mov.w	#0x1,r1
  403574:	79 00 00 05 	mov.w	#0x5,r0
  403578:	5e 40 27 9c 	jsr	@0x40279c:24

0040357c <.LM97>:
/home/ip.c:269
}
  40357c:	00 00       	nop	
  40357e:	0b 97       	adds	#4,er7
  403580:	01 00 6d 76 	mov.l	@er7+,er6
  403584:	54 70       	rts	

00403586 <_send_send>:
send_send():
/home/ip.c:274

// データを送信
// データ送信を指示するメッセージを etherdrv に送る
static void send_send(int size, char *buf)
{
  403586:	01 00 6d f6 	mov.l	er6,@-er7
  40358a:	0f f6       	mov.l	er7,er6
  40358c:	7a 37 00 00 	sub.l	#0xc,er7
  403590:	00 0c 
  403592:	6f e0 ff fa 	mov.w	r0,@(0xfffa:16,er6)
  403596:	01 00 6f e1 	mov.l	er1,@(0xfff4:16,er6)
  40359a:	ff f4 

0040359c <.LM99>:
/home/ip.c:276
  char *p;
  p = kz_kmalloc(size + 1);
  40359c:	6f 62 ff fa 	mov.w	@(0xfffa:16,er6),r2
  4035a0:	0b 02       	adds	#1,er2
  4035a2:	0d 20       	mov.w	r2,r0
  4035a4:	5e 40 27 1c 	jsr	@0x40271c:24
  4035a8:	01 00 6f e0 	mov.l	er0,@(0xfffc:16,er6)
  4035ac:	ff fc 

004035ae <.LM100>:
/home/ip.c:277
  p[0] = ETHERDRV_CMD_SEND;
  4035ae:	01 00 6f 62 	mov.l	@(0xfffc:16,er6),er2
  4035b2:	ff fc 
  4035b4:	fb 73       	mov.b	#0x73,r3l
  4035b6:	68 ab       	mov.b	r3l,@er2

004035b8 <.LM101>:
/home/ip.c:278
  memcpy(&p[1], buf, size);
  4035b8:	6f 62 ff fa 	mov.w	@(0xfffa:16,er6),r2
  4035bc:	0d 21       	mov.w	r2,r1
  4035be:	17 f1       	exts.l	er1
  4035c0:	01 00 6f 62 	mov.l	@(0xfffc:16,er6),er2
  4035c4:	ff fc 
  4035c6:	0f a3       	mov.l	er2,er3
  4035c8:	0b 03       	adds	#1,er3
  4035ca:	01 00 6f 60 	mov.l	@(0xfff4:16,er6),er0
  4035ce:	ff f4 
  4035d0:	0f 92       	mov.l	er1,er2
  4035d2:	0f 81       	mov.l	er0,er1
  4035d4:	0f b0       	mov.l	er3,er0
  4035d6:	5e 40 04 0c 	jsr	@0x40040c:24

004035da <.LM102>:
/home/ip.c:279
  kz_send(MSGBOX_ID_ETHOUTPUT, size + 1, p);
  4035da:	6f 62 ff fa 	mov.w	@(0xfffa:16,er6),r2
  4035de:	0d 23       	mov.w	r2,r3
  4035e0:	0b 03       	adds	#1,er3
  4035e2:	01 00 6f 62 	mov.l	@(0xfffc:16,er6),er2
  4035e6:	ff fc 
  4035e8:	0d 31       	mov.w	r3,r1
  4035ea:	79 00 00 05 	mov.w	#0x5,r0
  4035ee:	5e 40 27 9c 	jsr	@0x40279c:24

004035f2 <.LM103>:
/home/ip.c:280
}
  4035f2:	00 00       	nop	
  4035f4:	7a 17 00 00 	add.l	#0xc,er7
  4035f8:	00 0c 
  4035fa:	01 00 6d 76 	mov.l	@er7+,er6
  4035fe:	54 70       	rts	

00403600 <_ip_main>:
ip_main():
/home/ip.c:285

// IP 通信を処理するためのユーザタスク
// 割り込みが etherdrv で処理され、メッセージとして送信されてきたあとの処理
int ip_main(int argc, char *argv[])
{
  403600:	01 00 6d f6 	mov.l	er6,@-er7
  403604:	0f f6       	mov.l	er7,er6
  403606:	7a 37 00 00 	sub.l	#0x10,er7
  40360a:	00 10 
  40360c:	6f e0 ff f6 	mov.w	r0,@(0xfff6:16,er6)
  403610:	01 00 6f e1 	mov.l	er1,@(0xfff0:16,er6)
  403614:	ff f0 

00403616 <.LM105>:
/home/ip.c:289
  char *p;
  int size;

  send_use();
  403616:	5e 40 35 4a 	jsr	@0x40354a:24

0040361a <.LM106>:
/home/ip.c:290
  puts("network ready.\n");
  40361a:	7a 00 00 40 	mov.l	#0x4041a8,er0
  40361e:	41 a8 
  403620:	5e 40 07 b6 	jsr	@0x4007b6:24

00403624 <.L45>:
/home/ip.c:294

  while (1) {
    // Ethernet からデータが受信されるのを待つ
    kz_recv(MSGBOX_ID_ETHINPUT, &size, &p);
  403624:	0f e2       	mov.l	er6,er2
  403626:	1b 92       	subs	#4,er2
  403628:	0f e3       	mov.l	er6,er3
  40362a:	1b 93       	subs	#4,er3
  40362c:	1b 83       	subs	#2,er3
  40362e:	0f b1       	mov.l	er3,er1
  403630:	79 00 00 04 	mov.w	#0x4,r0
  403634:	5e 40 27 f6 	jsr	@0x4027f6:24

00403638 <.LM108>:
/home/ip.c:300

    // Ethernet フレームを処理する(ARP or IP)
    // Ethernet フレームを送り返す必要がある場合は 0 より大きい size が返され
    // p の中身が書き換えられている
    // 今回は ICMP echo reply のみに対応するため、これで十分
    size = ethernet_proc(size, (struct ethernet_header *)p);
  403638:	01 00 6f 63 	mov.l	@(0xfffc:16,er6),er3
  40363c:	ff fc 
  40363e:	6f 62 ff fa 	mov.w	@(0xfffa:16,er6),r2
  403642:	0f b1       	mov.l	er3,er1
  403644:	0d 20       	mov.w	r2,r0
  403646:	5e 40 34 34 	jsr	@0x403434:24
  40364a:	0d 02       	mov.w	r0,r2
  40364c:	6f e2 ff fa 	mov.w	r2,@(0xfffa:16,er6)

00403650 <.LM109>:
/home/ip.c:302

    if (size > 0) {
  403650:	6f 62 ff fa 	mov.w	@(0xfffa:16,er6),r2
  403654:	0d 22       	mov.w	r2,r2
  403656:	4f 1e       	ble	.+30 (0x403676)

00403658 <.LM110>:
/home/ip.c:303
      send_send(size, p);
  403658:	01 00 6f 63 	mov.l	@(0xfffc:16,er6),er3
  40365c:	ff fc 
  40365e:	6f 62 ff fa 	mov.w	@(0xfffa:16,er6),r2
  403662:	0f b1       	mov.l	er3,er1
  403664:	0d 20       	mov.w	r2,r0
  403666:	5e 40 35 86 	jsr	@0x403586:24

0040366a <.LM111>:
/home/ip.c:304
      puts("replyed.\n");
  40366a:	7a 00 00 40 	mov.l	#0x4041b8,er0
  40366e:	41 b8 
  403670:	5e 40 07 b6 	jsr	@0x4007b6:24
  403674:	40 0a       	bra	.+10 (0x403680)

00403676 <.L43>:
/home/ip.c:306
    } else {
      puts("no reply.\n");
  403676:	7a 00 00 40 	mov.l	#0x4041c2,er0
  40367a:	41 c2 
  40367c:	5e 40 07 b6 	jsr	@0x4007b6:24

00403680 <.L44>:
/home/ip.c:308
    }
    kz_kmfree(p);
  403680:	01 00 6f 62 	mov.l	@(0xfffc:16,er6),er2
  403684:	ff fc 
  403686:	0f a0       	mov.l	er2,er0
  403688:	5e 40 27 5a 	jsr	@0x40275a:24

0040368c <.LM114>:
/home/ip.c:294
    kz_recv(MSGBOX_ID_ETHINPUT, &size, &p);
  40368c:	40 96       	bra	.-106 (0x403624)

0040368e <_send_char>:
send_char():
/home/consdrv.c:32
 * 場合は排他のため割込み禁止状態で呼ぶこと．
 */

/* 送信バッファの先頭１文字を送信する */
static void send_char(struct consreg *cons)
{
  40368e:	01 00 6d f6 	mov.l	er6,@-er7
  403692:	0f f6       	mov.l	er7,er6
  403694:	7a 37 00 00 	sub.l	#0x8,er7
  403698:	00 08 
  40369a:	01 00 6f e0 	mov.l	er0,@(0xfff8:16,er6)
  40369e:	ff f8 

004036a0 <.LM2>:
/home/consdrv.c:34
  int i;
  serial_send_byte(cons->index, cons->send_buf[0]);
  4036a0:	01 00 6f 62 	mov.l	@(0xfff8:16,er6),er2
  4036a4:	ff f8 
  4036a6:	01 00 6f 22 	mov.l	@(0x8:16,er2),er2
  4036aa:	00 08 
  4036ac:	68 2b       	mov.b	@er2,r3l
  4036ae:	01 00 6f 62 	mov.l	@(0xfff8:16,er6),er2
  4036b2:	ff f8 
  4036b4:	6f 22 00 04 	mov.w	@(0x4:16,er2),r2
  4036b8:	0c b9       	mov.b	r3l,r1l
  4036ba:	0d 20       	mov.w	r2,r0
  4036bc:	5e 40 09 ea 	jsr	@0x4009ea:24

004036c0 <.LM3>:
/home/consdrv.c:35
  cons->send_len--;
  4036c0:	01 00 6f 62 	mov.l	@(0xfff8:16,er6),er2
  4036c4:	ff f8 
  4036c6:	6f 22 00 10 	mov.w	@(0x10:16,er2),r2
  4036ca:	0d 23       	mov.w	r2,r3
  4036cc:	1b 03       	subs	#1,er3
  4036ce:	01 00 6f 62 	mov.l	@(0xfff8:16,er6),er2
  4036d2:	ff f8 
  4036d4:	6f a3 00 10 	mov.w	r3,@(0x10:16,er2)

004036d8 <.LM4>:
/home/consdrv.c:37
  /* 先頭文字を送信したので，１文字ぶんずらす */
  for (i = 0; i < cons->send_len; i++)
  4036d8:	19 22       	sub.w	r2,r2
  4036da:	6f e2 ff fe 	mov.w	r2,@(0xfffe:16,er6)
  4036de:	40 38       	bra	.+56 (0x403718)

004036e0 <.L3>:
/home/consdrv.c:38 (discriminator 3)
    cons->send_buf[i] = cons->send_buf[i + 1];
  4036e0:	01 00 6f 62 	mov.l	@(0xfff8:16,er6),er2
  4036e4:	ff f8 
  4036e6:	01 00 6f 23 	mov.l	@(0x8:16,er2),er3
  4036ea:	00 08 
  4036ec:	6f 62 ff fe 	mov.w	@(0xfffe:16,er6),r2
  4036f0:	17 f2       	exts.l	er2
  4036f2:	0b 02       	adds	#1,er2
  4036f4:	0a a3       	add.l	er2,er3
  4036f6:	01 00 6f 62 	mov.l	@(0xfff8:16,er6),er2
  4036fa:	ff f8 
  4036fc:	01 00 6f 20 	mov.l	@(0x8:16,er2),er0
  403700:	00 08 
  403702:	6f 62 ff fe 	mov.w	@(0xfffe:16,er6),r2
  403706:	17 f2       	exts.l	er2
  403708:	0a 82       	add.l	er0,er2
  40370a:	68 3b       	mov.b	@er3,r3l
  40370c:	68 ab       	mov.b	r3l,@er2

0040370e <.LM6>:
/home/consdrv.c:37
  for (i = 0; i < cons->send_len; i++)
  40370e:	6f 62 ff fe 	mov.w	@(0xfffe:16,er6),r2
  403712:	0b 02       	adds	#1,er2
  403714:	6f e2 ff fe 	mov.w	r2,@(0xfffe:16,er6)

00403718 <.L2>:
/home/consdrv.c:37 (discriminator 1)
  403718:	01 00 6f 62 	mov.l	@(0xfff8:16,er6),er2
  40371c:	ff f8 
  40371e:	6f 22 00 10 	mov.w	@(0x10:16,er2),r2
  403722:	6f 63 ff fe 	mov.w	@(0xfffe:16,er6),r3
  403726:	1d 23       	cmp.w	r2,r3
  403728:	4d b6       	blt	.-74 (0x4036e0)

0040372a <.LM8>:
/home/consdrv.c:39
}
  40372a:	00 00       	nop	
  40372c:	0b 97       	adds	#4,er7
  40372e:	0b 97       	adds	#4,er7
  403730:	01 00 6d 76 	mov.l	@er7+,er6
  403734:	54 70       	rts	

00403736 <_send_string>:
send_string():
/home/consdrv.c:43

/* 文字列を送信バッファに書き込み送信開始する */
static void send_string(struct consreg *cons, char *str, int len)
{
  403736:	01 00 6d f6 	mov.l	er6,@-er7
  40373a:	0f f6       	mov.l	er7,er6
  40373c:	01 00 6d f4 	mov.l	er4,@-er7
  403740:	7a 37 00 00 	sub.l	#0x10,er7
  403744:	00 10 
  403746:	01 00 6f e0 	mov.l	er0,@(0xfff4:16,er6)
  40374a:	ff f4 
  40374c:	01 00 6f e1 	mov.l	er1,@(0xfff0:16,er6)
  403750:	ff f0 
  403752:	6f e2 ff ee 	mov.w	r2,@(0xffee:16,er6)

00403756 <.LM10>:
/home/consdrv.c:45
  int i;
  for (i = 0; i < len; i++) { /* 文字列を送信バッファにコピー */
  403756:	19 22       	sub.w	r2,r2
  403758:	6f e2 ff fa 	mov.w	r2,@(0xfffa:16,er6)
  40375c:	58 00 00 84 	bra	.+132 (0x4037e4)

00403760 <.L7>:
/home/consdrv.c:46
    if (str[i] == '\n') /* \n→\r\nに変換 */
  403760:	6f 62 ff fa 	mov.w	@(0xfffa:16,er6),r2
  403764:	17 f2       	exts.l	er2
  403766:	01 00 6f 63 	mov.l	@(0xfff0:16,er6),er3
  40376a:	ff f0 
  40376c:	0a b2       	add.l	er3,er2
  40376e:	68 2a       	mov.b	@er2,r2l
  403770:	aa 0a       	cmp.b	#0xa,r2l
  403772:	46 2c       	bne	.+44 (0x4037a0)

00403774 <.LM12>:
/home/consdrv.c:47
      cons->send_buf[cons->send_len++] = '\r';
  403774:	01 00 6f 62 	mov.l	@(0xfff4:16,er6),er2
  403778:	ff f4 
  40377a:	01 00 6f 23 	mov.l	@(0x8:16,er2),er3
  40377e:	00 08 
  403780:	01 00 6f 62 	mov.l	@(0xfff4:16,er6),er2
  403784:	ff f4 
  403786:	6f 22 00 10 	mov.w	@(0x10:16,er2),r2
  40378a:	0d 21       	mov.w	r2,r1
  40378c:	0b 01       	adds	#1,er1
  40378e:	01 00 6f 60 	mov.l	@(0xfff4:16,er6),er0
  403792:	ff f4 
  403794:	6f 81 00 10 	mov.w	r1,@(0x10:16,er0)
  403798:	17 f2       	exts.l	er2
  40379a:	0a b2       	add.l	er3,er2
  40379c:	fb 0d       	mov.b	#0xd,r3l
  40379e:	68 ab       	mov.b	r3l,@er2

004037a0 <.L6>:
/home/consdrv.c:48 (discriminator 2)
    cons->send_buf[cons->send_len++] = str[i];
  4037a0:	6f 62 ff fa 	mov.w	@(0xfffa:16,er6),r2
  4037a4:	17 f2       	exts.l	er2
  4037a6:	01 00 6f 63 	mov.l	@(0xfff0:16,er6),er3
  4037aa:	ff f0 
  4037ac:	0a a3       	add.l	er2,er3
  4037ae:	01 00 6f 62 	mov.l	@(0xfff4:16,er6),er2
  4037b2:	ff f4 
  4037b4:	01 00 6f 20 	mov.l	@(0x8:16,er2),er0
  4037b8:	00 08 
  4037ba:	01 00 6f 62 	mov.l	@(0xfff4:16,er6),er2
  4037be:	ff f4 
  4037c0:	6f 22 00 10 	mov.w	@(0x10:16,er2),r2
  4037c4:	0d 24       	mov.w	r2,r4
  4037c6:	0b 04       	adds	#1,er4
  4037c8:	01 00 6f 61 	mov.l	@(0xfff4:16,er6),er1
  4037cc:	ff f4 
  4037ce:	6f 94 00 10 	mov.w	r4,@(0x10:16,er1)
  4037d2:	17 f2       	exts.l	er2
  4037d4:	0a 82       	add.l	er0,er2
  4037d6:	68 3b       	mov.b	@er3,r3l
  4037d8:	68 ab       	mov.b	r3l,@er2

004037da <.LM14>:
/home/consdrv.c:45
  for (i = 0; i < len; i++) { /* 文字列を送信バッファにコピー */
  4037da:	6f 62 ff fa 	mov.w	@(0xfffa:16,er6),r2
  4037de:	0b 02       	adds	#1,er2
  4037e0:	6f e2 ff fa 	mov.w	r2,@(0xfffa:16,er6)

004037e4 <.L5>:
/home/consdrv.c:45 (discriminator 1)
  4037e4:	6f 63 ff fa 	mov.w	@(0xfffa:16,er6),r3
  4037e8:	6f 62 ff ee 	mov.w	@(0xffee:16,er6),r2
  4037ec:	1d 23       	cmp.w	r2,r3
  4037ee:	58 d0 ff 6e 	blt	.-146 (0x403760)

004037f2 <.LM16>:
/home/consdrv.c:55
  /*
   * 送信割込み無効ならば，送信開始されていないので送信開始する．
   * 送信割込み有効ならば送信開始されており，送信割込みの延長で
   * 送信バッファ内のデータが順次送信されるので，何もしなくてよい．
   */
  if (cons->send_len && !serial_intr_is_send_enable(cons->index)) {
  4037f2:	01 00 6f 62 	mov.l	@(0xfff4:16,er6),er2
  4037f6:	ff f4 
  4037f8:	6f 22 00 10 	mov.w	@(0x10:16,er2),r2
  4037fc:	0d 22       	mov.w	r2,r2
  4037fe:	47 32       	beq	.+50 (0x403832)

00403800 <.LM17>:
/home/consdrv.c:55 (discriminator 1)
  403800:	01 00 6f 62 	mov.l	@(0xfff4:16,er6),er2
  403804:	ff f4 
  403806:	6f 22 00 04 	mov.w	@(0x4:16,er2),r2
  40380a:	0d 20       	mov.w	r2,r0
  40380c:	5e 40 0b 18 	jsr	@0x400b18:24
  403810:	0d 02       	mov.w	r0,r2
  403812:	0d 22       	mov.w	r2,r2
  403814:	46 1c       	bne	.+28 (0x403832)

00403816 <.LM18>:
/home/consdrv.c:56
    serial_intr_send_enable(cons->index); /* 送信割込み有効化 */
  403816:	01 00 6f 62 	mov.l	@(0xfff4:16,er6),er2
  40381a:	ff f4 
  40381c:	6f 22 00 04 	mov.w	@(0x4:16,er2),r2
  403820:	0d 20       	mov.w	r2,r0
  403822:	5e 40 0b 5e 	jsr	@0x400b5e:24

00403826 <.LM19>:
/home/consdrv.c:57
    send_char(cons); /* 送信開始 */
  403826:	01 00 6f 62 	mov.l	@(0xfff4:16,er6),er2
  40382a:	ff f4 
  40382c:	0f a0       	mov.l	er2,er0
  40382e:	5e 40 36 8e 	jsr	@0x40368e:24

00403832 <.L9>:
/home/consdrv.c:59
  }
}
  403832:	00 00       	nop	
  403834:	7a 17 00 00 	add.l	#0x10,er7
  403838:	00 10 
  40383a:	01 00 6d 74 	mov.l	@er7+,er4
  40383e:	01 00 6d 76 	mov.l	@er7+,er6
  403842:	54 70       	rts	

00403844 <_consdrv_intrproc>:
consdrv_intrproc():
/home/consdrv.c:72
 * ・スレッドから呼ばれることがあるが，割込み禁止で呼び出している．
 * また非コンテキスト状態で呼ばれるため，システム・コールは利用してはいけない．
 * (サービス・コールを利用すること)
 */
static int consdrv_intrproc(struct consreg *cons)
{
  403844:	01 00 6d f6 	mov.l	er6,@-er7
  403848:	0f f6       	mov.l	er7,er6
  40384a:	7a 37 00 00 	sub.l	#0xc,er7
  40384e:	00 0c 
  403850:	01 00 6f e0 	mov.l	er0,@(0xfff4:16,er6)
  403854:	ff f4 

00403856 <.LM22>:
/home/consdrv.c:76
  unsigned char c;
  char *p;

  if (serial_is_recv_enable(cons->index)) { /* 受信割込み */
  403856:	01 00 6f 62 	mov.l	@(0xfff4:16,er6),er2
  40385a:	ff f4 
  40385c:	6f 22 00 04 	mov.w	@(0x4:16,er2),r2
  403860:	0d 20       	mov.w	r2,r0
  403862:	5e 40 0a 5e 	jsr	@0x400a5e:24
  403866:	0d 02       	mov.w	r0,r2
  403868:	0d 22       	mov.w	r2,r2
  40386a:	58 70 00 e0 	beq	.+224 (0x40394e)

0040386e <.LM23>:
/home/consdrv.c:77
    c = serial_recv_byte(cons->index);
  40386e:	01 00 6f 62 	mov.l	@(0xfff4:16,er6),er2
  403872:	ff f4 
  403874:	6f 22 00 04 	mov.w	@(0x4:16,er2),r2
  403878:	0d 20       	mov.w	r2,r0
  40387a:	5e 40 0a a4 	jsr	@0x400aa4:24
  40387e:	0c 8a       	mov.b	r0l,r2l
  403880:	6e ea ff fb 	mov.b	r2l,@(0xfffb:16,er6)

00403884 <.LM24>:
/home/consdrv.c:78
    if (c == '\r') /* 改行コード変換(\r→\n) */
  403884:	6e 6a ff fb 	mov.b	@(0xfffb:16,er6),r2l
  403888:	aa 0d       	cmp.b	#0xd,r2l
  40388a:	46 06       	bne	.+6 (0x403892)

0040388c <.LM25>:
/home/consdrv.c:79
      c = '\n';
  40388c:	fa 0a       	mov.b	#0xa,r2l
  40388e:	6e ea ff fb 	mov.b	r2l,@(0xfffb:16,er6)

00403892 <.L12>:
/home/consdrv.c:81

    send_string(cons, &c, 1); /* エコーバック処理 */
  403892:	0f e0       	mov.l	er6,er0
  403894:	1b 90       	subs	#4,er0
  403896:	1b 00       	subs	#1,er0
  403898:	01 00 6f 63 	mov.l	@(0xfff4:16,er6),er3
  40389c:	ff f4 
  40389e:	79 02 00 01 	mov.w	#0x1,r2
  4038a2:	0f 81       	mov.l	er0,er1
  4038a4:	0f b0       	mov.l	er3,er0
  4038a6:	5e 40 37 36 	jsr	@0x403736:24

004038aa <.LM27>:
/home/consdrv.c:83

    if (cons->id) {
  4038aa:	01 00 6f 62 	mov.l	@(0xfff4:16,er6),er2
  4038ae:	ff f4 
  4038b0:	01 00 69 22 	mov.l	@er2,er2
  4038b4:	0f a2       	mov.l	er2,er2
  4038b6:	58 70 00 94 	beq	.+148 (0x40394e)

004038ba <.LM28>:
/home/consdrv.c:84
      if (c != '\n') {
  4038ba:	6e 6a ff fb 	mov.b	@(0xfffb:16,er6),r2l
  4038be:	aa 0a       	cmp.b	#0xa,r2l
  4038c0:	47 30       	beq	.+48 (0x4038f2)

004038c2 <.LM29>:
/home/consdrv.c:86
	/* 改行でないなら，受信バッファにバッファリングする */
	cons->recv_buf[cons->recv_len++] = c;
  4038c2:	01 00 6f 62 	mov.l	@(0xfff4:16,er6),er2
  4038c6:	ff f4 
  4038c8:	01 00 6f 23 	mov.l	@(0xc:16,er2),er3
  4038cc:	00 0c 
  4038ce:	01 00 6f 62 	mov.l	@(0xfff4:16,er6),er2
  4038d2:	ff f4 
  4038d4:	6f 22 00 12 	mov.w	@(0x12:16,er2),r2
  4038d8:	0d 21       	mov.w	r2,r1
  4038da:	0b 01       	adds	#1,er1
  4038dc:	01 00 6f 60 	mov.l	@(0xfff4:16,er6),er0
  4038e0:	ff f4 
  4038e2:	6f 81 00 12 	mov.w	r1,@(0x12:16,er0)
  4038e6:	17 f2       	exts.l	er2
  4038e8:	0a b2       	add.l	er3,er2
  4038ea:	6e 6b ff fb 	mov.b	@(0xfffb:16,er6),r3l
  4038ee:	68 ab       	mov.b	r3l,@er2
  4038f0:	40 5c       	bra	.+92 (0x40394e)

004038f2 <.L13>:
/home/consdrv.c:93
	/*
	 * Enterが押されたら，バッファの内容を
	 * コマンド処理スレッドに通知する．
	 * (割込みハンドラなので，サービス・コールを利用する)
	 */
	p = kx_kmalloc(CONS_BUFFER_SIZE);
  4038f2:	79 00 00 18 	mov.w	#0x18,r0
  4038f6:	5e 40 28 e8 	jsr	@0x4028e8:24
  4038fa:	01 00 6f e0 	mov.l	er0,@(0xfffc:16,er6)
  4038fe:	ff fc 

00403900 <.LM31>:
/home/consdrv.c:94
	memcpy(p, cons->recv_buf, cons->recv_len);
  403900:	01 00 6f 62 	mov.l	@(0xfff4:16,er6),er2
  403904:	ff f4 
  403906:	6f 22 00 12 	mov.w	@(0x12:16,er2),r2
  40390a:	0d 21       	mov.w	r2,r1
  40390c:	17 f1       	exts.l	er1
  40390e:	01 00 6f 62 	mov.l	@(0xfff4:16,er6),er2
  403912:	ff f4 
  403914:	01 00 6f 20 	mov.l	@(0xc:16,er2),er0
  403918:	00 0c 
  40391a:	01 00 6f 63 	mov.l	@(0xfffc:16,er6),er3
  40391e:	ff fc 
  403920:	0f 92       	mov.l	er1,er2
  403922:	0f 81       	mov.l	er0,er1
  403924:	0f b0       	mov.l	er3,er0
  403926:	5e 40 04 0c 	jsr	@0x40040c:24

0040392a <.LM32>:
/home/consdrv.c:95
	kx_send(MSGBOX_ID_CONSINPUT, cons->recv_len, p);
  40392a:	01 00 6f 62 	mov.l	@(0xfff4:16,er6),er2
  40392e:	ff f4 
  403930:	6f 23 00 12 	mov.w	@(0x12:16,er2),r3
  403934:	01 00 6f 62 	mov.l	@(0xfffc:16,er6),er2
  403938:	ff fc 
  40393a:	0d 31       	mov.w	r3,r1
  40393c:	19 00       	sub.w	r0,r0
  40393e:	5e 40 29 68 	jsr	@0x402968:24

00403942 <.LM33>:
/home/consdrv.c:96
	cons->recv_len = 0;
  403942:	01 00 6f 62 	mov.l	@(0xfff4:16,er6),er2
  403946:	ff f4 
  403948:	19 33       	sub.w	r3,r3
  40394a:	6f a3 00 12 	mov.w	r3,@(0x12:16,er2)

0040394e <.L11>:
/home/consdrv.c:101
      }
    }
  }

  if (serial_is_send_enable(cons->index)) { /* 送信割込み */
  40394e:	01 00 6f 62 	mov.l	@(0xfff4:16,er6),er2
  403952:	ff f4 
  403954:	6f 22 00 04 	mov.w	@(0x4:16,er2),r2
  403958:	0d 20       	mov.w	r2,r0
  40395a:	5e 40 09 a4 	jsr	@0x4009a4:24
  40395e:	0d 02       	mov.w	r0,r2
  403960:	0d 22       	mov.w	r2,r2
  403962:	47 3a       	beq	.+58 (0x40399e)

00403964 <.LM35>:
/home/consdrv.c:102
    if (!cons->id || !cons->send_len) {
  403964:	01 00 6f 62 	mov.l	@(0xfff4:16,er6),er2
  403968:	ff f4 
  40396a:	01 00 69 22 	mov.l	@er2,er2
  40396e:	0f a2       	mov.l	er2,er2
  403970:	47 0e       	beq	.+14 (0x403980)

00403972 <.LM36>:
/home/consdrv.c:102 (discriminator 1)
  403972:	01 00 6f 62 	mov.l	@(0xfff4:16,er6),er2
  403976:	ff f4 
  403978:	6f 22 00 10 	mov.w	@(0x10:16,er2),r2
  40397c:	0d 22       	mov.w	r2,r2
  40397e:	46 12       	bne	.+18 (0x403992)

00403980 <.L15>:
/home/consdrv.c:104
      /* 送信データが無いならば，送信処理終了 */
      serial_intr_send_disable(cons->index);
  403980:	01 00 6f 62 	mov.l	@(0xfff4:16,er6),er2
  403984:	ff f4 
  403986:	6f 22 00 04 	mov.w	@(0x4:16,er2),r2
  40398a:	0d 20       	mov.w	r2,r0
  40398c:	5e 40 0b ac 	jsr	@0x400bac:24
  403990:	40 0c       	bra	.+12 (0x40399e)

00403992 <.L16>:
/home/consdrv.c:107
    } else {
      /* 送信データがあるならば，引続き送信する */
      send_char(cons);
  403992:	01 00 6f 62 	mov.l	@(0xfff4:16,er6),er2
  403996:	ff f4 
  403998:	0f a0       	mov.l	er2,er0
  40399a:	5e 40 36 8e 	jsr	@0x40368e:24

0040399e <.L14>:
/home/consdrv.c:111
    }
  }

  return 0;
  40399e:	19 22       	sub.w	r2,r2

004039a0 <.LM40>:
/home/consdrv.c:112
}
  4039a0:	0d 20       	mov.w	r2,r0
  4039a2:	7a 17 00 00 	add.l	#0xc,er7
  4039a6:	00 0c 
  4039a8:	01 00 6d 76 	mov.l	@er7+,er6
  4039ac:	54 70       	rts	

004039ae <_consdrv_intr>:
consdrv_intr():
/home/consdrv.c:116

/* 割込みハンドラ */
static void consdrv_intr(void)
{
  4039ae:	01 00 6d f6 	mov.l	er6,@-er7
  4039b2:	0f f6       	mov.l	er7,er6
  4039b4:	7a 37 00 00 	sub.l	#0x8,er7
  4039b8:	00 08 

004039ba <.LM42>:
/home/consdrv.c:120
  int i;
  struct consreg *cons;

  for (i = 0; i < CONSDRV_DEVICE_NUM; i++) {
  4039ba:	19 22       	sub.w	r2,r2
  4039bc:	6f e2 ff fe 	mov.w	r2,@(0xfffe:16,er6)
  4039c0:	40 6a       	bra	.+106 (0x403a2c)

004039c2 <.L22>:
/home/consdrv.c:121
    cons = &consreg[i];
  4039c2:	6f 62 ff fe 	mov.w	@(0xfffe:16,er6),r2
  4039c6:	17 f2       	exts.l	er2
  4039c8:	fb 05       	mov.b	#0x5,r3l

004039ca <.Llt1>:
  4039ca:	10 32       	shll.l	er2
  4039cc:	8b ff       	add.b	#0xff,r3l
  4039ce:	46 fa       	bne	.-6 (0x4039ca)
  4039d0:	7a 12 00 40 	add.l	#0x404488,er2
  4039d4:	44 88 
  4039d6:	01 00 6f e2 	mov.l	er2,@(0xfff8:16,er6)
  4039da:	ff f8 

004039dc <.LM44>:
/home/consdrv.c:122
    if (cons->id) {
  4039dc:	01 00 6f 62 	mov.l	@(0xfff8:16,er6),er2
  4039e0:	ff f8 
  4039e2:	01 00 69 22 	mov.l	@er2,er2
  4039e6:	0f a2       	mov.l	er2,er2
  4039e8:	47 38       	beq	.+56 (0x403a22)

004039ea <.LM45>:
/home/consdrv.c:123
      if (serial_is_send_enable(cons->index) ||
  4039ea:	01 00 6f 62 	mov.l	@(0xfff8:16,er6),er2
  4039ee:	ff f8 
  4039f0:	6f 22 00 04 	mov.w	@(0x4:16,er2),r2
  4039f4:	0d 20       	mov.w	r2,r0
  4039f6:	5e 40 09 a4 	jsr	@0x4009a4:24
  4039fa:	0d 02       	mov.w	r0,r2
  4039fc:	0d 22       	mov.w	r2,r2
  4039fe:	46 16       	bne	.+22 (0x403a16)

00403a00 <.LM46>:
/home/consdrv.c:124 (discriminator 1)
	  serial_is_recv_enable(cons->index))
  403a00:	01 00 6f 62 	mov.l	@(0xfff8:16,er6),er2
  403a04:	ff f8 
  403a06:	6f 22 00 04 	mov.w	@(0x4:16,er2),r2
  403a0a:	0d 20       	mov.w	r2,r0
  403a0c:	5e 40 0a 5e 	jsr	@0x400a5e:24
  403a10:	0d 02       	mov.w	r0,r2

00403a12 <.LM47>:
/home/consdrv.c:123
      if (serial_is_send_enable(cons->index) ||
  403a12:	0d 22       	mov.w	r2,r2
  403a14:	47 0c       	beq	.+12 (0x403a22)

00403a16 <.L21>:
/home/consdrv.c:126
	/* 割込みがあるならば，割込み処理を呼び出す */
	consdrv_intrproc(cons);
  403a16:	01 00 6f 62 	mov.l	@(0xfff8:16,er6),er2
  403a1a:	ff f8 
  403a1c:	0f a0       	mov.l	er2,er0
  403a1e:	5e 40 38 44 	jsr	@0x403844:24

00403a22 <.L20>:
/home/consdrv.c:120 (discriminator 2)
  for (i = 0; i < CONSDRV_DEVICE_NUM; i++) {
  403a22:	6f 62 ff fe 	mov.w	@(0xfffe:16,er6),r2
  403a26:	0b 02       	adds	#1,er2
  403a28:	6f e2 ff fe 	mov.w	r2,@(0xfffe:16,er6)

00403a2c <.L19>:
/home/consdrv.c:120 (discriminator 1)
  403a2c:	6f 62 ff fe 	mov.w	@(0xfffe:16,er6),r2
  403a30:	0d 22       	mov.w	r2,r2
  403a32:	4f 8e       	ble	.-114 (0x4039c2)

00403a34 <.LM51>:
/home/consdrv.c:129
    }
  }
}
  403a34:	00 00       	nop	
  403a36:	0b 97       	adds	#4,er7
  403a38:	0b 97       	adds	#4,er7
  403a3a:	01 00 6d 76 	mov.l	@er7+,er6
  403a3e:	54 70       	rts	

00403a40 <_consdrv_init>:
consdrv_init():
/home/consdrv.c:132

static int consdrv_init(void)
{
  403a40:	01 00 6d f6 	mov.l	er6,@-er7
  403a44:	0f f6       	mov.l	er7,er6

00403a46 <.LM53>:
/home/consdrv.c:133
  memset(consreg, 0, sizeof(consreg));
  403a46:	1a a2       	sub.l	er2,er2
  403a48:	8a 20       	add.b	#0x20,r2l
  403a4a:	19 11       	sub.w	r1,r1
  403a4c:	7a 00 00 40 	mov.l	#0x404488,er0
  403a50:	44 88 
  403a52:	5e 40 03 a0 	jsr	@0x4003a0:24

00403a56 <.LM54>:
/home/consdrv.c:134
  return 0;
  403a56:	19 22       	sub.w	r2,r2

00403a58 <.LM55>:
/home/consdrv.c:135
}
  403a58:	0d 20       	mov.w	r2,r0
  403a5a:	01 00 6d 76 	mov.l	@er7+,er6
  403a5e:	54 70       	rts	

00403a60 <_consdrv_command>:
consdrv_command():
/home/consdrv.c:140

/* スレッドからの要求を処理する */
static int consdrv_command(struct consreg *cons, kz_thread_id_t id,
			   int index, int size, char *command)
{
  403a60:	01 00 6d f6 	mov.l	er6,@-er7
  403a64:	0f f6       	mov.l	er7,er6
  403a66:	7a 37 00 00 	sub.l	#0xc,er7
  403a6a:	00 0c 
  403a6c:	01 00 6f e0 	mov.l	er0,@(0xfffc:16,er6)
  403a70:	ff fc 
  403a72:	01 00 6f e1 	mov.l	er1,@(0xfff8:16,er6)
  403a76:	ff f8 
  403a78:	6f e2 ff f6 	mov.w	r2,@(0xfff6:16,er6)

00403a7c <.LM57>:
/home/consdrv.c:141
  switch (command[0]) {
  403a7c:	01 00 6f 62 	mov.l	@(0xc:16,er6),er2
  403a80:	00 0c 
  403a82:	68 2a       	mov.b	@er2,r2l
  403a84:	17 52       	extu.w	r2
  403a86:	79 22 00 75 	cmp.w	#0x75,r2
  403a8a:	47 0c       	beq	.+12 (0x403a98)
  403a8c:	79 22 00 77 	cmp.w	#0x77,r2
  403a90:	58 70 00 96 	beq	.+150 (0x403b2a)

00403a94 <.LM58>:
/home/consdrv.c:164
    send_string(cons, command + 1, size - 1); /* 文字列の送信 */
    INTR_ENABLE;
    break;

  default:
    break;
  403a94:	58 00 00 ba 	bra	.+186 (0x403b52)

00403a98 <.L27>:
/home/consdrv.c:143
    cons->id = id;
  403a98:	01 00 6f 62 	mov.l	@(0xfffc:16,er6),er2
  403a9c:	ff fc 
  403a9e:	01 00 6f 63 	mov.l	@(0xfff8:16,er6),er3
  403aa2:	ff f8 
  403aa4:	01 00 69 a3 	mov.l	er3,@er2

00403aa8 <.LM60>:
/home/consdrv.c:144
    cons->index = command[1] - '0';
  403aa8:	01 00 6f 62 	mov.l	@(0xc:16,er6),er2
  403aac:	00 0c 
  403aae:	0b 02       	adds	#1,er2
  403ab0:	68 2a       	mov.b	@er2,r2l
  403ab2:	17 52       	extu.w	r2
  403ab4:	0d 23       	mov.w	r2,r3
  403ab6:	79 13 ff d0 	add.w	#0xffd0,r3
  403aba:	01 00 6f 62 	mov.l	@(0xfffc:16,er6),er2
  403abe:	ff fc 
  403ac0:	6f a3 00 04 	mov.w	r3,@(0x4:16,er2)

00403ac4 <.LM61>:
/home/consdrv.c:145
    cons->send_buf = kz_kmalloc(CONS_BUFFER_SIZE);
  403ac4:	79 00 00 18 	mov.w	#0x18,r0
  403ac8:	5e 40 27 1c 	jsr	@0x40271c:24
  403acc:	0f 83       	mov.l	er0,er3
  403ace:	01 00 6f 62 	mov.l	@(0xfffc:16,er6),er2
  403ad2:	ff fc 
  403ad4:	01 00 6f a3 	mov.l	er3,@(0x8:16,er2)
  403ad8:	00 08 

00403ada <.LM62>:
/home/consdrv.c:146
    cons->recv_buf = kz_kmalloc(CONS_BUFFER_SIZE);
  403ada:	79 00 00 18 	mov.w	#0x18,r0
  403ade:	5e 40 27 1c 	jsr	@0x40271c:24
  403ae2:	0f 83       	mov.l	er0,er3
  403ae4:	01 00 6f 62 	mov.l	@(0xfffc:16,er6),er2
  403ae8:	ff fc 
  403aea:	01 00 6f a3 	mov.l	er3,@(0xc:16,er2)
  403aee:	00 0c 

00403af0 <.LM63>:
/home/consdrv.c:147
    cons->send_len = 0;
  403af0:	01 00 6f 62 	mov.l	@(0xfffc:16,er6),er2
  403af4:	ff fc 
  403af6:	19 33       	sub.w	r3,r3
  403af8:	6f a3 00 10 	mov.w	r3,@(0x10:16,er2)

00403afc <.LM64>:
/home/consdrv.c:148
    cons->recv_len = 0;
  403afc:	01 00 6f 62 	mov.l	@(0xfffc:16,er6),er2
  403b00:	ff fc 
  403b02:	19 33       	sub.w	r3,r3
  403b04:	6f a3 00 12 	mov.w	r3,@(0x12:16,er2)

00403b08 <.LM65>:
/home/consdrv.c:149
    serial_init(cons->index);
  403b08:	01 00 6f 62 	mov.l	@(0xfffc:16,er6),er2
  403b0c:	ff fc 
  403b0e:	6f 22 00 04 	mov.w	@(0x4:16,er2),r2
  403b12:	0d 20       	mov.w	r2,r0
  403b14:	5e 40 09 32 	jsr	@0x400932:24

00403b18 <.LM66>:
/home/consdrv.c:150
    serial_intr_recv_enable(cons->index); /* 受信割込み有効化(受信開始) */
  403b18:	01 00 6f 62 	mov.l	@(0xfffc:16,er6),er2
  403b1c:	ff fc 
  403b1e:	6f 22 00 04 	mov.w	@(0x4:16,er2),r2
  403b22:	0d 20       	mov.w	r2,r0
  403b24:	5e 40 0c 4c 	jsr	@0x400c4c:24

00403b28 <.LM67>:
/home/consdrv.c:151
    break;
  403b28:	40 28       	bra	.+40 (0x403b52)

00403b2a <.L28>:
/home/consdrv.c:158
    INTR_DISABLE;
  403b2a:	04 c0       	orc	#0xc0,ccr

00403b2c <.LM69>:
/home/consdrv.c:159
    send_string(cons, command + 1, size - 1); /* 文字列の送信 */
  403b2c:	6f 62 00 0a 	mov.w	@(0xa:16,er6),r2
  403b30:	0d 21       	mov.w	r2,r1
  403b32:	1b 01       	subs	#1,er1
  403b34:	01 00 6f 62 	mov.l	@(0xc:16,er6),er2
  403b38:	00 0c 
  403b3a:	0f a0       	mov.l	er2,er0
  403b3c:	0b 00       	adds	#1,er0
  403b3e:	01 00 6f 63 	mov.l	@(0xfffc:16,er6),er3
  403b42:	ff fc 
  403b44:	0d 12       	mov.w	r1,r2
  403b46:	0f 81       	mov.l	er0,er1
  403b48:	0f b0       	mov.l	er3,er0
  403b4a:	5e 40 37 36 	jsr	@0x403736:24

00403b4e <.LM70>:
/home/consdrv.c:160
    INTR_ENABLE;
  403b4e:	06 3f       	andc	#0x3f,ccr

00403b50 <.LM71>:
	...

00403b52 <.L29>:
/home/consdrv.c:167
  }

  return 0;
  403b52:	19 22       	sub.w	r2,r2

00403b54 <.LM73>:
/home/consdrv.c:168
}
  403b54:	0d 20       	mov.w	r2,r0
  403b56:	7a 17 00 00 	add.l	#0xc,er7
  403b5a:	00 0c 
  403b5c:	01 00 6d 76 	mov.l	@er7+,er6
  403b60:	54 70       	rts	

00403b62 <_consdrv_main>:
consdrv_main():
/home/consdrv.c:171

int consdrv_main(int argc, char *argv[])
{
  403b62:	01 00 6d f6 	mov.l	er6,@-er7
  403b66:	0f f6       	mov.l	er7,er6
  403b68:	01 00 6d f4 	mov.l	er4,@-er7
  403b6c:	7a 37 00 00 	sub.l	#0x14,er7
  403b70:	00 14 
  403b72:	6f e0 ff ee 	mov.w	r0,@(0xffee:16,er6)
  403b76:	01 00 6f e1 	mov.l	er1,@(0xffe8:16,er6)
  403b7a:	ff e8 

00403b7c <.LM75>:
/home/consdrv.c:176
  int size, index;
  kz_thread_id_t id;
  char *p;

  consdrv_init();
  403b7c:	5e 40 3a 40 	jsr	@0x403a40:24

00403b80 <.LM76>:
/home/consdrv.c:177
  kz_setintr(SOFTVEC_TYPE_SERINTR, consdrv_intr); /* 割込みハンドラ設定 */
  403b80:	7a 01 00 40 	mov.l	#0x4039ae,er1
  403b84:	39 ae 
  403b86:	79 00 00 02 	mov.w	#0x2,r0
  403b8a:	5e 40 28 58 	jsr	@0x402858:24

00403b8e <.L32>:
/home/consdrv.c:180 (discriminator 1)

  while (1) {
    id = kz_recv(MSGBOX_ID_CONSOUTPUT, &size, &p);
  403b8e:	0f e2       	mov.l	er6,er2
  403b90:	7a 32 00 00 	sub.l	#0x10,er2
  403b94:	00 10 
  403b96:	0f e3       	mov.l	er6,er3
  403b98:	7a 33 00 00 	sub.l	#0xc,er3
  403b9c:	00 0c 
  403b9e:	0f b1       	mov.l	er3,er1
  403ba0:	79 00 00 01 	mov.w	#0x1,r0
  403ba4:	5e 40 27 f6 	jsr	@0x4027f6:24
  403ba8:	01 00 6f e0 	mov.l	er0,@(0xfff8:16,er6)
  403bac:	ff f8 

00403bae <.LM78>:
/home/consdrv.c:181
    index = p[0] - '0';
  403bae:	01 00 6f 62 	mov.l	@(0xfff0:16,er6),er2
  403bb2:	ff f0 
  403bb4:	68 2a       	mov.b	@er2,r2l
  403bb6:	17 52       	extu.w	r2
  403bb8:	79 12 ff d0 	add.w	#0xffd0,r2
  403bbc:	6f e2 ff f6 	mov.w	r2,@(0xfff6:16,er6)

00403bc0 <.LM79>:
/home/consdrv.c:182
    consdrv_command(&consreg[index], id, index, size - 1, p + 1);
  403bc0:	01 00 6f 62 	mov.l	@(0xfff0:16,er6),er2
  403bc4:	ff f0 
  403bc6:	0f a0       	mov.l	er2,er0
  403bc8:	0b 00       	adds	#1,er0
  403bca:	6f 62 ff f4 	mov.w	@(0xfff4:16,er6),r2
  403bce:	0d 23       	mov.w	r2,r3
  403bd0:	1b 03       	subs	#1,er3
  403bd2:	6f 62 ff f6 	mov.w	@(0xfff6:16,er6),r2
  403bd6:	17 f2       	exts.l	er2
  403bd8:	f9 05       	mov.b	#0x5,r1l

00403bda <.Llt2>:
  403bda:	10 32       	shll.l	er2
  403bdc:	89 ff       	add.b	#0xff,r1l
  403bde:	46 fa       	bne	.-6 (0x403bda)
  403be0:	0f a4       	mov.l	er2,er4
  403be2:	7a 14 00 40 	add.l	#0x404488,er4
  403be6:	44 88 
  403be8:	6f 62 ff f6 	mov.w	@(0xfff6:16,er6),r2
  403bec:	01 00 6f 61 	mov.l	@(0xfff8:16,er6),er1
  403bf0:	ff f8 
  403bf2:	01 00 6d f0 	mov.l	er0,@-er7
  403bf6:	0f f0       	mov.l	er7,er0
  403bf8:	1b 90       	subs	#4,er0
  403bfa:	0f 87       	mov.l	er0,er7
  403bfc:	6f f3 00 02 	mov.w	r3,@(0x2:16,er7)
  403c00:	0f c0       	mov.l	er4,er0
  403c02:	5e 40 3a 60 	jsr	@0x403a60:24
  403c06:	0b 97       	adds	#4,er7
  403c08:	0b 97       	adds	#4,er7

00403c0a <.LM80>:
/home/consdrv.c:183
    kz_kmfree(p);
  403c0a:	01 00 6f 62 	mov.l	@(0xfff0:16,er6),er2
  403c0e:	ff f0 
  403c10:	0f a0       	mov.l	er2,er0
  403c12:	5e 40 27 5a 	jsr	@0x40275a:24

00403c16 <.LM81>:
/home/consdrv.c:180
    id = kz_recv(MSGBOX_ID_CONSOUTPUT, &size, &p);
  403c16:	58 00 ff 74 	bra	.-140 (0x403b8e)

00403c1a <_timerdrv_intr>:
timerdrv_intr():
/home/timerdrv.c:32
 * ・スレッドから呼ばれることがあるが，割込み禁止で呼び出している．
 * また非コンテキスト状態で呼ばれるため，システム・コールは利用してはいけない．
 * (サービス・コールを利用すること)
 */
static void timerdrv_intr(void)
{
  403c1a:	01 00 6d f6 	mov.l	er6,@-er7
  403c1e:	0f f6       	mov.l	er7,er6
  403c20:	1b 97       	subs	#4,er7

00403c22 <.LM2>:
/home/timerdrv.c:33
  struct timerreg *tim = &timerreg;
  403c22:	7a 02 00 40 	mov.l	#0x4044a8,er2
  403c26:	44 a8 
  403c28:	01 00 6f e2 	mov.l	er2,@(0xfffc:16,er6)
  403c2c:	ff fc 

00403c2e <.LM3>:
/home/timerdrv.c:35

  if (timer_is_expired(tim->index)) { /* タイマ割込み */
  403c2e:	01 00 6f 62 	mov.l	@(0xfffc:16,er6),er2
  403c32:	ff fc 
  403c34:	6f 22 00 04 	mov.w	@(0x4:16,er2),r2
  403c38:	0d 20       	mov.w	r2,r0
  403c3a:	5e 40 0d c0 	jsr	@0x400dc0:24
  403c3e:	0d 02       	mov.w	r0,r2
  403c40:	0d 22       	mov.w	r2,r2
  403c42:	47 1e       	beq	.+30 (0x403c62)

00403c44 <.LM4>:
/home/timerdrv.c:36
    timer_cancel(tim->index);
  403c44:	01 00 6f 62 	mov.l	@(0xfffc:16,er6),er2
  403c48:	ff fc 
  403c4a:	6f 22 00 04 	mov.w	@(0x4:16,er2),r2
  403c4e:	0d 20       	mov.w	r2,r0
  403c50:	5e 40 0e 62 	jsr	@0x400e62:24

00403c54 <.LM5>:
/home/timerdrv.c:37
    kx_send(MSGBOX_ID_TIMDRIVE, TIMERDRV_CMD_EXPIRE, NULL);
  403c54:	1a a2       	sub.l	er2,er2
  403c56:	79 01 00 65 	mov.w	#0x65,r1
  403c5a:	79 00 00 02 	mov.w	#0x2,r0
  403c5e:	5e 40 29 68 	jsr	@0x402968:24

00403c62 <.L3>:
/home/timerdrv.c:39
  }
}
  403c62:	00 00       	nop	
  403c64:	0b 97       	adds	#4,er7
  403c66:	01 00 6d 76 	mov.l	@er7+,er6
  403c6a:	54 70       	rts	

00403c6c <_timerdrv_init>:
timerdrv_init():
/home/timerdrv.c:43

// 初期化時にはタイマを1つ作成
static int timerdrv_init(void)
{
  403c6c:	01 00 6d f6 	mov.l	er6,@-er7
  403c70:	0f f6       	mov.l	er7,er6

00403c72 <.LM8>:
/home/timerdrv.c:44
  memset(&timerreg, 0, sizeof(timerreg));
  403c72:	1a a2       	sub.l	er2,er2
  403c74:	8a 08       	add.b	#0x8,r2l
  403c76:	19 11       	sub.w	r1,r1
  403c78:	7a 00 00 40 	mov.l	#0x4044a8,er0
  403c7c:	44 a8 
  403c7e:	5e 40 03 a0 	jsr	@0x4003a0:24

00403c82 <.LM9>:
/home/timerdrv.c:45
  timerreg.index = TIMER_DEFAULT_DEVICE;
  403c82:	79 02 00 01 	mov.w	#0x1,r2
  403c86:	6b a2 00 40 	mov.w	r2,@0x4044ac:32
  403c8a:	44 ac 

00403c8c <.LM10>:
/home/timerdrv.c:46
  return 0;
  403c8c:	19 22       	sub.w	r2,r2

00403c8e <.LM11>:
/home/timerdrv.c:47
}
  403c8e:	0d 20       	mov.w	r2,r0
  403c90:	01 00 6d 76 	mov.l	@er7+,er6
  403c94:	54 70       	rts	

00403c96 <_timerdrv_command>:
timerdrv_command():
/home/timerdrv.c:51

/* スレッドからの要求を処理する */
static int timerdrv_command(struct timerreg *tim, int cmd, char *p)
{
  403c96:	01 00 6d f6 	mov.l	er6,@-er7
  403c9a:	0f f6       	mov.l	er7,er6
  403c9c:	7a 37 00 00 	sub.l	#0x1c,er7
  403ca0:	00 1c 
  403ca2:	01 00 6f e0 	mov.l	er0,@(0xffec:16,er6)
  403ca6:	ff ec 
  403ca8:	6f e1 ff ea 	mov.w	r1,@(0xffea:16,er6)
  403cac:	01 00 6f e2 	mov.l	er2,@(0xffe4:16,er6)
  403cb0:	ff e4 

00403cb2 <.LM13>:
/home/timerdrv.c:57
  struct timerbuf *tmbuf;
  struct timerbuf **tmbufp;
  struct timerreq *req;
  int t, msec;

  switch (cmd) {
  403cb2:	6f 62 ff ea 	mov.w	@(0xffea:16,er6),r2
  403cb6:	79 22 00 65 	cmp.w	#0x65,r2
  403cba:	47 0c       	beq	.+12 (0x403cc8)
  403cbc:	79 22 00 73 	cmp.w	#0x73,r2
  403cc0:	58 70 00 8a 	beq	.+138 (0x403d4e)

00403cc4 <.LM14>:
/home/timerdrv.c:126

    kz_kmfree(p);
    break;

  default:
    break;
  403cc4:	58 00 02 48 	bra	.+584 (0x403f10)

00403cc8 <.L8>:
/home/timerdrv.c:60
    tmbuf = tim->timers;
  403cc8:	01 00 6f 62 	mov.l	@(0xffec:16,er6),er2
  403ccc:	ff ec 
  403cce:	01 00 69 22 	mov.l	@er2,er2
  403cd2:	01 00 6f e2 	mov.l	er2,@(0xfff0:16,er6)
  403cd6:	ff f0 

00403cd8 <.LM16>:
/home/timerdrv.c:62
    if (tmbuf) {
  403cd8:	01 00 6f 62 	mov.l	@(0xfff0:16,er6),er2
  403cdc:	ff f0 
  403cde:	0f a2       	mov.l	er2,er2
  403ce0:	58 70 02 2a 	beq	.+554 (0x403f0e)

00403ce4 <.LM17>:
/home/timerdrv.c:64
      tim->timers = tmbuf->next;
  403ce4:	01 00 6f 62 	mov.l	@(0xfff0:16,er6),er2
  403ce8:	ff f0 
  403cea:	01 00 69 23 	mov.l	@er2,er3
  403cee:	01 00 6f 62 	mov.l	@(0xffec:16,er6),er2
  403cf2:	ff ec 
  403cf4:	01 00 69 a3 	mov.l	er3,@er2

00403cf8 <.LM18>:
/home/timerdrv.c:66
      kz_send(tmbuf->id, 0, NULL);
  403cf8:	01 00 6f 62 	mov.l	@(0xfff0:16,er6),er2
  403cfc:	ff f0 
  403cfe:	6f 23 00 04 	mov.w	@(0x4:16,er2),r3
  403d02:	1a a2       	sub.l	er2,er2
  403d04:	19 11       	sub.w	r1,r1
  403d06:	0d 30       	mov.w	r3,r0
  403d08:	5e 40 27 9c 	jsr	@0x40279c:24

00403d0c <.LM19>:
/home/timerdrv.c:67
      kz_kmfree(tmbuf);
  403d0c:	01 00 6f 62 	mov.l	@(0xfff0:16,er6),er2
  403d10:	ff f0 
  403d12:	0f a0       	mov.l	er2,er0
  403d14:	5e 40 27 5a 	jsr	@0x40275a:24

00403d18 <.LM20>:
/home/timerdrv.c:69
      if (tim->timers)
  403d18:	01 00 6f 62 	mov.l	@(0xffec:16,er6),er2
  403d1c:	ff ec 
  403d1e:	01 00 69 22 	mov.l	@er2,er2
  403d22:	0f a2       	mov.l	er2,er2
  403d24:	58 70 01 e6 	beq	.+486 (0x403f0e)

00403d28 <.LM21>:
/home/timerdrv.c:70
        timer_start(tim->index, tim->timers->msec, 0);
  403d28:	01 00 6f 62 	mov.l	@(0xffec:16,er6),er2
  403d2c:	ff ec 
  403d2e:	01 00 69 22 	mov.l	@er2,er2
  403d32:	6f 20 00 06 	mov.w	@(0x6:16,er2),r0
  403d36:	01 00 6f 62 	mov.l	@(0xffec:16,er6),er2
  403d3a:	ff ec 
  403d3c:	6f 23 00 04 	mov.w	@(0x4:16,er2),r3
  403d40:	19 22       	sub.w	r2,r2
  403d42:	0d 01       	mov.w	r0,r1
  403d44:	0d 30       	mov.w	r3,r0
  403d46:	5e 40 0c e8 	jsr	@0x400ce8:24

00403d4a <.LM22>:
/home/timerdrv.c:72
    break;
  403d4a:	58 00 01 c0 	bra	.+448 (0x403f0e)

00403d4e <.L9>:
/home/timerdrv.c:75
    req = (struct timerreq *)p;
  403d4e:	01 00 6f 62 	mov.l	@(0xffe4:16,er6),er2
  403d52:	ff e4 
  403d54:	01 00 6f e2 	mov.l	er2,@(0xfff4:16,er6)
  403d58:	ff f4 

00403d5a <.LM24>:
/home/timerdrv.c:78
    tmbuf = kz_kmalloc(sizeof(*tmbuf));
  403d5a:	79 00 00 08 	mov.w	#0x8,r0
  403d5e:	5e 40 27 1c 	jsr	@0x40271c:24
  403d62:	01 00 6f e0 	mov.l	er0,@(0xfff0:16,er6)
  403d66:	ff f0 

00403d68 <.LM25>:
/home/timerdrv.c:79
    tmbuf->next = NULL;
  403d68:	01 00 6f 62 	mov.l	@(0xfff0:16,er6),er2
  403d6c:	ff f0 
  403d6e:	1a b3       	sub.l	er3,er3
  403d70:	01 00 69 a3 	mov.l	er3,@er2

00403d74 <.LM26>:
/home/timerdrv.c:80
    tmbuf->id   = req->id;
  403d74:	01 00 6f 62 	mov.l	@(0xfff4:16,er6),er2
  403d78:	ff f4 
  403d7a:	69 23       	mov.w	@er2,r3
  403d7c:	01 00 6f 62 	mov.l	@(0xfff0:16,er6),er2
  403d80:	ff f0 
  403d82:	6f a3 00 04 	mov.w	r3,@(0x4:16,er2)

00403d86 <.LM27>:
/home/timerdrv.c:81
    tmbuf->msec = req->msec;
  403d86:	01 00 6f 62 	mov.l	@(0xfff4:16,er6),er2
  403d8a:	ff f4 
  403d8c:	6f 23 00 02 	mov.w	@(0x2:16,er2),r3
  403d90:	01 00 6f 62 	mov.l	@(0xfff0:16,er6),er2
  403d94:	ff f0 
  403d96:	6f a3 00 06 	mov.w	r3,@(0x6:16,er2)

00403d9a <.LM28>:
/home/timerdrv.c:83
    t = 0;
  403d9a:	19 22       	sub.w	r2,r2
  403d9c:	6f e2 ff fa 	mov.w	r2,@(0xfffa:16,er6)

00403da0 <.LM29>:
/home/timerdrv.c:85
    if (tim->timers) {
  403da0:	01 00 6f 62 	mov.l	@(0xffec:16,er6),er2
  403da4:	ff ec 
  403da6:	01 00 69 22 	mov.l	@er2,er2
  403daa:	0f a2       	mov.l	er2,er2
  403dac:	47 14       	beq	.+20 (0x403dc2)

00403dae <.LM30>:
/home/timerdrv.c:87
      t = timer_gettime(tim->index);
  403dae:	01 00 6f 62 	mov.l	@(0xffec:16,er6),er2
  403db2:	ff ec 
  403db4:	6f 22 00 04 	mov.w	@(0x4:16,er2),r2
  403db8:	0d 20       	mov.w	r2,r0
  403dba:	5e 40 0f 1e 	jsr	@0x400f1e:24
  403dbe:	6f e0 ff fa 	mov.w	r0,@(0xfffa:16,er6)

00403dc2 <.L12>:
/home/timerdrv.c:90
    for (tmbufp = &tim->timers;; tmbufp = &(*tmbufp)->next) {
  403dc2:	01 00 6f 62 	mov.l	@(0xffec:16,er6),er2
  403dc6:	ff ec 
  403dc8:	01 00 6f e2 	mov.l	er2,@(0xfffc:16,er6)
  403dcc:	ff fc 

00403dce <.L18>:
/home/timerdrv.c:92
      if (*tmbufp == NULL) {
  403dce:	01 00 6f 62 	mov.l	@(0xfffc:16,er6),er2
  403dd2:	ff fc 
  403dd4:	01 00 69 22 	mov.l	@er2,er2
  403dd8:	0f a2       	mov.l	er2,er2
  403dda:	46 48       	bne	.+72 (0x403e24)

00403ddc <.LM33>:
/home/timerdrv.c:94
        *tmbufp = tmbuf;
  403ddc:	01 00 6f 62 	mov.l	@(0xfffc:16,er6),er2
  403de0:	ff fc 
  403de2:	01 00 6f 63 	mov.l	@(0xfff0:16,er6),er3
  403de6:	ff f0 
  403de8:	01 00 69 a3 	mov.l	er3,@er2

00403dec <.LM34>:
/home/timerdrv.c:96
        if (tmbufp == &tim->timers)
  403dec:	01 00 6f 62 	mov.l	@(0xffec:16,er6),er2
  403df0:	ff ec 
  403df2:	01 00 6f 63 	mov.l	@(0xfffc:16,er6),er3
  403df6:	ff fc 
  403df8:	1f a3       	cmp.l	er2,er3
  403dfa:	58 60 01 00 	bne	.+256 (0x403efe)

00403dfe <.LM35>:
/home/timerdrv.c:97
          timer_start(tim->index, tim->timers->msec, 0);
  403dfe:	01 00 6f 62 	mov.l	@(0xffec:16,er6),er2
  403e02:	ff ec 
  403e04:	01 00 69 22 	mov.l	@er2,er2
  403e08:	6f 20 00 06 	mov.w	@(0x6:16,er2),r0
  403e0c:	01 00 6f 62 	mov.l	@(0xffec:16,er6),er2
  403e10:	ff ec 
  403e12:	6f 23 00 04 	mov.w	@(0x4:16,er2),r3
  403e16:	19 22       	sub.w	r2,r2
  403e18:	0d 01       	mov.w	r0,r1
  403e1a:	0d 30       	mov.w	r3,r0
  403e1c:	5e 40 0c e8 	jsr	@0x400ce8:24

00403e20 <.LM36>:
/home/timerdrv.c:98
        break;
  403e20:	58 00 00 da 	bra	.+218 (0x403efe)

00403e24 <.L13>:
/home/timerdrv.c:101
      msec = (*tmbufp)->msec - t;
  403e24:	01 00 6f 62 	mov.l	@(0xfffc:16,er6),er2
  403e28:	ff fc 
  403e2a:	01 00 69 22 	mov.l	@er2,er2
  403e2e:	6f 23 00 06 	mov.w	@(0x6:16,er2),r3
  403e32:	6f 62 ff fa 	mov.w	@(0xfffa:16,er6),r2
  403e36:	0d 30       	mov.w	r3,r0
  403e38:	19 20       	sub.w	r2,r0
  403e3a:	0d 02       	mov.w	r0,r2
  403e3c:	6f e2 ff f8 	mov.w	r2,@(0xfff8:16,er6)

00403e40 <.LM38>:
/home/timerdrv.c:103
      if (msec < 0) msec = 0;
  403e40:	6f 62 ff f8 	mov.w	@(0xfff8:16,er6),r2
  403e44:	0d 22       	mov.w	r2,r2
  403e46:	4c 06       	bge	.+6 (0x403e4e)

00403e48 <.LM39>:
/home/timerdrv.c:103 (discriminator 1)
  403e48:	19 22       	sub.w	r2,r2
  403e4a:	6f e2 ff f8 	mov.w	r2,@(0xfff8:16,er6)

00403e4e <.L16>:
/home/timerdrv.c:106
      if (tmbuf->msec < msec) {
  403e4e:	01 00 6f 62 	mov.l	@(0xfff0:16,er6),er2
  403e52:	ff f0 
  403e54:	6f 22 00 06 	mov.w	@(0x6:16,er2),r2
  403e58:	6f 63 ff f8 	mov.w	@(0xfff8:16,er6),r3
  403e5c:	1d 23       	cmp.w	r2,r3
  403e5e:	4f 6a       	ble	.+106 (0x403eca)

00403e60 <.LM41>:
/home/timerdrv.c:108
        (*tmbufp)->msec = msec - tmbuf->msec;
  403e60:	01 00 6f 62 	mov.l	@(0xfff0:16,er6),er2
  403e64:	ff f0 
  403e66:	6f 23 00 06 	mov.w	@(0x6:16,er2),r3
  403e6a:	01 00 6f 62 	mov.l	@(0xfffc:16,er6),er2
  403e6e:	ff fc 
  403e70:	01 00 69 22 	mov.l	@er2,er2
  403e74:	6f 60 ff f8 	mov.w	@(0xfff8:16,er6),r0
  403e78:	0d 01       	mov.w	r0,r1
  403e7a:	19 31       	sub.w	r3,r1
  403e7c:	0d 13       	mov.w	r1,r3
  403e7e:	6f a3 00 06 	mov.w	r3,@(0x6:16,er2)

00403e82 <.LM42>:
/home/timerdrv.c:110
        tmbuf->next = *tmbufp;
  403e82:	01 00 6f 62 	mov.l	@(0xfffc:16,er6),er2
  403e86:	ff fc 
  403e88:	01 00 69 23 	mov.l	@er2,er3
  403e8c:	01 00 6f 62 	mov.l	@(0xfff0:16,er6),er2
  403e90:	ff f0 
  403e92:	01 00 69 a3 	mov.l	er3,@er2

00403e96 <.LM43>:
/home/timerdrv.c:111
        *tmbufp = tmbuf;
  403e96:	01 00 6f 62 	mov.l	@(0xfffc:16,er6),er2
  403e9a:	ff fc 
  403e9c:	01 00 6f 63 	mov.l	@(0xfff0:16,er6),er3
  403ea0:	ff f0 
  403ea2:	01 00 69 a3 	mov.l	er3,@er2

00403ea6 <.LM44>:
/home/timerdrv.c:113
        timer_start(tim->index, tim->timers->msec, 0);
  403ea6:	01 00 6f 62 	mov.l	@(0xffec:16,er6),er2
  403eaa:	ff ec 
  403eac:	01 00 69 22 	mov.l	@er2,er2
  403eb0:	6f 20 00 06 	mov.w	@(0x6:16,er2),r0
  403eb4:	01 00 6f 62 	mov.l	@(0xffec:16,er6),er2
  403eb8:	ff ec 
  403eba:	6f 23 00 04 	mov.w	@(0x4:16,er2),r3
  403ebe:	19 22       	sub.w	r2,r2
  403ec0:	0d 01       	mov.w	r0,r1
  403ec2:	0d 30       	mov.w	r3,r0
  403ec4:	5e 40 0c e8 	jsr	@0x400ce8:24

00403ec8 <.LM45>:
/home/timerdrv.c:114
        break;
  403ec8:	40 36       	bra	.+54 (0x403f00)

00403eca <.L17>:
/home/timerdrv.c:118
      t = 0;
  403eca:	19 22       	sub.w	r2,r2
  403ecc:	6f e2 ff fa 	mov.w	r2,@(0xfffa:16,er6)

00403ed0 <.LM47>:
/home/timerdrv.c:119
      tmbuf->msec -= msec;
  403ed0:	01 00 6f 62 	mov.l	@(0xfff0:16,er6),er2
  403ed4:	ff f0 
  403ed6:	6f 23 00 06 	mov.w	@(0x6:16,er2),r3
  403eda:	6f 62 ff f8 	mov.w	@(0xfff8:16,er6),r2
  403ede:	19 23       	sub.w	r2,r3
  403ee0:	01 00 6f 62 	mov.l	@(0xfff0:16,er6),er2
  403ee4:	ff f0 
  403ee6:	6f a3 00 06 	mov.w	r3,@(0x6:16,er2)

00403eea <.LM48>:
/home/timerdrv.c:90
    for (tmbufp = &tim->timers;; tmbufp = &(*tmbufp)->next) {
  403eea:	01 00 6f 62 	mov.l	@(0xfffc:16,er6),er2
  403eee:	ff fc 
  403ef0:	01 00 69 22 	mov.l	@er2,er2
  403ef4:	01 00 6f e2 	mov.l	er2,@(0xfffc:16,er6)
  403ef8:	ff fc 

00403efa <.LM49>:
/home/timerdrv.c:92
      if (*tmbufp == NULL) {
  403efa:	58 00 fe d0 	bra	.-304 (0x403dce)

00403efe <.L21>:
	...

00403f00 <.L15>:
/home/timerdrv.c:122
    kz_kmfree(p);
  403f00:	01 00 6f 62 	mov.l	@(0xffe4:16,er6),er2
  403f04:	ff e4 
  403f06:	0f a0       	mov.l	er2,er0
  403f08:	5e 40 27 5a 	jsr	@0x40275a:24

00403f0c <.LM52>:
/home/timerdrv.c:123
    break;
  403f0c:	40 02       	bra	.+2 (0x403f10)

00403f0e <.L20>:
	...

00403f10 <.L11>:
/home/timerdrv.c:129
  }

  return 0;
  403f10:	19 22       	sub.w	r2,r2

00403f12 <.LM55>:
/home/timerdrv.c:130
}
  403f12:	0d 20       	mov.w	r2,r0
  403f14:	7a 17 00 00 	add.l	#0x1c,er7
  403f18:	00 1c 
  403f1a:	01 00 6d 76 	mov.l	@er7+,er6
  403f1e:	54 70       	rts	

00403f20 <_timerdrv_main>:
timerdrv_main():
/home/timerdrv.c:133

int timerdrv_main(int argc, char *argv[])
{
  403f20:	01 00 6d f6 	mov.l	er6,@-er7
  403f24:	0f f6       	mov.l	er7,er6
  403f26:	7a 37 00 00 	sub.l	#0x10,er7
  403f2a:	00 10 
  403f2c:	6f e0 ff f6 	mov.w	r0,@(0xfff6:16,er6)
  403f30:	01 00 6f e1 	mov.l	er1,@(0xfff0:16,er6)
  403f34:	ff f0 

00403f36 <.LM57>:
/home/timerdrv.c:137
  int cmd;
  char *p;

  timerdrv_init();
  403f36:	5e 40 3c 6c 	jsr	@0x403c6c:24

00403f3a <.LM58>:
/home/timerdrv.c:138
  kz_setintr(SOFTVEC_TYPE_TIMINTR, timerdrv_intr); /* 割込みハンドラ設定 */
  403f3a:	7a 01 00 40 	mov.l	#0x403c1a,er1
  403f3e:	3c 1a 
  403f40:	79 00 00 03 	mov.w	#0x3,r0
  403f44:	5e 40 28 58 	jsr	@0x402858:24

00403f48 <.L23>:
/home/timerdrv.c:142 (discriminator 1)

  while (1) {
    // timerdrv は、メッセージを受信したら処理することを繰り返すタスク
    kz_recv(MSGBOX_ID_TIMDRIVE, &cmd, &p);
  403f48:	0f e2       	mov.l	er6,er2
  403f4a:	1b 92       	subs	#4,er2
  403f4c:	1b 92       	subs	#4,er2
  403f4e:	0f e3       	mov.l	er6,er3
  403f50:	1b 83       	subs	#2,er3
  403f52:	0f b1       	mov.l	er3,er1
  403f54:	79 00 00 02 	mov.w	#0x2,r0
  403f58:	5e 40 27 f6 	jsr	@0x4027f6:24

00403f5c <.LM60>:
/home/timerdrv.c:143
    timerdrv_command(&timerreg, cmd, p);
  403f5c:	01 00 6f 62 	mov.l	@(0xfff8:16,er6),er2
  403f60:	ff f8 
  403f62:	6f 63 ff fe 	mov.w	@(0xfffe:16,er6),r3
  403f66:	0d 31       	mov.w	r3,r1
  403f68:	7a 00 00 40 	mov.l	#0x4044a8,er0
  403f6c:	44 a8 
  403f6e:	5e 40 3c 96 	jsr	@0x403c96:24

00403f72 <.LM61>:
/home/timerdrv.c:142
    kz_recv(MSGBOX_ID_TIMDRIVE, &cmd, &p);
  403f72:	40 d4       	bra	.-44 (0x403f48)

00403f74 <_etherdrv_intr>:
etherdrv_intr():
/home/etherdrv.c:13

#define ETHER_BUFFER_SIZE 1800

/* 割込みハンドラ */
static void etherdrv_intr(void)
{
  403f74:	01 00 6d f6 	mov.l	er6,@-er7
  403f78:	0f f6       	mov.l	er7,er6
  403f7a:	7a 37 00 00 	sub.l	#0x8,er7
  403f7e:	00 08 

00403f80 <.LM2>:
/home/etherdrv.c:20
  // つまり Ethernet フレームを受信した場合
  int size;
  char *buffer;

  // 0番目の nic で？割込みが発生したかどうかを確認
  if (ether_checkintr(0)) {
  403f80:	19 00       	sub.w	r0,r0
  403f82:	5e 40 14 4c 	jsr	@0x40144c:24
  403f86:	0d 02       	mov.w	r0,r2
  403f88:	0d 22       	mov.w	r2,r2
  403f8a:	47 4a       	beq	.+74 (0x403fd6)

00403f8c <.LM3>:
/home/etherdrv.c:21
    buffer = kx_kmalloc(ETHER_BUFFER_SIZE);
  403f8c:	79 00 07 08 	mov.w	#0x708,r0
  403f90:	5e 40 28 e8 	jsr	@0x4028e8:24
  403f94:	01 00 6f e0 	mov.l	er0,@(0xfffc:16,er6)
  403f98:	ff fc 

00403f9a <.LM4>:
/home/etherdrv.c:22
    size = ether_recv(0, buffer);
  403f9a:	01 00 6f 62 	mov.l	@(0xfffc:16,er6),er2
  403f9e:	ff fc 
  403fa0:	0f a1       	mov.l	er2,er1
  403fa2:	19 00       	sub.w	r0,r0
  403fa4:	5e 40 14 ce 	jsr	@0x4014ce:24
  403fa8:	6f e0 ff fa 	mov.w	r0,@(0xfffa:16,er6)

00403fac <.LM5>:
/home/etherdrv.c:23
    if (size > 0)
  403fac:	6f 62 ff fa 	mov.w	@(0xfffa:16,er6),r2
  403fb0:	0d 22       	mov.w	r2,r2
  403fb2:	4f 16       	ble	.+22 (0x403fca)

00403fb4 <.LM6>:
/home/etherdrv.c:25
      // Ethernet フレームを受信したというメッセージを送る
      kx_send(MSGBOX_ID_ETHINPUT, size, buffer);
  403fb4:	01 00 6f 62 	mov.l	@(0xfffc:16,er6),er2
  403fb8:	ff fc 
  403fba:	6f 63 ff fa 	mov.w	@(0xfffa:16,er6),r3
  403fbe:	0d 31       	mov.w	r3,r1
  403fc0:	79 00 00 04 	mov.w	#0x4,r0
  403fc4:	5e 40 29 68 	jsr	@0x402968:24

00403fc8 <.LM7>:
/home/etherdrv.c:29
    else
      kx_kmfree(buffer);
  }
}
  403fc8:	40 0c       	bra	.+12 (0x403fd6)

00403fca <.L3>:
/home/etherdrv.c:27
      kx_kmfree(buffer);
  403fca:	01 00 6f 62 	mov.l	@(0xfffc:16,er6),er2
  403fce:	ff fc 
  403fd0:	0f a0       	mov.l	er2,er0
  403fd2:	5e 40 29 26 	jsr	@0x402926:24

00403fd6 <.L4>:
/home/etherdrv.c:29
}
  403fd6:	00 00       	nop	
  403fd8:	0b 97       	adds	#4,er7
  403fda:	0b 97       	adds	#4,er7
  403fdc:	01 00 6d 76 	mov.l	@er7+,er6
  403fe0:	54 70       	rts	

00403fe2 <_etherdrv_init>:
etherdrv_init():
/home/etherdrv.c:33

// ドライバの初期化
static int etherdrv_init(void)
{
  403fe2:	01 00 6d f6 	mov.l	er6,@-er7
  403fe6:	0f f6       	mov.l	er7,er6

00403fe8 <.LM11>:
/home/etherdrv.c:34
  return 0;
  403fe8:	19 22       	sub.w	r2,r2

00403fea <.LM12>:
/home/etherdrv.c:35
}
  403fea:	0d 20       	mov.w	r2,r0
  403fec:	01 00 6d 76 	mov.l	@er7+,er6
  403ff0:	54 70       	rts	

00403ff2 <_etherdrv_command>:
etherdrv_command():
/home/etherdrv.c:39

/* スレッドからの要求を処理する */
static int etherdrv_command(int size, char *command)
{
  403ff2:	01 00 6d f6 	mov.l	er6,@-er7
  403ff6:	0f f6       	mov.l	er7,er6
  403ff8:	7a 37 00 00 	sub.l	#0x8,er7
  403ffc:	00 08 
  403ffe:	6f e0 ff fe 	mov.w	r0,@(0xfffe:16,er6)
  404002:	01 00 6f e1 	mov.l	er1,@(0xfff8:16,er6)
  404006:	ff f8 

00404008 <.LM14>:
/home/etherdrv.c:41
  // 1文字目がコマンド
  switch (command[0]) {
  404008:	01 00 6f 62 	mov.l	@(0xfff8:16,er6),er2
  40400c:	ff f8 
  40400e:	68 2a       	mov.b	@er2,r2l
  404010:	17 52       	extu.w	r2
  404012:	79 22 00 73 	cmp.w	#0x73,r2
  404016:	47 16       	beq	.+22 (0x40402e)
  404018:	79 22 00 75 	cmp.w	#0x75,r2
  40401c:	47 02       	beq	.+2 (0x404020)

0040401e <.LM15>:
/home/etherdrv.c:53
    // Ethernet フレームを出力
    ether_send(0, size - 1, command + 1);
    break;

  default:
    break;
  40401e:	40 2c       	bra	.+44 (0x40404c)

00404020 <.L10>:
/home/etherdrv.c:43
    ether_init(0);
  404020:	19 00       	sub.w	r0,r0
  404022:	5e 40 11 d4 	jsr	@0x4011d4:24

00404026 <.LM17>:
/home/etherdrv.c:44
    ether_intr_enable(0); /* 受信割込み有効化(受信開始) */
  404026:	19 00       	sub.w	r0,r0
  404028:	5e 40 13 f8 	jsr	@0x4013f8:24

0040402c <.LM18>:
/home/etherdrv.c:45
    break;
  40402c:	40 1e       	bra	.+30 (0x40404c)

0040402e <.L9>:
/home/etherdrv.c:49
    ether_send(0, size - 1, command + 1);
  40402e:	01 00 6f 62 	mov.l	@(0xfff8:16,er6),er2
  404032:	ff f8 
  404034:	0f a0       	mov.l	er2,er0
  404036:	0b 00       	adds	#1,er0
  404038:	6f 62 ff fe 	mov.w	@(0xfffe:16,er6),r2
  40403c:	0d 23       	mov.w	r2,r3
  40403e:	1b 03       	subs	#1,er3
  404040:	0f 82       	mov.l	er0,er2
  404042:	0d 31       	mov.w	r3,r1
  404044:	19 00       	sub.w	r0,r0
  404046:	5e 40 15 de 	jsr	@0x4015de:24

0040404a <.LM20>:
	...

0040404c <.L11>:
/home/etherdrv.c:56
  }

  return 0;
  40404c:	19 22       	sub.w	r2,r2

0040404e <.LM22>:
/home/etherdrv.c:57
}
  40404e:	0d 20       	mov.w	r2,r0
  404050:	0b 97       	adds	#4,er7
  404052:	0b 97       	adds	#4,er7
  404054:	01 00 6d 76 	mov.l	@er7+,er6
  404058:	54 70       	rts	

0040405a <_etherdrv_main>:
etherdrv_main():
/home/etherdrv.c:60

int etherdrv_main(int argc, char *argv[])
{
  40405a:	01 00 6d f6 	mov.l	er6,@-er7
  40405e:	0f f6       	mov.l	er7,er6
  404060:	7a 37 00 00 	sub.l	#0x10,er7
  404064:	00 10 
  404066:	6f e0 ff f6 	mov.w	r0,@(0xfff6:16,er6)
  40406a:	01 00 6f e1 	mov.l	er1,@(0xfff0:16,er6)
  40406e:	ff f0 

00404070 <.LM24>:
/home/etherdrv.c:64
  int size;
  char *p;

  etherdrv_init();
  404070:	5e 40 3f e2 	jsr	@0x403fe2:24

00404074 <.LM25>:
/home/etherdrv.c:65
  kz_setintr(SOFTVEC_TYPE_ETHINTR, etherdrv_intr); /* 割込みハンドラ設定 */
  404074:	7a 01 00 40 	mov.l	#0x403f74,er1
  404078:	3f 74 
  40407a:	79 00 00 04 	mov.w	#0x4,r0
  40407e:	5e 40 28 58 	jsr	@0x402858:24

00404082 <.L14>:
/home/etherdrv.c:69 (discriminator 1)

  while (1) {
    // etherdrv ドライバへのメッセージを受信
    kz_recv(MSGBOX_ID_ETHOUTPUT, &size, &p);
  404082:	0f e2       	mov.l	er6,er2
  404084:	1b 92       	subs	#4,er2
  404086:	1b 92       	subs	#4,er2
  404088:	0f e3       	mov.l	er6,er3
  40408a:	1b 83       	subs	#2,er3
  40408c:	0f b1       	mov.l	er3,er1
  40408e:	79 00 00 05 	mov.w	#0x5,r0
  404092:	5e 40 27 f6 	jsr	@0x4027f6:24

00404096 <.LM27>:
/home/etherdrv.c:71
    // 内容に応じて処理し、メモリを解放
    etherdrv_command(size, p);
  404096:	01 00 6f 63 	mov.l	@(0xfff8:16,er6),er3
  40409a:	ff f8 
  40409c:	6f 62 ff fe 	mov.w	@(0xfffe:16,er6),r2
  4040a0:	0f b1       	mov.l	er3,er1
  4040a2:	0d 20       	mov.w	r2,r0
  4040a4:	5e 40 3f f2 	jsr	@0x403ff2:24

004040a8 <.LM28>:
/home/etherdrv.c:72
    kz_kmfree(p);
  4040a8:	01 00 6f 62 	mov.l	@(0xfff8:16,er6),er2
  4040ac:	ff f8 
  4040ae:	0f a0       	mov.l	er2,er0
  4040b0:	5e 40 27 5a 	jsr	@0x40275a:24

004040b4 <.LM29>:
/home/etherdrv.c:69
    kz_recv(MSGBOX_ID_ETHOUTPUT, &size, &p);
  4040b4:	40 cc       	bra	.-52 (0x404082)

Disassembly of section .rodata:

004040b8 <_rodata_start>:
.LC0():
  4040b8:	63 6f       	btst	r6h,r7l
  4040ba:	6e 73 64 72 	mov.b	@(0x6472:16,er7),r3h
  4040be:	76 00       	band	#0x0,r0h

004040c0 <.LC1>:
.LC1():
  4040c0:	63 6f       	btst	r6h,r7l
  4040c2:	6d 6d       	mov.w	@er6+,e5
  4040c4:	61 6e       	bnot	r6h,r6l
  4040c6:	64 00       	or.w	r0,r0

004040c8 <.LC2>:
.LC2():
  4040c8:	74 69       	bor	#0x6,r1l
  4040ca:	6d 65       	mov.w	@er6+,r5
  4040cc:	72 64       	bclr	#0x6,r4h
  4040ce:	72 76       	bclr	#0x7,r6h
	...

004040d1 <.LC3>:
.LC3():
  4040d1:	65 74       	xor.w	r7,r4
  4040d3:	68 65       	mov.b	@er6,r5h
  4040d5:	72 64       	bclr	#0x6,r4h
  4040d7:	72 76       	bclr	#0x7,r6h
	...

004040da <.LC4>:
.LC4():
  4040da:	69 70       	mov.w	@er7,r0
	...

004040dd <.LC5>:
.LC5():
  4040dd:	6b 6f       	.word	H'6b,H'6f
  4040df:	7a 6f 73 20 	and.l	#0x7320,er7
  4040e3:	62 6f       	bclr	r6h,r7l
  4040e5:	6f 74 20 73 	mov.w	@(0x2073:16,er7),r4
  4040e9:	75 63       	bxor	#0x6,r3h
  4040eb:	63 65       	btst	r6h,r5h
  4040ed:	65 64       	xor.w	r6,r4
  4040ef:	21 0a       	mov.b	@0xa:8,r1h
	...

004040f2 <.LC6>:
.LC6():
  4040f2:	69 64       	mov.w	@er6,r4
  4040f4:	6c 65       	mov.b	@er6+,r5h
	...

004040f7 <.LC0>:
.LC0():
  4040f7:	30 31       	mov.b	r0h,@0x31:8
  4040f9:	32 33       	mov.b	r2h,@0x33:8
  4040fb:	34 35       	mov.b	r4h,@0x35:8
  4040fd:	36 37       	mov.b	r6h,@0x37:8
  4040ff:	38 39       	mov.b	r0l,@0x39:8
  404101:	61 62       	bnot	r6h,r2h
  404103:	63 64       	btst	r6h,r4h
  404105:	65 66       	xor.w	r6,r6
	...

00404108 <.LC0>:
  404108:	4d 41       	.word	H'4d,H'41
  40410a:	43 3a       	bls	.+58 (0x404146)
  40410c:	20 00       	mov.b	@0x0:8,r0h

0040410e <.LC1>:
.LC1():
  40410e:	0a 00       	inc	r0h

00404110 <.LC0>:
.LC0():
  404110:	20 45       	mov.b	@0x45:8,r0h
  404112:	58 49       	.word	H'58,H'49
  404114:	54 2e       	.word	H'54,H'2e
  404116:	0a 00       	inc	r0h

00404118 <.L61>:
.L61():
  404118:	00 40       	.word	H'0,H'40
  40411a:	20 3a       	mov.b	@0x3a:8,r0h
  40411c:	00 40       	.word	H'0,H'40
  40411e:	20 ba       	mov.b	@0xba:8,r0h
  404120:	00 40       	.word	H'0,H'40
  404122:	20 c2       	mov.b	@0xc2:8,r0h
  404124:	00 40       	.word	H'0,H'40
  404126:	20 d4       	mov.b	@0xd4:8,r0h
  404128:	00 40       	.word	H'0,H'40
  40412a:	20 e6       	mov.b	@0xe6:8,r0h
  40412c:	00 40       	.word	H'0,H'40
  40412e:	21 06       	mov.b	@0x6:8,r1h
  404130:	00 40       	.word	H'0,H'40
  404132:	21 1a       	mov.b	@0x1a:8,r1h
  404134:	00 40       	.word	H'0,H'40
  404136:	21 38       	mov.b	@0x38:8,r1h
  404138:	00 40       	.word	H'0,H'40
  40413a:	21 58       	mov.b	@0x58:8,r1h
  40413c:	00 40       	.word	H'0,H'40
  40413e:	21 78       	mov.b	@0x78:8,r1h
  404140:	00 40       	.word	H'0,H'40
  404142:	21 ae       	mov.b	@0xae:8,r1h
  404144:	00 40       	.word	H'0,H'40
  404146:	21 e8       	mov.b	@0xe8:8,r1h

00404148 <.LC1>:
.LC1():
  404148:	20 44       	mov.b	@0x44:8,r0h
  40414a:	4f 57       	.word	H'4f,H'57
  40414c:	4e 2e       	bgt	.+46 (0x40417c)
  40414e:	0a 00       	inc	r0h

00404150 <.LC2>:
.LC2():
  404150:	73 79       	btst	#0x7,r1l
  404152:	73 74       	btst	#0x7,r4h
  404154:	65 6d       	xor.w	r6,e5
  404156:	20 65       	mov.b	@0x65:8,r0h
  404158:	72 72       	bclr	#0x7,r2h
  40415a:	6f 72 21 0a 	mov.w	@(0x210a:16,er7),r2
	...

00404160 <.LC0>:
.LC0():
  404160:	63 6f       	btst	r6h,r7l
  404162:	6d 6d       	mov.w	@er6+,e5
  404164:	61 6e       	bnot	r6h,r6l
  404166:	64 3e       	or.w	r3,e6
  404168:	20 00       	mov.b	@0x0:8,r0h

0040416a <.LC1>:
.LC1():
  40416a:	65 78       	xor.w	r7,e0
  40416c:	70 69       	bset	#0x6,r1l
  40416e:	72 65       	bclr	#0x6,r5h
  404170:	64 2e       	or.w	r2,e6
  404172:	0a 00       	inc	r0h

00404174 <.LC2>:
.LC2():
  404174:	65 63       	xor.w	r6,r3
  404176:	68 6f       	mov.b	@er6,r7l
	...

00404179 <.LC3>:
.LC3():
  404179:	0a 00       	inc	r0h

0040417b <.LC4>:
.LC4():
  40417b:	74 69       	bor	#0x6,r1l
  40417d:	6d 65       	mov.w	@er6+,r5
  40417f:	72 00       	bclr	#0x0,r0h

00404181 <.LC5>:
.LC5():
  404181:	74 69       	bor	#0x6,r1l
  404183:	6d 65       	mov.w	@er6+,r5
  404185:	72 20       	bclr	#0x2,r0h
  404187:	73 74       	btst	#0x7,r4h
  404189:	61 72       	bnot	r7h,r2h
  40418b:	74 2e       	bor	#0x2,r6l
  40418d:	0a 00       	inc	r0h

0040418f <.LC6>:
.LC6():
  40418f:	75 6e       	bxor	#0x6,r6l
  404191:	6b 6e       	.word	H'6b,H'6e
  404193:	6f 77 6e 2e 	mov.w	@(0x6e2e:16,er7),r7
  404197:	0a 00       	inc	r0h

00404199 <.LC0>:
.LC0():
  404199:	72 65       	bclr	#0x6,r5h
  40419b:	61 64       	bnot	r6h,r4h
  40419d:	79 2e 0a 00 	cmp.w	#0xa00,e6

004041a1 <.LC0>:
  4041a1:	00 11       	.word	H'0,H'11
  4041a3:	22 33       	mov.b	@0x33:8,r2h
  4041a5:	44 55       	.word	H'44,H'55
	...

004041a8 <.LC1>:
.LC1():
  4041a8:	6e 65 74 77 	mov.b	@(0x7477:16,er6),r5h
  4041ac:	6f 72 6b 20 	mov.w	@(0x6b20:16,er7),r2
  4041b0:	72 65       	bclr	#0x6,r5h
  4041b2:	61 64       	bnot	r6h,r4h
  4041b4:	79 2e 0a 00 	cmp.w	#0xa00,e6

004041b8 <.LC2>:
.LC2():
  4041b8:	72 65       	bclr	#0x6,r5h
  4041ba:	70 6c       	bset	#0x6,r4l
  4041bc:	79 65 64 2e 	and.w	#0x642e,r5
  4041c0:	0a 00       	inc	r0h

004041c2 <.LC3>:
.LC3():
  4041c2:	6e 6f 20 72 	mov.b	@(0x2072:16,er6),r7l
  4041c6:	65 70       	xor.w	r7,r0
  4041c8:	6c 79       	mov.b	@er7+,r1l
  4041ca:	2e 0a       	mov.b	@0xa:8,r6l
	...

Disassembly of section .data:

004041d0 <_data_start>:
_data_start():
  4041d0:	00 ff       	.word	H'0,H'ff
  4041d2:	ff b0       	mov.b	#0xb0,r7l
  4041d4:	00 ff       	.word	H'0,H'ff
  4041d6:	ff b8       	mov.b	#0xb8,r7l
  4041d8:	00 ff       	.word	H'0,H'ff
  4041da:	ff c0       	mov.b	#0xc0,r7l

004041dc <_regs>:
  4041dc:	00 ff       	.word	H'0,H'ff
  4041de:	ff 80       	mov.b	#0x80,r7l
  4041e0:	00 ff       	.word	H'0,H'ff
  4041e2:	ff 90       	mov.b	#0x90,r7l

004041e4 <_thread_stack___1156>:
  4041e4:	00 ff       	.word	H'0,H'ff
  4041e6:	c0 00       	or.b	#0x0,r0h

004041e8 <_pool>:
  4041e8:	00 10       	.word	H'0,H'10
  4041ea:	00 20       	.word	H'0,H'20
  4041ec:	00 00       	nop	
  4041ee:	00 00       	nop	
  4041f0:	00 20       	.word	H'0,H'20
  4041f2:	00 20       	.word	H'0,H'20
  4041f4:	00 00       	nop	
  4041f6:	00 00       	nop	
  4041f8:	00 40       	.word	H'0,H'40
  4041fa:	00 20       	.word	H'0,H'20
  4041fc:	00 00       	nop	
  4041fe:	00 00       	nop	
  404200:	08 00       	add.b	r0h,r0h
  404202:	00 10       	.word	H'0,H'10
  404204:	00 00       	nop	
	...

00404208 <_area___1104>:
  404208:	00 40       	.word	H'0,H'40
  40420a:	44 b4       	bcc	.-76 (0x4041c0)

0040420c <_ipaddr>:
  40420c:	0b 00       	adds	#1,er0
  40420e:	00 02       	.word	H'0,H'2

Disassembly of section .bss:

00404210 <_bss_start>:
	...

00404290 <_current>:
_bss_start():
  404290:	00 00       	nop	
	...

00404294 <_threads>:
	...

00404414 <_handlers>:
	...

00404428 <_msgboxes>:
	...

00404488 <_consreg>:
	...

004044a8 <_timerreg>:
	...

004044b0 <_network_id>:
  4044b0:	00 00       	nop	
	...

Disassembly of section .debug_frame:

00000000 <.Lframe0>:
.Lframe0():
       0:	00 00       	nop	
       2:	00 10       	.word	H'0,H'10
       4:	ff ff       	mov.b	#0xff,r7l
       6:	ff ff       	mov.b	#0xff,r7l
       8:	03 00       	ldc	r0h,ccr
       a:	01 02       	.word	H'1,H'2
       c:	0c 0c       	mov.b	r0h,r4l
       e:	07 04       	ldc	#0x4,ccr
      10:	11 0c       	shlr.b	r4l
      12:	7e 00       	.word	H'7e,H'0
      14:	00 00       	nop	
      16:	00 20       	.word	H'0,H'20
      18:	00 00       	nop	
      1a:	00 00       	nop	
      1c:	00 40       	.word	H'0,H'40
      1e:	01 2e       	.word	H'1,H'2e
      20:	00 00       	nop	
      22:	01 46       	.word	H'1,H'46
      24:	04 00       	orc	#0x0,ccr
      26:	00 00       	nop	
      28:	04 0e       	orc	#0xe,ccr
      2a:	08 11       	add.b	r1h,r1h
      2c:	06 7c       	andc	#0x7c,ccr
      2e:	04 00       	orc	#0x0,ccr
      30:	00 00       	nop	
      32:	02 0d       	stc	ccr,r5l
      34:	06 00       	andc	#0x0,ccr
      36:	00 00       	nop	
      38:	00 00       	nop	
      3a:	00 20       	.word	H'0,H'20
      3c:	00 00       	nop	
      3e:	00 00       	nop	
      40:	00 40       	.word	H'0,H'40
      42:	02 74       	stc	sbr,er4
      44:	00 00       	nop	
      46:	00 54       	.word	H'0,H'54
      48:	04 00       	orc	#0x0,ccr
      4a:	00 00       	nop	
      4c:	04 0e       	orc	#0xe,ccr
      4e:	08 11       	add.b	r1h,r1h
      50:	06 7c       	andc	#0x7c,ccr
      52:	04 00       	orc	#0x0,ccr
      54:	00 00       	nop	
      56:	02 0d       	stc	ccr,r5l
      58:	06 00       	andc	#0x0,ccr
	...

0000005c <.Lframe0>:
      5c:	00 00       	nop	
      5e:	00 10       	.word	H'0,H'10
      60:	ff ff       	mov.b	#0xff,r7l
      62:	ff ff       	mov.b	#0xff,r7l
      64:	03 00       	ldc	r0h,ccr
      66:	01 02       	.word	H'1,H'2
      68:	0c 0c       	mov.b	r0h,r4l
      6a:	07 04       	ldc	#0x4,ccr
      6c:	11 0c       	shlr.b	r4l
      6e:	7e 00       	.word	H'7e,H'0
      70:	00 00       	nop	
      72:	00 20       	.word	H'0,H'20
      74:	00 00       	nop	
      76:	00 5c       	.word	H'0,H'5c
      78:	00 40       	.word	H'0,H'40
      7a:	02 c8       	.word	H'2,H'c8
      7c:	00 00       	nop	
      7e:	00 3c       	.word	H'0,H'3c
      80:	04 00       	orc	#0x0,ccr
      82:	00 00       	nop	
      84:	04 0e       	orc	#0xe,ccr
      86:	08 11       	add.b	r1h,r1h
      88:	06 7c       	andc	#0x7c,ccr
      8a:	04 00       	orc	#0x0,ccr
      8c:	00 00       	nop	
      8e:	02 0d       	stc	ccr,r5l
      90:	06 00       	andc	#0x0,ccr
      92:	00 00       	nop	
      94:	00 00       	nop	
      96:	00 20       	.word	H'0,H'20
      98:	00 00       	nop	
      9a:	00 5c       	.word	H'0,H'5c
      9c:	00 40       	.word	H'0,H'40
      9e:	03 04       	ldc	r4h,ccr
      a0:	00 00       	nop	
      a2:	00 3e       	.word	H'0,H'3e
      a4:	04 00       	orc	#0x0,ccr
      a6:	00 00       	nop	
      a8:	04 0e       	orc	#0xe,ccr
      aa:	08 11       	add.b	r1h,r1h
      ac:	06 7c       	andc	#0x7c,ccr
      ae:	04 00       	orc	#0x0,ccr
      b0:	00 00       	nop	
      b2:	02 0d       	stc	ccr,r5l
      b4:	06 00       	andc	#0x0,ccr
      b6:	00 00       	nop	
      b8:	00 00       	nop	
      ba:	00 20       	.word	H'0,H'20
      bc:	00 00       	nop	
      be:	00 5c       	.word	H'0,H'5c
      c0:	00 40       	.word	H'0,H'40
      c2:	03 42       	.word	H'3,H'42
      c4:	00 00       	nop	
      c6:	00 5e       	.word	H'0,H'5e
      c8:	04 00       	orc	#0x0,ccr
      ca:	00 00       	nop	
      cc:	04 0e       	orc	#0xe,ccr
      ce:	08 11       	add.b	r1h,r1h
      d0:	06 7c       	andc	#0x7c,ccr
      d2:	04 00       	orc	#0x0,ccr
      d4:	00 00       	nop	
      d6:	02 0d       	stc	ccr,r5l
      d8:	06 00       	andc	#0x0,ccr
	...

000000dc <.Lframe0>:
      dc:	00 00       	nop	
      de:	00 10       	.word	H'0,H'10
      e0:	ff ff       	mov.b	#0xff,r7l
      e2:	ff ff       	mov.b	#0xff,r7l
      e4:	03 00       	ldc	r0h,ccr
      e6:	01 02       	.word	H'1,H'2
      e8:	0c 0c       	mov.b	r0h,r4l
      ea:	07 04       	ldc	#0x4,ccr
      ec:	11 0c       	shlr.b	r4l
      ee:	7e 00       	.word	H'7e,H'0
      f0:	00 00       	nop	
      f2:	00 20       	.word	H'0,H'20
      f4:	00 00       	nop	
      f6:	00 dc       	.word	H'0,H'dc
      f8:	00 40       	.word	H'0,H'40
      fa:	03 a0       	ldmac	er0,mach
      fc:	00 00       	nop	
      fe:	00 6c       	.word	H'0,H'6c
     100:	04 00       	orc	#0x0,ccr
     102:	00 00       	nop	
     104:	04 0e       	orc	#0xe,ccr
     106:	08 11       	add.b	r1h,r1h
     108:	06 7c       	andc	#0x7c,ccr
     10a:	04 00       	orc	#0x0,ccr
     10c:	00 00       	nop	
     10e:	02 0d       	stc	ccr,r5l
     110:	06 00       	andc	#0x0,ccr
     112:	00 00       	nop	
     114:	00 00       	nop	
     116:	00 20       	.word	H'0,H'20
     118:	00 00       	nop	
     11a:	00 dc       	.word	H'0,H'dc
     11c:	00 40       	.word	H'0,H'40
     11e:	04 0c       	orc	#0xc,ccr
     120:	00 00       	nop	
     122:	00 88       	.word	H'0,H'88
     124:	04 00       	orc	#0x0,ccr
     126:	00 00       	nop	
     128:	04 0e       	orc	#0xe,ccr
     12a:	08 11       	add.b	r1h,r1h
     12c:	06 7c       	andc	#0x7c,ccr
     12e:	04 00       	orc	#0x0,ccr
     130:	00 00       	nop	
     132:	02 0d       	stc	ccr,r5l
     134:	06 00       	andc	#0x0,ccr
     136:	00 00       	nop	
     138:	00 00       	nop	
     13a:	00 20       	.word	H'0,H'20
     13c:	00 00       	nop	
     13e:	00 dc       	.word	H'0,H'dc
     140:	00 40       	.word	H'0,H'40
     142:	04 94       	orc	#0x94,ccr
     144:	00 00       	nop	
     146:	00 b0       	.word	H'0,H'b0
     148:	04 00       	orc	#0x0,ccr
     14a:	00 00       	nop	
     14c:	04 0e       	orc	#0xe,ccr
     14e:	08 11       	add.b	r1h,r1h
     150:	06 7c       	andc	#0x7c,ccr
     152:	04 00       	orc	#0x0,ccr
     154:	00 00       	nop	
     156:	02 0d       	stc	ccr,r5l
     158:	06 00       	andc	#0x0,ccr
     15a:	00 00       	nop	
     15c:	00 00       	nop	
     15e:	00 20       	.word	H'0,H'20
     160:	00 00       	nop	
     162:	00 dc       	.word	H'0,H'dc
     164:	00 40       	.word	H'0,H'40
     166:	05 44       	xorc	#0x44,ccr
     168:	00 00       	nop	
     16a:	00 4e       	.word	H'0,H'4e
     16c:	04 00       	orc	#0x0,ccr
     16e:	00 00       	nop	
     170:	04 0e       	orc	#0xe,ccr
     172:	08 11       	add.b	r1h,r1h
     174:	06 7c       	andc	#0x7c,ccr
     176:	04 00       	orc	#0x0,ccr
     178:	00 00       	nop	
     17a:	02 0d       	stc	ccr,r5l
     17c:	06 00       	andc	#0x0,ccr
     17e:	00 00       	nop	
     180:	00 00       	nop	
     182:	00 20       	.word	H'0,H'20
     184:	00 00       	nop	
     186:	00 dc       	.word	H'0,H'dc
     188:	00 40       	.word	H'0,H'40
     18a:	05 92       	xorc	#0x92,ccr
     18c:	00 00       	nop	
     18e:	00 74       	.word	H'0,H'74
     190:	04 00       	orc	#0x0,ccr
     192:	00 00       	nop	
     194:	04 0e       	orc	#0xe,ccr
     196:	08 11       	add.b	r1h,r1h
     198:	06 7c       	andc	#0x7c,ccr
     19a:	04 00       	orc	#0x0,ccr
     19c:	00 00       	nop	
     19e:	02 0d       	stc	ccr,r5l
     1a0:	06 00       	andc	#0x0,ccr
     1a2:	00 00       	nop	
     1a4:	00 00       	nop	
     1a6:	00 20       	.word	H'0,H'20
     1a8:	00 00       	nop	
     1aa:	00 dc       	.word	H'0,H'dc
     1ac:	00 40       	.word	H'0,H'40
     1ae:	06 06       	andc	#0x6,ccr
     1b0:	00 00       	nop	
     1b2:	00 90       	.word	H'0,H'90
     1b4:	04 00       	orc	#0x0,ccr
     1b6:	00 00       	nop	
     1b8:	04 0e       	orc	#0xe,ccr
     1ba:	08 11       	add.b	r1h,r1h
     1bc:	06 7c       	andc	#0x7c,ccr
     1be:	04 00       	orc	#0x0,ccr
     1c0:	00 00       	nop	
     1c2:	02 0d       	stc	ccr,r5l
     1c4:	06 00       	andc	#0x0,ccr
     1c6:	00 00       	nop	
     1c8:	00 00       	nop	
     1ca:	00 20       	.word	H'0,H'20
     1cc:	00 00       	nop	
     1ce:	00 dc       	.word	H'0,H'dc
     1d0:	00 40       	.word	H'0,H'40
     1d2:	06 96       	andc	#0x96,ccr
     1d4:	00 00       	nop	
     1d6:	00 a8       	.word	H'0,H'a8
     1d8:	04 00       	orc	#0x0,ccr
     1da:	00 00       	nop	
     1dc:	04 0e       	orc	#0xe,ccr
     1de:	08 11       	add.b	r1h,r1h
     1e0:	06 7c       	andc	#0x7c,ccr
     1e2:	04 00       	orc	#0x0,ccr
     1e4:	00 00       	nop	
     1e6:	02 0d       	stc	ccr,r5l
     1e8:	06 00       	andc	#0x0,ccr
     1ea:	00 00       	nop	
     1ec:	00 00       	nop	
     1ee:	00 20       	.word	H'0,H'20
     1f0:	00 00       	nop	
     1f2:	00 dc       	.word	H'0,H'dc
     1f4:	00 40       	.word	H'0,H'40
     1f6:	07 3e       	ldc	#0x3e,ccr
     1f8:	00 00       	nop	
     1fa:	00 38       	.word	H'0,H'38
     1fc:	04 00       	orc	#0x0,ccr
     1fe:	00 00       	nop	
     200:	04 0e       	orc	#0xe,ccr
     202:	08 11       	add.b	r1h,r1h
     204:	06 7c       	andc	#0x7c,ccr
     206:	04 00       	orc	#0x0,ccr
     208:	00 00       	nop	
     20a:	02 0d       	stc	ccr,r5l
     20c:	06 00       	andc	#0x0,ccr
     20e:	00 00       	nop	
     210:	00 00       	nop	
     212:	00 20       	.word	H'0,H'20
     214:	00 00       	nop	
     216:	00 dc       	.word	H'0,H'dc
     218:	00 40       	.word	H'0,H'40
     21a:	07 76       	ldc	#0x76,ccr
     21c:	00 00       	nop	
     21e:	00 40       	.word	H'0,H'40
     220:	04 00       	orc	#0x0,ccr
     222:	00 00       	nop	
     224:	04 0e       	orc	#0xe,ccr
     226:	08 11       	add.b	r1h,r1h
     228:	06 7c       	andc	#0x7c,ccr
     22a:	04 00       	orc	#0x0,ccr
     22c:	00 00       	nop	
     22e:	02 0d       	stc	ccr,r5l
     230:	06 00       	andc	#0x0,ccr
     232:	00 00       	nop	
     234:	00 00       	nop	
     236:	00 20       	.word	H'0,H'20
     238:	00 00       	nop	
     23a:	00 dc       	.word	H'0,H'dc
     23c:	00 40       	.word	H'0,H'40
     23e:	07 b6       	ldc	#0xb6,ccr
     240:	00 00       	nop	
     242:	00 40       	.word	H'0,H'40
     244:	04 00       	orc	#0x0,ccr
     246:	00 00       	nop	
     248:	04 0e       	orc	#0xe,ccr
     24a:	08 11       	add.b	r1h,r1h
     24c:	06 7c       	andc	#0x7c,ccr
     24e:	04 00       	orc	#0x0,ccr
     250:	00 00       	nop	
     252:	02 0d       	stc	ccr,r5l
     254:	06 00       	andc	#0x0,ccr
     256:	00 00       	nop	
     258:	00 00       	nop	
     25a:	00 20       	.word	H'0,H'20
     25c:	00 00       	nop	
     25e:	00 dc       	.word	H'0,H'dc
     260:	00 40       	.word	H'0,H'40
     262:	07 f6       	ldc	#0xf6,ccr
     264:	00 00       	nop	
     266:	00 64       	.word	H'0,H'64
     268:	04 00       	orc	#0x0,ccr
     26a:	00 00       	nop	
     26c:	04 0e       	orc	#0xe,ccr
     26e:	08 11       	add.b	r1h,r1h
     270:	06 7c       	andc	#0x7c,ccr
     272:	04 00       	orc	#0x0,ccr
     274:	00 00       	nop	
     276:	02 0d       	stc	ccr,r5l
     278:	06 00       	andc	#0x0,ccr
     27a:	00 00       	nop	
     27c:	00 00       	nop	
     27e:	00 20       	.word	H'0,H'20
     280:	00 00       	nop	
     282:	00 dc       	.word	H'0,H'dc
     284:	00 40       	.word	H'0,H'40
     286:	08 5a       	add.b	r5h,r2l
     288:	00 00       	nop	
     28a:	00 d8       	.word	H'0,H'd8
     28c:	04 00       	orc	#0x0,ccr
     28e:	00 00       	nop	
     290:	04 0e       	orc	#0xe,ccr
     292:	08 11       	add.b	r1h,r1h
     294:	06 7c       	andc	#0x7c,ccr
     296:	04 00       	orc	#0x0,ccr
     298:	00 00       	nop	
     29a:	02 0d       	stc	ccr,r5l
     29c:	06 00       	andc	#0x0,ccr
	...

000002a0 <.Lframe0>:
     2a0:	00 00       	nop	
     2a2:	00 10       	.word	H'0,H'10
     2a4:	ff ff       	mov.b	#0xff,r7l
     2a6:	ff ff       	mov.b	#0xff,r7l
     2a8:	03 00       	ldc	r0h,ccr
     2aa:	01 02       	.word	H'1,H'2
     2ac:	0c 0c       	mov.b	r0h,r4l
     2ae:	07 04       	ldc	#0x4,ccr
     2b0:	11 0c       	shlr.b	r4l
     2b2:	7e 00       	.word	H'7e,H'0
     2b4:	00 00       	nop	
     2b6:	00 20       	.word	H'0,H'20
     2b8:	00 00       	nop	
     2ba:	02 a0       	stmac	mach,er0
     2bc:	00 40       	.word	H'0,H'40
     2be:	09 32       	add.w	r3,r2
     2c0:	00 00       	nop	
     2c2:	00 72       	.word	H'0,H'72
     2c4:	04 00       	orc	#0x0,ccr
     2c6:	00 00       	nop	
     2c8:	04 0e       	orc	#0xe,ccr
     2ca:	08 11       	add.b	r1h,r1h
     2cc:	06 7c       	andc	#0x7c,ccr
     2ce:	04 00       	orc	#0x0,ccr
     2d0:	00 00       	nop	
     2d2:	02 0d       	stc	ccr,r5l
     2d4:	06 00       	andc	#0x0,ccr
     2d6:	00 00       	nop	
     2d8:	00 00       	nop	
     2da:	00 20       	.word	H'0,H'20
     2dc:	00 00       	nop	
     2de:	02 a0       	stmac	mach,er0
     2e0:	00 40       	.word	H'0,H'40
     2e2:	09 a4       	add.w	e2,r4
     2e4:	00 00       	nop	
     2e6:	00 46       	.word	H'0,H'46
     2e8:	04 00       	orc	#0x0,ccr
     2ea:	00 00       	nop	
     2ec:	04 0e       	orc	#0xe,ccr
     2ee:	08 11       	add.b	r1h,r1h
     2f0:	06 7c       	andc	#0x7c,ccr
     2f2:	04 00       	orc	#0x0,ccr
     2f4:	00 00       	nop	
     2f6:	02 0d       	stc	ccr,r5l
     2f8:	06 00       	andc	#0x0,ccr
     2fa:	00 00       	nop	
     2fc:	00 00       	nop	
     2fe:	00 20       	.word	H'0,H'20
     300:	00 00       	nop	
     302:	02 a0       	stmac	mach,er0
     304:	00 40       	.word	H'0,H'40
     306:	09 ea       	add.w	e6,e2
     308:	00 00       	nop	
     30a:	00 74       	.word	H'0,H'74
     30c:	04 00       	orc	#0x0,ccr
     30e:	00 00       	nop	
     310:	04 0e       	orc	#0xe,ccr
     312:	08 11       	add.b	r1h,r1h
     314:	06 7c       	andc	#0x7c,ccr
     316:	04 00       	orc	#0x0,ccr
     318:	00 00       	nop	
     31a:	02 0d       	stc	ccr,r5l
     31c:	06 00       	andc	#0x0,ccr
     31e:	00 00       	nop	
     320:	00 00       	nop	
     322:	00 20       	.word	H'0,H'20
     324:	00 00       	nop	
     326:	02 a0       	stmac	mach,er0
     328:	00 40       	.word	H'0,H'40
     32a:	0a 5e       	add.w	#0x5,e6
     32c:	00 00       	nop	
     32e:	00 46       	.word	H'0,H'46
     330:	04 00       	orc	#0x0,ccr
     332:	00 00       	nop	
     334:	04 0e       	orc	#0xe,ccr
     336:	08 11       	add.b	r1h,r1h
     338:	06 7c       	andc	#0x7c,ccr
     33a:	04 00       	orc	#0x0,ccr
     33c:	00 00       	nop	
     33e:	02 0d       	stc	ccr,r5l
     340:	06 00       	andc	#0x0,ccr
     342:	00 00       	nop	
     344:	00 00       	nop	
     346:	00 20       	.word	H'0,H'20
     348:	00 00       	nop	
     34a:	02 a0       	stmac	mach,er0
     34c:	00 40       	.word	H'0,H'40
     34e:	0a a4       	add.l	er2,er4
     350:	00 00       	nop	
     352:	00 74       	.word	H'0,H'74
     354:	04 00       	orc	#0x0,ccr
     356:	00 00       	nop	
     358:	04 0e       	orc	#0xe,ccr
     35a:	08 11       	add.b	r1h,r1h
     35c:	06 7c       	andc	#0x7c,ccr
     35e:	04 00       	orc	#0x0,ccr
     360:	00 00       	nop	
     362:	02 0d       	stc	ccr,r5l
     364:	06 00       	andc	#0x0,ccr
     366:	00 00       	nop	
     368:	00 00       	nop	
     36a:	00 20       	.word	H'0,H'20
     36c:	00 00       	nop	
     36e:	02 a0       	stmac	mach,er0
     370:	00 40       	.word	H'0,H'40
     372:	0b 18       	.word	H'b,H'18
     374:	00 00       	nop	
     376:	00 46       	.word	H'0,H'46
     378:	04 00       	orc	#0x0,ccr
     37a:	00 00       	nop	
     37c:	04 0e       	orc	#0xe,ccr
     37e:	08 11       	add.b	r1h,r1h
     380:	06 7c       	andc	#0x7c,ccr
     382:	04 00       	orc	#0x0,ccr
     384:	00 00       	nop	
     386:	02 0d       	stc	ccr,r5l
     388:	06 00       	andc	#0x0,ccr
     38a:	00 00       	nop	
     38c:	00 00       	nop	
     38e:	00 20       	.word	H'0,H'20
     390:	00 00       	nop	
     392:	02 a0       	stmac	mach,er0
     394:	00 40       	.word	H'0,H'40
     396:	0b 5e       	inc.w	#1,e6
     398:	00 00       	nop	
     39a:	00 4e       	.word	H'0,H'4e
     39c:	04 00       	orc	#0x0,ccr
     39e:	00 00       	nop	
     3a0:	04 0e       	orc	#0xe,ccr
     3a2:	08 11       	add.b	r1h,r1h
     3a4:	06 7c       	andc	#0x7c,ccr
     3a6:	04 00       	orc	#0x0,ccr
     3a8:	00 00       	nop	
     3aa:	02 0d       	stc	ccr,r5l
     3ac:	06 00       	andc	#0x0,ccr
     3ae:	00 00       	nop	
     3b0:	00 00       	nop	
     3b2:	00 20       	.word	H'0,H'20
     3b4:	00 00       	nop	
     3b6:	02 a0       	stmac	mach,er0
     3b8:	00 40       	.word	H'0,H'40
     3ba:	0b ac       	.word	H'b,H'ac
     3bc:	00 00       	nop	
     3be:	00 4e       	.word	H'0,H'4e
     3c0:	04 00       	orc	#0x0,ccr
     3c2:	00 00       	nop	
     3c4:	04 0e       	orc	#0xe,ccr
     3c6:	08 11       	add.b	r1h,r1h
     3c8:	06 7c       	andc	#0x7c,ccr
     3ca:	04 00       	orc	#0x0,ccr
     3cc:	00 00       	nop	
     3ce:	02 0d       	stc	ccr,r5l
     3d0:	06 00       	andc	#0x0,ccr
     3d2:	00 00       	nop	
     3d4:	00 00       	nop	
     3d6:	00 20       	.word	H'0,H'20
     3d8:	00 00       	nop	
     3da:	02 a0       	stmac	mach,er0
     3dc:	00 40       	.word	H'0,H'40
     3de:	0b fa       	.word	H'b,H'fa
     3e0:	00 00       	nop	
     3e2:	00 52       	.word	H'0,H'52
     3e4:	04 00       	orc	#0x0,ccr
     3e6:	00 00       	nop	
     3e8:	04 0e       	orc	#0xe,ccr
     3ea:	08 11       	add.b	r1h,r1h
     3ec:	06 7c       	andc	#0x7c,ccr
     3ee:	04 00       	orc	#0x0,ccr
     3f0:	00 00       	nop	
     3f2:	02 0d       	stc	ccr,r5l
     3f4:	06 00       	andc	#0x0,ccr
     3f6:	00 00       	nop	
     3f8:	00 00       	nop	
     3fa:	00 20       	.word	H'0,H'20
     3fc:	00 00       	nop	
     3fe:	02 a0       	stmac	mach,er0
     400:	00 40       	.word	H'0,H'40
     402:	0c 4c       	mov.b	r4h,r4l
     404:	00 00       	nop	
     406:	00 4e       	.word	H'0,H'4e
     408:	04 00       	orc	#0x0,ccr
     40a:	00 00       	nop	
     40c:	04 0e       	orc	#0xe,ccr
     40e:	08 11       	add.b	r1h,r1h
     410:	06 7c       	andc	#0x7c,ccr
     412:	04 00       	orc	#0x0,ccr
     414:	00 00       	nop	
     416:	02 0d       	stc	ccr,r5l
     418:	06 00       	andc	#0x0,ccr
     41a:	00 00       	nop	
     41c:	00 00       	nop	
     41e:	00 20       	.word	H'0,H'20
     420:	00 00       	nop	
     422:	02 a0       	stmac	mach,er0
     424:	00 40       	.word	H'0,H'40
     426:	0c 9a       	mov.b	r1l,r2l
     428:	00 00       	nop	
     42a:	00 4e       	.word	H'0,H'4e
     42c:	04 00       	orc	#0x0,ccr
     42e:	00 00       	nop	
     430:	04 0e       	orc	#0xe,ccr
     432:	08 11       	add.b	r1h,r1h
     434:	06 7c       	andc	#0x7c,ccr
     436:	04 00       	orc	#0x0,ccr
     438:	00 00       	nop	
     43a:	02 0d       	stc	ccr,r5l
     43c:	06 00       	andc	#0x0,ccr
	...

00000440 <.Lframe0>:
     440:	00 00       	nop	
     442:	00 10       	.word	H'0,H'10
     444:	ff ff       	mov.b	#0xff,r7l
     446:	ff ff       	mov.b	#0xff,r7l
     448:	03 00       	ldc	r0h,ccr
     44a:	01 02       	.word	H'1,H'2
     44c:	0c 0c       	mov.b	r0h,r4l
     44e:	07 04       	ldc	#0x4,ccr
     450:	11 0c       	shlr.b	r4l
     452:	7e 00       	.word	H'7e,H'0
     454:	00 00       	nop	
     456:	00 20       	.word	H'0,H'20
     458:	00 00       	nop	
     45a:	04 40       	orc	#0x40,ccr
     45c:	00 40       	.word	H'0,H'40
     45e:	0c e8       	mov.b	r6l,r0l
     460:	00 00       	nop	
     462:	00 d8       	.word	H'0,H'd8
     464:	04 00       	orc	#0x0,ccr
     466:	00 00       	nop	
     468:	04 0e       	orc	#0xe,ccr
     46a:	08 11       	add.b	r1h,r1h
     46c:	06 7c       	andc	#0x7c,ccr
     46e:	04 00       	orc	#0x0,ccr
     470:	00 00       	nop	
     472:	02 0d       	stc	ccr,r5l
     474:	06 00       	andc	#0x0,ccr
     476:	00 00       	nop	
     478:	00 00       	nop	
     47a:	00 20       	.word	H'0,H'20
     47c:	00 00       	nop	
     47e:	04 40       	orc	#0x40,ccr
     480:	00 40       	.word	H'0,H'40
     482:	0d c0       	mov.w	e4,r0
     484:	00 00       	nop	
     486:	00 52       	.word	H'0,H'52
     488:	04 00       	orc	#0x0,ccr
     48a:	00 00       	nop	
     48c:	04 0e       	orc	#0xe,ccr
     48e:	08 11       	add.b	r1h,r1h
     490:	06 7c       	andc	#0x7c,ccr
     492:	04 00       	orc	#0x0,ccr
     494:	00 00       	nop	
     496:	02 0d       	stc	ccr,r5l
     498:	06 00       	andc	#0x0,ccr
     49a:	00 00       	nop	
     49c:	00 00       	nop	
     49e:	00 20       	.word	H'0,H'20
     4a0:	00 00       	nop	
     4a2:	04 40       	orc	#0x40,ccr
     4a4:	00 40       	.word	H'0,H'40
     4a6:	0e 12       	addx	r1h,r2h
     4a8:	00 00       	nop	
     4aa:	00 50       	.word	H'0,H'50
     4ac:	04 00       	orc	#0x0,ccr
     4ae:	00 00       	nop	
     4b0:	04 0e       	orc	#0xe,ccr
     4b2:	08 11       	add.b	r1h,r1h
     4b4:	06 7c       	andc	#0x7c,ccr
     4b6:	04 00       	orc	#0x0,ccr
     4b8:	00 00       	nop	
     4ba:	02 0d       	stc	ccr,r5l
     4bc:	06 00       	andc	#0x0,ccr
     4be:	00 00       	nop	
     4c0:	00 00       	nop	
     4c2:	00 20       	.word	H'0,H'20
     4c4:	00 00       	nop	
     4c6:	04 40       	orc	#0x40,ccr
     4c8:	00 40       	.word	H'0,H'40
     4ca:	0e 62       	addx	r6h,r2h
     4cc:	00 00       	nop	
     4ce:	00 6c       	.word	H'0,H'6c
     4d0:	04 00       	orc	#0x0,ccr
     4d2:	00 00       	nop	
     4d4:	04 0e       	orc	#0xe,ccr
     4d6:	08 11       	add.b	r1h,r1h
     4d8:	06 7c       	andc	#0x7c,ccr
     4da:	04 00       	orc	#0x0,ccr
     4dc:	00 00       	nop	
     4de:	02 0d       	stc	ccr,r5l
     4e0:	06 00       	andc	#0x0,ccr
     4e2:	00 00       	nop	
     4e4:	00 00       	nop	
     4e6:	00 20       	.word	H'0,H'20
     4e8:	00 00       	nop	
     4ea:	04 40       	orc	#0x40,ccr
     4ec:	00 40       	.word	H'0,H'40
     4ee:	0e ce       	addx	r4l,r6l
     4f0:	00 00       	nop	
     4f2:	00 50       	.word	H'0,H'50
     4f4:	04 00       	orc	#0x0,ccr
     4f6:	00 00       	nop	
     4f8:	04 0e       	orc	#0xe,ccr
     4fa:	08 11       	add.b	r1h,r1h
     4fc:	06 7c       	andc	#0x7c,ccr
     4fe:	04 00       	orc	#0x0,ccr
     500:	00 00       	nop	
     502:	02 0d       	stc	ccr,r5l
     504:	06 00       	andc	#0x0,ccr
     506:	00 00       	nop	
     508:	00 00       	nop	
     50a:	00 20       	.word	H'0,H'20
     50c:	00 00       	nop	
     50e:	04 40       	orc	#0x40,ccr
     510:	00 40       	.word	H'0,H'40
     512:	0f 1e       	mov.w	#0x1,e6
     514:	00 00       	nop	
     516:	00 84       	.word	H'0,H'84
     518:	04 00       	orc	#0x0,ccr
     51a:	00 00       	nop	
     51c:	04 0e       	orc	#0xe,ccr
     51e:	08 11       	add.b	r1h,r1h
     520:	06 7c       	andc	#0x7c,ccr
     522:	04 00       	orc	#0x0,ccr
     524:	00 00       	nop	
     526:	02 0d       	stc	ccr,r5l
     528:	06 00       	andc	#0x0,ccr
	...

0000052c <.Lframe0>:
     52c:	00 00       	nop	
     52e:	00 10       	.word	H'0,H'10
     530:	ff ff       	mov.b	#0xff,r7l
     532:	ff ff       	mov.b	#0xff,r7l
     534:	03 00       	ldc	r0h,ccr
     536:	01 02       	.word	H'1,H'2
     538:	0c 0c       	mov.b	r0h,r4l
     53a:	07 04       	ldc	#0x4,ccr
     53c:	11 0c       	shlr.b	r4l
     53e:	7e 00       	.word	H'7e,H'0
     540:	00 00       	nop	
     542:	00 20       	.word	H'0,H'20
     544:	00 00       	nop	
     546:	05 2c       	xorc	#0x2c,ccr
     548:	00 40       	.word	H'0,H'40
     54a:	0f a2       	mov.l	er2,er2
     54c:	00 00       	nop	
     54e:	00 38       	.word	H'0,H'38
     550:	04 00       	orc	#0x0,ccr
     552:	00 00       	nop	
     554:	04 0e       	orc	#0xe,ccr
     556:	08 11       	add.b	r1h,r1h
     558:	06 7c       	andc	#0x7c,ccr
     55a:	04 00       	orc	#0x0,ccr
     55c:	00 00       	nop	
     55e:	02 0d       	stc	ccr,r5l
     560:	06 00       	andc	#0x0,ccr
     562:	00 00       	nop	
     564:	00 00       	nop	
     566:	00 20       	.word	H'0,H'20
     568:	00 00       	nop	
     56a:	05 2c       	xorc	#0x2c,ccr
     56c:	00 40       	.word	H'0,H'40
     56e:	0f da       	mov.l	#0x5,er2
     570:	00 00       	nop	
     572:	00 42       	.word	H'0,H'42
     574:	04 00       	orc	#0x0,ccr
     576:	00 00       	nop	
     578:	04 0e       	orc	#0xe,ccr
     57a:	08 11       	add.b	r1h,r1h
     57c:	06 7c       	andc	#0x7c,ccr
     57e:	04 00       	orc	#0x0,ccr
     580:	00 00       	nop	
     582:	02 0d       	stc	ccr,r5l
     584:	06 00       	andc	#0x0,ccr
     586:	00 00       	nop	
     588:	00 00       	nop	
     58a:	00 20       	.word	H'0,H'20
     58c:	00 00       	nop	
     58e:	05 2c       	xorc	#0x2c,ccr
     590:	00 40       	.word	H'0,H'40
     592:	10 1c       	shll.w	e4
     594:	00 00       	nop	
     596:	00 c0       	.word	H'0,H'c0
     598:	04 00       	orc	#0x0,ccr
     59a:	00 00       	nop	
     59c:	04 0e       	orc	#0xe,ccr
     59e:	08 11       	add.b	r1h,r1h
     5a0:	06 7c       	andc	#0x7c,ccr
     5a2:	04 00       	orc	#0x0,ccr
     5a4:	00 00       	nop	
     5a6:	02 0d       	stc	ccr,r5l
     5a8:	06 00       	andc	#0x0,ccr
     5aa:	00 00       	nop	
     5ac:	00 00       	nop	
     5ae:	00 20       	.word	H'0,H'20
     5b0:	00 00       	nop	
     5b2:	05 2c       	xorc	#0x2c,ccr
     5b4:	00 40       	.word	H'0,H'40
     5b6:	10 dc       	shal.w	#2,e4
     5b8:	00 00       	nop	
     5ba:	00 c0       	.word	H'0,H'c0
     5bc:	04 00       	orc	#0x0,ccr
     5be:	00 00       	nop	
     5c0:	04 0e       	orc	#0xe,ccr
     5c2:	08 11       	add.b	r1h,r1h
     5c4:	06 7c       	andc	#0x7c,ccr
     5c6:	04 00       	orc	#0x0,ccr
     5c8:	00 00       	nop	
     5ca:	02 0d       	stc	ccr,r5l
     5cc:	06 00       	andc	#0x0,ccr
     5ce:	00 00       	nop	
     5d0:	00 00       	nop	
     5d2:	00 20       	.word	H'0,H'20
     5d4:	00 00       	nop	
     5d6:	05 2c       	xorc	#0x2c,ccr
     5d8:	00 40       	.word	H'0,H'40
     5da:	11 9c       	shar.w	e4
     5dc:	00 00       	nop	
     5de:	00 38       	.word	H'0,H'38
     5e0:	04 00       	orc	#0x0,ccr
     5e2:	00 00       	nop	
     5e4:	04 0e       	orc	#0xe,ccr
     5e6:	08 11       	add.b	r1h,r1h
     5e8:	06 7c       	andc	#0x7c,ccr
     5ea:	04 00       	orc	#0x0,ccr
     5ec:	00 00       	nop	
     5ee:	02 0d       	stc	ccr,r5l
     5f0:	06 00       	andc	#0x0,ccr
     5f2:	00 00       	nop	
     5f4:	00 00       	nop	
     5f6:	00 20       	.word	H'0,H'20
     5f8:	00 00       	nop	
     5fa:	05 2c       	xorc	#0x2c,ccr
     5fc:	00 40       	.word	H'0,H'40
     5fe:	11 d4       	shar.w	#2,r4
     600:	00 00       	nop	
     602:	02 24       	stmac	mach,er4
     604:	04 00       	orc	#0x0,ccr
     606:	00 00       	nop	
     608:	04 0e       	orc	#0xe,ccr
     60a:	08 11       	add.b	r1h,r1h
     60c:	06 7c       	andc	#0x7c,ccr
     60e:	04 00       	orc	#0x0,ccr
     610:	00 00       	nop	
     612:	02 0d       	stc	ccr,r5l
     614:	06 00       	andc	#0x0,ccr
     616:	00 00       	nop	
     618:	00 00       	nop	
     61a:	00 20       	.word	H'0,H'20
     61c:	00 00       	nop	
     61e:	05 2c       	xorc	#0x2c,ccr
     620:	00 40       	.word	H'0,H'40
     622:	13 f8       	.word	H'13,H'f8
     624:	00 00       	nop	
     626:	00 2a       	.word	H'0,H'2a
     628:	04 00       	orc	#0x0,ccr
     62a:	00 00       	nop	
     62c:	04 0e       	orc	#0xe,ccr
     62e:	08 11       	add.b	r1h,r1h
     630:	06 7c       	andc	#0x7c,ccr
     632:	04 00       	orc	#0x0,ccr
     634:	00 00       	nop	
     636:	02 0d       	stc	ccr,r5l
     638:	06 00       	andc	#0x0,ccr
     63a:	00 00       	nop	
     63c:	00 00       	nop	
     63e:	00 20       	.word	H'0,H'20
     640:	00 00       	nop	
     642:	05 2c       	xorc	#0x2c,ccr
     644:	00 40       	.word	H'0,H'40
     646:	14 22       	or.b	r2h,r2h
     648:	00 00       	nop	
     64a:	00 2a       	.word	H'0,H'2a
     64c:	04 00       	orc	#0x0,ccr
     64e:	00 00       	nop	
     650:	04 0e       	orc	#0xe,ccr
     652:	08 11       	add.b	r1h,r1h
     654:	06 7c       	andc	#0x7c,ccr
     656:	04 00       	orc	#0x0,ccr
     658:	00 00       	nop	
     65a:	02 0d       	stc	ccr,r5l
     65c:	06 00       	andc	#0x0,ccr
     65e:	00 00       	nop	
     660:	00 00       	nop	
     662:	00 20       	.word	H'0,H'20
     664:	00 00       	nop	
     666:	05 2c       	xorc	#0x2c,ccr
     668:	00 40       	.word	H'0,H'40
     66a:	14 4c       	or.b	r4h,r4l
     66c:	00 00       	nop	
     66e:	00 3c       	.word	H'0,H'3c
     670:	04 00       	orc	#0x0,ccr
     672:	00 00       	nop	
     674:	04 0e       	orc	#0xe,ccr
     676:	08 11       	add.b	r1h,r1h
     678:	06 7c       	andc	#0x7c,ccr
     67a:	04 00       	orc	#0x0,ccr
     67c:	00 00       	nop	
     67e:	02 0d       	stc	ccr,r5l
     680:	06 00       	andc	#0x0,ccr
     682:	00 00       	nop	
     684:	00 00       	nop	
     686:	00 20       	.word	H'0,H'20
     688:	00 00       	nop	
     68a:	05 2c       	xorc	#0x2c,ccr
     68c:	00 40       	.word	H'0,H'40
     68e:	14 88       	or.b	r0l,r0l
     690:	00 00       	nop	
     692:	00 46       	.word	H'0,H'46
     694:	04 00       	orc	#0x0,ccr
     696:	00 00       	nop	
     698:	04 0e       	orc	#0xe,ccr
     69a:	08 11       	add.b	r1h,r1h
     69c:	06 7c       	andc	#0x7c,ccr
     69e:	04 00       	orc	#0x0,ccr
     6a0:	00 00       	nop	
     6a2:	02 0d       	stc	ccr,r5l
     6a4:	06 00       	andc	#0x0,ccr
     6a6:	00 00       	nop	
     6a8:	00 00       	nop	
     6aa:	00 20       	.word	H'0,H'20
     6ac:	00 00       	nop	
     6ae:	05 2c       	xorc	#0x2c,ccr
     6b0:	00 40       	.word	H'0,H'40
     6b2:	14 ce       	or.b	r4l,r6l
     6b4:	00 00       	nop	
     6b6:	01 10       	.word	H'1,H'10
     6b8:	04 00       	orc	#0x0,ccr
     6ba:	00 00       	nop	
     6bc:	04 0e       	orc	#0xe,ccr
     6be:	08 11       	add.b	r1h,r1h
     6c0:	06 7c       	andc	#0x7c,ccr
     6c2:	04 00       	orc	#0x0,ccr
     6c4:	00 00       	nop	
     6c6:	02 0d       	stc	ccr,r5l
     6c8:	06 00       	andc	#0x0,ccr
     6ca:	00 00       	nop	
     6cc:	00 00       	nop	
     6ce:	00 20       	.word	H'0,H'20
     6d0:	00 00       	nop	
     6d2:	05 2c       	xorc	#0x2c,ccr
     6d4:	00 40       	.word	H'0,H'40
     6d6:	15 de       	xor.b	r5l,r6l
     6d8:	00 00       	nop	
     6da:	00 9c       	.word	H'0,H'9c
     6dc:	04 00       	orc	#0x0,ccr
     6de:	00 00       	nop	
     6e0:	04 0e       	orc	#0xe,ccr
     6e2:	08 11       	add.b	r1h,r1h
     6e4:	06 7c       	andc	#0x7c,ccr
     6e6:	04 00       	orc	#0x0,ccr
     6e8:	00 00       	nop	
     6ea:	02 0d       	stc	ccr,r5l
     6ec:	06 00       	andc	#0x0,ccr
	...

000006f0 <.Lframe0>:
     6f0:	00 00       	nop	
     6f2:	00 10       	.word	H'0,H'10
     6f4:	ff ff       	mov.b	#0xff,r7l
     6f6:	ff ff       	mov.b	#0xff,r7l
     6f8:	03 00       	ldc	r0h,ccr
     6fa:	01 02       	.word	H'1,H'2
     6fc:	0c 0c       	mov.b	r0h,r4l
     6fe:	07 04       	ldc	#0x4,ccr
     700:	11 0c       	shlr.b	r4l
     702:	7e 00       	.word	H'7e,H'0
     704:	00 00       	nop	
     706:	00 20       	.word	H'0,H'20
     708:	00 00       	nop	
     70a:	06 f0       	andc	#0xf0,ccr
     70c:	00 40       	.word	H'0,H'40
     70e:	16 7a       	and.b	r7h,r2l
     710:	00 00       	nop	
     712:	00 dc       	.word	H'0,H'dc
     714:	04 00       	orc	#0x0,ccr
     716:	00 00       	nop	
     718:	04 0e       	orc	#0xe,ccr
     71a:	08 11       	add.b	r1h,r1h
     71c:	06 7c       	andc	#0x7c,ccr
     71e:	04 00       	orc	#0x0,ccr
     720:	00 00       	nop	
     722:	02 0d       	stc	ccr,r5l
     724:	06 00       	andc	#0x0,ccr
     726:	00 00       	nop	
     728:	00 00       	nop	
     72a:	00 20       	.word	H'0,H'20
     72c:	00 00       	nop	
     72e:	06 f0       	andc	#0xf0,ccr
     730:	00 40       	.word	H'0,H'40
     732:	17 56       	extu.w	r6
     734:	00 00       	nop	
     736:	00 fc       	.word	H'0,H'fc
     738:	04 00       	orc	#0x0,ccr
     73a:	00 00       	nop	
     73c:	04 0e       	orc	#0xe,ccr
     73e:	08 11       	add.b	r1h,r1h
     740:	06 7c       	andc	#0x7c,ccr
     742:	04 00       	orc	#0x0,ccr
     744:	00 00       	nop	
     746:	02 0d       	stc	ccr,r5l
     748:	06 00       	andc	#0x0,ccr
     74a:	00 00       	nop	
     74c:	00 00       	nop	
     74e:	00 20       	.word	H'0,H'20
     750:	00 00       	nop	
     752:	06 f0       	andc	#0xf0,ccr
     754:	00 40       	.word	H'0,H'40
     756:	18 52       	sub.b	r5h,r2h
     758:	00 00       	nop	
     75a:	00 12       	.word	H'0,H'12
     75c:	04 00       	orc	#0x0,ccr
     75e:	00 00       	nop	
     760:	04 0e       	orc	#0xe,ccr
     762:	08 11       	add.b	r1h,r1h
     764:	06 7c       	andc	#0x7c,ccr
     766:	04 00       	orc	#0x0,ccr
     768:	00 00       	nop	
     76a:	02 0d       	stc	ccr,r5l
     76c:	06 00       	andc	#0x0,ccr
     76e:	00 00       	nop	
     770:	00 00       	nop	
     772:	00 20       	.word	H'0,H'20
     774:	00 00       	nop	
     776:	06 f0       	andc	#0xf0,ccr
     778:	00 40       	.word	H'0,H'40
     77a:	18 64       	sub.b	r6h,r4h
     77c:	00 00       	nop	
     77e:	00 44       	.word	H'0,H'44
     780:	04 00       	orc	#0x0,ccr
     782:	00 00       	nop	
     784:	04 0e       	orc	#0xe,ccr
     786:	08 11       	add.b	r1h,r1h
     788:	06 7c       	andc	#0x7c,ccr
     78a:	04 00       	orc	#0x0,ccr
     78c:	00 00       	nop	
     78e:	02 0d       	stc	ccr,r5l
     790:	06 00       	andc	#0x0,ccr
     792:	00 00       	nop	
     794:	00 00       	nop	
     796:	00 20       	.word	H'0,H'20
     798:	00 00       	nop	
     79a:	06 f0       	andc	#0xf0,ccr
     79c:	00 40       	.word	H'0,H'40
     79e:	18 a8       	sub.b	r2l,r0l
     7a0:	00 00       	nop	
     7a2:	02 96       	.word	H'2,H'96
     7a4:	04 00       	orc	#0x0,ccr
     7a6:	00 00       	nop	
     7a8:	04 0e       	orc	#0xe,ccr
     7aa:	08 11       	add.b	r1h,r1h
     7ac:	06 7c       	andc	#0x7c,ccr
     7ae:	04 00       	orc	#0x0,ccr
     7b0:	00 00       	nop	
     7b2:	02 0d       	stc	ccr,r5l
     7b4:	06 00       	andc	#0x0,ccr
     7b6:	00 00       	nop	
     7b8:	00 00       	nop	
     7ba:	00 20       	.word	H'0,H'20
     7bc:	00 00       	nop	
     7be:	06 f0       	andc	#0xf0,ccr
     7c0:	00 40       	.word	H'0,H'40
     7c2:	1b 3e       	.word	H'1b,H'3e
     7c4:	00 00       	nop	
     7c6:	00 3e       	.word	H'0,H'3e
     7c8:	04 00       	orc	#0x0,ccr
     7ca:	00 00       	nop	
     7cc:	04 0e       	orc	#0xe,ccr
     7ce:	08 11       	add.b	r1h,r1h
     7d0:	06 7c       	andc	#0x7c,ccr
     7d2:	04 00       	orc	#0x0,ccr
     7d4:	00 00       	nop	
     7d6:	02 0d       	stc	ccr,r5l
     7d8:	06 00       	andc	#0x0,ccr
     7da:	00 00       	nop	
     7dc:	00 00       	nop	
     7de:	00 20       	.word	H'0,H'20
     7e0:	00 00       	nop	
     7e2:	06 f0       	andc	#0xf0,ccr
     7e4:	00 40       	.word	H'0,H'40
     7e6:	1b 7c       	.word	H'1b,H'7c
     7e8:	00 00       	nop	
     7ea:	00 14       	.word	H'0,H'14
     7ec:	04 00       	orc	#0x0,ccr
     7ee:	00 00       	nop	
     7f0:	04 0e       	orc	#0xe,ccr
     7f2:	08 11       	add.b	r1h,r1h
     7f4:	06 7c       	andc	#0x7c,ccr
     7f6:	04 00       	orc	#0x0,ccr
     7f8:	00 00       	nop	
     7fa:	02 0d       	stc	ccr,r5l
     7fc:	06 00       	andc	#0x0,ccr
     7fe:	00 00       	nop	
     800:	00 00       	nop	
     802:	00 20       	.word	H'0,H'20
     804:	00 00       	nop	
     806:	06 f0       	andc	#0xf0,ccr
     808:	00 40       	.word	H'0,H'40
     80a:	1b 90       	subs	#4,er0
     80c:	00 00       	nop	
     80e:	00 10       	.word	H'0,H'10
     810:	04 00       	orc	#0x0,ccr
     812:	00 00       	nop	
     814:	04 0e       	orc	#0xe,ccr
     816:	08 11       	add.b	r1h,r1h
     818:	06 7c       	andc	#0x7c,ccr
     81a:	04 00       	orc	#0x0,ccr
     81c:	00 00       	nop	
     81e:	02 0d       	stc	ccr,r5l
     820:	06 00       	andc	#0x0,ccr
     822:	00 00       	nop	
     824:	00 00       	nop	
     826:	00 20       	.word	H'0,H'20
     828:	00 00       	nop	
     82a:	06 f0       	andc	#0xf0,ccr
     82c:	00 40       	.word	H'0,H'40
     82e:	1b a0       	.word	H'1b,H'a0
     830:	00 00       	nop	
     832:	00 30       	.word	H'0,H'30
     834:	04 00       	orc	#0x0,ccr
     836:	00 00       	nop	
     838:	04 0e       	orc	#0xe,ccr
     83a:	08 11       	add.b	r1h,r1h
     83c:	06 7c       	andc	#0x7c,ccr
     83e:	04 00       	orc	#0x0,ccr
     840:	00 00       	nop	
     842:	02 0d       	stc	ccr,r5l
     844:	06 00       	andc	#0x0,ccr
     846:	00 00       	nop	
     848:	00 00       	nop	
     84a:	00 20       	.word	H'0,H'20
     84c:	00 00       	nop	
     84e:	06 f0       	andc	#0xf0,ccr
     850:	00 40       	.word	H'0,H'40
     852:	1b d0       	dec.w	#2,r0
     854:	00 00       	nop	
     856:	00 1a       	.word	H'0,H'1a
     858:	04 00       	orc	#0x0,ccr
     85a:	00 00       	nop	
     85c:	04 0e       	orc	#0xe,ccr
     85e:	08 11       	add.b	r1h,r1h
     860:	06 7c       	andc	#0x7c,ccr
     862:	04 00       	orc	#0x0,ccr
     864:	00 00       	nop	
     866:	02 0d       	stc	ccr,r5l
     868:	06 00       	andc	#0x0,ccr
     86a:	00 00       	nop	
     86c:	00 00       	nop	
     86e:	00 20       	.word	H'0,H'20
     870:	00 00       	nop	
     872:	06 f0       	andc	#0xf0,ccr
     874:	00 40       	.word	H'0,H'40
     876:	1b ea       	.word	H'1b,H'ea
     878:	00 00       	nop	
     87a:	00 4c       	.word	H'0,H'4c
     87c:	04 00       	orc	#0x0,ccr
     87e:	00 00       	nop	
     880:	04 0e       	orc	#0xe,ccr
     882:	08 11       	add.b	r1h,r1h
     884:	06 7c       	andc	#0x7c,ccr
     886:	04 00       	orc	#0x0,ccr
     888:	00 00       	nop	
     88a:	02 0d       	stc	ccr,r5l
     88c:	06 00       	andc	#0x0,ccr
     88e:	00 00       	nop	
     890:	00 00       	nop	
     892:	00 20       	.word	H'0,H'20
     894:	00 00       	nop	
     896:	06 f0       	andc	#0xf0,ccr
     898:	00 40       	.word	H'0,H'40
     89a:	1c 36       	cmp.b	r3h,r6h
     89c:	00 00       	nop	
     89e:	00 26       	.word	H'0,H'26
     8a0:	04 00       	orc	#0x0,ccr
     8a2:	00 00       	nop	
     8a4:	04 0e       	orc	#0xe,ccr
     8a6:	08 11       	add.b	r1h,r1h
     8a8:	06 7c       	andc	#0x7c,ccr
     8aa:	04 00       	orc	#0x0,ccr
     8ac:	00 00       	nop	
     8ae:	02 0d       	stc	ccr,r5l
     8b0:	06 00       	andc	#0x0,ccr
     8b2:	00 00       	nop	
     8b4:	00 00       	nop	
     8b6:	00 20       	.word	H'0,H'20
     8b8:	00 00       	nop	
     8ba:	06 f0       	andc	#0xf0,ccr
     8bc:	00 40       	.word	H'0,H'40
     8be:	1c 5c       	cmp.b	r5h,r4l
     8c0:	00 00       	nop	
     8c2:	00 2a       	.word	H'0,H'2a
     8c4:	04 00       	orc	#0x0,ccr
     8c6:	00 00       	nop	
     8c8:	04 0e       	orc	#0xe,ccr
     8ca:	08 11       	add.b	r1h,r1h
     8cc:	06 7c       	andc	#0x7c,ccr
     8ce:	04 00       	orc	#0x0,ccr
     8d0:	00 00       	nop	
     8d2:	02 0d       	stc	ccr,r5l
     8d4:	06 00       	andc	#0x0,ccr
     8d6:	00 00       	nop	
     8d8:	00 00       	nop	
     8da:	00 20       	.word	H'0,H'20
     8dc:	00 00       	nop	
     8de:	06 f0       	andc	#0xf0,ccr
     8e0:	00 40       	.word	H'0,H'40
     8e2:	1c 86       	cmp.b	r0l,r6h
     8e4:	00 00       	nop	
     8e6:	00 d0       	.word	H'0,H'd0
     8e8:	04 00       	orc	#0x0,ccr
     8ea:	00 00       	nop	
     8ec:	04 0e       	orc	#0xe,ccr
     8ee:	08 11       	add.b	r1h,r1h
     8f0:	06 7c       	andc	#0x7c,ccr
     8f2:	04 00       	orc	#0x0,ccr
     8f4:	00 00       	nop	
     8f6:	02 0d       	stc	ccr,r5l
     8f8:	06 00       	andc	#0x0,ccr
     8fa:	00 00       	nop	
     8fc:	00 00       	nop	
     8fe:	00 20       	.word	H'0,H'20
     900:	00 00       	nop	
     902:	06 f0       	andc	#0xf0,ccr
     904:	00 40       	.word	H'0,H'40
     906:	1d 56       	cmp.w	r5,r6
     908:	00 00       	nop	
     90a:	01 0e       	.word	H'1,H'e
     90c:	04 00       	orc	#0x0,ccr
     90e:	00 00       	nop	
     910:	04 0e       	orc	#0xe,ccr
     912:	08 11       	add.b	r1h,r1h
     914:	06 7c       	andc	#0x7c,ccr
     916:	04 00       	orc	#0x0,ccr
     918:	00 00       	nop	
     91a:	02 0d       	stc	ccr,r5l
     91c:	06 00       	andc	#0x0,ccr
     91e:	00 00       	nop	
     920:	00 00       	nop	
     922:	00 20       	.word	H'0,H'20
     924:	00 00       	nop	
     926:	06 f0       	andc	#0xf0,ccr
     928:	00 40       	.word	H'0,H'40
     92a:	1e 64       	subx	r6h,r4h
     92c:	00 00       	nop	
     92e:	00 a2       	.word	H'0,H'a2
     930:	04 00       	orc	#0x0,ccr
     932:	00 00       	nop	
     934:	04 0e       	orc	#0xe,ccr
     936:	08 11       	add.b	r1h,r1h
     938:	06 7c       	andc	#0x7c,ccr
     93a:	04 00       	orc	#0x0,ccr
     93c:	00 00       	nop	
     93e:	02 0d       	stc	ccr,r5l
     940:	06 00       	andc	#0x0,ccr
     942:	00 00       	nop	
     944:	00 00       	nop	
     946:	00 20       	.word	H'0,H'20
     948:	00 00       	nop	
     94a:	06 f0       	andc	#0xf0,ccr
     94c:	00 40       	.word	H'0,H'40
     94e:	1f 06       	das	r6h
     950:	00 00       	nop	
     952:	00 a2       	.word	H'0,H'a2
     954:	04 00       	orc	#0x0,ccr
     956:	00 00       	nop	
     958:	04 0e       	orc	#0xe,ccr
     95a:	08 11       	add.b	r1h,r1h
     95c:	06 7c       	andc	#0x7c,ccr
     95e:	04 00       	orc	#0x0,ccr
     960:	00 00       	nop	
     962:	02 0d       	stc	ccr,r5l
     964:	06 00       	andc	#0x0,ccr
     966:	00 00       	nop	
     968:	00 00       	nop	
     96a:	00 20       	.word	H'0,H'20
     96c:	00 00       	nop	
     96e:	06 f0       	andc	#0xf0,ccr
     970:	00 40       	.word	H'0,H'40
     972:	1f a8       	cmp.l	#0x2,er0
     974:	00 00       	nop	
     976:	00 52       	.word	H'0,H'52
     978:	04 00       	orc	#0x0,ccr
     97a:	00 00       	nop	
     97c:	04 0e       	orc	#0xe,ccr
     97e:	08 11       	add.b	r1h,r1h
     980:	06 7c       	andc	#0x7c,ccr
     982:	04 00       	orc	#0x0,ccr
     984:	00 00       	nop	
     986:	02 0d       	stc	ccr,r5l
     988:	06 00       	andc	#0x0,ccr
     98a:	00 00       	nop	
     98c:	00 00       	nop	
     98e:	00 20       	.word	H'0,H'20
     990:	00 00       	nop	
     992:	06 f0       	andc	#0xf0,ccr
     994:	00 40       	.word	H'0,H'40
     996:	1f fa       	cmp.l	#0x7,er2
     998:	00 00       	nop	
     99a:	02 2e       	stmac	mach,er6
     99c:	04 00       	orc	#0x0,ccr
     99e:	00 00       	nop	
     9a0:	04 0e       	orc	#0xe,ccr
     9a2:	08 11       	add.b	r1h,r1h
     9a4:	06 7c       	andc	#0x7c,ccr
     9a6:	04 00       	orc	#0x0,ccr
     9a8:	00 00       	nop	
     9aa:	02 0d       	stc	ccr,r5l
     9ac:	06 00       	andc	#0x0,ccr
     9ae:	00 00       	nop	
     9b0:	00 00       	nop	
     9b2:	00 20       	.word	H'0,H'20
     9b4:	00 00       	nop	
     9b6:	06 f0       	andc	#0xf0,ccr
     9b8:	00 40       	.word	H'0,H'40
     9ba:	22 28       	mov.b	@0x28:8,r2h
     9bc:	00 00       	nop	
     9be:	00 38       	.word	H'0,H'38
     9c0:	04 00       	orc	#0x0,ccr
     9c2:	00 00       	nop	
     9c4:	04 0e       	orc	#0xe,ccr
     9c6:	08 11       	add.b	r1h,r1h
     9c8:	06 7c       	andc	#0x7c,ccr
     9ca:	04 00       	orc	#0x0,ccr
     9cc:	00 00       	nop	
     9ce:	02 0d       	stc	ccr,r5l
     9d0:	06 00       	andc	#0x0,ccr
     9d2:	00 00       	nop	
     9d4:	00 00       	nop	
     9d6:	00 20       	.word	H'0,H'20
     9d8:	00 00       	nop	
     9da:	06 f0       	andc	#0xf0,ccr
     9dc:	00 40       	.word	H'0,H'40
     9de:	22 60       	mov.b	@0x60:8,r2h
     9e0:	00 00       	nop	
     9e2:	00 3e       	.word	H'0,H'3e
     9e4:	04 00       	orc	#0x0,ccr
     9e6:	00 00       	nop	
     9e8:	04 0e       	orc	#0xe,ccr
     9ea:	08 11       	add.b	r1h,r1h
     9ec:	06 7c       	andc	#0x7c,ccr
     9ee:	04 00       	orc	#0x0,ccr
     9f0:	00 00       	nop	
     9f2:	02 0d       	stc	ccr,r5l
     9f4:	06 00       	andc	#0x0,ccr
     9f6:	00 00       	nop	
     9f8:	00 00       	nop	
     9fa:	00 20       	.word	H'0,H'20
     9fc:	00 00       	nop	
     9fe:	06 f0       	andc	#0xf0,ccr
     a00:	00 40       	.word	H'0,H'40
     a02:	22 9e       	mov.b	@0x9e:8,r2h
     a04:	00 00       	nop	
     a06:	00 78       	.word	H'0,H'78
     a08:	04 00       	orc	#0x0,ccr
     a0a:	00 00       	nop	
     a0c:	04 0e       	orc	#0xe,ccr
     a0e:	08 11       	add.b	r1h,r1h
     a10:	06 7c       	andc	#0x7c,ccr
     a12:	04 00       	orc	#0x0,ccr
     a14:	00 00       	nop	
     a16:	02 0d       	stc	ccr,r5l
     a18:	06 00       	andc	#0x0,ccr
     a1a:	00 00       	nop	
     a1c:	00 00       	nop	
     a1e:	00 20       	.word	H'0,H'20
     a20:	00 00       	nop	
     a22:	06 f0       	andc	#0xf0,ccr
     a24:	00 40       	.word	H'0,H'40
     a26:	23 16       	mov.b	@0x16:8,r3h
     a28:	00 00       	nop	
     a2a:	00 30       	.word	H'0,H'30
     a2c:	04 00       	orc	#0x0,ccr
     a2e:	00 00       	nop	
     a30:	04 0e       	orc	#0xe,ccr
     a32:	08 11       	add.b	r1h,r1h
     a34:	06 7c       	andc	#0x7c,ccr
     a36:	04 00       	orc	#0x0,ccr
     a38:	00 00       	nop	
     a3a:	02 0d       	stc	ccr,r5l
     a3c:	06 00       	andc	#0x0,ccr
     a3e:	00 00       	nop	
     a40:	00 00       	nop	
     a42:	00 20       	.word	H'0,H'20
     a44:	00 00       	nop	
     a46:	06 f0       	andc	#0xf0,ccr
     a48:	00 40       	.word	H'0,H'40
     a4a:	23 46       	mov.b	@0x46:8,r3h
     a4c:	00 00       	nop	
     a4e:	00 30       	.word	H'0,H'30
     a50:	04 00       	orc	#0x0,ccr
     a52:	00 00       	nop	
     a54:	04 0e       	orc	#0xe,ccr
     a56:	08 11       	add.b	r1h,r1h
     a58:	06 7c       	andc	#0x7c,ccr
     a5a:	04 00       	orc	#0x0,ccr
     a5c:	00 00       	nop	
     a5e:	02 0d       	stc	ccr,r5l
     a60:	06 00       	andc	#0x0,ccr
     a62:	00 00       	nop	
     a64:	00 00       	nop	
     a66:	00 20       	.word	H'0,H'20
     a68:	00 00       	nop	
     a6a:	06 f0       	andc	#0xf0,ccr
     a6c:	00 40       	.word	H'0,H'40
     a6e:	23 76       	mov.b	@0x76:8,r3h
     a70:	00 00       	nop	
     a72:	00 7c       	.word	H'0,H'7c
     a74:	04 00       	orc	#0x0,ccr
     a76:	00 00       	nop	
     a78:	04 0e       	orc	#0xe,ccr
     a7a:	08 11       	add.b	r1h,r1h
     a7c:	06 7c       	andc	#0x7c,ccr
     a7e:	04 00       	orc	#0x0,ccr
     a80:	00 00       	nop	
     a82:	02 0d       	stc	ccr,r5l
     a84:	06 00       	andc	#0x0,ccr
     a86:	00 00       	nop	
     a88:	00 00       	nop	
     a8a:	00 20       	.word	H'0,H'20
     a8c:	00 00       	nop	
     a8e:	06 f0       	andc	#0xf0,ccr
     a90:	00 40       	.word	H'0,H'40
     a92:	23 f2       	mov.b	@0xf2:8,r3h
     a94:	00 00       	nop	
     a96:	00 f8       	.word	H'0,H'f8
     a98:	04 00       	orc	#0x0,ccr
     a9a:	00 00       	nop	
     a9c:	04 0e       	orc	#0xe,ccr
     a9e:	08 11       	add.b	r1h,r1h
     aa0:	06 7c       	andc	#0x7c,ccr
     aa2:	04 00       	orc	#0x0,ccr
     aa4:	00 00       	nop	
     aa6:	02 0d       	stc	ccr,r5l
     aa8:	06 00       	andc	#0x0,ccr
     aaa:	00 00       	nop	
     aac:	00 00       	nop	
     aae:	00 20       	.word	H'0,H'20
     ab0:	00 00       	nop	
     ab2:	06 f0       	andc	#0xf0,ccr
     ab4:	00 40       	.word	H'0,H'40
     ab6:	24 ea       	mov.b	@0xea:8,r4h
     ab8:	00 00       	nop	
     aba:	00 12       	.word	H'0,H'12
     abc:	04 00       	orc	#0x0,ccr
     abe:	00 00       	nop	
     ac0:	04 0e       	orc	#0xe,ccr
     ac2:	08 11       	add.b	r1h,r1h
     ac4:	06 7c       	andc	#0x7c,ccr
     ac6:	04 00       	orc	#0x0,ccr
     ac8:	00 00       	nop	
     aca:	02 0d       	stc	ccr,r5l
     acc:	06 00       	andc	#0x0,ccr
     ace:	00 00       	nop	
     ad0:	00 00       	nop	
     ad2:	00 20       	.word	H'0,H'20
     ad4:	00 00       	nop	
     ad6:	06 f0       	andc	#0xf0,ccr
     ad8:	00 40       	.word	H'0,H'40
     ada:	24 fc       	mov.b	@0xfc:8,r4h
     adc:	00 00       	nop	
     ade:	00 48       	.word	H'0,H'48
     ae0:	04 00       	orc	#0x0,ccr
     ae2:	00 00       	nop	
     ae4:	04 0e       	orc	#0xe,ccr
     ae6:	08 11       	add.b	r1h,r1h
     ae8:	06 7c       	andc	#0x7c,ccr
     aea:	04 00       	orc	#0x0,ccr
     aec:	00 00       	nop	
     aee:	02 0d       	stc	ccr,r5l
     af0:	06 00       	andc	#0x0,ccr
     af2:	00 00       	nop	
     af4:	00 00       	nop	
     af6:	00 20       	.word	H'0,H'20
     af8:	00 00       	nop	
     afa:	06 f0       	andc	#0xf0,ccr
     afc:	00 40       	.word	H'0,H'40
     afe:	25 44       	mov.b	@0x44:8,r5h
     b00:	00 00       	nop	
     b02:	00 34       	.word	H'0,H'34
     b04:	04 00       	orc	#0x0,ccr
     b06:	00 00       	nop	
     b08:	04 0e       	orc	#0xe,ccr
     b0a:	08 11       	add.b	r1h,r1h
     b0c:	06 7c       	andc	#0x7c,ccr
     b0e:	04 00       	orc	#0x0,ccr
     b10:	00 00       	nop	
     b12:	02 0d       	stc	ccr,r5l
     b14:	06 00       	andc	#0x0,ccr
	...

00000b18 <.Lframe0>:
     b18:	00 00       	nop	
     b1a:	00 10       	.word	H'0,H'10
     b1c:	ff ff       	mov.b	#0xff,r7l
     b1e:	ff ff       	mov.b	#0xff,r7l
     b20:	03 00       	ldc	r0h,ccr
     b22:	01 02       	.word	H'1,H'2
     b24:	0c 0c       	mov.b	r0h,r4l
     b26:	07 04       	ldc	#0x4,ccr
     b28:	11 0c       	shlr.b	r4l
     b2a:	7e 00       	.word	H'7e,H'0
     b2c:	00 00       	nop	
     b2e:	00 20       	.word	H'0,H'20
     b30:	00 00       	nop	
     b32:	0b 18       	.word	H'b,H'18
     b34:	00 40       	.word	H'0,H'40
     b36:	25 78       	mov.b	@0x78:8,r5h
     b38:	00 00       	nop	
     b3a:	00 7c       	.word	H'0,H'7c
     b3c:	04 00       	orc	#0x0,ccr
     b3e:	00 00       	nop	
     b40:	04 0e       	orc	#0xe,ccr
     b42:	08 11       	add.b	r1h,r1h
     b44:	06 7c       	andc	#0x7c,ccr
     b46:	04 00       	orc	#0x0,ccr
     b48:	00 00       	nop	
     b4a:	02 0d       	stc	ccr,r5l
     b4c:	06 00       	andc	#0x0,ccr
     b4e:	00 00       	nop	
     b50:	00 00       	nop	
     b52:	00 20       	.word	H'0,H'20
     b54:	00 00       	nop	
     b56:	0b 18       	.word	H'b,H'18
     b58:	00 40       	.word	H'0,H'40
     b5a:	25 f4       	mov.b	@0xf4:8,r5h
     b5c:	00 00       	nop	
     b5e:	00 18       	.word	H'0,H'18
     b60:	04 00       	orc	#0x0,ccr
     b62:	00 00       	nop	
     b64:	04 0e       	orc	#0xe,ccr
     b66:	08 11       	add.b	r1h,r1h
     b68:	06 7c       	andc	#0x7c,ccr
     b6a:	04 00       	orc	#0x0,ccr
     b6c:	00 00       	nop	
     b6e:	02 0d       	stc	ccr,r5l
     b70:	06 00       	andc	#0x0,ccr
     b72:	00 00       	nop	
     b74:	00 00       	nop	
     b76:	00 20       	.word	H'0,H'20
     b78:	00 00       	nop	
     b7a:	0b 18       	.word	H'b,H'18
     b7c:	00 40       	.word	H'0,H'40
     b7e:	26 0c       	mov.b	@0xc:8,r6h
     b80:	00 00       	nop	
     b82:	00 30       	.word	H'0,H'30
     b84:	04 00       	orc	#0x0,ccr
     b86:	00 00       	nop	
     b88:	04 0e       	orc	#0xe,ccr
     b8a:	08 11       	add.b	r1h,r1h
     b8c:	06 7c       	andc	#0x7c,ccr
     b8e:	04 00       	orc	#0x0,ccr
     b90:	00 00       	nop	
     b92:	02 0d       	stc	ccr,r5l
     b94:	06 00       	andc	#0x0,ccr
     b96:	00 00       	nop	
     b98:	00 00       	nop	
     b9a:	00 20       	.word	H'0,H'20
     b9c:	00 00       	nop	
     b9e:	0b 18       	.word	H'b,H'18
     ba0:	00 40       	.word	H'0,H'40
     ba2:	26 3c       	mov.b	@0x3c:8,r6h
     ba4:	00 00       	nop	
     ba6:	00 30       	.word	H'0,H'30
     ba8:	04 00       	orc	#0x0,ccr
     baa:	00 00       	nop	
     bac:	04 0e       	orc	#0xe,ccr
     bae:	08 11       	add.b	r1h,r1h
     bb0:	06 7c       	andc	#0x7c,ccr
     bb2:	04 00       	orc	#0x0,ccr
     bb4:	00 00       	nop	
     bb6:	02 0d       	stc	ccr,r5l
     bb8:	06 00       	andc	#0x0,ccr
     bba:	00 00       	nop	
     bbc:	00 00       	nop	
     bbe:	00 20       	.word	H'0,H'20
     bc0:	00 00       	nop	
     bc2:	0b 18       	.word	H'b,H'18
     bc4:	00 40       	.word	H'0,H'40
     bc6:	26 6c       	mov.b	@0x6c:8,r6h
     bc8:	00 00       	nop	
     bca:	00 42       	.word	H'0,H'42
     bcc:	04 00       	orc	#0x0,ccr
     bce:	00 00       	nop	
     bd0:	04 0e       	orc	#0xe,ccr
     bd2:	08 11       	add.b	r1h,r1h
     bd4:	06 7c       	andc	#0x7c,ccr
     bd6:	04 00       	orc	#0x0,ccr
     bd8:	00 00       	nop	
     bda:	02 0d       	stc	ccr,r5l
     bdc:	06 00       	andc	#0x0,ccr
     bde:	00 00       	nop	
     be0:	00 00       	nop	
     be2:	00 20       	.word	H'0,H'20
     be4:	00 00       	nop	
     be6:	0b 18       	.word	H'b,H'18
     be8:	00 40       	.word	H'0,H'40
     bea:	26 ae       	mov.b	@0xae:8,r6h
     bec:	00 00       	nop	
     bee:	00 32       	.word	H'0,H'32
     bf0:	04 00       	orc	#0x0,ccr
     bf2:	00 00       	nop	
     bf4:	04 0e       	orc	#0xe,ccr
     bf6:	08 11       	add.b	r1h,r1h
     bf8:	06 7c       	andc	#0x7c,ccr
     bfa:	04 00       	orc	#0x0,ccr
     bfc:	00 00       	nop	
     bfe:	02 0d       	stc	ccr,r5l
     c00:	06 00       	andc	#0x0,ccr
     c02:	00 00       	nop	
     c04:	00 00       	nop	
     c06:	00 20       	.word	H'0,H'20
     c08:	00 00       	nop	
     c0a:	0b 18       	.word	H'b,H'18
     c0c:	00 40       	.word	H'0,H'40
     c0e:	26 e0       	mov.b	@0xe0:8,r6h
     c10:	00 00       	nop	
     c12:	00 3c       	.word	H'0,H'3c
     c14:	04 00       	orc	#0x0,ccr
     c16:	00 00       	nop	
     c18:	04 0e       	orc	#0xe,ccr
     c1a:	08 11       	add.b	r1h,r1h
     c1c:	06 7c       	andc	#0x7c,ccr
     c1e:	04 00       	orc	#0x0,ccr
     c20:	00 00       	nop	
     c22:	02 0d       	stc	ccr,r5l
     c24:	06 00       	andc	#0x0,ccr
     c26:	00 00       	nop	
     c28:	00 00       	nop	
     c2a:	00 20       	.word	H'0,H'20
     c2c:	00 00       	nop	
     c2e:	0b 18       	.word	H'b,H'18
     c30:	00 40       	.word	H'0,H'40
     c32:	27 1c       	mov.b	@0x1c:8,r7h
     c34:	00 00       	nop	
     c36:	00 3e       	.word	H'0,H'3e
     c38:	04 00       	orc	#0x0,ccr
     c3a:	00 00       	nop	
     c3c:	04 0e       	orc	#0xe,ccr
     c3e:	08 11       	add.b	r1h,r1h
     c40:	06 7c       	andc	#0x7c,ccr
     c42:	04 00       	orc	#0x0,ccr
     c44:	00 00       	nop	
     c46:	02 0d       	stc	ccr,r5l
     c48:	06 00       	andc	#0x0,ccr
     c4a:	00 00       	nop	
     c4c:	00 00       	nop	
     c4e:	00 20       	.word	H'0,H'20
     c50:	00 00       	nop	
     c52:	0b 18       	.word	H'b,H'18
     c54:	00 40       	.word	H'0,H'40
     c56:	27 5a       	mov.b	@0x5a:8,r7h
     c58:	00 00       	nop	
     c5a:	00 42       	.word	H'0,H'42
     c5c:	04 00       	orc	#0x0,ccr
     c5e:	00 00       	nop	
     c60:	04 0e       	orc	#0xe,ccr
     c62:	08 11       	add.b	r1h,r1h
     c64:	06 7c       	andc	#0x7c,ccr
     c66:	04 00       	orc	#0x0,ccr
     c68:	00 00       	nop	
     c6a:	02 0d       	stc	ccr,r5l
     c6c:	06 00       	andc	#0x0,ccr
     c6e:	00 00       	nop	
     c70:	00 00       	nop	
     c72:	00 20       	.word	H'0,H'20
     c74:	00 00       	nop	
     c76:	0b 18       	.word	H'b,H'18
     c78:	00 40       	.word	H'0,H'40
     c7a:	27 9c       	mov.b	@0x9c:8,r7h
     c7c:	00 00       	nop	
     c7e:	00 5a       	.word	H'0,H'5a
     c80:	04 00       	orc	#0x0,ccr
     c82:	00 00       	nop	
     c84:	04 0e       	orc	#0xe,ccr
     c86:	08 11       	add.b	r1h,r1h
     c88:	06 7c       	andc	#0x7c,ccr
     c8a:	04 00       	orc	#0x0,ccr
     c8c:	00 00       	nop	
     c8e:	02 0d       	stc	ccr,r5l
     c90:	06 00       	andc	#0x0,ccr
     c92:	00 00       	nop	
     c94:	00 00       	nop	
     c96:	00 20       	.word	H'0,H'20
     c98:	00 00       	nop	
     c9a:	0b 18       	.word	H'b,H'18
     c9c:	00 40       	.word	H'0,H'40
     c9e:	27 f6       	mov.b	@0xf6:8,r7h
     ca0:	00 00       	nop	
     ca2:	00 62       	.word	H'0,H'62
     ca4:	04 00       	orc	#0x0,ccr
     ca6:	00 00       	nop	
     ca8:	04 0e       	orc	#0xe,ccr
     caa:	08 11       	add.b	r1h,r1h
     cac:	06 7c       	andc	#0x7c,ccr
     cae:	04 00       	orc	#0x0,ccr
     cb0:	00 00       	nop	
     cb2:	02 0d       	stc	ccr,r5l
     cb4:	06 00       	andc	#0x0,ccr
     cb6:	00 00       	nop	
     cb8:	00 00       	nop	
     cba:	00 20       	.word	H'0,H'20
     cbc:	00 00       	nop	
     cbe:	0b 18       	.word	H'b,H'18
     cc0:	00 40       	.word	H'0,H'40
     cc2:	28 58       	mov.b	@0x58:8,r0l
     cc4:	00 00       	nop	
     cc6:	00 4e       	.word	H'0,H'4e
     cc8:	04 00       	orc	#0x0,ccr
     cca:	00 00       	nop	
     ccc:	04 0e       	orc	#0xe,ccr
     cce:	08 11       	add.b	r1h,r1h
     cd0:	06 7c       	andc	#0x7c,ccr
     cd2:	04 00       	orc	#0x0,ccr
     cd4:	00 00       	nop	
     cd6:	02 0d       	stc	ccr,r5l
     cd8:	06 00       	andc	#0x0,ccr
     cda:	00 00       	nop	
     cdc:	00 00       	nop	
     cde:	00 20       	.word	H'0,H'20
     ce0:	00 00       	nop	
     ce2:	0b 18       	.word	H'b,H'18
     ce4:	00 40       	.word	H'0,H'40
     ce6:	28 a6       	mov.b	@0xa6:8,r0l
     ce8:	00 00       	nop	
     cea:	00 42       	.word	H'0,H'42
     cec:	04 00       	orc	#0x0,ccr
     cee:	00 00       	nop	
     cf0:	04 0e       	orc	#0xe,ccr
     cf2:	08 11       	add.b	r1h,r1h
     cf4:	06 7c       	andc	#0x7c,ccr
     cf6:	04 00       	orc	#0x0,ccr
     cf8:	00 00       	nop	
     cfa:	02 0d       	stc	ccr,r5l
     cfc:	06 00       	andc	#0x0,ccr
     cfe:	00 00       	nop	
     d00:	00 00       	nop	
     d02:	00 20       	.word	H'0,H'20
     d04:	00 00       	nop	
     d06:	0b 18       	.word	H'b,H'18
     d08:	00 40       	.word	H'0,H'40
     d0a:	28 e8       	mov.b	@0xe8:8,r0l
     d0c:	00 00       	nop	
     d0e:	00 3e       	.word	H'0,H'3e
     d10:	04 00       	orc	#0x0,ccr
     d12:	00 00       	nop	
     d14:	04 0e       	orc	#0xe,ccr
     d16:	08 11       	add.b	r1h,r1h
     d18:	06 7c       	andc	#0x7c,ccr
     d1a:	04 00       	orc	#0x0,ccr
     d1c:	00 00       	nop	
     d1e:	02 0d       	stc	ccr,r5l
     d20:	06 00       	andc	#0x0,ccr
     d22:	00 00       	nop	
     d24:	00 00       	nop	
     d26:	00 20       	.word	H'0,H'20
     d28:	00 00       	nop	
     d2a:	0b 18       	.word	H'b,H'18
     d2c:	00 40       	.word	H'0,H'40
     d2e:	29 26       	mov.b	@0x26:8,r1l
     d30:	00 00       	nop	
     d32:	00 42       	.word	H'0,H'42
     d34:	04 00       	orc	#0x0,ccr
     d36:	00 00       	nop	
     d38:	04 0e       	orc	#0xe,ccr
     d3a:	08 11       	add.b	r1h,r1h
     d3c:	06 7c       	andc	#0x7c,ccr
     d3e:	04 00       	orc	#0x0,ccr
     d40:	00 00       	nop	
     d42:	02 0d       	stc	ccr,r5l
     d44:	06 00       	andc	#0x0,ccr
     d46:	00 00       	nop	
     d48:	00 00       	nop	
     d4a:	00 20       	.word	H'0,H'20
     d4c:	00 00       	nop	
     d4e:	0b 18       	.word	H'b,H'18
     d50:	00 40       	.word	H'0,H'40
     d52:	29 68       	mov.b	@0x68:8,r1l
     d54:	00 00       	nop	
     d56:	00 5a       	.word	H'0,H'5a
     d58:	04 00       	orc	#0x0,ccr
     d5a:	00 00       	nop	
     d5c:	04 0e       	orc	#0xe,ccr
     d5e:	08 11       	add.b	r1h,r1h
     d60:	06 7c       	andc	#0x7c,ccr
     d62:	04 00       	orc	#0x0,ccr
     d64:	00 00       	nop	
     d66:	02 0d       	stc	ccr,r5l
     d68:	06 00       	andc	#0x0,ccr
	...

00000d6c <.Lframe0>:
     d6c:	00 00       	nop	
     d6e:	00 10       	.word	H'0,H'10
     d70:	ff ff       	mov.b	#0xff,r7l
     d72:	ff ff       	mov.b	#0xff,r7l
     d74:	03 00       	ldc	r0h,ccr
     d76:	01 02       	.word	H'1,H'2
     d78:	0c 0c       	mov.b	r0h,r4l
     d7a:	07 04       	ldc	#0x4,ccr
     d7c:	11 0c       	shlr.b	r4l
     d7e:	7e 00       	.word	H'7e,H'0
     d80:	00 00       	nop	
     d82:	00 20       	.word	H'0,H'20
     d84:	00 00       	nop	
     d86:	0d 6c       	mov.w	r6,e4
     d88:	00 40       	.word	H'0,H'40
     d8a:	29 c2       	mov.b	@0xc2:8,r1l
     d8c:	00 00       	nop	
     d8e:	00 da       	.word	H'0,H'da
     d90:	04 00       	orc	#0x0,ccr
     d92:	00 00       	nop	
     d94:	04 0e       	orc	#0xe,ccr
     d96:	08 11       	add.b	r1h,r1h
     d98:	06 7c       	andc	#0x7c,ccr
     d9a:	04 00       	orc	#0x0,ccr
     d9c:	00 00       	nop	
     d9e:	02 0d       	stc	ccr,r5l
     da0:	06 00       	andc	#0x0,ccr
     da2:	00 00       	nop	
     da4:	00 00       	nop	
     da6:	00 20       	.word	H'0,H'20
     da8:	00 00       	nop	
     daa:	0d 6c       	mov.w	r6,e4
     dac:	00 40       	.word	H'0,H'40
     dae:	2a 9c       	mov.b	@0x9c:8,r2l
     db0:	00 00       	nop	
     db2:	00 48       	.word	H'0,H'48
     db4:	04 00       	orc	#0x0,ccr
     db6:	00 00       	nop	
     db8:	04 0e       	orc	#0xe,ccr
     dba:	08 11       	add.b	r1h,r1h
     dbc:	06 7c       	andc	#0x7c,ccr
     dbe:	04 00       	orc	#0x0,ccr
     dc0:	00 00       	nop	
     dc2:	02 0d       	stc	ccr,r5l
     dc4:	06 00       	andc	#0x0,ccr
     dc6:	00 00       	nop	
     dc8:	00 00       	nop	
     dca:	00 20       	.word	H'0,H'20
     dcc:	00 00       	nop	
     dce:	0d 6c       	mov.w	r6,e4
     dd0:	00 40       	.word	H'0,H'40
     dd2:	2a e4       	mov.b	@0xe4:8,r2l
     dd4:	00 00       	nop	
     dd6:	00 d4       	.word	H'0,H'd4
     dd8:	04 00       	orc	#0x0,ccr
     dda:	00 00       	nop	
     ddc:	04 0e       	orc	#0xe,ccr
     dde:	08 11       	add.b	r1h,r1h
     de0:	06 7c       	andc	#0x7c,ccr
     de2:	04 00       	orc	#0x0,ccr
     de4:	00 00       	nop	
     de6:	02 0d       	stc	ccr,r5l
     de8:	06 00       	andc	#0x0,ccr
     dea:	00 00       	nop	
     dec:	00 00       	nop	
     dee:	00 20       	.word	H'0,H'20
     df0:	00 00       	nop	
     df2:	0d 6c       	mov.w	r6,e4
     df4:	00 40       	.word	H'0,H'40
     df6:	2b b8       	mov.b	@0xb8:8,r3l
     df8:	00 00       	nop	
     dfa:	00 a6       	.word	H'0,H'a6
     dfc:	04 00       	orc	#0x0,ccr
     dfe:	00 00       	nop	
     e00:	04 0e       	orc	#0xe,ccr
     e02:	08 11       	add.b	r1h,r1h
     e04:	06 7c       	andc	#0x7c,ccr
     e06:	04 00       	orc	#0x0,ccr
     e08:	00 00       	nop	
     e0a:	02 0d       	stc	ccr,r5l
     e0c:	06 00       	andc	#0x0,ccr
	...

00000e10 <.Lframe0>:
     e10:	00 00       	nop	
     e12:	00 10       	.word	H'0,H'10
     e14:	ff ff       	mov.b	#0xff,r7l
     e16:	ff ff       	mov.b	#0xff,r7l
     e18:	03 00       	ldc	r0h,ccr
     e1a:	01 02       	.word	H'1,H'2
     e1c:	0c 0c       	mov.b	r0h,r4l
     e1e:	07 04       	ldc	#0x4,ccr
     e20:	11 0c       	shlr.b	r4l
     e22:	7e 00       	.word	H'7e,H'0
     e24:	00 00       	nop	
     e26:	00 20       	.word	H'0,H'20
     e28:	00 00       	nop	
     e2a:	0e 10       	addx	r1h,r0h
     e2c:	00 40       	.word	H'0,H'40
     e2e:	2c 5e       	mov.b	@0x5e:8,r4l
     e30:	00 00       	nop	
     e32:	00 64       	.word	H'0,H'64
     e34:	04 00       	orc	#0x0,ccr
     e36:	00 00       	nop	
     e38:	04 0e       	orc	#0xe,ccr
     e3a:	08 11       	add.b	r1h,r1h
     e3c:	06 7c       	andc	#0x7c,ccr
     e3e:	04 00       	orc	#0x0,ccr
     e40:	00 00       	nop	
     e42:	02 0d       	stc	ccr,r5l
     e44:	06 00       	andc	#0x0,ccr
     e46:	00 00       	nop	
     e48:	00 00       	nop	
     e4a:	00 20       	.word	H'0,H'20
     e4c:	00 00       	nop	
     e4e:	0e 10       	addx	r1h,r0h
     e50:	00 40       	.word	H'0,H'40
     e52:	2c c2       	mov.b	@0xc2:8,r4l
     e54:	00 00       	nop	
     e56:	00 92       	.word	H'0,H'92
     e58:	04 00       	orc	#0x0,ccr
     e5a:	00 00       	nop	
     e5c:	04 0e       	orc	#0xe,ccr
     e5e:	08 11       	add.b	r1h,r1h
     e60:	06 7c       	andc	#0x7c,ccr
     e62:	04 00       	orc	#0x0,ccr
     e64:	00 00       	nop	
     e66:	02 0d       	stc	ccr,r5l
     e68:	06 00       	andc	#0x0,ccr
     e6a:	00 00       	nop	
     e6c:	00 00       	nop	
     e6e:	00 20       	.word	H'0,H'20
     e70:	00 00       	nop	
     e72:	0e 10       	addx	r1h,r0h
     e74:	00 40       	.word	H'0,H'40
     e76:	2d 54       	mov.b	@0x54:8,r5l
     e78:	00 00       	nop	
     e7a:	00 54       	.word	H'0,H'54
     e7c:	04 00       	orc	#0x0,ccr
     e7e:	00 00       	nop	
     e80:	04 0e       	orc	#0xe,ccr
     e82:	08 11       	add.b	r1h,r1h
     e84:	06 7c       	andc	#0x7c,ccr
     e86:	04 00       	orc	#0x0,ccr
     e88:	00 00       	nop	
     e8a:	02 0d       	stc	ccr,r5l
     e8c:	06 00       	andc	#0x0,ccr
     e8e:	00 00       	nop	
     e90:	00 00       	nop	
     e92:	00 20       	.word	H'0,H'20
     e94:	00 00       	nop	
     e96:	0e 10       	addx	r1h,r0h
     e98:	00 40       	.word	H'0,H'40
     e9a:	2d a8       	mov.b	@0xa8:8,r5l
     e9c:	00 00       	nop	
     e9e:	00 e4       	.word	H'0,H'e4
     ea0:	04 00       	orc	#0x0,ccr
     ea2:	00 00       	nop	
     ea4:	04 0e       	orc	#0xe,ccr
     ea6:	08 11       	add.b	r1h,r1h
     ea8:	06 7c       	andc	#0x7c,ccr
     eaa:	04 00       	orc	#0x0,ccr
     eac:	00 00       	nop	
     eae:	02 0d       	stc	ccr,r5l
     eb0:	06 00       	andc	#0x0,ccr
	...

00000eb4 <.Lframe0>:
     eb4:	00 00       	nop	
     eb6:	00 10       	.word	H'0,H'10
     eb8:	ff ff       	mov.b	#0xff,r7l
     eba:	ff ff       	mov.b	#0xff,r7l
     ebc:	03 00       	ldc	r0h,ccr
     ebe:	01 02       	.word	H'1,H'2
     ec0:	0c 0c       	mov.b	r0h,r4l
     ec2:	07 04       	ldc	#0x4,ccr
     ec4:	11 0c       	shlr.b	r4l
     ec6:	7e 00       	.word	H'7e,H'0
     ec8:	00 00       	nop	
     eca:	00 20       	.word	H'0,H'20
     ecc:	00 00       	nop	
     ece:	0e b4       	addx	r3l,r4h
     ed0:	00 40       	.word	H'0,H'40
     ed2:	2e 8c       	mov.b	@0x8c:8,r6l
     ed4:	00 00       	nop	
     ed6:	00 56       	.word	H'0,H'56
     ed8:	04 00       	orc	#0x0,ccr
     eda:	00 00       	nop	
     edc:	04 0e       	orc	#0xe,ccr
     ede:	08 11       	add.b	r1h,r1h
     ee0:	06 7c       	andc	#0x7c,ccr
     ee2:	04 00       	orc	#0x0,ccr
     ee4:	00 00       	nop	
     ee6:	02 0d       	stc	ccr,r5l
     ee8:	06 00       	andc	#0x0,ccr
     eea:	00 00       	nop	
     eec:	00 00       	nop	
     eee:	00 20       	.word	H'0,H'20
     ef0:	00 00       	nop	
     ef2:	0e b4       	addx	r3l,r4h
     ef4:	00 40       	.word	H'0,H'40
     ef6:	2e e2       	mov.b	@0xe2:8,r6l
     ef8:	00 00       	nop	
     efa:	00 92       	.word	H'0,H'92
     efc:	04 00       	orc	#0x0,ccr
     efe:	00 00       	nop	
     f00:	04 0e       	orc	#0xe,ccr
     f02:	08 11       	add.b	r1h,r1h
     f04:	06 7c       	andc	#0x7c,ccr
     f06:	04 00       	orc	#0x0,ccr
     f08:	00 00       	nop	
     f0a:	02 0d       	stc	ccr,r5l
     f0c:	06 00       	andc	#0x0,ccr
     f0e:	00 00       	nop	
     f10:	00 00       	nop	
     f12:	00 20       	.word	H'0,H'20
     f14:	00 00       	nop	
     f16:	0e b4       	addx	r3l,r4h
     f18:	00 40       	.word	H'0,H'40
     f1a:	2f 74       	mov.b	@0x74:8,r7l
     f1c:	00 00       	nop	
     f1e:	00 3e       	.word	H'0,H'3e
     f20:	04 00       	orc	#0x0,ccr
     f22:	00 00       	nop	
     f24:	04 0e       	orc	#0xe,ccr
     f26:	08 11       	add.b	r1h,r1h
     f28:	06 7c       	andc	#0x7c,ccr
     f2a:	04 00       	orc	#0x0,ccr
     f2c:	00 00       	nop	
     f2e:	02 0d       	stc	ccr,r5l
     f30:	06 00       	andc	#0x0,ccr
	...

00000f34 <.Lframe0>:
     f34:	00 00       	nop	
     f36:	00 10       	.word	H'0,H'10
     f38:	ff ff       	mov.b	#0xff,r7l
     f3a:	ff ff       	mov.b	#0xff,r7l
     f3c:	03 00       	ldc	r0h,ccr
     f3e:	01 02       	.word	H'1,H'2
     f40:	0c 0c       	mov.b	r0h,r4l
     f42:	07 04       	ldc	#0x4,ccr
     f44:	11 0c       	shlr.b	r4l
     f46:	7e 00       	.word	H'7e,H'0
     f48:	00 00       	nop	
     f4a:	00 20       	.word	H'0,H'20
     f4c:	00 00       	nop	
     f4e:	0f 34       	mov.w	#0x3,r4
     f50:	00 40       	.word	H'0,H'40
     f52:	2f b2       	mov.b	@0xb2:8,r7l
     f54:	00 00       	nop	
     f56:	00 de       	.word	H'0,H'de
     f58:	04 00       	orc	#0x0,ccr
     f5a:	00 00       	nop	
     f5c:	04 0e       	orc	#0xe,ccr
     f5e:	08 11       	add.b	r1h,r1h
     f60:	06 7c       	andc	#0x7c,ccr
     f62:	04 00       	orc	#0x0,ccr
     f64:	00 00       	nop	
     f66:	02 0d       	stc	ccr,r5l
     f68:	06 00       	andc	#0x0,ccr
     f6a:	00 00       	nop	
     f6c:	00 00       	nop	
     f6e:	00 20       	.word	H'0,H'20
     f70:	00 00       	nop	
     f72:	0f 34       	mov.w	#0x3,r4
     f74:	00 40       	.word	H'0,H'40
     f76:	30 90       	mov.b	r0h,@0x90:8
     f78:	00 00       	nop	
     f7a:	00 7e       	.word	H'0,H'7e
     f7c:	04 00       	orc	#0x0,ccr
     f7e:	00 00       	nop	
     f80:	04 0e       	orc	#0xe,ccr
     f82:	08 11       	add.b	r1h,r1h
     f84:	06 7c       	andc	#0x7c,ccr
     f86:	04 00       	orc	#0x0,ccr
     f88:	00 00       	nop	
     f8a:	02 0d       	stc	ccr,r5l
     f8c:	06 00       	andc	#0x0,ccr
     f8e:	00 00       	nop	
     f90:	00 00       	nop	
     f92:	00 20       	.word	H'0,H'20
     f94:	00 00       	nop	
     f96:	0f 34       	mov.w	#0x3,r4
     f98:	00 40       	.word	H'0,H'40
     f9a:	31 0e       	mov.b	r1h,@0xe:8
     f9c:	00 00       	nop	
     f9e:	01 8a       	.word	H'1,H'8a
     fa0:	04 00       	orc	#0x0,ccr
     fa2:	00 00       	nop	
     fa4:	04 0e       	orc	#0xe,ccr
     fa6:	08 11       	add.b	r1h,r1h
     fa8:	06 7c       	andc	#0x7c,ccr
     faa:	04 00       	orc	#0x0,ccr
     fac:	00 00       	nop	
     fae:	02 0d       	stc	ccr,r5l
     fb0:	06 00       	andc	#0x0,ccr
     fb2:	00 00       	nop	
     fb4:	00 00       	nop	
     fb6:	00 20       	.word	H'0,H'20
     fb8:	00 00       	nop	
     fba:	0f 34       	mov.w	#0x3,r4
     fbc:	00 40       	.word	H'0,H'40
     fbe:	32 98       	mov.b	r2h,@0x98:8
     fc0:	00 00       	nop	
     fc2:	01 9c       	.word	H'1,H'9c
     fc4:	04 00       	orc	#0x0,ccr
     fc6:	00 00       	nop	
     fc8:	04 0e       	orc	#0xe,ccr
     fca:	08 11       	add.b	r1h,r1h
     fcc:	06 7c       	andc	#0x7c,ccr
     fce:	04 00       	orc	#0x0,ccr
     fd0:	00 00       	nop	
     fd2:	02 0d       	stc	ccr,r5l
     fd4:	06 00       	andc	#0x0,ccr
     fd6:	00 00       	nop	
     fd8:	00 00       	nop	
     fda:	00 20       	.word	H'0,H'20
     fdc:	00 00       	nop	
     fde:	0f 34       	mov.w	#0x3,r4
     fe0:	00 40       	.word	H'0,H'40
     fe2:	34 34       	mov.b	r4h,@0x34:8
     fe4:	00 00       	nop	
     fe6:	01 16       	.word	H'1,H'16
     fe8:	04 00       	orc	#0x0,ccr
     fea:	00 00       	nop	
     fec:	04 0e       	orc	#0xe,ccr
     fee:	08 11       	add.b	r1h,r1h
     ff0:	06 7c       	andc	#0x7c,ccr
     ff2:	04 00       	orc	#0x0,ccr
     ff4:	00 00       	nop	
     ff6:	02 0d       	stc	ccr,r5l
     ff8:	06 00       	andc	#0x0,ccr
     ffa:	00 00       	nop	
     ffc:	00 00       	nop	
     ffe:	00 20       	.word	H'0,H'20
    1000:	00 00       	nop	
    1002:	0f 34       	mov.w	#0x3,r4
    1004:	00 40       	.word	H'0,H'40
    1006:	35 4a       	mov.b	r5h,@0x4a:8
    1008:	00 00       	nop	
    100a:	00 3c       	.word	H'0,H'3c
    100c:	04 00       	orc	#0x0,ccr
    100e:	00 00       	nop	
    1010:	04 0e       	orc	#0xe,ccr
    1012:	08 11       	add.b	r1h,r1h
    1014:	06 7c       	andc	#0x7c,ccr
    1016:	04 00       	orc	#0x0,ccr
    1018:	00 00       	nop	
    101a:	02 0d       	stc	ccr,r5l
    101c:	06 00       	andc	#0x0,ccr
    101e:	00 00       	nop	
    1020:	00 00       	nop	
    1022:	00 20       	.word	H'0,H'20
    1024:	00 00       	nop	
    1026:	0f 34       	mov.w	#0x3,r4
    1028:	00 40       	.word	H'0,H'40
    102a:	35 86       	mov.b	r5h,@0x86:8
    102c:	00 00       	nop	
    102e:	00 7a       	.word	H'0,H'7a
    1030:	04 00       	orc	#0x0,ccr
    1032:	00 00       	nop	
    1034:	04 0e       	orc	#0xe,ccr
    1036:	08 11       	add.b	r1h,r1h
    1038:	06 7c       	andc	#0x7c,ccr
    103a:	04 00       	orc	#0x0,ccr
    103c:	00 00       	nop	
    103e:	02 0d       	stc	ccr,r5l
    1040:	06 00       	andc	#0x0,ccr
    1042:	00 00       	nop	
    1044:	00 00       	nop	
    1046:	00 20       	.word	H'0,H'20
    1048:	00 00       	nop	
    104a:	0f 34       	mov.w	#0x3,r4
    104c:	00 40       	.word	H'0,H'40
    104e:	36 00       	mov.b	r6h,@0x0:8
    1050:	00 00       	nop	
    1052:	00 8e       	.word	H'0,H'8e
    1054:	04 00       	orc	#0x0,ccr
    1056:	00 00       	nop	
    1058:	04 0e       	orc	#0xe,ccr
    105a:	08 11       	add.b	r1h,r1h
    105c:	06 7c       	andc	#0x7c,ccr
    105e:	04 00       	orc	#0x0,ccr
    1060:	00 00       	nop	
    1062:	02 0d       	stc	ccr,r5l
    1064:	06 00       	andc	#0x0,ccr
	...

00001068 <.Lframe0>:
    1068:	00 00       	nop	
    106a:	00 10       	.word	H'0,H'10
    106c:	ff ff       	mov.b	#0xff,r7l
    106e:	ff ff       	mov.b	#0xff,r7l
    1070:	03 00       	ldc	r0h,ccr
    1072:	01 02       	.word	H'1,H'2
    1074:	0c 0c       	mov.b	r0h,r4l
    1076:	07 04       	ldc	#0x4,ccr
    1078:	11 0c       	shlr.b	r4l
    107a:	7e 00       	.word	H'7e,H'0
    107c:	00 00       	nop	
    107e:	00 20       	.word	H'0,H'20
    1080:	00 00       	nop	
    1082:	10 68       	shll.w	#8,e0
    1084:	00 40       	.word	H'0,H'40
    1086:	36 8e       	mov.b	r6h,@0x8e:8
    1088:	00 00       	nop	
    108a:	00 a8       	.word	H'0,H'a8
    108c:	04 00       	orc	#0x0,ccr
    108e:	00 00       	nop	
    1090:	04 0e       	orc	#0xe,ccr
    1092:	08 11       	add.b	r1h,r1h
    1094:	06 7c       	andc	#0x7c,ccr
    1096:	04 00       	orc	#0x0,ccr
    1098:	00 00       	nop	
    109a:	02 0d       	stc	ccr,r5l
    109c:	06 00       	andc	#0x0,ccr
    109e:	00 00       	nop	
    10a0:	00 00       	nop	
    10a2:	00 20       	.word	H'0,H'20
    10a4:	00 00       	nop	
    10a6:	10 68       	shll.w	#8,e0
    10a8:	00 40       	.word	H'0,H'40
    10aa:	37 36       	mov.b	r7h,@0x36:8
    10ac:	00 00       	nop	
    10ae:	01 0e       	.word	H'1,H'e
    10b0:	04 00       	orc	#0x0,ccr
    10b2:	00 00       	nop	
    10b4:	04 0e       	orc	#0xe,ccr
    10b6:	08 11       	add.b	r1h,r1h
    10b8:	06 7c       	andc	#0x7c,ccr
    10ba:	04 00       	orc	#0x0,ccr
    10bc:	00 00       	nop	
    10be:	02 0d       	stc	ccr,r5l
    10c0:	06 00       	andc	#0x0,ccr
    10c2:	00 00       	nop	
    10c4:	00 00       	nop	
    10c6:	00 20       	.word	H'0,H'20
    10c8:	00 00       	nop	
    10ca:	10 68       	shll.w	#8,e0
    10cc:	00 40       	.word	H'0,H'40
    10ce:	38 44       	mov.b	r0l,@0x44:8
    10d0:	00 00       	nop	
    10d2:	01 6a       	.word	H'1,H'6a
    10d4:	04 00       	orc	#0x0,ccr
    10d6:	00 00       	nop	
    10d8:	04 0e       	orc	#0xe,ccr
    10da:	08 11       	add.b	r1h,r1h
    10dc:	06 7c       	andc	#0x7c,ccr
    10de:	04 00       	orc	#0x0,ccr
    10e0:	00 00       	nop	
    10e2:	02 0d       	stc	ccr,r5l
    10e4:	06 00       	andc	#0x0,ccr
    10e6:	00 00       	nop	
    10e8:	00 00       	nop	
    10ea:	00 20       	.word	H'0,H'20
    10ec:	00 00       	nop	
    10ee:	10 68       	shll.w	#8,e0
    10f0:	00 40       	.word	H'0,H'40
    10f2:	39 ae       	mov.b	r1l,@0xae:8
    10f4:	00 00       	nop	
    10f6:	00 92       	.word	H'0,H'92
    10f8:	04 00       	orc	#0x0,ccr
    10fa:	00 00       	nop	
    10fc:	04 0e       	orc	#0xe,ccr
    10fe:	08 11       	add.b	r1h,r1h
    1100:	06 7c       	andc	#0x7c,ccr
    1102:	04 00       	orc	#0x0,ccr
    1104:	00 00       	nop	
    1106:	02 0d       	stc	ccr,r5l
    1108:	06 00       	andc	#0x0,ccr
    110a:	00 00       	nop	
    110c:	00 00       	nop	
    110e:	00 20       	.word	H'0,H'20
    1110:	00 00       	nop	
    1112:	10 68       	shll.w	#8,e0
    1114:	00 40       	.word	H'0,H'40
    1116:	3a 40       	mov.b	r2l,@0x40:8
    1118:	00 00       	nop	
    111a:	00 20       	.word	H'0,H'20
    111c:	04 00       	orc	#0x0,ccr
    111e:	00 00       	nop	
    1120:	04 0e       	orc	#0xe,ccr
    1122:	08 11       	add.b	r1h,r1h
    1124:	06 7c       	andc	#0x7c,ccr
    1126:	04 00       	orc	#0x0,ccr
    1128:	00 00       	nop	
    112a:	02 0d       	stc	ccr,r5l
    112c:	06 00       	andc	#0x0,ccr
    112e:	00 00       	nop	
    1130:	00 00       	nop	
    1132:	00 20       	.word	H'0,H'20
    1134:	00 00       	nop	
    1136:	10 68       	shll.w	#8,e0
    1138:	00 40       	.word	H'0,H'40
    113a:	3a 60       	mov.b	r2l,@0x60:8
    113c:	00 00       	nop	
    113e:	01 02       	.word	H'1,H'2
    1140:	04 00       	orc	#0x0,ccr
    1142:	00 00       	nop	
    1144:	04 0e       	orc	#0xe,ccr
    1146:	08 11       	add.b	r1h,r1h
    1148:	06 7c       	andc	#0x7c,ccr
    114a:	04 00       	orc	#0x0,ccr
    114c:	00 00       	nop	
    114e:	02 0d       	stc	ccr,r5l
    1150:	06 00       	andc	#0x0,ccr
    1152:	00 00       	nop	
    1154:	00 00       	nop	
    1156:	00 20       	.word	H'0,H'20
    1158:	00 00       	nop	
    115a:	10 68       	shll.w	#8,e0
    115c:	00 40       	.word	H'0,H'40
    115e:	3b 62       	mov.b	r3l,@0x62:8
    1160:	00 00       	nop	
    1162:	00 b8       	.word	H'0,H'b8
    1164:	04 00       	orc	#0x0,ccr
    1166:	00 00       	nop	
    1168:	04 0e       	orc	#0xe,ccr
    116a:	08 11       	add.b	r1h,r1h
    116c:	06 7c       	andc	#0x7c,ccr
    116e:	04 00       	orc	#0x0,ccr
    1170:	00 00       	nop	
    1172:	02 0d       	stc	ccr,r5l
    1174:	06 00       	andc	#0x0,ccr
	...

00001178 <.Lframe0>:
    1178:	00 00       	nop	
    117a:	00 10       	.word	H'0,H'10
    117c:	ff ff       	mov.b	#0xff,r7l
    117e:	ff ff       	mov.b	#0xff,r7l
    1180:	03 00       	ldc	r0h,ccr
    1182:	01 02       	.word	H'1,H'2
    1184:	0c 0c       	mov.b	r0h,r4l
    1186:	07 04       	ldc	#0x4,ccr
    1188:	11 0c       	shlr.b	r4l
    118a:	7e 00       	.word	H'7e,H'0
    118c:	00 00       	nop	
    118e:	00 20       	.word	H'0,H'20
    1190:	00 00       	nop	
    1192:	11 78       	shlr.l	#8,er0
    1194:	00 40       	.word	H'0,H'40
    1196:	3c 1a       	mov.b	r4l,@0x1a:8
    1198:	00 00       	nop	
    119a:	00 52       	.word	H'0,H'52
    119c:	04 00       	orc	#0x0,ccr
    119e:	00 00       	nop	
    11a0:	04 0e       	orc	#0xe,ccr
    11a2:	08 11       	add.b	r1h,r1h
    11a4:	06 7c       	andc	#0x7c,ccr
    11a6:	04 00       	orc	#0x0,ccr
    11a8:	00 00       	nop	
    11aa:	02 0d       	stc	ccr,r5l
    11ac:	06 00       	andc	#0x0,ccr
    11ae:	00 00       	nop	
    11b0:	00 00       	nop	
    11b2:	00 20       	.word	H'0,H'20
    11b4:	00 00       	nop	
    11b6:	11 78       	shlr.l	#8,er0
    11b8:	00 40       	.word	H'0,H'40
    11ba:	3c 6c       	mov.b	r4l,@0x6c:8
    11bc:	00 00       	nop	
    11be:	00 2a       	.word	H'0,H'2a
    11c0:	04 00       	orc	#0x0,ccr
    11c2:	00 00       	nop	
    11c4:	04 0e       	orc	#0xe,ccr
    11c6:	08 11       	add.b	r1h,r1h
    11c8:	06 7c       	andc	#0x7c,ccr
    11ca:	04 00       	orc	#0x0,ccr
    11cc:	00 00       	nop	
    11ce:	02 0d       	stc	ccr,r5l
    11d0:	06 00       	andc	#0x0,ccr
    11d2:	00 00       	nop	
    11d4:	00 00       	nop	
    11d6:	00 20       	.word	H'0,H'20
    11d8:	00 00       	nop	
    11da:	11 78       	shlr.l	#8,er0
    11dc:	00 40       	.word	H'0,H'40
    11de:	3c 96       	mov.b	r4l,@0x96:8
    11e0:	00 00       	nop	
    11e2:	02 8a       	.word	H'2,H'8a
    11e4:	04 00       	orc	#0x0,ccr
    11e6:	00 00       	nop	
    11e8:	04 0e       	orc	#0xe,ccr
    11ea:	08 11       	add.b	r1h,r1h
    11ec:	06 7c       	andc	#0x7c,ccr
    11ee:	04 00       	orc	#0x0,ccr
    11f0:	00 00       	nop	
    11f2:	02 0d       	stc	ccr,r5l
    11f4:	06 00       	andc	#0x0,ccr
    11f6:	00 00       	nop	
    11f8:	00 00       	nop	
    11fa:	00 20       	.word	H'0,H'20
    11fc:	00 00       	nop	
    11fe:	11 78       	shlr.l	#8,er0
    1200:	00 40       	.word	H'0,H'40
    1202:	3f 20       	mov.b	r7l,@0x20:8
    1204:	00 00       	nop	
    1206:	00 54       	.word	H'0,H'54
    1208:	04 00       	orc	#0x0,ccr
    120a:	00 00       	nop	
    120c:	04 0e       	orc	#0xe,ccr
    120e:	08 11       	add.b	r1h,r1h
    1210:	06 7c       	andc	#0x7c,ccr
    1212:	04 00       	orc	#0x0,ccr
    1214:	00 00       	nop	
    1216:	02 0d       	stc	ccr,r5l
    1218:	06 00       	andc	#0x0,ccr
	...

0000121c <.Lframe0>:
    121c:	00 00       	nop	
    121e:	00 10       	.word	H'0,H'10
    1220:	ff ff       	mov.b	#0xff,r7l
    1222:	ff ff       	mov.b	#0xff,r7l
    1224:	03 00       	ldc	r0h,ccr
    1226:	01 02       	.word	H'1,H'2
    1228:	0c 0c       	mov.b	r0h,r4l
    122a:	07 04       	ldc	#0x4,ccr
    122c:	11 0c       	shlr.b	r4l
    122e:	7e 00       	.word	H'7e,H'0
    1230:	00 00       	nop	
    1232:	00 20       	.word	H'0,H'20
    1234:	00 00       	nop	
    1236:	12 1c       	rotxl.w	e4
    1238:	00 40       	.word	H'0,H'40
    123a:	3f 74       	mov.b	r7l,@0x74:8
    123c:	00 00       	nop	
    123e:	00 6e       	.word	H'0,H'6e
    1240:	04 00       	orc	#0x0,ccr
    1242:	00 00       	nop	
    1244:	04 0e       	orc	#0xe,ccr
    1246:	08 11       	add.b	r1h,r1h
    1248:	06 7c       	andc	#0x7c,ccr
    124a:	04 00       	orc	#0x0,ccr
    124c:	00 00       	nop	
    124e:	02 0d       	stc	ccr,r5l
    1250:	06 00       	andc	#0x0,ccr
    1252:	00 00       	nop	
    1254:	00 00       	nop	
    1256:	00 20       	.word	H'0,H'20
    1258:	00 00       	nop	
    125a:	12 1c       	rotxl.w	e4
    125c:	00 40       	.word	H'0,H'40
    125e:	3f e2       	mov.b	r7l,@0xe2:8
    1260:	00 00       	nop	
    1262:	00 10       	.word	H'0,H'10
    1264:	04 00       	orc	#0x0,ccr
    1266:	00 00       	nop	
    1268:	04 0e       	orc	#0xe,ccr
    126a:	08 11       	add.b	r1h,r1h
    126c:	06 7c       	andc	#0x7c,ccr
    126e:	04 00       	orc	#0x0,ccr
    1270:	00 00       	nop	
    1272:	02 0d       	stc	ccr,r5l
    1274:	06 00       	andc	#0x0,ccr
    1276:	00 00       	nop	
    1278:	00 00       	nop	
    127a:	00 20       	.word	H'0,H'20
    127c:	00 00       	nop	
    127e:	12 1c       	rotxl.w	e4
    1280:	00 40       	.word	H'0,H'40
    1282:	3f f2       	mov.b	r7l,@0xf2:8
    1284:	00 00       	nop	
    1286:	00 68       	.word	H'0,H'68
    1288:	04 00       	orc	#0x0,ccr
    128a:	00 00       	nop	
    128c:	04 0e       	orc	#0xe,ccr
    128e:	08 11       	add.b	r1h,r1h
    1290:	06 7c       	andc	#0x7c,ccr
    1292:	04 00       	orc	#0x0,ccr
    1294:	00 00       	nop	
    1296:	02 0d       	stc	ccr,r5l
    1298:	06 00       	andc	#0x0,ccr
    129a:	00 00       	nop	
    129c:	00 00       	nop	
    129e:	00 20       	.word	H'0,H'20
    12a0:	00 00       	nop	
    12a2:	12 1c       	rotxl.w	e4
    12a4:	00 40       	.word	H'0,H'40
    12a6:	40 5a       	bra	.+90 (0x1302)
    12a8:	00 00       	nop	
    12aa:	00 5c       	.word	H'0,H'5c
    12ac:	04 00       	orc	#0x0,ccr
    12ae:	00 00       	nop	
    12b0:	04 0e       	orc	#0xe,ccr
    12b2:	08 11       	add.b	r1h,r1h
    12b4:	06 7c       	andc	#0x7c,ccr
    12b6:	04 00       	orc	#0x0,ccr
    12b8:	00 00       	nop	
    12ba:	02 0d       	stc	ccr,r5l
    12bc:	06 00       	andc	#0x0,ccr
	...

Disassembly of section .debug_info:

00000000 <.Ldebug_info0>:
.Ldebug_info0():
       0:	00 00       	nop	
       2:	00 b1       	.word	H'0,H'b1
       4:	00 04       	.word	H'0,H'4
       6:	00 00       	nop	
       8:	00 00       	nop	
       a:	04 01       	orc	#0x1,ccr
       c:	00 00       	nop	
       e:	00 65       	.word	H'0,H'65
      10:	0c 00       	mov.b	r0h,r0h
      12:	00 00       	nop	
      14:	4a 00       	bpl	.0 (0x16)
      16:	00 00       	nop	
      18:	51 00       	divxu.b	r0h,r0
      1a:	40 01       	bra/s	.0 (0x1c)
      1c:	2e 00       	mov.b	@0x0:8,r6l
      1e:	00 01       	.word	H'0,H'1
      20:	9a 00       	addx	#0x0,r2l
      22:	00 00       	nop	
      24:	00 02       	.word	H'0,H'2
      26:	01 08 00 00 	mov.l	@er0,@er0
      2a:	00 57       	.word	H'0,H'57
      2c:	02 02       	stc	ccr,r2h
      2e:	07 00       	ldc	#0x0,ccr
      30:	00 00       	nop	
      32:	28 02       	mov.b	@0x2:8,r0l
      34:	04 07       	orc	#0x7,ccr
      36:	00 00       	nop	
      38:	00 00       	nop	
      3a:	03 02       	ldc	r2h,ccr
      3c:	05 69       	xorc	#0x69,ccr
      3e:	6e 74 00 04 	mov.b	@(0x4:16,er7),r4h
      42:	04 00       	orc	#0x0,ccr
      44:	00 00       	nop	
      46:	47 04       	beq	.+4 (0x4c)
      48:	04 00       	orc	#0x0,ccr
      4a:	00 00       	nop	
      4c:	4d 02       	blt	.+2 (0x50)
      4e:	01 08 00 00 	mov.l	@er0,@er0
      52:	00 60       	.word	H'0,H'60
      54:	02 02       	stc	ccr,r2h
      56:	07 00       	ldc	#0x0,ccr
      58:	00 00       	nop	
      5a:	05 05       	xorc	#0x5,ccr
      5c:	00 00       	nop	
      5e:	00 12       	.word	H'0,H'12
      60:	02 05       	stc	ccr,r5h
      62:	00 00       	nop	
      64:	00 4d       	.word	H'0,H'4d
      66:	02 02       	stc	ccr,r2h
      68:	05 00       	xorc	#0x0,ccr
      6a:	00 00       	nop	
      6c:	40 06       	bra	.+6 (0x74)
      6e:	00 00       	nop	
      70:	08 f7       	add.b	r7l,r7h
      72:	01 1b       	.word	H'1,H'1b
      74:	00 00       	nop	
      76:	00 3a       	.word	H'0,H'3a
      78:	00 40       	.word	H'0,H'40
      7a:	02 74       	stc	sbr,er4
      7c:	00 00       	nop	
      7e:	00 54       	.word	H'0,H'54
      80:	01 9c       	.word	H'1,H'9c
      82:	07 00       	ldc	#0x0,ccr
      84:	00 00       	nop	
      86:	1a 01       	dec.b	r1h
      88:	07 00       	ldc	#0x0,ccr
      8a:	00 00       	nop	
      8c:	3a 00       	mov.b	r2l,@0x0:8
      8e:	40 01       	bra/s	.0 (0x90)
      90:	2e 00       	mov.b	@0x0:8,r6l
      92:	00 01       	.word	H'0,H'1
      94:	46 01       	.word	H'46,H'1
      96:	9c 08       	addx	#0x8,r4l
      98:	00 00       	nop	
      9a:	00 3b       	.word	H'0,H'3b
      9c:	01 07       	.word	H'1,H'7
      9e:	00 00       	nop	
      a0:	00 3a       	.word	H'0,H'3a
      a2:	02 91       	.word	H'2,H'91
      a4:	76 08       	band	#0x0,r0l
      a6:	00 00       	nop	
      a8:	00 87       	.word	H'0,H'87
      aa:	01 07       	.word	H'1,H'7
      ac:	00 00       	nop	
      ae:	00 41       	.word	H'0,H'41
      b0:	02 91       	.word	H'2,H'91
      b2:	70 00       	bset	#0x0,r0h
	...

000000b5 <.Ldebug_info0>:
      b5:	00 00       	nop	
      b7:	01 23       	.word	H'1,H'23
      b9:	00 04       	.word	H'0,H'4
      bb:	00 00       	nop	
      bd:	00 85       	.word	H'0,H'85
      bf:	04 01       	orc	#0x1,ccr
      c1:	00 00       	nop	
      c3:	00 65       	.word	H'0,H'65
      c5:	0c 00       	mov.b	r0h,r0h
      c7:	00 00       	nop	
      c9:	96 00       	addx	#0x0,r6h
      cb:	00 00       	nop	
      cd:	51 00       	divxu.b	r0h,r0
      cf:	40 02       	bra	.+2 (0xd3)
      d1:	c8 00       	or.b	#0x0,r0l
      d3:	00 00       	nop	
      d5:	d8 00       	xor.b	#0x0,r0l
      d7:	00 00       	nop	
      d9:	c1 02       	or.b	#0x2,r1h
      db:	01 08 00 00 	mov.l	@er0,@er0
      df:	00 57       	.word	H'0,H'57
      e1:	02 02       	stc	ccr,r2h
      e3:	07 00       	ldc	#0x0,ccr
      e5:	00 00       	nop	
      e7:	28 02       	mov.b	@0x2:8,r0l
      e9:	04 07       	orc	#0x7,ccr
      eb:	00 00       	nop	
      ed:	00 00       	nop	
      ef:	03 02       	ldc	r2h,ccr
      f1:	05 69       	xorc	#0x69,ccr
      f3:	6e 74 00 02 	mov.b	@(0x2:16,er7),r4h
      f7:	01 08 00 00 	mov.l	@er0,@er0
      fb:	00 60       	.word	H'0,H'60
      fd:	02 02       	stc	ccr,r2h
      ff:	07 00       	ldc	#0x0,ccr
     101:	00 00       	nop	
     103:	05 04       	xorc	#0x4,ccr
     105:	00 00       	nop	
     107:	00 12       	.word	H'0,H'12
     109:	02 05       	stc	ccr,r5h
     10b:	00 00       	nop	
     10d:	00 41       	.word	H'0,H'41
     10f:	05 00       	xorc	#0x0,ccr
     111:	00 00       	nop	
     113:	a2 02       	cmp.b	#0x2,r2h
     115:	08 00       	add.b	r0h,r0h
     117:	00 00       	nop	
     119:	65 02       	xor.w	r0,r2
     11b:	02 05       	stc	ccr,r5h
     11d:	00 00       	nop	
     11f:	00 40       	.word	H'0,H'40
     121:	05 00       	xorc	#0x0,ccr
     123:	00 00       	nop	
     125:	db 02       	xor.b	#0x2,r3l
     127:	0a 00       	inc	r0h
     129:	00 00       	nop	
     12b:	77 06       	bld	#0x0,r6h
     12d:	04 00       	orc	#0x0,ccr
     12f:	00 00       	nop	
     131:	7d 07       	.word	H'7d,H'7
     133:	00 00       	nop	
     135:	00 8d       	.word	H'0,H'8d
     137:	08 00       	add.b	r0h,r0h
     139:	00 00       	nop	
     13b:	5a 08 00 00 	jmp	@0x80000:24
     13f:	00 33       	.word	H'0,H'33
     141:	00 09       	.word	H'0,H'9
     143:	00 00       	nop	
     145:	00 8c       	.word	H'0,H'8c
     147:	01 19       	.word	H'1,H'19
     149:	00 40       	.word	H'0,H'40
     14b:	03 42       	.word	H'3,H'42
     14d:	00 00       	nop	
     14f:	00 5e       	.word	H'0,H'5e
     151:	01 9c       	.word	H'1,H'9c
     153:	00 00       	nop	
     155:	00 cc       	.word	H'0,H'cc
     157:	0a 00       	inc	r0h
     159:	00 00       	nop	
     15b:	d6 01       	xor.b	#0x1,r6h
     15d:	19 00       	sub.w	r0,r0
     15f:	00 00       	nop	
     161:	5a 02 91 72 	jmp	@0x29172:24
     165:	0b 73       	inc.l	#1,er3
     167:	70 00       	bset	#0x0,r0h
     169:	01 19       	.word	H'1,H'19
     16b:	00 00       	nop	
     16d:	00 33       	.word	H'0,H'33
     16f:	02 91       	.word	H'2,H'91
     171:	6c 0c       	mov.b	@er0+,r4l
     173:	00 00       	nop	
     175:	00 be       	.word	H'0,H'be
     177:	01 1b       	.word	H'1,H'1b
     179:	00 00       	nop	
     17b:	00 6c       	.word	H'0,H'6c
     17d:	02 91       	.word	H'2,H'91
     17f:	74 00       	bor	#0x0,r0h
     181:	0d 00       	mov.w	r0,r0
     183:	00 00       	nop	
     185:	c6 01       	or.b	#0x1,r6h
     187:	0f 00       	daa	r0h
     189:	00 00       	nop	
     18b:	3a 00       	mov.b	r2l,@0x0:8
     18d:	40 03       	bra/s	.+2 (0x191)
     18f:	04 00       	orc	#0x0,ccr
     191:	00 00       	nop	
     193:	3e 01       	mov.b	r6l,@0x1:8
     195:	9c 00       	addx	#0x0,r4l
     197:	00 01       	.word	H'0,H'1
     199:	02 0a       	stc	ccr,r2l
     19b:	00 00       	nop	
     19d:	00 d6       	.word	H'0,H'd6
     19f:	01 0f       	.word	H'1,H'f
     1a1:	00 00       	nop	
     1a3:	00 5a       	.word	H'0,H'5a
     1a5:	02 91       	.word	H'2,H'91
     1a7:	76 0a       	band	#0x0,r2l
     1a9:	00 00       	nop	
     1ab:	00 be       	.word	H'0,H'be
     1ad:	01 0f       	.word	H'1,H'f
     1af:	00 00       	nop	
     1b1:	00 6c       	.word	H'0,H'6c
     1b3:	02 91       	.word	H'2,H'91
     1b5:	70 00       	bset	#0x0,r0h
     1b7:	0e 00       	addx	r0h,r0h
     1b9:	00 00       	nop	
     1bb:	b1 01       	subx	#0x1,r1h
     1bd:	06 00       	andc	#0x0,ccr
     1bf:	00 00       	nop	
     1c1:	3a 00       	mov.b	r2l,@0x0:8
     1c3:	40 02       	bra	.+2 (0x1c7)
     1c5:	c8 00       	or.b	#0x0,r0l
     1c7:	00 00       	nop	
     1c9:	3c 01       	mov.b	r4l,@0x1:8
     1cb:	9c 0c       	addx	#0xc,r4l
     1cd:	00 00       	nop	
     1cf:	00 d6       	.word	H'0,H'd6
     1d1:	01 08 00 00 	mov.l	@er0,@er0
     1d5:	00 3a       	.word	H'0,H'3a
     1d7:	02 91       	.word	H'2,H'91
     1d9:	76 00       	band	#0x0,r0h
	...

000001dc <.Ldebug_info0>:
     1dc:	00 00       	nop	
     1de:	03 73       	ldc	er3,sbr
     1e0:	00 04       	.word	H'0,H'4
     1e2:	00 00       	nop	
     1e4:	01 63       	.word	H'1,H'63
     1e6:	04 01       	orc	#0x1,ccr
     1e8:	00 00       	nop	
     1ea:	00 65       	.word	H'0,H'65
     1ec:	0c 00       	mov.b	r0h,r0h
     1ee:	00 01       	.word	H'0,H'1
     1f0:	28 00       	mov.b	@0x0:8,r0l
     1f2:	00 00       	nop	
     1f4:	51 00       	divxu.b	r0h,r0
     1f6:	40 03       	bra/s	.+2 (0x1fa)
     1f8:	a0 00       	cmp.b	#0x0,r0h
     1fa:	00 05       	.word	H'0,H'5
     1fc:	92 00       	addx	#0x0,r2h
     1fe:	00 01       	.word	H'0,H'1
     200:	95 02       	addx	#0x2,r5h
     202:	01 08 00 00 	mov.l	@er0,@er0
     206:	00 57       	.word	H'0,H'57
     208:	02 02       	stc	ccr,r2h
     20a:	07 00       	ldc	#0x0,ccr
     20c:	00 00       	nop	
     20e:	28 02       	mov.b	@0x2:8,r0l
     210:	04 07       	orc	#0x7,ccr
     212:	00 00       	nop	
     214:	00 00       	nop	
     216:	03 02       	ldc	r2h,ccr
     218:	05 69       	xorc	#0x69,ccr
     21a:	6e 74 00 04 	mov.b	@(0x4:16,er7),r4h
     21e:	04 00       	orc	#0x0,ccr
     220:	00 00       	nop	
     222:	47 02       	beq	.+2 (0x226)
     224:	01 08 00 00 	mov.l	@er0,@er0
     228:	00 60       	.word	H'0,H'60
     22a:	05 00       	xorc	#0x0,ccr
     22c:	00 00       	nop	
     22e:	47 02       	beq	.+2 (0x232)
     230:	02 07       	stc	ccr,r7h
     232:	00 00       	nop	
     234:	00 05       	.word	H'0,H'5
     236:	06 00       	andc	#0x0,ccr
     238:	00 01       	.word	H'0,H'1
     23a:	2e 01       	mov.b	@0x1:8,r6l
     23c:	73 00       	btst	#0x0,r0h
     23e:	00 00       	nop	
     240:	3a 00       	mov.b	r2l,@0x0:8
     242:	40 08       	bra	.+8 (0x24c)
     244:	5a 00 00 00 	jmp	@0x0:24
     248:	d8 01       	xor.b	#0x1,r0l
     24a:	9c 00       	addx	#0x0,r4l
     24c:	00 00       	nop	
     24e:	aa 07       	cmp.b	#0x7,r2l
     250:	00 00       	nop	
     252:	00 ed       	.word	H'0,H'ed
     254:	01 73       	.word	H'1,H'73
     256:	00 00       	nop	
     258:	00 33       	.word	H'0,H'33
     25a:	02 91       	.word	H'2,H'91
     25c:	64 07       	or.w	r0,r7
     25e:	00 00       	nop	
     260:	01 02       	.word	H'1,H'2
     262:	01 73       	.word	H'1,H'73
     264:	00 00       	nop	
     266:	00 3a       	.word	H'0,H'3a
     268:	02 91       	.word	H'2,H'91
     26a:	62 08       	bclr	r0h,r0l
     26c:	62 75       	bclr	r7h,r5h
     26e:	66 00       	and.w	r0,r0
     270:	01 75       	.word	H'1,H'75
     272:	00 00       	nop	
     274:	00 aa       	.word	H'0,H'aa
     276:	02 91       	.word	H'2,H'91
     278:	6b 08 70 00 	mov.w	@0x7000:16,e0
     27c:	01 76       	.word	H'1,H'76
     27e:	00 00       	nop	
     280:	00 41       	.word	H'0,H'41
     282:	02 91       	.word	H'2,H'91
     284:	74 00       	bor	#0x0,r0h
     286:	09 00       	add.w	r0,r0
     288:	00 00       	nop	
     28a:	47 00       	beq	.0 (0x28c)
     28c:	00 00       	nop	
     28e:	ba 0a       	subx	#0xa,r2l
     290:	00 00       	nop	
     292:	00 33       	.word	H'0,H'33
     294:	08 00       	add.b	r0h,r0h
     296:	06 00       	andc	#0x0,ccr
     298:	00 01       	.word	H'0,H'1
     29a:	1c 01       	cmp.b	r0h,r1h
     29c:	65 00       	xor.w	r0,r0
     29e:	00 00       	nop	
     2a0:	3a 00       	mov.b	r2l,@0x0:8
     2a2:	40 07       	bra/s	.+6 (0x2aa)
     2a4:	f6 00       	mov.b	#0x0,r6h
     2a6:	00 00       	nop	
     2a8:	64 01       	or.w	r0,r1
     2aa:	9c 00       	addx	#0x0,r4l
     2ac:	00 00       	nop	
     2ae:	fa 0b       	mov.b	#0xb,r2l
     2b0:	62 75       	bclr	r7h,r5h
     2b2:	66 00       	and.w	r0,r0
     2b4:	01 65       	.word	H'1,H'65
     2b6:	00 00       	nop	
     2b8:	00 fa       	.word	H'0,H'fa
     2ba:	02 91       	.word	H'2,H'91
     2bc:	70 08       	bset	#0x0,r0l
     2be:	69 00       	mov.w	@er0,r0
     2c0:	01 67       	.word	H'1,H'67
     2c2:	00 00       	nop	
     2c4:	00 3a       	.word	H'0,H'3a
     2c6:	02 91       	.word	H'2,H'91
     2c8:	76 08       	band	#0x0,r0l
     2ca:	63 00       	btst	r0h,r0h
     2cc:	01 68       	.word	H'1,H'68
     2ce:	00 00       	nop	
     2d0:	00 25       	.word	H'0,H'25
     2d2:	02 91       	.word	H'2,H'91
     2d4:	75 00       	bxor	#0x0,r0h
     2d6:	04 04       	orc	#0x4,ccr
     2d8:	00 00       	nop	
     2da:	00 25       	.word	H'0,H'25
     2dc:	06 00       	andc	#0x0,ccr
     2de:	00 01       	.word	H'0,H'1
     2e0:	52 01       	mulxu.w	r0,er1
     2e2:	5d 00       	jsr	@er0
     2e4:	00 00       	nop	
     2e6:	3a 00       	mov.b	r2l,@0x0:8
     2e8:	40 07       	bra/s	.+6 (0x2f0)
     2ea:	b6 00       	subx	#0x0,r6h
     2ec:	00 00       	nop	
     2ee:	40 01       	bra/s	.0 (0x2f0)
     2f0:	9c 00       	addx	#0x0,r4l
     2f2:	00 01       	.word	H'0,H'1
     2f4:	28 0b       	mov.b	@0xb:8,r0l
     2f6:	73 74       	btst	#0x7,r4h
     2f8:	72 00       	bclr	#0x0,r0h
     2fa:	01 5d 00 00 	mov.w	#0x0,@er0
     2fe:	00 fa       	.word	H'0,H'fa
     300:	02 91       	.word	H'2,H'91
     302:	74 00       	bor	#0x0,r0h
     304:	06 00       	andc	#0x0,ccr
     306:	00 01       	.word	H'0,H'1
     308:	10 01       	shll.b	r1h
     30a:	54 00       	rts/l	er0
     30c:	00 00       	nop	
     30e:	25 00       	mov.b	@0x0:8,r5h
     310:	40 07       	bra/s	.+6 (0x318)
     312:	76 00       	band	#0x0,r0h
     314:	00 00       	nop	
     316:	40 01       	bra/s	.0 (0x318)
     318:	9c 00       	addx	#0x0,r4l
     31a:	00 01       	.word	H'0,H'1
     31c:	4e 08       	bgt	.+8 (0x326)
     31e:	63 00       	btst	r0h,r0h
     320:	01 56       	.word	H'1,H'56
     322:	00 00       	nop	
     324:	00 25       	.word	H'0,H'25
     326:	02 91       	.word	H'2,H'91
     328:	77 00       	bld	#0x0,r0h
     32a:	06 00       	andc	#0x0,ccr
     32c:	00 01       	.word	H'0,H'1
     32e:	44 01       	.word	H'44,H'1
     330:	4c 00       	bge	.0 (0x332)
     332:	00 00       	nop	
     334:	3a 00       	mov.b	r2l,@0x0:8
     336:	40 07       	bra/s	.+6 (0x33e)
     338:	3e 00       	mov.b	r6l,@0x0:8
     33a:	00 00       	nop	
     33c:	38 01       	mov.b	r0l,@0x1:8
     33e:	9c 00       	addx	#0x0,r4l
     340:	00 01       	.word	H'0,H'1
     342:	74 0b       	bor	#0x0,r3l
     344:	63 00       	btst	r0h,r0h
     346:	01 4c       	.word	H'1,H'4c
     348:	00 00       	nop	
     34a:	00 25       	.word	H'0,H'25
     34c:	02 91       	.word	H'2,H'91
     34e:	77 00       	bld	#0x0,r0h
     350:	0c 00       	mov.b	r0h,r0h
     352:	00 00       	nop	
     354:	fa 01       	mov.b	#0x1,r2l
     356:	3f 00       	mov.b	r7l,@0x0:8
     358:	00 00       	nop	
     35a:	3a 00       	mov.b	r2l,@0x0:8
     35c:	40 06       	bra	.+6 (0x364)
     35e:	96 00       	addx	#0x0,r6h
     360:	00 00       	nop	
     362:	a8 01       	cmp.b	#0x1,r0l
     364:	9c 00       	addx	#0x0,r4l
     366:	00 01       	.word	H'0,H'1
     368:	b6 0b       	subx	#0xb,r6h
     36a:	73 31       	btst	#0x3,r1h
     36c:	00 01       	.word	H'0,H'1
     36e:	3f 00       	mov.b	r7l,@0x0:8
     370:	00 01       	.word	H'0,H'1
     372:	b6 02       	subx	#0x2,r6h
     374:	91 74       	addx	#0x74,r1h
     376:	0b 73       	inc.l	#1,er3
     378:	32 00       	mov.b	r2h,@0x0:8
     37a:	01 3f       	.word	H'1,H'3f
     37c:	00 00       	nop	
     37e:	01 b6       	.word	H'1,H'b6
     380:	02 91       	.word	H'2,H'91
     382:	70 0b       	bset	#0x0,r3l
     384:	6c 65       	mov.b	@er6+,r5h
     386:	6e 00 01 3f 	mov.b	@(0x13f:16,er0),r0h
     38a:	00 00       	nop	
     38c:	00 3a       	.word	H'0,H'3a
     38e:	02 91       	.word	H'2,H'91
     390:	6e 00 04 04 	mov.b	@(0x404:16,er0),r0h
     394:	00 00       	nop	
     396:	00 4e       	.word	H'0,H'4e
     398:	0c 00       	mov.b	r0h,r0h
     39a:	00 01       	.word	H'0,H'1
     39c:	36 01       	mov.b	r6h,@0x1:8
     39e:	34 00       	mov.b	r4h,@0x0:8
     3a0:	00 00       	nop	
     3a2:	3a 00       	mov.b	r2l,@0x0:8
     3a4:	40 06       	bra	.+6 (0x3ac)
     3a6:	06 00       	andc	#0x0,ccr
     3a8:	00 00       	nop	
     3aa:	90 01       	addx	#0x1,r0h
     3ac:	9c 00       	addx	#0x0,r4l
     3ae:	00 01       	.word	H'0,H'1
     3b0:	f0 0b       	mov.b	#0xb,r0h
     3b2:	73 31       	btst	#0x3,r1h
     3b4:	00 01       	.word	H'0,H'1
     3b6:	34 00       	mov.b	r4h,@0x0:8
     3b8:	00 01       	.word	H'0,H'1
     3ba:	b6 02       	subx	#0x2,r6h
     3bc:	91 74       	addx	#0x74,r1h
     3be:	0b 73       	inc.l	#1,er3
     3c0:	32 00       	mov.b	r2h,@0x0:8
     3c2:	01 34       	.word	H'1,H'34
     3c4:	00 00       	nop	
     3c6:	01 b6       	.word	H'1,H'b6
     3c8:	02 91       	.word	H'2,H'91
     3ca:	70 00       	bset	#0x0,r0h
     3cc:	0c 00       	mov.b	r0h,r0h
     3ce:	00 01       	.word	H'0,H'1
     3d0:	15 01       	xor.b	r0h,r1h
     3d2:	2a 00       	mov.b	@0x0:8,r2l
     3d4:	00 00       	nop	
     3d6:	41 00       	brn	.0 (0x3d8)
     3d8:	40 05       	bra/s	.+4 (0x3de)
     3da:	92 00       	addx	#0x0,r2h
     3dc:	00 00       	nop	
     3de:	74 01       	bor	#0x0,r1h
     3e0:	9c 00       	addx	#0x0,r4l
     3e2:	00 02       	.word	H'0,H'2
     3e4:	32 0b       	mov.b	r2h,@0xb:8
     3e6:	64 73       	or.w	r7,r3
     3e8:	74 00       	bor	#0x0,r0h
     3ea:	01 2a       	.word	H'1,H'2a
     3ec:	00 00       	nop	
     3ee:	00 41       	.word	H'0,H'41
     3f0:	02 91       	.word	H'2,H'91
     3f2:	70 0b       	bset	#0x0,r3l
     3f4:	73 72       	btst	#0x7,r2h
     3f6:	63 00       	btst	r0h,r0h
     3f8:	01 2a       	.word	H'1,H'2a
     3fa:	00 00       	nop	
     3fc:	01 b6       	.word	H'1,H'b6
     3fe:	02 91       	.word	H'2,H'91
     400:	6c 08       	mov.b	@er0+,r0l
     402:	64 00       	or.w	r0,r0
     404:	01 2c       	.word	H'1,H'2c
     406:	00 00       	nop	
     408:	00 41       	.word	H'0,H'41
     40a:	02 91       	.word	H'2,H'91
     40c:	74 00       	bor	#0x0,r0h
     40e:	0c 00       	mov.b	r0h,r0h
     410:	00 01       	.word	H'0,H'1
     412:	09 01       	add.w	r0,r1
     414:	22 00       	mov.b	@0x0:8,r2h
     416:	00 00       	nop	
     418:	3a 00       	mov.b	r2l,@0x0:8
     41a:	40 05       	bra/s	.+4 (0x420)
     41c:	44 00       	bcc	.0 (0x41e)
     41e:	00 00       	nop	
     420:	4e 01       	.word	H'4e,H'1
     422:	9c 00       	addx	#0x0,r4l
     424:	00 02       	.word	H'0,H'2
     426:	66 0b       	and.w	r0,e3
     428:	73 00       	btst	#0x0,r0h
     42a:	01 22       	.word	H'1,H'22
     42c:	00 00       	nop	
     42e:	01 b6       	.word	H'1,H'b6
     430:	02 91       	.word	H'2,H'91
     432:	70 08       	bset	#0x0,r0l
     434:	6c 65       	mov.b	@er6+,r5h
     436:	6e 00 01 24 	mov.b	@(0x124:16,er0),r0h
     43a:	00 00       	nop	
     43c:	00 3a       	.word	H'0,H'3a
     43e:	02 91       	.word	H'2,H'91
     440:	76 00       	band	#0x0,r0h
     442:	0c 00       	mov.b	r0h,r0h
     444:	00 01       	.word	H'0,H'1
     446:	21 01       	mov.b	@0x1:8,r1h
     448:	16 00       	and.b	r0h,r0h
     44a:	00 00       	nop	
     44c:	3a 00       	mov.b	r2l,@0x0:8
     44e:	40 04       	bra	.+4 (0x454)
     450:	94 00       	addx	#0x0,r4h
     452:	00 00       	nop	
     454:	b0 01       	subx	#0x1,r0h
     456:	9c 00       	addx	#0x0,r4l
     458:	00 02       	.word	H'0,H'2
     45a:	c2 0b       	or.b	#0xb,r2h
     45c:	62 31       	bclr	r3h,r1h
     45e:	00 01       	.word	H'0,H'1
     460:	16 00       	and.b	r0h,r0h
     462:	00 02       	.word	H'0,H'2
     464:	c2 02       	or.b	#0x2,r2h
     466:	91 6c       	addx	#0x6c,r1h
     468:	0b 62       	.word	H'b,H'62
     46a:	32 00       	mov.b	r2h,@0x0:8
     46c:	01 16       	.word	H'1,H'16
     46e:	00 00       	nop	
     470:	02 c2       	.word	H'2,H'c2
     472:	02 91       	.word	H'2,H'91
     474:	68 0b       	mov.b	@er0,r3l
     476:	6c 65       	mov.b	@er6+,r5h
     478:	6e 00 01 16 	mov.b	@(0x116:16,er0),r0h
     47c:	00 00       	nop	
     47e:	02 c9       	.word	H'2,H'c9
     480:	02 91       	.word	H'2,H'91
     482:	64 08       	or.w	r0,e0
     484:	70 31       	bset	#0x3,r1h
     486:	00 01       	.word	H'0,H'1
     488:	18 00       	sub.b	r0h,r0h
     48a:	00 01       	.word	H'0,H'1
     48c:	b6 02       	subx	#0x2,r6h
     48e:	91 74       	addx	#0x74,r1h
     490:	08 70       	add.b	r7h,r0h
     492:	32 00       	mov.b	r2h,@0x0:8
     494:	01 18       	.word	H'1,H'18
     496:	00 00       	nop	
     498:	01 b6       	.word	H'1,H'b6
     49a:	02 91       	.word	H'2,H'91
     49c:	70 00       	bset	#0x0,r0h
     49e:	04 04       	orc	#0x4,ccr
     4a0:	00 00       	nop	
     4a2:	02 c8       	.word	H'2,H'c8
     4a4:	0d 02       	mov.w	r0,r2
     4a6:	04 05       	orc	#0x5,ccr
     4a8:	00 00       	nop	
     4aa:	01 49       	.word	H'1,H'49
     4ac:	0c 00       	mov.b	r0h,r0h
     4ae:	00 01       	.word	H'0,H'1
     4b0:	3d 01       	mov.b	r5l,@0x1:8
     4b2:	0d 00       	mov.w	r0,r0
     4b4:	00 03       	.word	H'0,H'3
     4b6:	2c 00       	mov.b	@0x0:8,r4l
     4b8:	40 04       	bra	.+4 (0x4be)
     4ba:	0c 00       	mov.b	r0h,r0h
     4bc:	00 00       	nop	
     4be:	88 01       	add.b	#0x1,r0l
     4c0:	9c 00       	addx	#0x0,r4l
     4c2:	00 03       	.word	H'0,H'3
     4c4:	2c 0b       	mov.b	@0xb:8,r4l
     4c6:	64 73       	or.w	r7,r3
     4c8:	74 00       	bor	#0x0,r0h
     4ca:	01 0d 00 00 	mov.l	#0x0,@er0
     4ce:	03 2c       	ldmac	er4,mach
     4d0:	02 91       	.word	H'2,H'91
     4d2:	6c 0b       	mov.b	@er0+,r3l
     4d4:	73 72       	btst	#0x7,r2h
     4d6:	63 00       	btst	r0h,r0h
     4d8:	01 0d 00 00 	mov.l	#0x0,@er0
     4dc:	02 c2       	.word	H'2,H'c2
     4de:	02 91       	.word	H'2,H'91
     4e0:	68 0b       	mov.b	@er0,r3l
     4e2:	6c 65       	mov.b	@er6+,r5h
     4e4:	6e 00 01 0d 	mov.b	@(0x10d:16,er0),r0h
     4e8:	00 00       	nop	
     4ea:	02 c9       	.word	H'2,H'c9
     4ec:	02 91       	.word	H'2,H'91
     4ee:	64 08       	or.w	r0,e0
     4f0:	64 00       	or.w	r0,r0
     4f2:	01 0f       	.word	H'1,H'f
     4f4:	00 00       	nop	
     4f6:	00 41       	.word	H'0,H'41
     4f8:	02 91       	.word	H'2,H'91
     4fa:	74 08       	bor	#0x0,r0l
     4fc:	73 00       	btst	#0x0,r0h
     4fe:	01 10       	.word	H'1,H'10
     500:	00 00       	nop	
     502:	01 b6       	.word	H'1,H'b6
     504:	02 91       	.word	H'2,H'91
     506:	70 00       	bset	#0x0,r0h
     508:	0e 04       	addx	r0h,r4h
     50a:	0f 00       	daa	r0h
     50c:	00 00       	nop	
     50e:	f3 01       	mov.b	#0x1,r3h
     510:	05 00       	xorc	#0x0,ccr
     512:	00 03       	.word	H'0,H'3
     514:	2c 00       	mov.b	@0x0:8,r4l
     516:	40 03       	bra/s	.+2 (0x51a)
     518:	a0 00       	cmp.b	#0x0,r0h
     51a:	00 00       	nop	
     51c:	6c 01       	mov.b	@er0+,r1h
     51e:	9c 0b       	addx	#0xb,r4l
     520:	62 00       	bclr	r0h,r0h
     522:	01 05       	.word	H'1,H'5
     524:	00 00       	nop	
     526:	03 2c       	ldmac	er4,mach
     528:	02 91       	.word	H'2,H'91
     52a:	70 0b       	bset	#0x0,r3l
     52c:	63 00       	btst	r0h,r0h
     52e:	01 05       	.word	H'1,H'5
     530:	00 00       	nop	
     532:	00 3a       	.word	H'0,H'3a
     534:	02 91       	.word	H'2,H'91
     536:	6e 0b 6c 65 	mov.b	@(0x6c65:16,er0),r3l
     53a:	6e 00 01 05 	mov.b	@(0x105:16,er0),r0h
     53e:	00 00       	nop	
     540:	02 c9       	.word	H'2,H'c9
     542:	02 91       	.word	H'2,H'91
     544:	68 08       	mov.b	@er0,r0l
     546:	70 00       	bset	#0x0,r0h
     548:	01 07       	.word	H'1,H'7
     54a:	00 00       	nop	
     54c:	00 41       	.word	H'0,H'41
     54e:	02 91       	.word	H'2,H'91
     550:	74 00       	bor	#0x0,r0h
	...

00000553 <.Ldebug_info0>:
     553:	00 00       	nop	
     555:	03 54       	.word	H'3,H'54
     557:	00 04       	.word	H'0,H'4
     559:	00 00       	nop	
     55b:	02 3a       	stmac	macl,er2
     55d:	04 01       	orc	#0x1,ccr
     55f:	00 00       	nop	
     561:	00 65       	.word	H'0,H'65
     563:	0c 00       	mov.b	r0h,r0h
     565:	00 01       	.word	H'0,H'1
     567:	df 00       	xor.b	#0x0,r7l
     569:	00 00       	nop	
     56b:	51 00       	divxu.b	r0h,r0
     56d:	40 09       	bra/s	.+8 (0x577)
     56f:	32 00       	mov.b	r2h,@0x0:8
     571:	00 03       	.word	H'0,H'3
     573:	b6 00       	subx	#0x0,r6h
     575:	00 06       	.word	H'0,H'6
     577:	04 02       	orc	#0x2,ccr
     579:	00 00       	nop	
     57b:	01 9b       	.word	H'1,H'9b
     57d:	02 08       	stc	ccr,r0l
     57f:	00 00       	nop	
     581:	00 35       	.word	H'0,H'35
     583:	03 00       	ldc	r0h,ccr
     585:	00 00       	nop	
     587:	25 04       	mov.b	@0x4:8,r5h
     589:	01 08 00 00 	mov.l	@er0,@er0
     58d:	00 57       	.word	H'0,H'57
     58f:	04 02       	orc	#0x2,ccr
     591:	07 00       	ldc	#0x0,ccr
     593:	00 00       	nop	
     595:	28 04       	mov.b	@0x4:8,r0l
     597:	04 07       	orc	#0x7,ccr
     599:	00 00       	nop	
     59b:	00 00       	nop	
     59d:	05 02       	xorc	#0x2,ccr
     59f:	05 69       	xorc	#0x69,ccr
     5a1:	6e 74 00 04 	mov.b	@(0x4:16,er7),r4h
     5a5:	01 08 00 00 	mov.l	@er0,@er0
     5a9:	00 60       	.word	H'0,H'60
     5ab:	04 02       	orc	#0x2,ccr
     5ad:	07 00       	ldc	#0x0,ccr
     5af:	00 00       	nop	
     5b1:	05 06       	xorc	#0x6,ccr
     5b3:	00 00       	nop	
     5b5:	01 a1       	.word	H'1,H'a1
     5b7:	07 01       	ldc	#0x1,ccr
     5b9:	0a 00       	inc	r0h
     5bb:	00 00       	nop	
     5bd:	c0 07       	or.b	#0x7,r0h
     5bf:	73 6d       	btst	#0x6,r5l
     5c1:	72 00       	bclr	#0x0,r0h
     5c3:	01 0b       	.word	H'1,H'b
     5c5:	00 00       	nop	
     5c7:	00 30       	.word	H'0,H'30
     5c9:	00 07       	.word	H'0,H'7
     5cb:	62 72       	bclr	r7h,r2h
     5cd:	72 00       	bclr	#0x0,r0h
     5cf:	01 0c       	.word	H'1,H'c
     5d1:	00 00       	nop	
     5d3:	00 30       	.word	H'0,H'30
     5d5:	01 07       	.word	H'1,H'7
     5d7:	73 63       	btst	#0x6,r3h
     5d9:	72 00       	bclr	#0x0,r0h
     5db:	01 0d 00 00 	mov.l	#0x0,@er0
     5df:	00 30       	.word	H'0,H'30
     5e1:	02 07       	stc	ccr,r7h
     5e3:	74 64       	bor	#0x6,r4h
     5e5:	72 00       	bclr	#0x0,r0h
     5e7:	01 0e       	.word	H'1,H'e
     5e9:	00 00       	nop	
     5eb:	00 30       	.word	H'0,H'30
     5ed:	03 07       	ldc	r7h,ccr
     5ef:	73 73       	btst	#0x7,r3h
     5f1:	72 00       	bclr	#0x0,r0h
     5f3:	01 0f       	.word	H'1,H'f
     5f5:	00 00       	nop	
     5f7:	00 30       	.word	H'0,H'30
     5f9:	04 07       	orc	#0x7,ccr
     5fb:	72 64       	bclr	#0x6,r4h
     5fd:	72 00       	bclr	#0x0,r0h
     5ff:	01 10       	.word	H'1,H'10
     601:	00 00       	nop	
     603:	00 30       	.word	H'0,H'30
     605:	05 08       	xorc	#0x8,ccr
     607:	00 00       	nop	
     609:	01 e8       	.word	H'1,H'e8
     60b:	01 11       	.word	H'1,H'11
     60d:	00 00       	nop	
     60f:	00 30       	.word	H'0,H'30
     611:	06 00       	andc	#0x0,ccr
     613:	03 00       	ldc	r0h,ccr
     615:	00 00       	nop	
     617:	5f 09       	jsr	@@9 (0x9)
     619:	04 01       	orc	#0x1,ccr
     61b:	31 00       	mov.b	r1h,@0x0:8
     61d:	00 00       	nop	
     61f:	da 07       	xor.b	#0x7,r2l
     621:	73 63       	btst	#0x6,r3h
     623:	69 00       	mov.w	@er0,r0
     625:	01 32       	.word	H'1,H'32
     627:	00 00       	nop	
     629:	00 da       	.word	H'0,H'da
     62b:	00 00       	nop	
     62d:	0a 04       	inc	r4h
     62f:	00 00       	nop	
     631:	00 c0       	.word	H'0,H'c0
     633:	0b 00       	adds	#1,er0
     635:	00 00       	nop	
     637:	c5 00       	or.b	#0x0,r5h
     639:	00 00       	nop	
     63b:	f0 0c       	mov.b	#0xc,r0h
     63d:	00 00       	nop	
     63f:	00 43       	.word	H'0,H'43
     641:	02 00       	stc	ccr,r0h
     643:	0d 00       	mov.w	r0,r0
     645:	00 01       	.word	H'0,H'1
     647:	ed 01       	and.b	#0x1,r5l
     649:	33 00       	mov.b	r3h,@0x0:8
     64b:	00 00       	nop	
     64d:	e0 05       	and.b	#0x5,r0h
     64f:	03 00       	ldc	r0h,ccr
     651:	40 41       	bra/s	.+64 (0x693)
     653:	d0 0e       	xor.b	#0xe,r0h
     655:	00 00       	nop	
     657:	01 ae       	.word	H'1,H'ae
     659:	01 96       	.word	H'1,H'96
     65b:	00 40       	.word	H'0,H'40
     65d:	0c 9a       	mov.b	r1l,r2l
     65f:	00 00       	nop	
     661:	00 4e       	.word	H'0,H'4e
     663:	01 9c       	.word	H'1,H'9c
     665:	00 00       	nop	
     667:	01 33       	.word	H'1,H'33
     669:	0f 00       	daa	r0h
     66b:	00 02       	.word	H'0,H'2
     66d:	48 01       	.word	H'48,H'1
     66f:	96 00       	addx	#0x0,r6h
     671:	00 00       	nop	
     673:	4a 02       	bpl	.+2 (0x677)
     675:	91 72       	addx	#0x72,r1h
     677:	10 73       	shll.l	#2,er3
     679:	63 69       	btst	r6h,r1l
     67b:	00 01       	.word	H'0,H'1
     67d:	98 00       	addx	#0x0,r0l
     67f:	00 00       	nop	
     681:	da 02       	xor.b	#0x2,r2l
     683:	91 74       	addx	#0x74,r1h
     685:	00 0e       	.word	H'0,H'e
     687:	00 00       	nop	
     689:	01 57       	.word	H'1,H'57
     68b:	01 8f       	.word	H'1,H'8f
     68d:	00 40       	.word	H'0,H'40
     68f:	0c 4c       	mov.b	r4h,r4l
     691:	00 00       	nop	
     693:	00 4e       	.word	H'0,H'4e
     695:	01 9c       	.word	H'1,H'9c
     697:	00 00       	nop	
     699:	01 65       	.word	H'1,H'65
     69b:	0f 00       	daa	r0h
     69d:	00 02       	.word	H'0,H'2
     69f:	48 01       	.word	H'48,H'1
     6a1:	8f 00       	add.b	#0x0,r7l
     6a3:	00 00       	nop	
     6a5:	4a 02       	bpl	.+2 (0x6a9)
     6a7:	91 72       	addx	#0x72,r1h
     6a9:	10 73       	shll.l	#2,er3
     6ab:	63 69       	btst	r6h,r1l
     6ad:	00 01       	.word	H'0,H'1
     6af:	91 00       	addx	#0x0,r1h
     6b1:	00 00       	nop	
     6b3:	da 02       	xor.b	#0x2,r2l
     6b5:	91 74       	addx	#0x74,r1h
     6b7:	00 11       	.word	H'0,H'11
     6b9:	00 00       	nop	
     6bb:	02 17       	stc	exr,r7h
     6bd:	01 88       	.word	H'1,H'88
     6bf:	00 00       	nop	
     6c1:	00 4a       	.word	H'0,H'4a
     6c3:	00 40       	.word	H'0,H'40
     6c5:	0b fa       	.word	H'b,H'fa
     6c7:	00 00       	nop	
     6c9:	00 52       	.word	H'0,H'52
     6cb:	01 9c       	.word	H'1,H'9c
     6cd:	00 00       	nop	
     6cf:	01 9b       	.word	H'1,H'9b
     6d1:	0f 00       	daa	r0h
     6d3:	00 02       	.word	H'0,H'2
     6d5:	48 01       	.word	H'48,H'1
     6d7:	88 00       	add.b	#0x0,r0l
     6d9:	00 00       	nop	
     6db:	4a 02       	bpl	.+2 (0x6df)
     6dd:	91 72       	addx	#0x72,r1h
     6df:	10 73       	shll.l	#2,er3
     6e1:	63 69       	btst	r6h,r1l
     6e3:	00 01       	.word	H'0,H'1
     6e5:	8a 00       	add.b	#0x0,r2l
     6e7:	00 00       	nop	
     6e9:	da 02       	xor.b	#0x2,r2l
     6eb:	91 74       	addx	#0x74,r1h
     6ed:	00 0e       	.word	H'0,H'e
     6ef:	00 00       	nop	
     6f1:	01 f2       	.word	H'1,H'f2
     6f3:	01 81       	.word	H'1,H'81
     6f5:	00 40       	.word	H'0,H'40
     6f7:	0b ac       	.word	H'b,H'ac
     6f9:	00 00       	nop	
     6fb:	00 4e       	.word	H'0,H'4e
     6fd:	01 9c       	.word	H'1,H'9c
     6ff:	00 00       	nop	
     701:	01 cd       	.word	H'1,H'cd
     703:	0f 00       	daa	r0h
     705:	00 02       	.word	H'0,H'2
     707:	48 01       	.word	H'48,H'1
     709:	81 00       	add.b	#0x0,r1h
     70b:	00 00       	nop	
     70d:	4a 02       	bpl	.+2 (0x711)
     70f:	91 72       	addx	#0x72,r1h
     711:	10 73       	shll.l	#2,er3
     713:	63 69       	btst	r6h,r1l
     715:	00 01       	.word	H'0,H'1
     717:	83 00       	add.b	#0x0,r3h
     719:	00 00       	nop	
     71b:	da 02       	xor.b	#0x2,r2l
     71d:	91 74       	addx	#0x74,r1h
     71f:	00 0e       	.word	H'0,H'e
     721:	00 00       	nop	
     723:	01 c7       	.word	H'1,H'c7
     725:	01 7a 00 40 	or.b	@(0x0:2,er0),r0h
     729:	0b 5e       	inc.w	#1,e6
     72b:	00 00       	nop	
     72d:	00 4e       	.word	H'0,H'4e
     72f:	01 9c       	.word	H'1,H'9c
     731:	00 00       	nop	
     733:	01 ff       	.word	H'1,H'ff
     735:	0f 00       	daa	r0h
     737:	00 02       	.word	H'0,H'2
     739:	48 01       	.word	H'48,H'1
     73b:	7a 00 00 00 	mov.l	#0x4a02,er0
     73f:	4a 02 
     741:	91 72       	addx	#0x72,r1h
     743:	10 73       	shll.l	#2,er3
     745:	63 69       	btst	r6h,r1l
     747:	00 01       	.word	H'0,H'1
     749:	7c 00       	.word	H'7c,H'0
     74b:	00 00       	nop	
     74d:	da 02       	xor.b	#0x2,r2l
     74f:	91 74       	addx	#0x74,r1h
     751:	00 11       	.word	H'0,H'11
     753:	00 00       	nop	
     755:	01 6f       	.word	H'1,H'6f
     757:	01 73       	.word	H'1,H'73
     759:	00 00       	nop	
     75b:	00 4a       	.word	H'0,H'4a
     75d:	00 40       	.word	H'0,H'40
     75f:	0b 18       	.word	H'b,H'18
     761:	00 00       	nop	
     763:	00 46       	.word	H'0,H'46
     765:	01 9c       	.word	H'1,H'9c
     767:	00 00       	nop	
     769:	02 35       	stmac	macl,er5
     76b:	0f 00       	daa	r0h
     76d:	00 02       	.word	H'0,H'2
     76f:	48 01       	.word	H'48,H'1
     771:	73 00       	btst	#0x0,r0h
     773:	00 00       	nop	
     775:	4a 02       	bpl	.+2 (0x779)
     777:	91 72       	addx	#0x72,r1h
     779:	10 73       	shll.l	#2,er3
     77b:	63 69       	btst	r6h,r1l
     77d:	00 01       	.word	H'0,H'1
     77f:	75 00       	bxor	#0x0,r0h
     781:	00 00       	nop	
     783:	da 02       	xor.b	#0x2,r2l
     785:	91 74       	addx	#0x74,r1h
     787:	00 12       	.word	H'0,H'12
     789:	00 00       	nop	
     78b:	01 8a       	.word	H'1,H'8a
     78d:	01 64       	.word	H'1,H'64
     78f:	00 00       	nop	
     791:	00 35       	.word	H'0,H'35
     793:	00 40       	.word	H'0,H'40
     795:	0a a4       	add.l	er2,er4
     797:	00 00       	nop	
     799:	00 74       	.word	H'0,H'74
     79b:	01 9c       	.word	H'1,H'9c
     79d:	00 00       	nop	
     79f:	02 77       	stc	sbr,er7
     7a1:	0f 00       	daa	r0h
     7a3:	00 02       	.word	H'0,H'2
     7a5:	48 01       	.word	H'48,H'1
     7a7:	64 00       	or.w	r0,r0
     7a9:	00 00       	nop	
     7ab:	4a 02       	bpl	.+2 (0x7af)
     7ad:	91 6e       	addx	#0x6e,r1h
     7af:	10 73       	shll.l	#2,er3
     7b1:	63 69       	btst	r6h,r1l
     7b3:	00 01       	.word	H'0,H'1
     7b5:	66 00       	and.w	r0,r0
     7b7:	00 00       	nop	
     7b9:	da 02       	xor.b	#0x2,r2l
     7bb:	91 74       	addx	#0x74,r1h
     7bd:	10 63       	shll.w	#8,r3
     7bf:	00 01       	.word	H'0,H'1
     7c1:	67 00       	bst	#0x0,r0h
     7c3:	00 00       	nop	
     7c5:	35 02       	mov.b	r5h,@0x2:8
     7c7:	91 73       	addx	#0x73,r1h
     7c9:	00 11       	.word	H'0,H'11
     7cb:	00 00       	nop	
     7cd:	02 5f       	.word	H'2,H'5f
     7cf:	01 5d 00 00 	mov.w	#0x0,@er0
     7d3:	00 4a       	.word	H'0,H'4a
     7d5:	00 40       	.word	H'0,H'40
     7d7:	0a 5e       	add.w	#0x5,e6
     7d9:	00 00       	nop	
     7db:	00 46       	.word	H'0,H'46
     7dd:	01 9c       	.word	H'1,H'9c
     7df:	00 00       	nop	
     7e1:	02 ad       	stmac	mach,er5
     7e3:	0f 00       	daa	r0h
     7e5:	00 02       	.word	H'0,H'2
     7e7:	48 01       	.word	H'48,H'1
     7e9:	5d 00       	jsr	@er0
     7eb:	00 00       	nop	
     7ed:	4a 02       	bpl	.+2 (0x7f1)
     7ef:	91 72       	addx	#0x72,r1h
     7f1:	10 73       	shll.l	#2,er3
     7f3:	63 69       	btst	r6h,r1l
     7f5:	00 01       	.word	H'0,H'1
     7f7:	5f 00       	jsr	@@0 (0x0)
     7f9:	00 00       	nop	
     7fb:	da 02       	xor.b	#0x2,r2l
     7fd:	91 74       	addx	#0x74,r1h
     7ff:	00 12       	.word	H'0,H'12
     801:	00 00       	nop	
     803:	02 4e       	.word	H'2,H'4e
     805:	01 4f       	.word	H'1,H'4f
     807:	00 00       	nop	
     809:	00 4a       	.word	H'0,H'4a
     80b:	00 40       	.word	H'0,H'40
     80d:	09 ea       	add.w	e6,e2
     80f:	00 00       	nop	
     811:	00 74       	.word	H'0,H'74
     813:	01 9c       	.word	H'1,H'9c
     815:	00 00       	nop	
     817:	02 ef       	.word	H'2,H'ef
     819:	0f 00       	daa	r0h
     81b:	00 02       	.word	H'0,H'2
     81d:	48 01       	.word	H'48,H'1
     81f:	4f 00       	ble	.0 (0x821)
     821:	00 00       	nop	
     823:	4a 02       	bpl	.+2 (0x827)
     825:	91 72       	addx	#0x72,r1h
     827:	13 63       	.word	H'13,H'63
     829:	00 01       	.word	H'0,H'1
     82b:	4f 00       	ble	.0 (0x82d)
     82d:	00 00       	nop	
     82f:	35 02       	mov.b	r5h,@0x2:8
     831:	91 71       	addx	#0x71,r1h
     833:	10 73       	shll.l	#2,er3
     835:	63 69       	btst	r6h,r1l
     837:	00 01       	.word	H'0,H'1
     839:	51 00       	divxu.b	r0h,r0
     83b:	00 00       	nop	
     83d:	da 02       	xor.b	#0x2,r2l
     83f:	91 74       	addx	#0x74,r1h
     841:	00 11       	.word	H'0,H'11
     843:	00 00       	nop	
     845:	02 32       	stmac	macl,er2
     847:	01 48       	.word	H'1,H'48
     849:	00 00       	nop	
     84b:	00 4a       	.word	H'0,H'4a
     84d:	00 40       	.word	H'0,H'40
     84f:	09 a4       	add.w	e2,r4
     851:	00 00       	nop	
     853:	00 46       	.word	H'0,H'46
     855:	01 9c       	.word	H'1,H'9c
     857:	00 00       	nop	
     859:	03 25       	ldmac	er5,mach
     85b:	0f 00       	daa	r0h
     85d:	00 02       	.word	H'0,H'2
     85f:	48 01       	.word	H'48,H'1
     861:	48 00       	bvc	.0 (0x863)
     863:	00 00       	nop	
     865:	4a 02       	bpl	.+2 (0x869)
     867:	91 72       	addx	#0x72,r1h
     869:	10 73       	shll.l	#2,er3
     86b:	63 69       	btst	r6h,r1l
     86d:	00 01       	.word	H'0,H'1
     86f:	4a 00       	bpl	.0 (0x871)
     871:	00 00       	nop	
     873:	da 02       	xor.b	#0x2,r2l
     875:	91 74       	addx	#0x74,r1h
     877:	00 14       	.word	H'0,H'14
     879:	00 00       	nop	
     87b:	02 0b       	stc	ccr,r3l
     87d:	01 3a       	.word	H'1,H'3a
     87f:	00 00       	nop	
     881:	00 4a       	.word	H'0,H'4a
     883:	00 40       	.word	H'0,H'40
     885:	09 32       	add.w	r3,r2
     887:	00 00       	nop	
     889:	00 72       	.word	H'0,H'72
     88b:	01 9c       	.word	H'1,H'9c
     88d:	0f 00       	daa	r0h
     88f:	00 02       	.word	H'0,H'2
     891:	48 01       	.word	H'48,H'1
     893:	3a 00       	mov.b	r2l,@0x0:8
     895:	00 00       	nop	
     897:	4a 02       	bpl	.+2 (0x89b)
     899:	91 72       	addx	#0x72,r1h
     89b:	10 73       	shll.l	#2,er3
     89d:	63 69       	btst	r6h,r1l
     89f:	00 01       	.word	H'0,H'1
     8a1:	3c 00       	mov.b	r4l,@0x0:8
     8a3:	00 00       	nop	
     8a5:	da 02       	xor.b	#0x2,r2l
     8a7:	91 74       	addx	#0x74,r1h
	...

000008ab <.Ldebug_info0>:
     8ab:	00 00       	nop	
     8ad:	02 bf       	stmac	macl,er7
     8af:	00 04       	.word	H'0,H'4
     8b1:	00 00       	nop	
     8b3:	03 75       	ldc	er5,sbr
     8b5:	04 01       	orc	#0x1,ccr
     8b7:	00 00       	nop	
     8b9:	00 65       	.word	H'0,H'65
     8bb:	0c 00       	mov.b	r0h,r0h
     8bd:	00 02       	.word	H'0,H'2
     8bf:	9d 00       	addx	#0x0,r5l
     8c1:	00 00       	nop	
     8c3:	51 00       	divxu.b	r0h,r0
     8c5:	40 0c       	bra	.+12 (0x8d3)
     8c7:	e8 00       	and.b	#0x0,r0l
     8c9:	00 02       	.word	H'0,H'2
     8cb:	ba 00       	subx	#0x0,r2l
     8cd:	00 08       	.word	H'0,H'8
     8cf:	21 02       	mov.b	@0x2:8,r1h
     8d1:	00 00       	nop	
     8d3:	01 9b       	.word	H'1,H'9b
     8d5:	02 08       	stc	ccr,r0l
     8d7:	00 00       	nop	
     8d9:	00 35       	.word	H'0,H'35
     8db:	03 00       	ldc	r0h,ccr
     8dd:	00 00       	nop	
     8df:	25 04       	mov.b	@0x4:8,r5h
     8e1:	01 08 00 00 	mov.l	@er0,@er0
     8e5:	00 57       	.word	H'0,H'57
     8e7:	02 00       	stc	ccr,r0h
     8e9:	00 02       	.word	H'0,H'2
     8eb:	db 02       	xor.b	#0x2,r3l
     8ed:	09 00       	add.w	r0,r0
     8ef:	00 00       	nop	
     8f1:	4c 03       	.word	H'4c,H'3
     8f3:	00 00       	nop	
     8f5:	00 3c       	.word	H'0,H'3c
     8f7:	04 02       	orc	#0x2,ccr
     8f9:	07 00       	ldc	#0x0,ccr
     8fb:	00 00       	nop	
     8fd:	28 04       	mov.b	@0x4:8,r0l
     8ff:	04 07       	orc	#0x7,ccr
     901:	00 00       	nop	
     903:	00 00       	nop	
     905:	05 02       	xorc	#0x2,ccr
     907:	05 69       	xorc	#0x69,ccr
     909:	6e 74 00 03 	mov.b	@(0x3:16,er7),r4h
     90d:	00 00       	nop	
     90f:	00 5a       	.word	H'0,H'5a
     911:	04 01       	orc	#0x1,ccr
     913:	08 00       	add.b	r0h,r0h
     915:	00 00       	nop	
     917:	60 04       	bset	r0h,r4h
     919:	02 07       	stc	ccr,r7h
     91b:	00 00       	nop	
     91d:	00 05       	.word	H'0,H'5
     91f:	06 00       	andc	#0x0,ccr
     921:	00 02       	.word	H'0,H'2
     923:	83 0a       	add.b	#0xa,r3h
     925:	01 09       	.word	H'1,H'9
     927:	00 00       	nop	
     929:	00 ed       	.word	H'0,H'ed
     92b:	07 00       	ldc	#0x0,ccr
     92d:	00 03       	.word	H'0,H'3
     92f:	07 01       	ldc	#0x1,ccr
     931:	0a 00       	inc	r0h
     933:	00 00       	nop	
     935:	30 00       	mov.b	r0h,@0x0:8
     937:	07 00       	ldc	#0x0,ccr
     939:	00 03       	.word	H'0,H'3
     93b:	0c 01       	mov.b	r0h,r1h
     93d:	0b 00       	adds	#1,er0
     93f:	00 00       	nop	
     941:	30 01       	mov.b	r0h,@0x1:8
     943:	07 00       	ldc	#0x0,ccr
     945:	00 02       	.word	H'0,H'2
     947:	cf 01       	or.b	#0x1,r7l
     949:	0c 00       	mov.b	r0h,r0h
     94b:	00 00       	nop	
     94d:	30 02       	mov.b	r0h,@0x2:8
     94f:	07 00       	ldc	#0x0,ccr
     951:	00 02       	.word	H'0,H'2
     953:	d5 01       	xor.b	#0x1,r5h
     955:	0d 00       	mov.w	r0,r0
     957:	00 00       	nop	
     959:	30 03       	mov.b	r0h,@0x3:8
     95b:	07 00       	ldc	#0x0,ccr
     95d:	00 02       	.word	H'0,H'2
     95f:	f9 01       	mov.b	#0x1,r1l
     961:	0e 00       	addx	r0h,r0h
     963:	00 00       	nop	
     965:	30 04       	mov.b	r0h,@0x4:8
     967:	07 00       	ldc	#0x0,ccr
     969:	00 03       	.word	H'0,H'3
     96b:	00 01       	.word	H'0,H'1
     96d:	0f 00       	daa	r0h
     96f:	00 00       	nop	
     971:	30 05       	mov.b	r0h,@0x5:8
     973:	07 00       	ldc	#0x0,ccr
     975:	00 02       	.word	H'0,H'2
     977:	96 01       	addx	#0x1,r6h
     979:	10 00       	shll.b	r0h
     97b:	00 00       	nop	
     97d:	30 06       	mov.b	r0h,@0x6:8
     97f:	07 00       	ldc	#0x0,ccr
     981:	00 02       	.word	H'0,H'2
     983:	bb 01       	subx	#0x1,r3l
     985:	11 00       	shlr.b	r0h
     987:	00 00       	nop	
     989:	30 07       	mov.b	r0h,@0x7:8
     98b:	07 00       	ldc	#0x0,ccr
     98d:	00 02       	.word	H'0,H'2
     98f:	a5 01       	cmp.b	#0x1,r5h
     991:	12 00       	rotxl.b	r0h
     993:	00 00       	nop	
     995:	47 08       	beq	.+8 (0x99f)
     997:	00 03       	.word	H'0,H'3
     999:	00 00       	nop	
     99b:	00 74       	.word	H'0,H'74
     99d:	08 04       	add.b	r0h,r4h
     99f:	01 30       	.word	H'1,H'30
     9a1:	00 00       	nop	
     9a3:	01 07       	.word	H'1,H'7
     9a5:	09 74       	add.w	r7,r4
     9a7:	6d 72       	mov.w	@er7+,r2
     9a9:	00 01       	.word	H'0,H'1
     9ab:	31 00       	mov.b	r1h,@0x0:8
     9ad:	00 01       	.word	H'0,H'1
     9af:	07 00       	ldc	#0x0,ccr
     9b1:	00 0a       	.word	H'0,H'a
     9b3:	04 00       	orc	#0x0,ccr
     9b5:	00 00       	nop	
     9b7:	ed 0b       	and.b	#0xb,r5l
     9b9:	00 00       	nop	
     9bb:	00 f2       	.word	H'0,H'f2
     9bd:	00 00       	nop	
     9bf:	01 1d       	.word	H'1,H'1d
     9c1:	0c 00       	mov.b	r0h,r0h
     9c3:	00 00       	nop	
     9c5:	53 01       	divxu.w	r0,er1
     9c7:	00 0d       	.word	H'0,H'd
     9c9:	00 00       	nop	
     9cb:	01 ed       	.word	H'1,H'ed
     9cd:	01 32       	.word	H'1,H'32
     9cf:	00 00       	nop	
     9d1:	01 0d 05 03 	mov.l	#0x3,@er5
     9d5:	00 40       	.word	H'0,H'40
     9d7:	41 dc       	brn	.-36 (0x9b5)
     9d9:	0e 00       	addx	r0h,r0h
     9db:	00 02       	.word	H'0,H'2
     9dd:	75 01       	bxor	#0x0,r1h
     9df:	7a 00 00 00 	mov.l	#0x5a00,er0
     9e3:	5a 00 
     9e5:	40 0f       	bra/s	.+14 (0x9f5)
     9e7:	1e 00       	subx	r0h,r0h
     9e9:	00 00       	nop	
     9eb:	84 01       	add.b	#0x1,r4h
     9ed:	9c 00       	addx	#0x0,r4l
     9ef:	00 01       	.word	H'0,H'1
     9f1:	80 0f       	add.b	#0xf,r0h
     9f3:	00 00       	nop	
     9f5:	02 48       	.word	H'2,H'48
     9f7:	01 7a       	.word	H'1,H'7a
     9f9:	00 00       	nop	
     9fb:	00 5a       	.word	H'0,H'5a
     9fd:	02 91       	.word	H'2,H'91
     9ff:	6e 10 74 6d 	mov.b	@(0x746d:16,er1),r0h
     a03:	72 00       	bclr	#0x0,r0h
     a05:	01 7c       	.word	H'1,H'7c
     a07:	00 00       	nop	
     a09:	01 07       	.word	H'1,H'7
     a0b:	02 91       	.word	H'2,H'91
     a0d:	74 0d       	bor	#0x0,r5l
     a0f:	00 00       	nop	
     a11:	02 90       	.word	H'2,H'90
     a13:	01 7d 00 00 	mov.b	#0x0,@er0
     a17:	00 61       	.word	H'0,H'61
     a19:	02 91       	.word	H'2,H'91
     a1b:	70 0d       	bset	#0x0,r5l
     a1d:	00 00       	nop	
     a1f:	02 e2       	.word	H'2,H'e2
     a21:	01 7e       	.word	H'1,H'7e
     a23:	00 00       	nop	
     a25:	00 5a       	.word	H'0,H'5a
     a27:	02 91       	.word	H'2,H'91
     a29:	72 00       	bclr	#0x0,r0h
     a2b:	11 00       	shlr.b	r0h
     a2d:	00 02       	.word	H'0,H'2
     a2f:	aa 01       	cmp.b	#0x1,r2l
     a31:	73 00       	btst	#0x0,r0h
     a33:	00 00       	nop	
     a35:	5a 00 40 0e 	jmp	@0x400e:24
     a39:	ce 00       	or.b	#0x0,r6l
     a3b:	00 00       	nop	
     a3d:	50 01       	mulxu.b	r0h,r1
     a3f:	9c 00       	addx	#0x0,r4l
     a41:	00 01       	.word	H'0,H'1
     a43:	b6 0f       	subx	#0xf,r6h
     a45:	00 00       	nop	
     a47:	02 48       	.word	H'2,H'48
     a49:	01 73       	.word	H'1,H'73
     a4b:	00 00       	nop	
     a4d:	00 5a       	.word	H'0,H'5a
     a4f:	02 91       	.word	H'2,H'91
     a51:	72 10       	bclr	#0x1,r0h
     a53:	74 6d       	bor	#0x6,r5l
     a55:	72 00       	bclr	#0x0,r0h
     a57:	01 75       	.word	H'1,H'75
     a59:	00 00       	nop	
     a5b:	01 07       	.word	H'1,H'7
     a5d:	02 91       	.word	H'2,H'91
     a5f:	74 00       	bor	#0x0,r0h
     a61:	0e 00       	addx	r0h,r0h
     a63:	00 03       	.word	H'0,H'3
     a65:	22 01       	mov.b	@0x1:8,r2h
     a67:	64 00       	or.w	r0,r0
     a69:	00 00       	nop	
     a6b:	5a 00 40 0e 	jmp	@0x400e:24
     a6f:	62 00       	bclr	r0h,r0h
     a71:	00 00       	nop	
     a73:	6c 01       	mov.b	@er0+,r1h
     a75:	9c 00       	addx	#0x0,r4l
     a77:	00 01       	.word	H'0,H'1
     a79:	ec 0f       	and.b	#0xf,r4l
     a7b:	00 00       	nop	
     a7d:	02 48       	.word	H'2,H'48
     a7f:	01 64       	.word	H'1,H'64
     a81:	00 00       	nop	
     a83:	00 5a       	.word	H'0,H'5a
     a85:	02 91       	.word	H'2,H'91
     a87:	72 10       	bclr	#0x1,r0h
     a89:	74 6d       	bor	#0x6,r5l
     a8b:	72 00       	bclr	#0x0,r0h
     a8d:	01 66       	.word	H'1,H'66
     a8f:	00 00       	nop	
     a91:	01 07       	.word	H'1,H'7
     a93:	02 91       	.word	H'2,H'91
     a95:	74 00       	bor	#0x0,r0h
     a97:	11 00       	shlr.b	r0h
     a99:	00 02       	.word	H'0,H'2
     a9b:	c2 01       	or.b	#0x1,r2h
     a9d:	5a 00 00 00 	jmp	@0x0:24
     aa1:	5a 00 40 0e 	jmp	@0x400e:24
     aa5:	12 00       	rotxl.b	r0h
     aa7:	00 00       	nop	
     aa9:	50 01       	mulxu.b	r0h,r1
     aab:	9c 00       	addx	#0x0,r4l
     aad:	00 02       	.word	H'0,H'2
     aaf:	22 0f       	mov.b	@0xf:8,r2h
     ab1:	00 00       	nop	
     ab3:	02 48       	.word	H'2,H'48
     ab5:	01 5a       	.word	H'1,H'5a
     ab7:	00 00       	nop	
     ab9:	00 5a       	.word	H'0,H'5a
     abb:	02 91       	.word	H'2,H'91
     abd:	72 10       	bclr	#0x1,r0h
     abf:	74 6d       	bor	#0x6,r5l
     ac1:	72 00       	bclr	#0x0,r0h
     ac3:	01 5c       	.word	H'1,H'5c
     ac5:	00 00       	nop	
     ac7:	01 07       	.word	H'1,H'7
     ac9:	02 91       	.word	H'2,H'91
     acb:	74 00       	bor	#0x0,r0h
     acd:	11 00       	shlr.b	r0h
     acf:	00 03       	.word	H'0,H'3
     ad1:	11 01       	shlr.b	r1h
     ad3:	53 00       	divxu.w	r0,er0
     ad5:	00 00       	nop	
     ad7:	5a 00 40 0d 	jmp	@0x400d:24
     adb:	c0 00       	or.b	#0x0,r0h
     add:	00 00       	nop	
     adf:	52 01       	mulxu.w	r0,er1
     ae1:	9c 00       	addx	#0x0,r4l
     ae3:	00 02       	.word	H'0,H'2
     ae5:	58 0f       	.word	H'58,H'f
     ae7:	00 00       	nop	
     ae9:	02 48       	.word	H'2,H'48
     aeb:	01 53       	.word	H'1,H'53
     aed:	00 00       	nop	
     aef:	00 5a       	.word	H'0,H'5a
     af1:	02 91       	.word	H'2,H'91
     af3:	72 10       	bclr	#0x1,r0h
     af5:	74 6d       	bor	#0x6,r5l
     af7:	72 00       	bclr	#0x0,r0h
     af9:	01 55       	.word	H'1,H'55
     afb:	00 00       	nop	
     afd:	01 07       	.word	H'1,H'7
     aff:	02 91       	.word	H'2,H'91
     b01:	74 00       	bor	#0x0,r0h
     b03:	12 00       	rotxl.b	r0h
     b05:	00 02       	.word	H'0,H'2
     b07:	e7 01       	and.b	#0x1,r7h
     b09:	38 00       	mov.b	r0l,@0x0:8
     b0b:	00 00       	nop	
     b0d:	5a 00 40 0c 	jmp	@0x400c:24
     b11:	e8 00       	and.b	#0x0,r0l
     b13:	00 00       	nop	
     b15:	d8 01       	xor.b	#0x1,r0l
     b17:	9c 0f       	addx	#0xf,r4l
     b19:	00 00       	nop	
     b1b:	02 48       	.word	H'2,H'48
     b1d:	01 38       	.word	H'1,H'38
     b1f:	00 00       	nop	
     b21:	00 5a       	.word	H'0,H'5a
     b23:	02 91       	.word	H'2,H'91
     b25:	6a 0f 00 00 	mov.b	@0x0:16,r7l
     b29:	02 e2       	.word	H'2,H'e2
     b2b:	01 38       	.word	H'1,H'38
     b2d:	00 00       	nop	
     b2f:	00 5a       	.word	H'0,H'5a
     b31:	02 91       	.word	H'2,H'91
     b33:	68 0f       	mov.b	@er0,r7l
     b35:	00 00       	nop	
     b37:	02 f3       	.word	H'2,H'f3
     b39:	01 38       	.word	H'1,H'38
     b3b:	00 00       	nop	
     b3d:	00 5a       	.word	H'0,H'5a
     b3f:	02 91       	.word	H'2,H'91
     b41:	66 10       	and.w	r1,r0
     b43:	74 6d       	bor	#0x6,r5l
     b45:	72 00       	bclr	#0x0,r0h
     b47:	01 3a       	.word	H'1,H'3a
     b49:	00 00       	nop	
     b4b:	01 07       	.word	H'1,H'7
     b4d:	02 91       	.word	H'2,H'91
     b4f:	70 0d       	bset	#0x0,r5l
     b51:	00 00       	nop	
     b53:	02 90       	.word	H'2,H'90
     b55:	01 3b       	.word	H'1,H'3b
     b57:	00 00       	nop	
     b59:	00 5a       	.word	H'0,H'5a
     b5b:	02 91       	.word	H'2,H'91
     b5d:	6e 10 74 63 	mov.b	@(0x7463:16,er1),r0h
     b61:	72 00       	bclr	#0x0,r0h
     b63:	01 3c       	.word	H'1,H'3c
     b65:	00 00       	nop	
     b67:	00 25       	.word	H'0,H'25
     b69:	02 91       	.word	H'2,H'91
     b6b:	77 00       	bld	#0x0,r0h
	...

00000b6e <.Ldebug_info0>:
     b6e:	00 00       	nop	
     b70:	03 6b       	ldc	er3,vbr
     b72:	00 04       	.word	H'0,H'4
     b74:	00 00       	nop	
     b76:	04 87       	orc	#0x87,ccr
     b78:	04 01       	orc	#0x1,ccr
     b7a:	00 00       	nop	
     b7c:	00 65       	.word	H'0,H'65
     b7e:	0c 00       	mov.b	r0h,r0h
     b80:	00 03       	.word	H'0,H'3
     b82:	41 00       	brn	.0 (0xb84)
     b84:	00 00       	nop	
     b86:	51 00       	divxu.b	r0h,r0
     b88:	40 0f       	bra/s	.+14 (0xb98)
     b8a:	a2 00       	cmp.b	#0x0,r2h
     b8c:	00 06       	.word	H'0,H'6
     b8e:	d8 00       	xor.b	#0x0,r0l
     b90:	00 09       	.word	H'0,H'9
     b92:	cf 02       	or.b	#0x2,r7l
     b94:	00 00       	nop	
     b96:	01 9b       	.word	H'1,H'9b
     b98:	02 08       	stc	ccr,r0l
     b9a:	00 00       	nop	
     b9c:	00 30       	.word	H'0,H'30
     b9e:	03 01       	ldc	r1h,ccr
     ba0:	08 00       	add.b	r0h,r0h
     ba2:	00 00       	nop	
     ba4:	57 03       	.word	H'57,H'3
     ba6:	02 07       	stc	ccr,r7h
     ba8:	00 00       	nop	
     baa:	00 28       	.word	H'0,H'28
     bac:	03 04       	ldc	r4h,ccr
     bae:	07 00       	ldc	#0x0,ccr
     bb0:	00 00       	nop	
     bb2:	00 04       	.word	H'0,H'4
     bb4:	02 05       	stc	ccr,r5h
     bb6:	69 6e       	mov.w	@er6,e6
     bb8:	74 00       	bor	#0x0,r0h
     bba:	05 00       	xorc	#0x0,ccr
     bbc:	00 00       	nop	
     bbe:	45 06       	bcs	.+6 (0xbc6)
     bc0:	04 00       	orc	#0x0,ccr
     bc2:	00 00       	nop	
     bc4:	57 03       	.word	H'57,H'3
     bc6:	01 08 00 00 	mov.l	@er0,@er0
     bca:	00 60       	.word	H'0,H'60
     bcc:	03 02       	ldc	r2h,ccr
     bce:	07 00       	ldc	#0x0,ccr
     bd0:	00 00       	nop	
     bd2:	05 07       	xorc	#0x7,ccr
     bd4:	00 00       	nop	
     bd6:	03 36       	ldmac	er6,macl
     bd8:	01 01       	.word	H'1,H'1
     bda:	b0 00       	subx	#0x0,r0h
     bdc:	00 00       	nop	
     bde:	45 00       	bcs	.0 (0xbe0)
     be0:	40 15       	bra/s	.+20 (0xbf6)
     be2:	de 00       	xor.b	#0x0,r6l
     be4:	00 00       	nop	
     be6:	9c 01       	addx	#0x1,r4l
     be8:	9c 00       	addx	#0x0,r4l
     bea:	00 00       	nop	
     bec:	ad 08       	cmp.b	#0x8,r5l
     bee:	00 00       	nop	
     bf0:	02 48       	.word	H'2,H'48
     bf2:	01 01       	.word	H'1,H'1
     bf4:	b0 00       	subx	#0x0,r0h
     bf6:	00 00       	nop	
     bf8:	45 02       	bcs	.+2 (0xbfc)
     bfa:	91 76       	addx	#0x76,r1h
     bfc:	08 00       	add.b	r0h,r0h
     bfe:	00 09       	.word	H'0,H'9
     c00:	99 01       	addx	#0x1,r1l
     c02:	01 b0       	.word	H'1,H'b0
     c04:	00 00       	nop	
     c06:	00 45       	.word	H'0,H'45
     c08:	02 91       	.word	H'2,H'91
     c0a:	74 09       	bor	#0x0,r1l
     c0c:	62 75       	bclr	r7h,r5h
     c0e:	66 00       	and.w	r0,r0
     c10:	01 01       	.word	H'1,H'1
     c12:	b0 00       	subx	#0x0,r0h
     c14:	00 00       	nop	
     c16:	51 02       	divxu.b	r0h,r2
     c18:	91 70       	addx	#0x70,r1h
     c1a:	00 07       	.word	H'0,H'7
     c1c:	00 00       	nop	
     c1e:	03 4e       	.word	H'3,H'4e
     c20:	01 01       	.word	H'1,H'1
     c22:	7d 00       	.word	H'7d,H'0
     c24:	00 00       	nop	
     c26:	45 00       	bcs	.0 (0xc28)
     c28:	40 14       	bra	.+20 (0xc3e)
     c2a:	ce 00       	or.b	#0x0,r6l
     c2c:	00 01       	.word	H'0,H'1
     c2e:	10 01       	shll.b	r1h
     c30:	9c 00       	addx	#0x0,r4l
     c32:	00 01       	.word	H'0,H'1
     c34:	22 08       	mov.b	@0x8:8,r2h
     c36:	00 00       	nop	
     c38:	02 48       	.word	H'2,H'48
     c3a:	01 01       	.word	H'1,H'1
     c3c:	7d 00       	.word	H'7d,H'0
     c3e:	00 00       	nop	
     c40:	45 02       	bcs	.+2 (0xc44)
     c42:	91 6e       	addx	#0x6e,r1h
     c44:	09 62       	add.w	r6,r2
     c46:	75 66       	bxor	#0x6,r6h
     c48:	00 01       	.word	H'0,H'1
     c4a:	01 7d 00 00 	mov.b	#0x0,@er0
     c4e:	00 51       	.word	H'0,H'51
     c50:	02 91       	.word	H'2,H'91
     c52:	68 0a       	mov.b	@er0,r2l
     c54:	00 00       	nop	
     c56:	08 e0       	add.b	r6l,r0h
     c58:	01 01       	.word	H'1,H'1
     c5a:	7f 00       	.word	H'7f,H'0
     c5c:	00 00       	nop	
     c5e:	30 02       	mov.b	r0h,@0x2:8
     c60:	91 77       	addx	#0x77,r1h
     c62:	0a 00       	inc	r0h
     c64:	00 03       	.word	H'0,H'3
     c66:	59 01       	.word	H'59,H'1
     c68:	01 7f       	.word	H'1,H'7f
     c6a:	00 00       	nop	
     c6c:	00 30       	.word	H'0,H'30
     c6e:	02 91       	.word	H'2,H'91
     c70:	76 0a       	band	#0x0,r2l
     c72:	00 00       	nop	
     c74:	0a 92       	add.l	er1,er2
     c76:	01 01       	.word	H'1,H'1
     c78:	80 00       	add.b	#0x0,r0h
     c7a:	00 01       	.word	H'0,H'1
     c7c:	22 02       	mov.b	@0x2:8,r2h
     c7e:	91 70       	addx	#0x70,r1h
     c80:	0a 00       	inc	r0h
     c82:	00 09       	.word	H'0,H'9
     c84:	99 01       	addx	#0x1,r1l
     c86:	01 81       	.word	H'1,H'81
     c88:	00 00       	nop	
     c8a:	00 45       	.word	H'0,H'45
     c8c:	02 91       	.word	H'2,H'91
     c8e:	74 00       	bor	#0x0,r0h
     c90:	0b 00       	adds	#1,er0
     c92:	00 00       	nop	
     c94:	30 00       	mov.b	r0h,@0x0:8
     c96:	00 01       	.word	H'0,H'1
     c98:	32 0c       	mov.b	r2h,@0xc:8
     c9a:	00 00       	nop	
     c9c:	00 3e       	.word	H'0,H'3e
     c9e:	03 00       	ldc	r0h,ccr
     ca0:	0d 00       	mov.w	r0,r0
     ca2:	00 03       	.word	H'0,H'3
     ca4:	b8 01       	subx	#0x1,r0l
     ca6:	01 6f       	.word	H'1,H'6f
     ca8:	00 00       	nop	
     caa:	00 45       	.word	H'0,H'45
     cac:	00 40       	.word	H'0,H'40
     cae:	14 88       	or.b	r0l,r0l
     cb0:	00 00       	nop	
     cb2:	00 46       	.word	H'0,H'46
     cb4:	01 9c       	.word	H'1,H'9c
     cb6:	00 00       	nop	
     cb8:	01 5c       	.word	H'1,H'5c
     cba:	08 00       	add.b	r0h,r0h
     cbc:	00 02       	.word	H'0,H'2
     cbe:	48 01       	.word	H'48,H'1
     cc0:	01 6f       	.word	H'1,H'6f
     cc2:	00 00       	nop	
     cc4:	00 45       	.word	H'0,H'45
     cc6:	02 91       	.word	H'2,H'91
     cc8:	76 00       	band	#0x0,r0h
     cca:	0e 00       	addx	r0h,r0h
     ccc:	00 03       	.word	H'0,H'3
     cce:	a8 01       	cmp.b	#0x1,r0l
     cd0:	01 61       	.word	H'1,H'61
     cd2:	00 00       	nop	
     cd4:	00 45       	.word	H'0,H'45
     cd6:	00 40       	.word	H'0,H'40
     cd8:	14 4c       	or.b	r4h,r4l
     cda:	00 00       	nop	
     cdc:	00 3c       	.word	H'0,H'3c
     cde:	01 9c       	.word	H'1,H'9c
     ce0:	00 00       	nop	
     ce2:	01 95       	.word	H'1,H'95
     ce4:	08 00       	add.b	r0h,r0h
     ce6:	00 02       	.word	H'0,H'2
     ce8:	48 01       	.word	H'48,H'1
     cea:	01 61       	.word	H'1,H'61
     cec:	00 00       	nop	
     cee:	00 45       	.word	H'0,H'45
     cf0:	02 91       	.word	H'2,H'91
     cf2:	72 0a       	bclr	#0x0,r2l
     cf4:	00 00       	nop	
     cf6:	03 cc       	.word	H'3,H'cc
     cf8:	01 01       	.word	H'1,H'1
     cfa:	63 00       	btst	r0h,r0h
     cfc:	00 00       	nop	
     cfe:	30 02       	mov.b	r0h,@0x2:8
     d00:	91 77       	addx	#0x77,r1h
     d02:	00 0f       	.word	H'0,H'f
     d04:	00 00       	nop	
     d06:	03 5e       	.word	H'3,H'5e
     d08:	01 01       	.word	H'1,H'1
     d0a:	5b 00       	jmp	@@0 (0x0)
     d0c:	40 14       	bra	.+20 (0xd22)
     d0e:	22 00       	mov.b	@0x0:8,r2h
     d10:	00 00       	nop	
     d12:	2a 01       	mov.b	@0x1:8,r2l
     d14:	9c 00       	addx	#0x0,r4l
     d16:	00 01       	.word	H'0,H'1
     d18:	bb 08       	subx	#0x8,r3l
     d1a:	00 00       	nop	
     d1c:	02 48       	.word	H'2,H'48
     d1e:	01 01       	.word	H'1,H'1
     d20:	5b 00       	jmp	@@0 (0x0)
     d22:	00 00       	nop	
     d24:	45 02       	bcs	.+2 (0xd28)
     d26:	91 76       	addx	#0x76,r1h
     d28:	00 0f       	.word	H'0,H'f
     d2a:	00 00       	nop	
     d2c:	03 83       	.word	H'3,H'83
     d2e:	01 01       	.word	H'1,H'1
     d30:	54 00       	rts/l	er0
     d32:	40 13       	bra/s	.+18 (0xd46)
     d34:	f8 00       	mov.b	#0x0,r0l
     d36:	00 00       	nop	
     d38:	2a 01       	mov.b	@0x1:8,r2l
     d3a:	9c 00       	addx	#0x0,r4l
     d3c:	00 01       	.word	H'0,H'1
     d3e:	e1 08       	and.b	#0x8,r1h
     d40:	00 00       	nop	
     d42:	02 48       	.word	H'2,H'48
     d44:	01 01       	.word	H'1,H'1
     d46:	54 00       	rts/l	er0
     d48:	00 00       	nop	
     d4a:	45 02       	bcs	.+2 (0xd4e)
     d4c:	91 76       	addx	#0x76,r1h
     d4e:	00 10       	.word	H'0,H'10
     d50:	00 00       	nop	
     d52:	03 95       	.word	H'3,H'95
     d54:	01 e2       	.word	H'1,H'e2
     d56:	00 00       	nop	
     d58:	00 45       	.word	H'0,H'45
     d5a:	00 40       	.word	H'0,H'40
     d5c:	11 d4       	shar.w	#2,r4
     d5e:	00 00       	nop	
     d60:	02 24       	stmac	mach,er4
     d62:	01 9c       	.word	H'1,H'9c
     d64:	00 00       	nop	
     d66:	02 3d       	stmac	macl,er5
     d68:	11 00       	shlr.b	r0h
     d6a:	00 02       	.word	H'0,H'2
     d6c:	48 01       	.word	H'48,H'1
     d6e:	e2 00       	and.b	#0x0,r2h
     d70:	00 00       	nop	
     d72:	45 02       	bcs	.+2 (0xd76)
     d74:	91 5e       	addx	#0x5e,r1h
     d76:	12 74       	rotxl.l	#2,er4
     d78:	31 00       	mov.b	r1h,@0x0:8
     d7a:	01 e4       	.word	H'1,H'e4
     d7c:	00 00       	nop	
     d7e:	00 30       	.word	H'0,H'30
     d80:	02 91       	.word	H'2,H'91
     d82:	75 12       	bxor	#0x1,r2h
     d84:	74 32       	bor	#0x3,r2h
     d86:	00 01       	.word	H'0,H'1
     d88:	e5 00       	and.b	#0x0,r5h
     d8a:	00 02       	.word	H'0,H'2
     d8c:	3d 02       	mov.b	r5l,@0x2:8
     d8e:	91 69       	addx	#0x69,r1h
     d90:	13 00       	rotxr.b	r0h
     d92:	00 03       	.word	H'0,H'3
     d94:	a0 01       	cmp.b	#0x1,r0h
     d96:	e6 00       	and.b	#0x0,r6h
     d98:	00 02       	.word	H'0,H'2
     d9a:	4d 02       	blt	.+2 (0xd9e)
     d9c:	91 63       	addx	#0x63,r1h
     d9e:	12 69       	.word	H'12,H'69
     da0:	00 01       	.word	H'0,H'1
     da2:	e7 00       	and.b	#0x0,r7h
     da4:	00 00       	nop	
     da6:	45 02       	bcs	.+2 (0xdaa)
     da8:	91 76       	addx	#0x76,r1h
     daa:	00 0b       	.word	H'0,H'b
     dac:	00 00       	nop	
     dae:	00 30       	.word	H'0,H'30
     db0:	00 00       	nop	
     db2:	02 4d       	.word	H'2,H'4d
     db4:	0c 00       	mov.b	r0h,r0h
     db6:	00 00       	nop	
     db8:	3e 0b       	mov.b	r6l,@0xb:8
     dba:	00 0b       	.word	H'0,H'b
     dbc:	00 00       	nop	
     dbe:	00 30       	.word	H'0,H'30
     dc0:	00 00       	nop	
     dc2:	02 5d       	.word	H'2,H'5d
     dc4:	0c 00       	mov.b	r0h,r0h
     dc6:	00 00       	nop	
     dc8:	3e 05       	mov.b	r6l,@0x5:8
     dca:	00 14       	.word	H'0,H'14
     dcc:	00 00       	nop	
     dce:	03 c2       	.word	H'3,H'c2
     dd0:	01 c9       	.word	H'1,H'c9
     dd2:	00 00       	nop	
     dd4:	00 45       	.word	H'0,H'45
     dd6:	00 40       	.word	H'0,H'40
     dd8:	11 9c       	shar.w	e4
     dda:	00 00       	nop	
     ddc:	00 38       	.word	H'0,H'38
     dde:	01 9c       	.word	H'1,H'9c
     de0:	15 00       	xor.b	r0h,r0h
     de2:	00 03       	.word	H'0,H'3
     de4:	71 01       	bnot	#0x0,r1h
     de6:	a5 00       	cmp.b	#0x0,r5h
     de8:	00 00       	nop	
     dea:	45 00       	bcs	.0 (0xdec)
     dec:	40 10       	bra	.+16 (0xdfe)
     dee:	dc 00       	xor.b	#0x0,r4l
     df0:	00 00       	nop	
     df2:	c0 01       	or.b	#0x1,r0h
     df4:	9c 00       	addx	#0x0,r4l
     df6:	00 02       	.word	H'0,H'2
     df8:	c2 11       	or.b	#0x11,r2h
     dfa:	00 00       	nop	
     dfc:	09 e9       	add.w	e6,e1
     dfe:	01 a5       	.word	H'1,H'a5
     e00:	00 00       	nop	
     e02:	00 45       	.word	H'0,H'45
     e04:	02 91       	.word	H'2,H'91
     e06:	72 11       	bclr	#0x1,r1h
     e08:	00 00       	nop	
     e0a:	09 99       	add.w	e1,e1
     e0c:	01 a5       	.word	H'1,H'a5
     e0e:	00 00       	nop	
     e10:	00 45       	.word	H'0,H'45
     e12:	02 91       	.word	H'2,H'91
     e14:	70 16       	bset	#0x1,r6h
     e16:	62 75       	bclr	r7h,r5h
     e18:	66 00       	and.w	r0,r0
     e1a:	01 a5       	.word	H'1,H'a5
     e1c:	00 00       	nop	
     e1e:	00 51       	.word	H'0,H'51
     e20:	02 91       	.word	H'2,H'91
     e22:	6c 12       	mov.b	@er1+,r2h
     e24:	69 00       	mov.w	@er0,r0
     e26:	01 a7       	.word	H'1,H'a7
     e28:	00 00       	nop	
     e2a:	00 45       	.word	H'0,H'45
     e2c:	02 91       	.word	H'2,H'91
     e2e:	76 00       	band	#0x0,r0h
     e30:	15 00       	xor.b	r0h,r0h
     e32:	00 03       	.word	H'0,H'3
     e34:	d3 01       	xor.b	#0x1,r3h
     e36:	81 00       	add.b	#0x0,r1h
     e38:	00 00       	nop	
     e3a:	45 00       	bcs	.0 (0xe3c)
     e3c:	40 10       	bra	.+16 (0xe4e)
     e3e:	1c 00       	cmp.b	r0h,r0h
     e40:	00 00       	nop	
     e42:	c0 01       	or.b	#0x1,r0h
     e44:	9c 00       	addx	#0x0,r4l
     e46:	00 03       	.word	H'0,H'3
     e48:	12 11       	rotxl.w	r1
     e4a:	00 00       	nop	
     e4c:	09 e9       	add.w	e6,e1
     e4e:	01 81       	.word	H'1,H'81
     e50:	00 00       	nop	
     e52:	00 45       	.word	H'0,H'45
     e54:	02 91       	.word	H'2,H'91
     e56:	72 11       	bclr	#0x1,r1h
     e58:	00 00       	nop	
     e5a:	09 99       	add.w	e1,e1
     e5c:	01 81       	.word	H'1,H'81
     e5e:	00 00       	nop	
     e60:	00 45       	.word	H'0,H'45
     e62:	02 91       	.word	H'2,H'91
     e64:	70 16       	bset	#0x1,r6h
     e66:	62 75       	bclr	r7h,r5h
     e68:	66 00       	and.w	r0,r0
     e6a:	01 81       	.word	H'1,H'81
     e6c:	00 00       	nop	
     e6e:	00 51       	.word	H'0,H'51
     e70:	02 91       	.word	H'2,H'91
     e72:	6c 12       	mov.b	@er1+,r2h
     e74:	69 00       	mov.w	@er0,r0
     e76:	01 83       	.word	H'1,H'83
     e78:	00 00       	nop	
     e7a:	00 45       	.word	H'0,H'45
     e7c:	02 91       	.word	H'2,H'91
     e7e:	76 00       	band	#0x0,r0h
     e80:	17 00       	not.b	r0h
     e82:	00 03       	.word	H'0,H'3
     e84:	2f 01       	mov.b	@0x1:8,r7l
     e86:	78 00       	.word	H'78,H'0
     e88:	40 0f       	bra/s	.+14 (0xe98)
     e8a:	da 00       	xor.b	#0x0,r2l
     e8c:	00 00       	nop	
     e8e:	42 01       	.word	H'42,H'1
     e90:	9c 00       	addx	#0x0,r4l
     e92:	00 03       	.word	H'0,H'3
     e94:	42 11       	.word	H'42,H'11
     e96:	00 00       	nop	
     e98:	02 e2       	.word	H'2,H'e2
     e9a:	01 78 00 00 	mov.b	@er0,@er0
     e9e:	00 45       	.word	H'0,H'45
     ea0:	02 91       	.word	H'2,H'91
     ea2:	72 12       	bclr	#0x1,r2h
     ea4:	69 00       	mov.w	@er0,r0
     ea6:	01 7a       	.word	H'1,H'7a
     ea8:	00 00       	nop	
     eaa:	00 4c       	.word	H'0,H'4c
     eac:	02 91       	.word	H'2,H'91
     eae:	76 00       	band	#0x0,r0h
     eb0:	18 00       	sub.b	r0h,r0h
     eb2:	00 03       	.word	H'0,H'3
     eb4:	7c 01       	.word	H'7c,H'1
     eb6:	71 00       	bnot	#0x0,r0h
     eb8:	40 0f       	bra/s	.+14 (0xec8)
     eba:	a2 00       	cmp.b	#0x0,r2h
     ebc:	00 00       	nop	
     ebe:	38 01       	mov.b	r0l,@0x1:8
     ec0:	9c 11       	addx	#0x11,r4l
     ec2:	00 00       	nop	
     ec4:	03 49       	.word	H'3,H'49
     ec6:	01 71       	.word	H'1,H'71
     ec8:	00 00       	nop	
     eca:	00 45       	.word	H'0,H'45
     ecc:	02 91       	.word	H'2,H'91
     ece:	72 12       	bclr	#0x1,r2h
     ed0:	69 00       	mov.w	@er0,r0
     ed2:	01 73       	.word	H'1,H'73
     ed4:	00 00       	nop	
     ed6:	00 4c       	.word	H'0,H'4c
     ed8:	02 91       	.word	H'2,H'91
     eda:	76 00       	band	#0x0,r0h
	...

00000edd <.Ldebug_info0>:
     edd:	00 00       	nop	
     edf:	0c 2f       	mov.b	r2h,r7l
     ee1:	00 04       	.word	H'0,H'4
     ee3:	00 00       	nop	
     ee5:	06 2f       	andc	#0x2f,ccr
     ee7:	04 01       	orc	#0x1,ccr
     ee9:	00 00       	nop	
     eeb:	00 65       	.word	H'0,H'65
     eed:	0c 00       	mov.b	r0h,r0h
     eef:	00 06       	.word	H'0,H'6
     ef1:	aa 00       	cmp.b	#0x0,r2l
     ef3:	00 00       	nop	
     ef5:	51 00       	divxu.b	r0h,r0
     ef7:	40 16       	bra	.+22 (0xf0f)
     ef9:	7a 00 00 0e 	mov.l	#0xefe00,er0
     efd:	fe 00 
     eff:	00 0f       	.word	H'0,H'f
     f01:	23 02       	mov.b	@0x2:8,r3h
     f03:	01 08 00 00 	mov.l	@er0,@er0
     f07:	00 57       	.word	H'0,H'57
     f09:	02 02       	stc	ccr,r2h
     f0b:	07 00       	ldc	#0x0,ccr
     f0d:	00 00       	nop	
     f0f:	28 03       	mov.b	@0x3:8,r0l
     f11:	00 00       	nop	
     f13:	06 c7       	andc	#0xc7,ccr
     f15:	02 0a       	stc	ccr,r2l
     f17:	00 00       	nop	
     f19:	00 3e       	.word	H'0,H'3e
     f1b:	02 04       	stc	ccr,r4h
     f1d:	07 00       	ldc	#0x0,ccr
     f1f:	00 00       	nop	
     f21:	00 03       	.word	H'0,H'3
     f23:	00 00       	nop	
     f25:	05 95       	xorc	#0x95,ccr
     f27:	02 0c       	stc	ccr,r4l
     f29:	00 00       	nop	
     f2b:	00 33       	.word	H'0,H'33
     f2d:	03 00       	ldc	r0h,ccr
     f2f:	00 05       	.word	H'0,H'5
     f31:	3a 02       	mov.b	r2l,@0x2:8
     f33:	0d 00       	mov.w	r0,r0
     f35:	00 00       	nop	
     f37:	5b 04       	jmp	@@4 (0x4)
     f39:	04 00       	orc	#0x0,ccr
     f3b:	00 00       	nop	
     f3d:	61 05       	bnot	r0h,r5h
     f3f:	00 00       	nop	
     f41:	00 75       	.word	H'0,H'75
     f43:	00 00       	nop	
     f45:	00 75       	.word	H'0,H'75
     f47:	06 00       	andc	#0x0,ccr
     f49:	00 00       	nop	
     f4b:	75 06       	bxor	#0x0,r6h
     f4d:	00 00       	nop	
     f4f:	00 7c       	.word	H'0,H'7c
     f51:	00 07       	.word	H'0,H'7
     f53:	02 05       	stc	ccr,r5h
     f55:	69 6e       	mov.w	@er6,e6
     f57:	74 00       	bor	#0x0,r0h
     f59:	04 04       	orc	#0x4,ccr
     f5b:	00 00       	nop	
     f5d:	00 82       	.word	H'0,H'82
     f5f:	04 04       	orc	#0x4,ccr
     f61:	00 00       	nop	
     f63:	00 88       	.word	H'0,H'88
     f65:	02 01       	stc	ccr,r1h
     f67:	08 00       	add.b	r0h,r0h
     f69:	00 00       	nop	
     f6b:	60 03       	bset	r0h,r3h
     f6d:	00 00       	nop	
     f6f:	05 f2       	xorc	#0xf2,ccr
     f71:	02 0e       	stc	ccr,r6l
     f73:	00 00       	nop	
     f75:	00 9a       	.word	H'0,H'9a
     f77:	04 04       	orc	#0x4,ccr
     f79:	00 00       	nop	
     f7b:	00 a0       	.word	H'0,H'a0
     f7d:	08 09       	add.b	r0h,r1l
     f7f:	07 02       	ldc	#0x2,ccr
     f81:	00 00       	nop	
     f83:	00 d9       	.word	H'0,H'd9
     f85:	02 10       	stc	exr,r0h
     f87:	00 00       	nop	
     f89:	00 d9       	.word	H'0,H'd9
     f8b:	0a 00       	inc	r0h
     f8d:	00 07       	.word	H'0,H'7
     f8f:	6b 00 0a 00 	mov.w	@0xa00:16,r0
     f93:	00 07       	.word	H'0,H'7
     f95:	36 01       	mov.b	r6h,@0x1:8
     f97:	0a 00       	inc	r0h
     f99:	00 04       	.word	H'0,H'4
     f9b:	23 02       	mov.b	@0x2:8,r3h
     f9d:	0a 00       	inc	r0h
     f9f:	00 04       	.word	H'0,H'4
     fa1:	df 03       	xor.b	#0x3,r7l
     fa3:	0a 00       	inc	r0h
     fa5:	00 04       	.word	H'0,H'4
     fa7:	73 04       	btst	#0x0,r4h
     fa9:	0a 00       	inc	r0h
     fab:	00 06       	.word	H'0,H'6
     fad:	7e 05       	.word	H'7e,H'5
     faf:	0a 00       	inc	r0h
     fb1:	00 06       	.word	H'0,H'6
     fb3:	e0 06       	and.b	#0x6,r0h
     fb5:	00 02       	.word	H'0,H'2
     fb7:	02 07       	stc	ccr,r7h
     fb9:	00 00       	nop	
     fbb:	00 05       	.word	H'0,H'5
     fbd:	03 00       	ldc	r0h,ccr
     fbf:	00 03       	.word	H'0,H'3
     fc1:	f3 02       	mov.b	#0x2,r3h
     fc3:	18 00       	sub.b	r0h,r0h
     fc5:	00 00       	nop	
     fc7:	a1 0b       	cmp.b	#0xb,r1h
     fc9:	00 00       	nop	
     fcb:	00 12       	.word	H'0,H'12
     fcd:	03 05       	ldc	r5h,ccr
     fcf:	00 00       	nop	
     fd1:	00 88       	.word	H'0,H'88
     fd3:	03 00       	ldc	r0h,ccr
     fd5:	00 00       	nop	
     fd7:	a2 03       	cmp.b	#0x3,r2h
     fd9:	08 00       	add.b	r0h,r0h
     fdb:	00 01       	.word	H'0,H'1
     fdd:	01 02       	.word	H'1,H'2
     fdf:	02 05       	stc	ccr,r5h
     fe1:	00 00       	nop	
     fe3:	00 40       	.word	H'0,H'40
     fe5:	09 07       	add.w	r0,r7
     fe7:	02 00       	stc	ccr,r0h
     fe9:	00 00       	nop	
     feb:	d9 04       	xor.b	#0x4,r1l
     fed:	08 00       	add.b	r0h,r0h
     fef:	00 01       	.word	H'0,H'1
     ff1:	5e 0a 00 00 	jsr	@0xa0000:24
     ff5:	07 c4       	ldc	#0xc4,ccr
     ff7:	00 0a       	.word	H'0,H'a
     ff9:	00 00       	nop	
     ffb:	04 36       	orc	#0x36,ccr
     ffd:	01 0a       	.word	H'1,H'a
     fff:	00 00       	nop	
    1001:	05 6d       	xorc	#0x6d,ccr
    1003:	02 0a       	stc	ccr,r2l
    1005:	00 00       	nop	
    1007:	03 dd       	.word	H'3,H'dd
    1009:	03 0a       	ldc	r2l,ccr
    100b:	00 00       	nop	
    100d:	07 a8       	ldc	#0xa8,ccr
    100f:	04 0a       	orc	#0xa,ccr
    1011:	00 00       	nop	
    1013:	06 fd       	andc	#0xfd,ccr
    1015:	05 0a       	xorc	#0xa,ccr
    1017:	00 00       	nop	
    1019:	04 02       	orc	#0x2,ccr
    101b:	06 0a       	andc	#0xa,ccr
    101d:	00 00       	nop	
    101f:	06 92       	andc	#0x92,ccr
    1021:	07 0a       	ldc	#0xa,ccr
    1023:	00 00       	nop	
    1025:	06 37       	andc	#0x37,ccr
    1027:	08 0a       	add.b	r0h,r2l
    1029:	00 00       	nop	
    102b:	04 9d       	orc	#0x9d,ccr
    102d:	09 0a       	add.w	r0,e2
    102f:	00 00       	nop	
    1031:	06 b2       	andc	#0xb2,ccr
    1033:	0a 0a       	inc	r2l
    1035:	00 00       	nop	
    1037:	04 b2       	orc	#0xb2,ccr
    1039:	0b 00       	adds	#1,er0
    103b:	03 00       	ldc	r0h,ccr
    103d:	00 06       	.word	H'0,H'6
    103f:	ce 04       	or.b	#0x4,r6l
    1041:	15 00       	xor.b	r0h,r0h
    1043:	00 01       	.word	H'0,H'1
    1045:	08 0c       	add.b	r0h,r4l
    1047:	18 04       	sub.b	r0h,r4h
    1049:	1a 00       	dec.b	r0h
    104b:	00 01       	.word	H'0,H'1
    104d:	c6 0d       	or.b	#0xd,r6h
    104f:	00 00       	nop	
    1051:	05 44       	xorc	#0x44,ccr
    1053:	04 1b       	orc	#0x1b,ccr
    1055:	00 00       	nop	
    1057:	00 50       	.word	H'0,H'50
    1059:	00 0d       	.word	H'0,H'd
    105b:	00 00       	nop	
    105d:	05 a4       	xorc	#0xa4,ccr
    105f:	04 1c       	orc	#0x1c,ccr
    1061:	00 00       	nop	
    1063:	00 82       	.word	H'0,H'82
    1065:	04 0d       	orc	#0xd,ccr
    1067:	00 00       	nop	
    1069:	07 62       	ldc	#0x62,ccr
    106b:	04 1d       	orc	#0x1d,ccr
    106d:	00 00       	nop	
    106f:	00 75       	.word	H'0,H'75
    1071:	08 0d       	add.b	r0h,r5l
    1073:	00 00       	nop	
    1075:	04 d5       	orc	#0xd5,ccr
    1077:	04 1e       	orc	#0x1e,ccr
    1079:	00 00       	nop	
    107b:	00 75       	.word	H'0,H'75
    107d:	0a 0d       	inc	r5l
    107f:	00 00       	nop	
    1081:	00 3b       	.word	H'0,H'3b
    1083:	04 1f       	orc	#0x1f,ccr
    1085:	00 00       	nop	
    1087:	00 75       	.word	H'0,H'75
    1089:	0c 0d       	mov.b	r0h,r5l
    108b:	00 00       	nop	
    108d:	00 87       	.word	H'0,H'87
    108f:	04 20       	orc	#0x20,ccr
    1091:	00 00       	nop	
    1093:	00 7c       	.word	H'0,H'7c
    1095:	10 0e       	shll.b	r6l
    1097:	72 65       	bclr	#0x6,r5h
    1099:	74 00       	bor	#0x0,r0h
    109b:	04 21       	orc	#0x21,ccr
    109d:	00 00       	nop	
    109f:	00 45       	.word	H'0,H'45
    10a1:	14 00       	or.b	r0h,r0h
    10a3:	0c 02       	mov.b	r0h,r2h
    10a5:	04 23       	orc	#0x23,ccr
    10a7:	00 00       	nop	
    10a9:	01 db       	.word	H'1,H'db
    10ab:	0d 00       	mov.w	r0,r0
    10ad:	00 05       	.word	H'0,H'5
    10af:	82 04       	add.b	#0x4,r2h
    10b1:	24 00       	mov.b	@0x0:8,r4h
    10b3:	00 00       	nop	
    10b5:	75 00       	bxor	#0x0,r0h
    10b7:	00 0c       	.word	H'0,H'c
    10b9:	02 04       	stc	ccr,r4h
    10bb:	26 00       	mov.b	@0x0:8,r6h
    10bd:	00 01       	.word	H'0,H'1
    10bf:	f0 0e       	mov.b	#0xe,r0h
    10c1:	72 65       	bclr	#0x6,r5h
    10c3:	74 00       	bor	#0x0,r0h
    10c5:	04 27       	orc	#0x27,ccr
    10c7:	00 00       	nop	
    10c9:	00 75       	.word	H'0,H'75
    10cb:	00 00       	nop	
    10cd:	0c 02       	mov.b	r0h,r2h
    10cf:	04 29       	orc	#0x29,ccr
    10d1:	00 00       	nop	
    10d3:	02 05       	stc	ccr,r5h
    10d5:	0e 72       	addx	r7h,r2h
    10d7:	65 74       	xor.w	r7,r4
    10d9:	00 04       	.word	H'0,H'4
    10db:	2a 00       	mov.b	@0x0:8,r2l
    10dd:	00 00       	nop	
    10df:	75 00       	bxor	#0x0,r0h
    10e1:	00 0c       	.word	H'0,H'c
    10e3:	08 04       	add.b	r0h,r4h
    10e5:	2c 00       	mov.b	@0x0:8,r4l
    10e7:	00 02       	.word	H'0,H'2
    10e9:	25 0e       	mov.b	@0xe:8,r5h
    10eb:	69 64       	mov.w	@er6,r4
    10ed:	00 04       	.word	H'0,H'4
    10ef:	2d 00       	mov.b	@0x0:8,r5l
    10f1:	00 00       	nop	
    10f3:	45 00       	bcs	.0 (0x10f5)
    10f5:	0e 72       	addx	r7h,r2h
    10f7:	65 74       	xor.w	r7,r4
    10f9:	00 04       	.word	H'0,H'4
    10fb:	2e 00       	mov.b	@0x0:8,r6l
    10fd:	00 00       	nop	
    10ff:	75 04       	bxor	#0x0,r4h
    1101:	00 0c       	.word	H'0,H'c
    1103:	04 04       	orc	#0x4,ccr
    1105:	30 00       	mov.b	r0h,@0x0:8
    1107:	00 02       	.word	H'0,H'2
    1109:	3a 0e       	mov.b	r2l,@0xe:8
    110b:	72 65       	bclr	#0x6,r5h
    110d:	74 00       	bor	#0x0,r0h
    110f:	04 31       	orc	#0x31,ccr
    1111:	00 00       	nop	
    1113:	00 45       	.word	H'0,H'45
    1115:	00 00       	nop	
    1117:	0c 04       	mov.b	r0h,r4h
    1119:	04 33       	orc	#0x33,ccr
    111b:	00 00       	nop	
    111d:	02 5b       	.word	H'2,H'5b
    111f:	0d 00       	mov.w	r0,r0
    1121:	00 07       	.word	H'0,H'7
    1123:	62 04       	bclr	r0h,r4h
    1125:	34 00       	mov.b	r4h,@0x0:8
    1127:	00 00       	nop	
    1129:	75 00       	bxor	#0x0,r0h
    112b:	0e 72       	addx	r7h,r2h
    112d:	65 74       	xor.w	r7,r4
    112f:	00 04       	.word	H'0,H'4
    1131:	35 00       	mov.b	r5h,@0x0:8
    1133:	00 00       	nop	
    1135:	75 02       	bxor	#0x0,r2h
    1137:	00 0c       	.word	H'0,H'c
    1139:	08 04       	add.b	r0h,r4h
    113b:	37 00       	mov.b	r7h,@0x0:8
    113d:	00 02       	.word	H'0,H'2
    113f:	7c 0d       	.word	H'7c,H'd
    1141:	00 00       	nop	
    1143:	09 99       	add.w	e1,e1
    1145:	04 38       	orc	#0x38,ccr
    1147:	00 00       	nop	
    1149:	00 75       	.word	H'0,H'75
    114b:	00 0e       	.word	H'0,H'e
    114d:	72 65       	bclr	#0x6,r5h
    114f:	74 00       	bor	#0x0,r0h
    1151:	04 39       	orc	#0x39,ccr
    1153:	00 00       	nop	
    1155:	02 7c       	stc	sbr,er4
    1157:	04 00       	orc	#0x0,ccr
    1159:	0f 04       	daa	r4h
    115b:	0c 08       	mov.b	r0h,r0l
    115d:	04 3b       	orc	#0x3b,ccr
    115f:	00 00       	nop	
    1161:	02 9d       	.word	H'2,H'9d
    1163:	0e 70       	addx	r7h,r0h
    1165:	00 04       	.word	H'0,H'4
    1167:	3c 00       	mov.b	r4l,@0x0:8
    1169:	00 00       	nop	
    116b:	82 00       	add.b	#0x0,r2h
    116d:	0e 72       	addx	r7h,r2h
    116f:	65 74       	xor.w	r7,r4
    1171:	00 04       	.word	H'0,H'4
    1173:	3d 00       	mov.b	r5l,@0x0:8
    1175:	00 00       	nop	
    1177:	75 04       	bxor	#0x0,r4h
    1179:	00 0c       	.word	H'0,H'c
    117b:	0c 04       	mov.b	r0h,r4h
    117d:	3f 00       	mov.b	r7l,@0x0:8
    117f:	00 02       	.word	H'0,H'2
    1181:	d3 0e       	xor.b	#0xe,r3h
    1183:	69 64       	mov.w	@er6,r4
    1185:	00 04       	.word	H'0,H'4
    1187:	40 00       	bra	.0 (0x1189)
    1189:	00 00       	nop	
    118b:	e0 00       	and.b	#0x0,r0h
    118d:	0d 00       	mov.w	r0,r0
    118f:	00 09       	.word	H'0,H'9
    1191:	99 04       	addx	#0x4,r1l
    1193:	41 00       	brn	.0 (0x1195)
    1195:	00 00       	nop	
    1197:	75 02       	bxor	#0x0,r2h
    1199:	0e 70       	addx	r7h,r0h
    119b:	00 04       	.word	H'0,H'4
    119d:	42 00       	bhi	.0 (0x119f)
    119f:	00 00       	nop	
    11a1:	82 04       	add.b	#0x4,r2h
    11a3:	0e 72       	addx	r7h,r2h
    11a5:	65 74       	xor.w	r7,r4
    11a7:	00 04       	.word	H'0,H'4
    11a9:	43 00       	bls	.0 (0x11ab)
    11ab:	00 00       	nop	
    11ad:	75 08       	bxor	#0x0,r0l
    11af:	00 0c       	.word	H'0,H'c
    11b1:	10 04       	shll.b	r4h
    11b3:	45 00       	bcs	.0 (0x11b5)
    11b5:	00 03       	.word	H'0,H'3
    11b7:	0a 0e       	inc	r6l
    11b9:	69 64       	mov.w	@er6,r4
    11bb:	00 04       	.word	H'0,H'4
    11bd:	46 00       	bne	.0 (0x11bf)
    11bf:	00 00       	nop	
    11c1:	e0 00       	and.b	#0x0,r0h
    11c3:	0d 00       	mov.w	r0,r0
    11c5:	00 04       	.word	H'0,H'4
    11c7:	5a 04 47 00 	jmp	@0x44700:24
    11cb:	00 03       	.word	H'0,H'3
    11cd:	0a 04       	inc	r4h
    11cf:	0e 70       	addx	r7h,r0h
    11d1:	70 00       	bset	#0x0,r0h
    11d3:	04 48       	orc	#0x48,ccr
    11d5:	00 00       	nop	
    11d7:	00 7c       	.word	H'0,H'7c
    11d9:	08 0e       	add.b	r0h,r6l
    11db:	72 65       	bclr	#0x6,r5h
    11dd:	74 00       	bor	#0x0,r0h
    11df:	04 49       	orc	#0x49,ccr
    11e1:	00 00       	nop	
    11e3:	00 45       	.word	H'0,H'45
    11e5:	0c 00       	mov.b	r0h,r0h
    11e7:	04 04       	orc	#0x4,ccr
    11e9:	00 00       	nop	
    11eb:	00 75       	.word	H'0,H'75
    11ed:	0c 0c       	mov.b	r0h,r4l
    11ef:	04 4b       	orc	#0x4b,ccr
    11f1:	00 00       	nop	
    11f3:	03 3d       	ldmac	er5,macl
    11f5:	0d 00       	mov.w	r0,r0
    11f7:	00 00       	nop	
    11f9:	d6 04       	xor.b	#0x4,r6h
    11fb:	4c 00       	bge	.0 (0x11fd)
    11fd:	00 00       	nop	
    11ff:	f6 00       	mov.b	#0x0,r6h
    1201:	0d 00       	mov.w	r0,r0
    1203:	00 00       	nop	
    1205:	be 04       	subx	#0x4,r6l
    1207:	4d 00       	blt	.0 (0x1209)
    1209:	00 00       	nop	
    120b:	8f 04       	add.b	#0x4,r7l
    120d:	0e 72       	addx	r7h,r2h
    120f:	65 74       	xor.w	r7,r4
    1211:	00 04       	.word	H'0,H'4
    1213:	4e 00       	bgt	.0 (0x1215)
    1215:	00 00       	nop	
    1217:	75 08       	bxor	#0x0,r0l
    1219:	00 10       	.word	H'0,H'10
    121b:	18 04       	sub.b	r0h,r4h
    121d:	19 00       	sub.w	r0,r0
    121f:	00 03       	.word	H'0,H'3
    1221:	ca 11       	or.b	#0x11,r2l
    1223:	72 75       	bclr	#0x7,r5h
    1225:	6e 00 04 22 	mov.b	@(0x422:16,er0),r0h
    1229:	00 00       	nop	
    122b:	01 69       	.word	H'1,H'69
    122d:	12 00       	rotxl.b	r0h
    122f:	00 06       	.word	H'0,H'6
    1231:	60 04       	bset	r0h,r4h
    1233:	25 00       	mov.b	@0x0:8,r5h
    1235:	00 01       	.word	H'0,H'1
    1237:	c6 12       	or.b	#0x12,r6h
    1239:	00 00       	nop	
    123b:	05 ca       	xorc	#0xca,ccr
    123d:	04 28       	orc	#0x28,ccr
    123f:	00 00       	nop	
    1241:	01 db       	.word	H'1,H'db
    1243:	12 00       	rotxl.b	r0h
    1245:	00 07       	.word	H'0,H'7
    1247:	1a 04       	dec.b	r4h
    1249:	2b 00       	mov.b	@0x0:8,r3l
    124b:	00 01       	.word	H'0,H'1
    124d:	f0 12       	mov.b	#0x12,r0h
    124f:	00 00       	nop	
    1251:	05 2c       	xorc	#0x2c,ccr
    1253:	04 2f       	orc	#0x2f,ccr
    1255:	00 00       	nop	
    1257:	02 05       	stc	ccr,r5h
    1259:	12 00       	rotxl.b	r0h
    125b:	00 05       	.word	H'0,H'5
    125d:	5b 04       	jmp	@@4 (0x4)
    125f:	32 00       	mov.b	r2h,@0x0:8
    1261:	00 02       	.word	H'0,H'2
    1263:	25 12       	mov.b	@0x12:8,r5h
    1265:	00 00       	nop	
    1267:	05 8f       	xorc	#0x8f,ccr
    1269:	04 36       	orc	#0x36,ccr
    126b:	00 00       	nop	
    126d:	02 3a       	stmac	macl,er2
    126f:	12 00       	rotxl.b	r0h
    1271:	00 05       	.word	H'0,H'5
    1273:	e1 04       	and.b	#0x4,r1h
    1275:	3a 00       	mov.b	r2l,@0x0:8
    1277:	00 02       	.word	H'0,H'2
    1279:	5b 12       	jmp	@@18 (0x12)
    127b:	00 00       	nop	
    127d:	07 52       	ldc	#0x52,ccr
    127f:	04 3e       	orc	#0x3e,ccr
    1281:	00 00       	nop	
    1283:	02 7e       	stc	sbr,er6
    1285:	12 00       	rotxl.b	r0h
    1287:	00 06       	.word	H'0,H'6
    1289:	06 04       	andc	#0x4,ccr
    128b:	44 00       	bcc	.0 (0x128d)
    128d:	00 02       	.word	H'0,H'2
    128f:	9d 12       	addx	#0x12,r5l
    1291:	00 00       	nop	
    1293:	06 18       	andc	#0x18,ccr
    1295:	04 4a       	orc	#0x4a,ccr
    1297:	00 00       	nop	
    1299:	02 d3       	.word	H'2,H'd3
    129b:	12 00       	rotxl.b	r0h
    129d:	00 00       	nop	
    129f:	ce 04       	or.b	#0x4,r6l
    12a1:	4f 00       	ble	.0 (0x12a3)
    12a3:	00 03       	.word	H'0,H'3
    12a5:	10 00       	shll.b	r0h
    12a7:	0c 18       	mov.b	r1h,r0l
    12a9:	04 18       	orc	#0x18,ccr
    12ab:	00 00       	nop	
    12ad:	03 de       	.word	H'3,H'de
    12af:	0e 75       	addx	r7h,r5h
    12b1:	6e 00 04 50 	mov.b	@(0x450:16,er0),r0h
    12b5:	00 00       	nop	
    12b7:	03 3d       	ldmac	er5,macl
    12b9:	00 00       	nop	
    12bb:	03 00       	ldc	r0h,ccr
    12bd:	00 04       	.word	H'0,H'4
    12bf:	60 04       	bset	r0h,r4h
    12c1:	51 00       	divxu.b	r0h,r0
    12c3:	00 03       	.word	H'0,H'3
    12c5:	ca 13       	or.b	#0x13,r2l
    12c7:	00 00       	nop	
    12c9:	05 61       	xorc	#0x61,ccr
    12cb:	04 01       	orc	#0x1,ccr
    12cd:	0e 00       	addx	r0h,r0h
    12cf:	00 04       	.word	H'0,H'4
    12d1:	01 0e       	.word	H'1,H'e
    12d3:	73 70       	btst	#0x7,r0h
    12d5:	00 01       	.word	H'0,H'1
    12d7:	0f 00       	daa	r0h
    12d9:	00 00       	nop	
    12db:	33 00       	mov.b	r3h,@0x0:8
    12dd:	00 03       	.word	H'0,H'3
    12df:	00 00       	nop	
    12e1:	05 62       	xorc	#0x62,ccr
    12e3:	01 10       	.word	H'1,H'10
    12e5:	00 00       	nop	
    12e7:	03 e9       	.word	H'3,H'e9
    12e9:	0c 0c       	mov.b	r0h,r4l
    12eb:	01 1b       	.word	H'1,H'1b
    12ed:	00 00       	nop	
    12ef:	04 39       	orc	#0x39,ccr
    12f1:	0d 00       	mov.w	r0,r0
    12f3:	00 05       	.word	H'0,H'5
    12f5:	44 01       	.word	H'44,H'1
    12f7:	1c 00       	cmp.b	r0h,r0h
    12f9:	00 00       	nop	
    12fb:	50 00       	mulxu.b	r0h,r0
    12fd:	0d 00       	mov.w	r0,r0
    12ff:	00 00       	nop	
    1301:	3b 01       	mov.b	r3l,@0x1:8
    1303:	1d 00       	cmp.w	r0,r0
    1305:	00 00       	nop	
    1307:	75 04       	bxor	#0x0,r4h
    1309:	0d 00       	mov.w	r0,r0
    130b:	00 00       	nop	
    130d:	87 01       	add.b	#0x1,r7h
    130f:	1e 00       	subx	r0h,r0h
    1311:	00 00       	nop	
    1313:	7c 08       	.word	H'7c,H'8
    1315:	00 0c       	.word	H'0,H'c
    1317:	08 01       	add.b	r0h,r1h
    1319:	21 00       	mov.b	@0x0:8,r1h
    131b:	00 04       	.word	H'0,H'4
    131d:	5a 0d 00 00 	jmp	@0xd0000:24
    1321:	00 d6       	.word	H'0,H'd6
    1323:	01 22       	.word	H'1,H'22
    1325:	00 00       	nop	
    1327:	01 5e       	.word	H'1,H'5e
    1329:	00 0d       	.word	H'0,H'd
    132b:	00 00       	nop	
    132d:	06 0b       	andc	#0xb,ccr
    132f:	01 23       	.word	H'1,H'23
    1331:	00 00       	nop	
    1333:	04 5a       	orc	#0x5a,ccr
    1335:	04 00       	orc	#0x0,ccr
    1337:	04 04       	orc	#0x4,ccr
    1339:	00 00       	nop	
    133b:	03 de       	.word	H'3,H'de
    133d:	13 00       	rotxr.b	r0h
    133f:	00 05       	.word	H'0,H'5
    1341:	cf 40       	or.b	#0x40,r7l
    1343:	01 13       	.word	H'1,H'13
    1345:	00 00       	nop	
    1347:	04 d9       	orc	#0xd9,ccr
    1349:	0d 00       	mov.w	r0,r0
    134b:	00 07       	.word	H'0,H'7
    134d:	bf 01       	subx	#0x1,r7l
    134f:	14 00       	or.b	r0h,r0h
    1351:	00 04       	.word	H'0,H'4
    1353:	d9 00       	xor.b	#0x0,r1l
    1355:	0d 00       	mov.w	r0,r0
    1357:	00 05       	.word	H'0,H'5
    1359:	a4 01       	cmp.b	#0x1,r4h
    135b:	15 00       	xor.b	r0h,r0h
    135d:	00 04       	.word	H'0,H'4
    135f:	df 04       	xor.b	#0x4,r7l
    1361:	0d 00       	mov.w	r0,r0
    1363:	00 07       	.word	H'0,H'7
    1365:	62 01       	bclr	r0h,r1h
    1367:	16 00       	and.b	r0h,r0h
    1369:	00 00       	nop	
    136b:	75 14       	bxor	#0x1,r4h
    136d:	0d 00       	mov.w	r0,r0
    136f:	00 05       	.word	H'0,H'5
    1371:	08 01       	add.b	r0h,r1h
    1373:	17 00       	not.b	r0h
    1375:	00 00       	nop	
    1377:	82 18       	add.b	#0x18,r2h
    1379:	0d 00       	mov.w	r0,r0
    137b:	00 02       	.word	H'0,H'2
    137d:	f3 01       	mov.b	#0x1,r3h
    137f:	18 00       	sub.b	r0h,r0h
    1381:	00 00       	nop	
    1383:	33 1c       	mov.b	r3h,@0x1c:8
    1385:	0d 00       	mov.w	r0,r0
    1387:	00 00       	nop	
    1389:	b9 01       	subx	#0x1,r1l
    138b:	1f 00       	das	r0h
    138d:	00 04       	.word	H'0,H'4
    138f:	0c 20       	mov.b	r2h,r0h
    1391:	0d 00       	mov.w	r0,r0
    1393:	00 04       	.word	H'0,H'4
    1395:	cd 01       	or.b	#0x1,r5l
    1397:	24 00       	mov.b	@0x0:8,r4h
    1399:	00 04       	.word	H'0,H'4
    139b:	39 2c       	mov.b	r1l,@0x2c:8
    139d:	0d 00       	mov.w	r0,r0
    139f:	00 05       	.word	H'0,H'5
    13a1:	65 01       	xor.w	r0,r1
    13a3:	26 00       	mov.b	@0x0:8,r6h
    13a5:	00 04       	.word	H'0,H'4
    13a7:	01 34       	.word	H'1,H'34
    13a9:	0d 00       	mov.w	r0,r0
    13ab:	00 05       	.word	H'0,H'5
    13ad:	82 01       	add.b	#0x1,r2h
    13af:	27 00       	mov.b	@0x0:8,r7h
    13b1:	00 04       	.word	H'0,H'4
    13b3:	ef 38       	and.b	#0x38,r7l
    13b5:	00 04       	.word	H'0,H'4
    13b7:	04 00       	orc	#0x0,ccr
    13b9:	00 04       	.word	H'0,H'4
    13bb:	60 14       	bset	r1h,r4h
    13bd:	00 00       	nop	
    13bf:	00 88       	.word	H'0,H'88
    13c1:	00 00       	nop	
    13c3:	04 ef       	orc	#0xef,ccr
    13c5:	15 00       	xor.b	r0h,r0h
    13c7:	00 00       	nop	
    13c9:	3e 0f       	mov.b	r6l,@0xf:8
    13cb:	00 14       	.word	H'0,H'14
    13cd:	00 00       	nop	
    13cf:	00 88       	.word	H'0,H'88
    13d1:	00 00       	nop	
    13d3:	04 ff       	orc	#0xff,ccr
    13d5:	15 00       	xor.b	r0h,r0h
    13d7:	00 00       	nop	
    13d9:	3e 07       	mov.b	r6l,@0x7:8
    13db:	00 03       	.word	H'0,H'3
    13dd:	00 00       	nop	
    13df:	05 d0       	xorc	#0xd0,ccr
    13e1:	01 28       	.word	H'1,H'28
    13e3:	00 00       	nop	
    13e5:	04 60       	orc	#0x60,ccr
    13e7:	0c 08       	mov.b	r0h,r0l
    13e9:	01 2e       	.word	H'1,H'2e
    13eb:	00 00       	nop	
    13ed:	05 29       	xorc	#0x29,ccr
    13ef:	0d 00       	mov.w	r0,r0
    13f1:	00 09       	.word	H'0,H'9
    13f3:	99 01       	addx	#0x1,r1l
    13f5:	2f 00       	mov.b	@0x0:8,r7l
    13f7:	00 00       	nop	
    13f9:	75 00       	bxor	#0x0,r0h
    13fb:	0e 70       	addx	r7h,r0h
    13fd:	00 01       	.word	H'0,H'1
    13ff:	30 00       	mov.b	r0h,@0x0:8
    1401:	00 00       	nop	
    1403:	82 04       	add.b	#0x4,r2h
    1405:	00 13       	.word	H'0,H'13
    1407:	00 00       	nop	
    1409:	07 20       	ldc	#0x20,ccr
    140b:	10 01       	shll.b	r1h
    140d:	2b 00       	mov.b	@0x0:8,r3l
    140f:	00 05       	.word	H'0,H'5
    1411:	5a 0d 00 00 	jmp	@0xd0000:24
    1415:	07 bf       	ldc	#0xbf,ccr
    1417:	01 2c       	.word	H'1,H'2c
    1419:	00 00       	nop	
    141b:	05 5a       	xorc	#0x5a,ccr
    141d:	00 0d       	.word	H'0,H'd
    141f:	00 00       	nop	
    1421:	05 33       	xorc	#0x33,ccr
    1423:	01 2d       	.word	H'1,H'2d
    1425:	00 00       	nop	
    1427:	05 60       	xorc	#0x60,ccr
    1429:	04 0d       	orc	#0xd,ccr
    142b:	00 00       	nop	
    142d:	06 0b       	andc	#0xb,ccr
    142f:	01 31       	.word	H'1,H'31
    1431:	00 00       	nop	
    1433:	05 0a       	xorc	#0xa,ccr
    1435:	08 00       	add.b	r0h,r0h
    1437:	04 04       	orc	#0x4,ccr
    1439:	00 00       	nop	
    143b:	05 29       	xorc	#0x29,ccr
    143d:	04 04       	orc	#0x4,ccr
    143f:	00 00       	nop	
    1441:	04 ff       	orc	#0xff,ccr
    1443:	03 00       	ldc	r0h,ccr
    1445:	00 07       	.word	H'0,H'7
    1447:	21 01       	mov.b	@0x1:8,r1h
    1449:	32 00       	mov.b	r2h,@0x0:8
    144b:	00 05       	.word	H'0,H'5
    144d:	29 13       	mov.b	@0x13:8,r1l
    144f:	00 00       	nop	
    1451:	05 0e       	xorc	#0xe,ccr
    1453:	10 01       	shll.b	r1h
    1455:	35 00       	mov.b	r5h,@0x0:8
    1457:	00 05       	.word	H'0,H'5
    1459:	ae 0d       	cmp.b	#0xd,r6l
    145b:	00 00       	nop	
    145d:	07 59       	ldc	#0x59,ccr
    145f:	01 36       	.word	H'1,H'36
    1461:	00 00       	nop	
    1463:	05 60       	xorc	#0x60,ccr
    1465:	00 0d       	.word	H'0,H'd
    1467:	00 00       	nop	
    1469:	04 f3       	orc	#0xf3,ccr
    146b:	01 37       	.word	H'1,H'37
    146d:	00 00       	nop	
    146f:	05 ae       	xorc	#0xae,ccr
    1471:	04 0d       	orc	#0xd,ccr
    1473:	00 00       	nop	
    1475:	05 a9       	xorc	#0xa9,ccr
    1477:	01 38       	.word	H'1,H'38
    1479:	00 00       	nop	
    147b:	05 ae       	xorc	#0xae,ccr
    147d:	08 0d       	add.b	r0h,r5l
    147f:	00 00       	nop	
    1481:	05 82       	xorc	#0x82,ccr
    1483:	01 42       	.word	H'1,H'42
    1485:	00 00       	nop	
    1487:	05 b4       	xorc	#0xb4,ccr
    1489:	0c 00       	mov.b	r0h,r0h
    148b:	04 04       	orc	#0x4,ccr
    148d:	00 00       	nop	
    148f:	05 66       	xorc	#0x66,ccr
    1491:	14 00       	or.b	r0h,r0h
    1493:	00 05       	.word	H'0,H'5
    1495:	c4 00       	or.b	#0x0,r4h
    1497:	00 05       	.word	H'0,H'5
    1499:	c4 15       	or.b	#0x15,r4h
    149b:	00 00       	nop	
    149d:	00 3e       	.word	H'0,H'3e
    149f:	00 00       	nop	
    14a1:	02 04       	stc	ccr,r4h
    14a3:	05 00       	xorc	#0x0,ccr
    14a5:	00 01       	.word	H'0,H'1
    14a7:	49 03       	.word	H'49,H'3
    14a9:	00 00       	nop	
    14ab:	05 0f       	xorc	#0xf,ccr
    14ad:	01 43       	.word	H'1,H'43
    14af:	00 00       	nop	
    14b1:	05 71       	xorc	#0x71,ccr
    14b3:	0c 08       	mov.b	r0h,r0l
    14b5:	01 46       	.word	H'1,H'46
    14b7:	00 00       	nop	
    14b9:	05 f7       	xorc	#0xf7,ccr
    14bb:	0d 00       	mov.w	r0,r0
    14bd:	00 04       	.word	H'0,H'4
    14bf:	f3 01       	mov.b	#0x1,r3h
    14c1:	47 00       	beq	.0 (0x14c3)
    14c3:	00 05       	.word	H'0,H'5
    14c5:	60 00       	bset	r0h,r0h
    14c7:	0d 00       	mov.w	r0,r0
    14c9:	00 05       	.word	H'0,H'5
    14cb:	a9 01       	cmp.b	#0x1,r1l
    14cd:	48 00       	bvc	.0 (0x14cf)
    14cf:	00 05       	.word	H'0,H'5
    14d1:	60 04       	bset	r0h,r4h
    14d3:	00 14       	.word	H'0,H'14
    14d5:	00 00       	nop	
    14d7:	05 d6       	xorc	#0xd6,ccr
    14d9:	00 00       	nop	
    14db:	06 07       	andc	#0x7,ccr
    14dd:	15 00       	xor.b	r0h,r0h
    14df:	00 00       	nop	
    14e1:	3e 0f       	mov.b	r6l,@0xf:8
    14e3:	00 16       	.word	H'0,H'16
    14e5:	00 00       	nop	
    14e7:	07 97       	ldc	#0x97,ccr
    14e9:	01 49       	.word	H'1,H'49
    14eb:	00 00       	nop	
    14ed:	05 f7       	xorc	#0xf7,ccr
    14ef:	05 03       	xorc	#0x3,ccr
    14f1:	00 40       	.word	H'0,H'40
    14f3:	42 10       	bhi	.+16 (0x1505)
    14f5:	16 00       	and.b	r0h,r0h
    14f7:	00 06       	.word	H'0,H'6
    14f9:	51 01       	divxu.b	r0h,r1
    14fb:	4b 00       	bmi	.0 (0x14fd)
    14fd:	00 05       	.word	H'0,H'5
    14ff:	60 05       	bset	r0h,r5h
    1501:	03 00       	ldc	r0h,ccr
    1503:	40 42       	bra	.+66 (0x1547)
    1505:	90 14       	addx	#0x14,r0h
    1507:	00 00       	nop	
    1509:	04 ff       	orc	#0xff,ccr
    150b:	00 00       	nop	
    150d:	06 39       	andc	#0x39,ccr
    150f:	15 00       	xor.b	r0h,r0h
    1511:	00 00       	nop	
    1513:	3e 05       	mov.b	r6l,@0x5:8
    1515:	00 16       	.word	H'0,H'16
    1517:	00 00       	nop	
    1519:	00 20       	.word	H'0,H'20
    151b:	01 4c       	.word	H'1,H'4c
    151d:	00 00       	nop	
    151f:	06 29       	andc	#0x29,ccr
    1521:	05 03       	xorc	#0x3,ccr
    1523:	00 40       	.word	H'0,H'40
    1525:	42 94       	bhi	.-108 (0x14bb)
    1527:	14 00       	or.b	r0h,r0h
    1529:	00 00       	nop	
    152b:	8f 00       	add.b	#0x0,r7l
    152d:	00 06       	.word	H'0,H'6
    152f:	5a 15 00 00 	jmp	@0x150000:24
    1533:	00 3e       	.word	H'0,H'3e
    1535:	04 00       	orc	#0x0,ccr
    1537:	16 00       	and.b	r0h,r0h
    1539:	00 05       	.word	H'0,H'5
    153b:	e9 01       	and.b	#0x1,r1l
    153d:	4d 00       	blt	.0 (0x153f)
    153f:	00 06       	.word	H'0,H'6
    1541:	4a 05       	.word	H'4a,H'5
    1543:	03 00       	ldc	r0h,ccr
    1545:	40 44       	bra	.+68 (0x158b)
    1547:	14 14       	or.b	r1h,r4h
    1549:	00 00       	nop	
    154b:	05 cb       	xorc	#0xcb,ccr
    154d:	00 00       	nop	
    154f:	06 7b       	andc	#0x7b,ccr
    1551:	15 00       	xor.b	r0h,r0h
    1553:	00 00       	nop	
    1555:	3e 05       	mov.b	r6l,@0x5:8
    1557:	00 16       	.word	H'0,H'16
    1559:	00 00       	nop	
    155b:	07 d8       	ldc	#0xd8,ccr
    155d:	01 4e       	.word	H'1,H'4e
    155f:	00 00       	nop	
    1561:	06 6b       	andc	#0x6b,ccr
    1563:	05 03       	xorc	#0x3,ccr
    1565:	00 40       	.word	H'0,H'40
    1567:	44 28       	bcc	.+40 (0x1591)
    1569:	17 00       	not.b	r0h
    156b:	00 07       	.word	H'0,H'7
    156d:	8c 01       	add.b	#0x1,r4l
    156f:	02 40       	.word	H'2,H'40
    1571:	00 40       	.word	H'0,H'40
    1573:	25 44       	mov.b	@0x44:8,r5h
    1575:	00 00       	nop	
    1577:	00 34       	.word	H'0,H'34
    1579:	01 9c       	.word	H'1,H'9c
    157b:	00 00       	nop	
    157d:	06 c1       	andc	#0xc1,ccr
    157f:	18 00       	sub.b	r0h,r0h
    1581:	00 00       	nop	
    1583:	d6 01       	xor.b	#0x1,r6h
    1585:	02 40       	.word	H'2,H'40
    1587:	00 00       	nop	
    1589:	01 5e       	.word	H'1,H'5e
    158b:	02 91       	.word	H'2,H'91
    158d:	76 18       	band	#0x1,r0l
    158f:	00 00       	nop	
    1591:	06 0b       	andc	#0xb,ccr
    1593:	01 02       	.word	H'1,H'2
    1595:	40 00       	bra	.0 (0x1597)
    1597:	00 04       	.word	H'0,H'4
    1599:	5a 02 91 70 	jmp	@0x29170:24
    159d:	00 19       	.word	H'0,H'19
    159f:	00 00       	nop	
    15a1:	04 ca       	orc	#0xca,ccr
    15a3:	01 02       	.word	H'1,H'2
    15a5:	38 00       	mov.b	r0l,@0x0:8
    15a7:	40 24       	bra	.+36 (0x15cd)
    15a9:	fc 00       	mov.b	#0x0,r4l
    15ab:	00 00       	nop	
    15ad:	48 01       	.word	H'48,H'1
    15af:	9c 00       	addx	#0x0,r4l
    15b1:	00 06       	.word	H'0,H'6
    15b3:	f6 18       	mov.b	#0x18,r6h
    15b5:	00 00       	nop	
    15b7:	00 d6       	.word	H'0,H'd6
    15b9:	01 02       	.word	H'1,H'2
    15bb:	38 00       	mov.b	r0l,@0x0:8
    15bd:	00 01       	.word	H'0,H'1
    15bf:	5e 02 91 76 	jsr	@0x29176:24
    15c3:	18 00       	sub.b	r0h,r0h
    15c5:	00 06       	.word	H'0,H'6
    15c7:	0b 01       	adds	#1,er1
    15c9:	02 38       	stmac	macl,er0
    15cb:	00 00       	nop	
    15cd:	04 5a       	orc	#0x5a,ccr
    15cf:	02 91       	.word	H'2,H'91
    15d1:	70 00       	bset	#0x0,r0h
    15d3:	1a 00       	dec.b	r0h
    15d5:	00 04       	.word	H'0,H'4
    15d7:	18 01       	sub.b	r0h,r1h
    15d9:	02 30       	stmac	macl,er0
    15db:	00 40       	.word	H'0,H'40
    15dd:	24 ea       	mov.b	@0xea:8,r4h
    15df:	00 00       	nop	
    15e1:	00 12       	.word	H'0,H'12
    15e3:	01 9c       	.word	H'1,H'9c
    15e5:	17 00       	not.b	r0h
    15e7:	00 04       	.word	H'0,H'4
    15e9:	8e 01       	add.b	#0x1,r6l
    15eb:	02 12       	stc	exr,r2h
    15ed:	00 40       	.word	H'0,H'40
    15ef:	23 f2       	mov.b	@0xf2:8,r3h
    15f1:	00 00       	nop	
    15f3:	00 f8       	.word	H'0,H'f8
    15f5:	01 9c       	.word	H'1,H'9c
    15f7:	00 00       	nop	
    15f9:	07 79       	ldc	#0x79,ccr
    15fb:	18 00       	sub.b	r0h,r0h
    15fd:	00 05       	.word	H'0,H'5
    15ff:	44 01       	.word	H'44,H'1
    1601:	02 12       	stc	exr,r2h
    1603:	00 00       	nop	
    1605:	00 50       	.word	H'0,H'50
    1607:	02 91       	.word	H'2,H'91
    1609:	74 18       	bor	#0x1,r0l
    160b:	00 00       	nop	
    160d:	05 a4       	xorc	#0xa4,ccr
    160f:	01 02       	.word	H'1,H'2
    1611:	12 00       	rotxl.b	r0h
    1613:	00 00       	nop	
    1615:	82 02       	add.b	#0x2,r2h
    1617:	91 70       	addx	#0x70,r1h
    1619:	18 00       	sub.b	r0h,r0h
    161b:	00 07       	.word	H'0,H'7
    161d:	62 01       	bclr	r0h,r1h
    161f:	02 12       	stc	exr,r2h
    1621:	00 00       	nop	
    1623:	00 75       	.word	H'0,H'75
    1625:	02 91       	.word	H'2,H'91
    1627:	6e 18 00 00 	mov.b	@(0x0:16,er1),r0l
    162b:	04 d5       	orc	#0xd5,ccr
    162d:	01 02       	.word	H'1,H'2
    162f:	12 00       	rotxl.b	r0h
    1631:	00 00       	nop	
    1633:	75 02       	bxor	#0x0,r2h
    1635:	91 02       	addx	#0x2,r1h
    1637:	18 00       	sub.b	r0h,r0h
    1639:	00 00       	nop	
    163b:	3b 01       	mov.b	r3l,@0x1:8
    163d:	02 13       	stc	exr,r3h
    163f:	00 00       	nop	
    1641:	00 75       	.word	H'0,H'75
    1643:	02 91       	.word	H'2,H'91
    1645:	06 18       	andc	#0x18,ccr
    1647:	00 00       	nop	
    1649:	00 87       	.word	H'0,H'87
    164b:	01 02       	.word	H'1,H'2
    164d:	13 00       	rotxr.b	r0h
    164f:	00 00       	nop	
    1651:	7c 02       	.word	H'7c,H'2
    1653:	91 08       	addx	#0x8,r1h
    1655:	00 1b       	.word	H'0,H'1b
    1657:	00 00       	nop	
    1659:	06 72       	andc	#0x72,ccr
    165b:	01 01       	.word	H'1,H'1
    165d:	f8 00       	mov.b	#0x0,r0l
    165f:	40 23       	bra/s	.+34 (0x1683)
    1661:	76 00       	band	#0x0,r0h
    1663:	00 00       	nop	
    1665:	7c 01       	.word	H'7c,H'1
    1667:	9c 00       	addx	#0x0,r4l
    1669:	00 07       	.word	H'0,H'7
    166b:	ad 18       	cmp.b	#0x18,r5l
    166d:	00 00       	nop	
    166f:	00 d6       	.word	H'0,H'd6
    1671:	01 01       	.word	H'1,H'1
    1673:	f8 00       	mov.b	#0x0,r0l
    1675:	00 00       	nop	
    1677:	f6 02       	mov.b	#0x2,r6h
    1679:	91 76       	addx	#0x76,r1h
    167b:	1c 73       	cmp.b	r7h,r3h
    167d:	70 00       	bset	#0x0,r0h
    167f:	01 01       	.word	H'1,H'1
    1681:	f8 00       	mov.b	#0x0,r0l
    1683:	00 00       	nop	
    1685:	3e 02       	mov.b	r6l,@0x2:8
    1687:	91 70       	addx	#0x70,r1h
    1689:	00 1d       	.word	H'0,H'1d
    168b:	00 00       	nop	
    168d:	06 2a       	andc	#0x2a,ccr
    168f:	01 01       	.word	H'1,H'1
    1691:	ef 00       	and.b	#0x0,r7l
    1693:	40 23       	bra/s	.+34 (0x16b7)
    1695:	46 00       	bne	.0 (0x1697)
    1697:	00 00       	nop	
    1699:	30 01       	mov.b	r0h,@0x1:8
    169b:	9c 1d       	addx	#0x1d,r4l
    169d:	00 00       	nop	
    169f:	06 65       	andc	#0x65,ccr
    16a1:	01 01       	.word	H'1,H'1
    16a3:	ea 00       	and.b	#0x0,r2l
    16a5:	40 23       	bra/s	.+34 (0x16c9)
    16a7:	16 00       	and.b	r0h,r0h
    16a9:	00 00       	nop	
    16ab:	30 01       	mov.b	r0h,@0x1:8
    16ad:	9c 1b       	addx	#0x1b,r4l
    16af:	00 00       	nop	
    16b1:	04 f8       	orc	#0xf8,ccr
    16b3:	01 01       	.word	H'1,H'1
    16b5:	d8 00       	xor.b	#0x0,r0l
    16b7:	40 22       	bra	.+34 (0x16db)
    16b9:	9e 00       	addx	#0x0,r6l
    16bb:	00 00       	nop	
    16bd:	78 01       	.word	H'78,H'1
    16bf:	9c 00       	addx	#0x0,r4l
    16c1:	00 07       	.word	H'0,H'7
    16c3:	f5 1e       	mov.b	#0x1e,r5h
    16c5:	69 00       	mov.w	@er0,r0
    16c7:	01 01       	.word	H'1,H'1
    16c9:	da 00       	xor.b	#0x0,r2l
    16cb:	00 00       	nop	
    16cd:	75 02       	bxor	#0x0,r2h
    16cf:	91 76       	addx	#0x76,r1h
    16d1:	00 1b       	.word	H'0,H'1b
    16d3:	00 00       	nop	
    16d5:	07 7f       	ldc	#0x7f,ccr
    16d7:	01 01       	.word	H'1,H'1
    16d9:	c8 00       	or.b	#0x0,r0l
    16db:	40 22       	bra	.+34 (0x16ff)
    16dd:	60 00       	bset	r0h,r0h
    16df:	00 00       	nop	
    16e1:	3e 01       	mov.b	r6l,@0x1:8
    16e3:	9c 00       	addx	#0x0,r4l
    16e5:	00 08       	.word	H'0,H'8
    16e7:	28 18       	mov.b	@0x18:8,r0l
    16e9:	00 00       	nop	
    16eb:	00 d6       	.word	H'0,H'd6
    16ed:	01 01       	.word	H'1,H'1
    16ef:	c8 00       	or.b	#0x0,r0l
    16f1:	00 01       	.word	H'0,H'1
    16f3:	5e 02 91 76 	jsr	@0x29176:24
    16f7:	1c 70       	cmp.b	r7h,r0h
    16f9:	00 01       	.word	H'0,H'1
    16fb:	01 c8       	.word	H'1,H'c8
    16fd:	00 00       	nop	
    16ff:	04 5a       	orc	#0x5a,ccr
    1701:	02 91       	.word	H'2,H'91
    1703:	70 00       	bset	#0x0,r0h
    1705:	1b 00       	subs	#1,er0
    1707:	00 06       	.word	H'0,H'6
    1709:	1d 01       	cmp.w	r0,r1
    170b:	01 bb       	.word	H'1,H'bb
    170d:	00 40       	.word	H'0,H'40
    170f:	22 28       	mov.b	@0x28:8,r2h
    1711:	00 00       	nop	
    1713:	00 38       	.word	H'0,H'38
    1715:	01 9c       	.word	H'1,H'9c
    1717:	00 00       	nop	
    1719:	08 5b       	add.b	r5h,r3l
    171b:	18 00       	sub.b	r0h,r0h
    171d:	00 00       	nop	
    171f:	d6 01       	xor.b	#0x1,r6h
    1721:	01 bb       	.word	H'1,H'bb
    1723:	00 00       	nop	
    1725:	01 5e       	.word	H'1,H'5e
    1727:	02 91       	.word	H'2,H'91
    1729:	76 1c       	band	#0x1,r4l
    172b:	70 00       	bset	#0x0,r0h
    172d:	01 01       	.word	H'1,H'1
    172f:	bb 00       	subx	#0x0,r3l
    1731:	00 04       	.word	H'0,H'4
    1733:	5a 02 91 70 	jmp	@0x29170:24
    1737:	00 1b       	.word	H'0,H'1b
    1739:	00 00       	nop	
    173b:	06 ee       	andc	#0xee,ccr
    173d:	01 01       	.word	H'1,H'1
    173f:	87 00       	add.b	#0x0,r7h
    1741:	40 1f       	bra/s	.+30 (0x1761)
    1743:	fa 00       	mov.b	#0x0,r2l
    1745:	00 02       	.word	H'0,H'2
    1747:	2e 01       	mov.b	@0x1:8,r6l
    1749:	9c 00       	addx	#0x0,r4l
    174b:	00 08       	.word	H'0,H'8
    174d:	8e 18       	add.b	#0x18,r6l
    174f:	00 00       	nop	
    1751:	00 d6       	.word	H'0,H'd6
    1753:	01 01       	.word	H'1,H'1
    1755:	87 00       	add.b	#0x0,r7h
    1757:	00 01       	.word	H'0,H'1
    1759:	5e 02 91 6e 	jsr	@0x2916e:24
    175d:	1c 70       	cmp.b	r7h,r0h
    175f:	00 01       	.word	H'0,H'1
    1761:	01 87       	.word	H'1,H'87
    1763:	00 00       	nop	
    1765:	04 5a       	orc	#0x5a,ccr
    1767:	02 91       	.word	H'2,H'91
    1769:	68 00       	mov.b	@er0,r0h
    176b:	1f 00       	das	r0h
    176d:	00 04       	.word	H'0,H'4
    176f:	4b 01       	.word	H'4b,H'1
    1771:	01 78 00 00 	mov.b	@er0,@er0
    1775:	00 75       	.word	H'0,H'75
    1777:	00 40       	.word	H'0,H'40
    1779:	1f a8       	cmp.l	#0x2,er0
    177b:	00 00       	nop	
    177d:	00 52       	.word	H'0,H'52
    177f:	01 9c       	.word	H'1,H'9c
    1781:	00 00       	nop	
    1783:	08 c7       	add.b	r4l,r7h
    1785:	18 00       	sub.b	r0h,r0h
    1787:	00 00       	nop	
    1789:	d6 01       	xor.b	#0x1,r6h
    178b:	01 78 00 00 	mov.b	@er0,@er0
    178f:	00 f6       	.word	H'0,H'f6
    1791:	02 91       	.word	H'2,H'91
    1793:	76 18       	band	#0x1,r0l
    1795:	00 00       	nop	
    1797:	00 be       	.word	H'0,H'be
    1799:	01 01       	.word	H'1,H'1
    179b:	78 00       	.word	H'78,H'0
    179d:	00 00       	nop	
    179f:	8f 02       	add.b	#0x2,r7l
    17a1:	91 70       	addx	#0x70,r1h
    17a3:	00 1f       	.word	H'0,H'1f
    17a5:	00 00       	nop	
    17a7:	06 11       	andc	#0x11,ccr
    17a9:	01 01       	.word	H'1,H'1
    17ab:	5f 00       	jsr	@@0 (0x0)
    17ad:	00 00       	nop	
    17af:	45 00       	bcs	.0 (0x17b1)
    17b1:	40 1f       	bra/s	.+30 (0x17d1)
    17b3:	06 00       	andc	#0x0,ccr
    17b5:	00 00       	nop	
    17b7:	a2 01       	cmp.b	#0x1,r2h
    17b9:	9c 00       	addx	#0x0,r4l
    17bb:	00 09       	.word	H'0,H'9
    17bd:	1c 1c       	cmp.b	r1h,r4l
    17bf:	69 64       	mov.w	@er6,r4
    17c1:	00 01       	.word	H'0,H'1
    17c3:	01 5f       	.word	H'1,H'5f
    17c5:	00 00       	nop	
    17c7:	00 e0       	.word	H'0,H'e0
    17c9:	02 91       	.word	H'2,H'91
    17cb:	72 18       	bclr	#0x1,r0l
    17cd:	00 00       	nop	
    17cf:	04 5a       	orc	#0x5a,ccr
    17d1:	01 01       	.word	H'1,H'1
    17d3:	5f 00       	jsr	@@0 (0x0)
    17d5:	00 03       	.word	H'0,H'3
    17d7:	0a 02       	inc	r2h
    17d9:	91 6c       	addx	#0x6c,r1h
    17db:	1c 70       	cmp.b	r7h,r0h
    17dd:	70 00       	bset	#0x0,r0h
    17df:	01 01       	.word	H'1,H'1
    17e1:	5f 00       	jsr	@@0 (0x0)
    17e3:	00 00       	nop	
    17e5:	7c 02       	.word	H'7c,H'2
    17e7:	91 68       	addx	#0x68,r1h
    17e9:	20 00       	mov.b	@0x0:8,r0h
    17eb:	00 04       	.word	H'0,H'4
    17ed:	97 01       	addx	#0x1,r7h
    17ef:	01 61       	.word	H'1,H'61
    17f1:	00 00       	nop	
    17f3:	09 1c       	add.w	r1,e4
    17f5:	02 91       	.word	H'2,H'91
    17f7:	74 00       	bor	#0x0,r0h
    17f9:	04 04       	orc	#0x4,ccr
    17fb:	00 00       	nop	
    17fd:	05 cb       	xorc	#0xcb,ccr
    17ff:	1f 00       	das	r0h
    1801:	00 05       	.word	H'0,H'5
    1803:	ff 01       	mov.b	#0x1,r7l
    1805:	01 4d       	.word	H'1,H'4d
    1807:	00 00       	nop	
    1809:	00 75       	.word	H'0,H'75
    180b:	00 40       	.word	H'0,H'40
    180d:	1e 64       	subx	r6h,r4h
    180f:	00 00       	nop	
    1811:	00 a2       	.word	H'0,H'a2
    1813:	01 9c       	.word	H'1,H'9c
    1815:	00 00       	nop	
    1817:	09 76       	add.w	r7,r6
    1819:	1c 69       	cmp.b	r6h,r1l
    181b:	64 00       	or.w	r0,r0
    181d:	01 01       	.word	H'1,H'1
    181f:	4d 00       	blt	.0 (0x1821)
    1821:	00 00       	nop	
    1823:	e0 02       	and.b	#0x2,r0h
    1825:	91 72       	addx	#0x72,r1h
    1827:	18 00       	sub.b	r0h,r0h
    1829:	00 09       	.word	H'0,H'9
    182b:	99 01       	addx	#0x1,r1l
    182d:	01 4d       	.word	H'1,H'4d
    182f:	00 00       	nop	
    1831:	00 75       	.word	H'0,H'75
    1833:	02 91       	.word	H'2,H'91
    1835:	70 1c       	bset	#0x1,r4l
    1837:	70 00       	bset	#0x0,r0h
    1839:	01 01       	.word	H'1,H'1
    183b:	4d 00       	blt	.0 (0x183d)
    183d:	00 00       	nop	
    183f:	82 02       	add.b	#0x2,r2h
    1841:	91 6c       	addx	#0x6c,r1h
    1843:	20 00       	mov.b	@0x0:8,r0h
    1845:	00 04       	.word	H'0,H'4
    1847:	97 01       	addx	#0x1,r7h
    1849:	01 4f       	.word	H'1,H'4f
    184b:	00 00       	nop	
    184d:	09 1c       	add.w	r1,e4
    184f:	02 91       	.word	H'2,H'91
    1851:	74 00       	bor	#0x0,r0h
    1853:	1b 00       	subs	#1,er0
    1855:	00 07       	.word	H'0,H'7
    1857:	a0 01       	cmp.b	#0x1,r0h
    1859:	01 31       	.word	H'1,H'31
    185b:	00 40       	.word	H'0,H'40
    185d:	1d 56       	cmp.w	r5,r6
    185f:	00 00       	nop	
    1861:	01 0e       	.word	H'1,H'e
    1863:	01 9c       	.word	H'1,H'9c
    1865:	00 00       	nop	
    1867:	09 b7       	add.w	e3,r7
    1869:	18 00       	sub.b	r0h,r0h
    186b:	00 04       	.word	H'0,H'4
    186d:	97 01       	addx	#0x1,r7h
    186f:	01 31       	.word	H'1,H'31
    1871:	00 00       	nop	
    1873:	09 1c       	add.w	r1,e4
    1875:	02 91       	.word	H'2,H'91
    1877:	6c 1e       	mov.b	@er1+,r6l
    1879:	6d 70       	mov.w	@er7+,r0
    187b:	00 01       	.word	H'0,H'1
    187d:	01 33       	.word	H'1,H'33
    187f:	00 00       	nop	
    1881:	05 ae       	xorc	#0xae,ccr
    1883:	02 91       	.word	H'2,H'91
    1885:	74 1e       	bor	#0x1,r6l
    1887:	70 00       	bset	#0x0,r0h
    1889:	01 01       	.word	H'1,H'1
    188b:	34 00       	mov.b	r4h,@0x0:8
    188d:	00 04       	.word	H'0,H'4
    188f:	5a 02 91 70 	jmp	@0x29170:24
    1893:	00 1b       	.word	H'0,H'1b
    1895:	00 00       	nop	
    1897:	04 86       	orc	#0x86,ccr
    1899:	01 01       	.word	H'1,H'1
    189b:	1a 00       	dec.b	r0h
    189d:	40 1c       	bra	.+28 (0x18bb)
    189f:	86 00       	add.b	#0x0,r6h
    18a1:	00 00       	nop	
    18a3:	d0 01       	xor.b	#0x1,r0h
    18a5:	9c 00       	addx	#0x0,r4l
    18a7:	00 0a       	.word	H'0,H'a
    18a9:	16 18       	and.b	r1h,r0l
    18ab:	00 00       	nop	
    18ad:	04 97       	orc	#0x97,ccr
    18af:	01 01       	.word	H'1,H'1
    18b1:	1a 00       	dec.b	r0h
    18b3:	00 09       	.word	H'0,H'9
    18b5:	1c 02       	cmp.b	r0h,r2h
    18b7:	91 70       	addx	#0x70,r1h
    18b9:	1c 74       	cmp.b	r7h,r4h
    18bb:	68 70       	mov.b	@er7,r0h
    18bd:	00 01       	.word	H'0,H'1
    18bf:	01 1a       	.word	H'1,H'1a
    18c1:	00 00       	nop	
    18c3:	05 60       	xorc	#0x60,ccr
    18c5:	02 91       	.word	H'2,H'91
    18c7:	6c 18       	mov.b	@er1+,r0l
    18c9:	00 00       	nop	
    18cb:	09 99       	add.w	e1,e1
    18cd:	01 01       	.word	H'1,H'1
    18cf:	1a 00       	dec.b	r0h
    18d1:	00 00       	nop	
    18d3:	75 02       	bxor	#0x0,r2h
    18d5:	91 6a       	addx	#0x6a,r1h
    18d7:	1c 70       	cmp.b	r7h,r0h
    18d9:	00 01       	.word	H'0,H'1
    18db:	01 1a       	.word	H'1,H'1a
    18dd:	00 00       	nop	
    18df:	00 82       	.word	H'0,H'82
    18e1:	02 91       	.word	H'2,H'91
    18e3:	00 1e       	.word	H'0,H'1e
    18e5:	6d 70       	mov.w	@er7+,r0
    18e7:	00 01       	.word	H'0,H'1
    18e9:	01 1c       	.word	H'1,H'1c
    18eb:	00 00       	nop	
    18ed:	05 ae       	xorc	#0xae,ccr
    18ef:	02 91       	.word	H'2,H'91
    18f1:	74 00       	bor	#0x0,r0h
    18f3:	1f 00       	das	r0h
    18f5:	00 07       	.word	H'0,H'7
    18f7:	4b 01       	.word	H'4b,H'1
    18f9:	01 12       	.word	H'1,H'12
    18fb:	00 00       	nop	
    18fd:	00 75       	.word	H'0,H'75
    18ff:	00 40       	.word	H'0,H'40
    1901:	1c 5c       	cmp.b	r5h,r4l
    1903:	00 00       	nop	
    1905:	00 2a       	.word	H'0,H'2a
    1907:	01 9c       	.word	H'1,H'9c
    1909:	00 00       	nop	
    190b:	0a 3e       	add.w	#0x3,e6
    190d:	1c 70       	cmp.b	r7h,r0h
    190f:	00 01       	.word	H'0,H'1
    1911:	01 12       	.word	H'1,H'12
    1913:	00 00       	nop	
    1915:	00 82       	.word	H'0,H'82
    1917:	02 91       	.word	H'2,H'91
    1919:	74 00       	bor	#0x0,r0h
    191b:	1f 00       	das	r0h
    191d:	00 05       	.word	H'0,H'5
    191f:	da 01       	xor.b	#0x1,r2l
    1921:	01 0b       	.word	H'1,H'b
    1923:	00 00       	nop	
    1925:	02 7c       	stc	sbr,er4
    1927:	00 40       	.word	H'0,H'40
    1929:	1c 36       	cmp.b	r3h,r6h
    192b:	00 00       	nop	
    192d:	00 26       	.word	H'0,H'26
    192f:	01 9c       	.word	H'1,H'9c
    1931:	00 00       	nop	
    1933:	0a 68       	add.w	#0x6,e0
    1935:	18 00       	sub.b	r0h,r0h
    1937:	00 09       	.word	H'0,H'9
    1939:	99 01       	addx	#0x1,r1l
    193b:	01 0b       	.word	H'1,H'b
    193d:	00 00       	nop	
    193f:	00 75       	.word	H'0,H'75
    1941:	02 91       	.word	H'2,H'91
    1943:	76 00       	band	#0x0,r0h
    1945:	1f 00       	das	r0h
    1947:	00 05       	.word	H'0,H'5
    1949:	88 01       	add.b	#0x1,r0l
    194b:	01 01       	.word	H'1,H'1
    194d:	00 00       	nop	
    194f:	00 75       	.word	H'0,H'75
    1951:	00 40       	.word	H'0,H'40
    1953:	1b ea       	.word	H'1b,H'ea
    1955:	00 00       	nop	
    1957:	00 4c       	.word	H'0,H'4c
    1959:	01 9c       	.word	H'1,H'9c
    195b:	00 00       	nop	
    195d:	0a a1       	add.l	er2,er1
    195f:	18 00       	sub.b	r0h,r0h
    1961:	00 07       	.word	H'0,H'7
    1963:	62 01       	bclr	r0h,r1h
    1965:	01 01       	.word	H'1,H'1
    1967:	00 00       	nop	
    1969:	00 75       	.word	H'0,H'75
    196b:	02 91       	.word	H'2,H'91
    196d:	72 1e       	bclr	#0x1,r6l
    196f:	6f 6c 64 00 	mov.w	@(0x6400:16,er6),e4
    1973:	01 01       	.word	H'1,H'1
    1975:	03 00       	ldc	r0h,ccr
    1977:	00 00       	nop	
    1979:	75 02       	bxor	#0x0,r2h
    197b:	91 76       	addx	#0x76,r1h
    197d:	00 21       	.word	H'0,H'21
    197f:	00 00       	nop	
    1981:	05 54       	xorc	#0x54,ccr
    1983:	01 fa       	.word	H'1,H'fa
    1985:	00 00       	nop	
    1987:	00 45       	.word	H'0,H'45
    1989:	00 40       	.word	H'0,H'40
    198b:	1b d0       	dec.w	#2,r0
    198d:	00 00       	nop	
    198f:	00 1a       	.word	H'0,H'1a
    1991:	01 9c       	.word	H'1,H'9c
    1993:	22 00       	mov.b	@0x0:8,r2h
    1995:	00 05       	.word	H'0,H'5
    1997:	25 01       	mov.b	@0x1:8,r5h
    1999:	ed 00       	and.b	#0x0,r5l
    199b:	00 00       	nop	
    199d:	75 00       	bxor	#0x0,r0h
    199f:	40 1b       	bra/s	.+26 (0x19bb)
    19a1:	a0 00       	cmp.b	#0x0,r0h
    19a3:	00 00       	nop	
    19a5:	30 01       	mov.b	r0h,@0x1:8
    19a7:	9c 00       	addx	#0x0,r4l
    19a9:	00 0a       	.word	H'0,H'a
    19ab:	dd 23       	xor.b	#0x23,r5l
    19ad:	69 64       	mov.w	@er6,r4
    19af:	00 01       	.word	H'0,H'1
    19b1:	ed 00       	and.b	#0x0,r5l
    19b3:	00 00       	nop	
    19b5:	45 02       	bcs	.+2 (0x19b9)
    19b7:	91 74       	addx	#0x74,r1h
    19b9:	00 24       	.word	H'0,H'24
    19bb:	00 00       	nop	
    19bd:	07 13       	ldc	#0x13,ccr
    19bf:	01 e7       	.word	H'1,H'e7
    19c1:	00 00       	nop	
    19c3:	00 75       	.word	H'0,H'75
    19c5:	00 40       	.word	H'0,H'40
    19c7:	1b 90       	subs	#4,er0
    19c9:	00 00       	nop	
    19cb:	00 10       	.word	H'0,H'10
    19cd:	01 9c       	.word	H'1,H'9c
    19cf:	21 00       	mov.b	@0x0:8,r1h
    19d1:	00 05       	.word	H'0,H'5
    19d3:	c3 01       	or.b	#0x1,r3h
    19d5:	e0 00       	and.b	#0x0,r0h
    19d7:	00 00       	nop	
    19d9:	75 00       	bxor	#0x0,r0h
    19db:	40 1b       	bra/s	.+26 (0x19f7)
    19dd:	7c 00       	.word	H'7c,H'0
    19df:	00 00       	nop	
    19e1:	14 01       	or.b	r0h,r1h
    19e3:	9c 21       	addx	#0x21,r4l
    19e5:	00 00       	nop	
    19e7:	06 59       	andc	#0x59,ccr
    19e9:	01 d3       	.word	H'1,H'd3
    19eb:	00 00       	nop	
    19ed:	00 75       	.word	H'0,H'75
    19ef:	00 40       	.word	H'0,H'40
    19f1:	1b 3e       	.word	H'1b,H'3e
    19f3:	00 00       	nop	
    19f5:	00 3e       	.word	H'0,H'3e
    19f7:	01 9c       	.word	H'1,H'9c
    19f9:	22 00       	mov.b	@0x0:8,r2h
    19fb:	00 05       	.word	H'0,H'5
    19fd:	ae 01       	cmp.b	#0x1,r6l
    19ff:	8d 00       	add.b	#0x0,r5l
    1a01:	00 00       	nop	
    1a03:	45 00       	bcs	.0 (0x1a05)
    1a05:	40 18       	bra	.+24 (0x1a1f)
    1a07:	a8 00       	cmp.b	#0x0,r0l
    1a09:	00 02       	.word	H'0,H'2
    1a0b:	96 01       	addx	#0x1,r6h
    1a0d:	9c 00       	addx	#0x0,r4l
    1a0f:	00 0b       	.word	H'0,H'b
    1a11:	cd 25       	or.b	#0x25,r5l
    1a13:	00 00       	nop	
    1a15:	05 44       	xorc	#0x44,ccr
    1a17:	01 8d       	.word	H'1,H'8d
    1a19:	00 00       	nop	
    1a1b:	00 50       	.word	H'0,H'50
    1a1d:	02 91       	.word	H'2,H'91
    1a1f:	68 25       	mov.b	@er2,r5h
    1a21:	00 00       	nop	
    1a23:	05 a4       	xorc	#0xa4,ccr
    1a25:	01 8d       	.word	H'1,H'8d
    1a27:	00 00       	nop	
    1a29:	00 82       	.word	H'0,H'82
    1a2b:	02 91       	.word	H'2,H'91
    1a2d:	64 25       	or.w	r2,r5
    1a2f:	00 00       	nop	
    1a31:	07 62       	ldc	#0x62,ccr
    1a33:	01 8d       	.word	H'1,H'8d
    1a35:	00 00       	nop	
    1a37:	00 75       	.word	H'0,H'75
    1a39:	02 91       	.word	H'2,H'91
    1a3b:	62 25       	bclr	r2h,r5h
    1a3d:	00 00       	nop	
    1a3f:	04 d5       	orc	#0xd5,ccr
    1a41:	01 8e       	.word	H'1,H'8e
    1a43:	00 00       	nop	
    1a45:	00 75       	.word	H'0,H'75
    1a47:	02 91       	.word	H'2,H'91
    1a49:	02 25       	stmac	mach,er5
    1a4b:	00 00       	nop	
    1a4d:	00 3b       	.word	H'0,H'3b
    1a4f:	01 8e       	.word	H'1,H'8e
    1a51:	00 00       	nop	
    1a53:	00 75       	.word	H'0,H'75
    1a55:	02 91       	.word	H'2,H'91
    1a57:	06 25       	andc	#0x25,ccr
    1a59:	00 00       	nop	
    1a5b:	00 87       	.word	H'0,H'87
    1a5d:	01 8e       	.word	H'1,H'8e
    1a5f:	00 00       	nop	
    1a61:	00 7c       	.word	H'0,H'7c
    1a63:	02 91       	.word	H'2,H'91
    1a65:	08 26       	add.b	r2h,r6h
    1a67:	69 00       	mov.w	@er0,r0
    1a69:	01 90       	.word	H'1,H'90
    1a6b:	00 00       	nop	
    1a6d:	00 75       	.word	H'0,H'75
    1a6f:	02 91       	.word	H'2,H'91
    1a71:	76 26       	band	#0x2,r6h
    1a73:	74 68       	bor	#0x6,r0l
    1a75:	70 00       	bset	#0x0,r0h
    1a77:	01 91       	.word	H'1,H'91
    1a79:	00 00       	nop	
    1a7b:	05 60       	xorc	#0x60,ccr
    1a7d:	02 91       	.word	H'2,H'91
    1a7f:	70 26       	bset	#0x2,r6h
    1a81:	73 70       	btst	#0x7,r0h
    1a83:	00 01       	.word	H'0,H'1
    1a85:	92 00       	addx	#0x0,r2h
    1a87:	00 0b       	.word	H'0,H'b
    1a89:	cd 02       	or.b	#0x2,r5l
    1a8b:	91 6c       	addx	#0x6c,r1h
    1a8d:	0b 00       	adds	#1,er0
    1a8f:	00 05       	.word	H'0,H'5
    1a91:	b9 01       	subx	#0x1,r1l
    1a93:	93 00       	addx	#0x0,r3h
    1a95:	00 00       	nop	
    1a97:	88 16       	add.b	#0x16,r0l
    1a99:	00 00       	nop	
    1a9b:	05 01       	xorc	#0x1,ccr
    1a9d:	01 94       	.word	H'1,H'94
    1a9f:	00 00       	nop	
    1aa1:	00 82       	.word	H'0,H'82
    1aa3:	05 03       	xorc	#0x3,ccr
    1aa5:	00 40       	.word	H'0,H'40
    1aa7:	41 e4       	brn	.-28 (0x1a8d)
    1aa9:	00 04       	.word	H'0,H'4
    1aab:	04 00       	orc	#0x0,ccr
    1aad:	00 00       	nop	
    1aaf:	33 27       	mov.b	r3h,@0x27:8
    1ab1:	00 00       	nop	
    1ab3:	05 19       	xorc	#0x19,ccr
    1ab5:	01 85       	.word	H'1,H'85
    1ab7:	00 40       	.word	H'0,H'40
    1ab9:	18 64       	sub.b	r6h,r4h
    1abb:	00 00       	nop	
    1abd:	00 44       	.word	H'0,H'44
    1abf:	01 9c       	.word	H'1,H'9c
    1ac1:	00 00       	nop	
    1ac3:	0b f7       	inc.l	#2,er7
    1ac5:	23 74       	mov.b	@0x74:8,r3h
    1ac7:	68 70       	mov.b	@er7,r0h
    1ac9:	00 01       	.word	H'0,H'1
    1acb:	85 00       	add.b	#0x0,r5h
    1acd:	00 05       	.word	H'0,H'5
    1acf:	60 02       	bset	r0h,r2h
    1ad1:	91 74       	addx	#0x74,r1h
    1ad3:	00 28       	.word	H'0,H'28
    1ad5:	00 00       	nop	
    1ad7:	07 2b       	ldc	#0x2b,ccr
    1ad9:	01 7f       	.word	H'1,H'7f
    1adb:	00 40       	.word	H'0,H'40
    1add:	18 52       	sub.b	r5h,r2h
    1adf:	00 00       	nop	
    1ae1:	00 12       	.word	H'0,H'12
    1ae3:	01 9c       	.word	H'1,H'9c
    1ae5:	24 00       	mov.b	@0x0:8,r4h
    1ae7:	00 05       	.word	H'0,H'5
    1ae9:	49 01       	.word	H'49,H'1
    1aeb:	69 00       	mov.w	@er0,r0
    1aed:	00 00       	nop	
    1aef:	75 00       	bxor	#0x0,r0h
    1af1:	40 17       	bra/s	.+22 (0x1b09)
    1af3:	56 00       	rte/l	er0
    1af5:	00 00       	nop	
    1af7:	fc 01       	mov.b	#0x1,r4l
    1af9:	9c 24       	addx	#0x24,r4l
    1afb:	00 00       	nop	
    1afd:	06 4e       	andc	#0x4e,ccr
    1aff:	01 53       	.word	H'1,H'53
    1b01:	00 00       	nop	
    1b03:	00 75       	.word	H'0,H'75
    1b05:	00 40       	.word	H'0,H'40
    1b07:	16 7a       	and.b	r7h,r2l
    1b09:	00 00       	nop	
    1b0b:	00 dc       	.word	H'0,H'dc
    1b0d:	01 9c       	.word	H'1,H'9c
	...

00001b10 <.Ldebug_info0>:
    1b10:	00 00       	nop	
    1b12:	07 82       	ldc	#0x82,ccr
    1b14:	00 04       	.word	H'0,H'4
    1b16:	00 00       	nop	
    1b18:	08 b1       	add.b	r3l,r1h
    1b1a:	04 01       	orc	#0x1,ccr
    1b1c:	00 00       	nop	
    1b1e:	00 65       	.word	H'0,H'65
    1b20:	0c 00       	mov.b	r0h,r0h
    1b22:	00 08       	.word	H'0,H'8
    1b24:	6c 00       	mov.b	@er0+,r0h
    1b26:	00 00       	nop	
    1b28:	51 00       	divxu.b	r0h,r0
    1b2a:	40 25       	bra/s	.+36 (0x1b50)
    1b2c:	78 00       	.word	H'78,H'0
    1b2e:	00 04       	.word	H'0,H'4
    1b30:	4a 00       	bpl	.0 (0x1b32)
    1b32:	00 17       	.word	H'0,H'17
    1b34:	7d 02       	.word	H'7d,H'2
    1b36:	01 08 00 00 	mov.l	@er0,@er0
    1b3a:	00 57       	.word	H'0,H'57
    1b3c:	02 02       	stc	ccr,r2h
    1b3e:	07 00       	ldc	#0x0,ccr
    1b40:	00 00       	nop	
    1b42:	28 03       	mov.b	@0x3:8,r0l
    1b44:	00 00       	nop	
    1b46:	06 c7       	andc	#0xc7,ccr
    1b48:	02 0a       	stc	ccr,r2l
    1b4a:	00 00       	nop	
    1b4c:	00 3e       	.word	H'0,H'3e
    1b4e:	02 04       	stc	ccr,r4h
    1b50:	07 00       	ldc	#0x0,ccr
    1b52:	00 00       	nop	
    1b54:	00 03       	.word	H'0,H'3
    1b56:	00 00       	nop	
    1b58:	05 95       	xorc	#0x95,ccr
    1b5a:	02 0c       	stc	ccr,r4l
    1b5c:	00 00       	nop	
    1b5e:	00 33       	.word	H'0,H'33
    1b60:	03 00       	ldc	r0h,ccr
    1b62:	00 05       	.word	H'0,H'5
    1b64:	3a 02       	mov.b	r2l,@0x2:8
    1b66:	0d 00       	mov.w	r0,r0
    1b68:	00 00       	nop	
    1b6a:	5b 04       	jmp	@@4 (0x4)
    1b6c:	04 00       	orc	#0x0,ccr
    1b6e:	00 00       	nop	
    1b70:	61 05       	bnot	r0h,r5h
    1b72:	00 00       	nop	
    1b74:	00 75       	.word	H'0,H'75
    1b76:	00 00       	nop	
    1b78:	00 75       	.word	H'0,H'75
    1b7a:	06 00       	andc	#0x0,ccr
    1b7c:	00 00       	nop	
    1b7e:	75 06       	bxor	#0x0,r6h
    1b80:	00 00       	nop	
    1b82:	00 7c       	.word	H'0,H'7c
    1b84:	00 07       	.word	H'0,H'7
    1b86:	02 05       	stc	ccr,r5h
    1b88:	69 6e       	mov.w	@er6,e6
    1b8a:	74 00       	bor	#0x0,r0h
    1b8c:	04 04       	orc	#0x4,ccr
    1b8e:	00 00       	nop	
    1b90:	00 82       	.word	H'0,H'82
    1b92:	04 04       	orc	#0x4,ccr
    1b94:	00 00       	nop	
    1b96:	00 88       	.word	H'0,H'88
    1b98:	02 01       	stc	ccr,r1h
    1b9a:	08 00       	add.b	r0h,r0h
    1b9c:	00 00       	nop	
    1b9e:	60 03       	bset	r0h,r3h
    1ba0:	00 00       	nop	
    1ba2:	05 f2       	xorc	#0xf2,ccr
    1ba4:	02 0e       	stc	ccr,r6l
    1ba6:	00 00       	nop	
    1ba8:	00 9a       	.word	H'0,H'9a
    1baa:	04 04       	orc	#0x4,ccr
    1bac:	00 00       	nop	
    1bae:	00 a0       	.word	H'0,H'a0
    1bb0:	08 09       	add.b	r0h,r1l
    1bb2:	07 02       	ldc	#0x2,ccr
    1bb4:	00 00       	nop	
    1bb6:	00 d9       	.word	H'0,H'd9
    1bb8:	02 10       	stc	exr,r0h
    1bba:	00 00       	nop	
    1bbc:	00 d9       	.word	H'0,H'd9
    1bbe:	0a 00       	inc	r0h
    1bc0:	00 07       	.word	H'0,H'7
    1bc2:	6b 00 0a 00 	mov.w	@0xa00:16,r0
    1bc6:	00 07       	.word	H'0,H'7
    1bc8:	36 01       	mov.b	r6h,@0x1:8
    1bca:	0a 00       	inc	r0h
    1bcc:	00 04       	.word	H'0,H'4
    1bce:	23 02       	mov.b	@0x2:8,r3h
    1bd0:	0a 00       	inc	r0h
    1bd2:	00 04       	.word	H'0,H'4
    1bd4:	df 03       	xor.b	#0x3,r7l
    1bd6:	0a 00       	inc	r0h
    1bd8:	00 04       	.word	H'0,H'4
    1bda:	73 04       	btst	#0x0,r4h
    1bdc:	0a 00       	inc	r0h
    1bde:	00 06       	.word	H'0,H'6
    1be0:	7e 05       	.word	H'7e,H'5
    1be2:	0a 00       	inc	r0h
    1be4:	00 06       	.word	H'0,H'6
    1be6:	e0 06       	and.b	#0x6,r0h
    1be8:	00 02       	.word	H'0,H'2
    1bea:	02 07       	stc	ccr,r7h
    1bec:	00 00       	nop	
    1bee:	00 05       	.word	H'0,H'5
    1bf0:	03 00       	ldc	r0h,ccr
    1bf2:	00 03       	.word	H'0,H'3
    1bf4:	f3 02       	mov.b	#0x2,r3h
    1bf6:	18 00       	sub.b	r0h,r0h
    1bf8:	00 00       	nop	
    1bfa:	a1 0b       	cmp.b	#0xb,r1h
    1bfc:	00 00       	nop	
    1bfe:	00 12       	.word	H'0,H'12
    1c00:	03 05       	ldc	r5h,ccr
    1c02:	00 00       	nop	
    1c04:	00 88       	.word	H'0,H'88
    1c06:	03 00       	ldc	r0h,ccr
    1c08:	00 00       	nop	
    1c0a:	a2 03       	cmp.b	#0x3,r2h
    1c0c:	08 00       	add.b	r0h,r0h
    1c0e:	00 01       	.word	H'0,H'1
    1c10:	01 02       	.word	H'1,H'2
    1c12:	02 05       	stc	ccr,r5h
    1c14:	00 00       	nop	
    1c16:	00 40       	.word	H'0,H'40
    1c18:	09 07       	add.w	r0,r7
    1c1a:	02 00       	stc	ccr,r0h
    1c1c:	00 00       	nop	
    1c1e:	d9 04       	xor.b	#0x4,r1l
    1c20:	08 00       	add.b	r0h,r0h
    1c22:	00 01       	.word	H'0,H'1
    1c24:	5e 0a 00 00 	jsr	@0xa0000:24
    1c28:	07 c4       	ldc	#0xc4,ccr
    1c2a:	00 0a       	.word	H'0,H'a
    1c2c:	00 00       	nop	
    1c2e:	04 36       	orc	#0x36,ccr
    1c30:	01 0a       	.word	H'1,H'a
    1c32:	00 00       	nop	
    1c34:	05 6d       	xorc	#0x6d,ccr
    1c36:	02 0a       	stc	ccr,r2l
    1c38:	00 00       	nop	
    1c3a:	03 dd       	.word	H'3,H'dd
    1c3c:	03 0a       	ldc	r2l,ccr
    1c3e:	00 00       	nop	
    1c40:	07 a8       	ldc	#0xa8,ccr
    1c42:	04 0a       	orc	#0xa,ccr
    1c44:	00 00       	nop	
    1c46:	06 fd       	andc	#0xfd,ccr
    1c48:	05 0a       	xorc	#0xa,ccr
    1c4a:	00 00       	nop	
    1c4c:	04 02       	orc	#0x2,ccr
    1c4e:	06 0a       	andc	#0xa,ccr
    1c50:	00 00       	nop	
    1c52:	06 92       	andc	#0x92,ccr
    1c54:	07 0a       	ldc	#0xa,ccr
    1c56:	00 00       	nop	
    1c58:	06 37       	andc	#0x37,ccr
    1c5a:	08 0a       	add.b	r0h,r2l
    1c5c:	00 00       	nop	
    1c5e:	04 9d       	orc	#0x9d,ccr
    1c60:	09 0a       	add.w	r0,e2
    1c62:	00 00       	nop	
    1c64:	06 b2       	andc	#0xb2,ccr
    1c66:	0a 0a       	inc	r2l
    1c68:	00 00       	nop	
    1c6a:	04 b2       	orc	#0xb2,ccr
    1c6c:	0b 00       	adds	#1,er0
    1c6e:	0c 18       	mov.b	r1h,r0l
    1c70:	04 1a       	orc	#0x1a,ccr
    1c72:	00 00       	nop	
    1c74:	01 bb       	.word	H'1,H'bb
    1c76:	0d 00       	mov.w	r0,r0
    1c78:	00 05       	.word	H'0,H'5
    1c7a:	44 04       	bcc	.+4 (0x1c80)
    1c7c:	1b 00       	subs	#1,er0
    1c7e:	00 00       	nop	
    1c80:	50 00       	mulxu.b	r0h,r0
    1c82:	0d 00       	mov.w	r0,r0
    1c84:	00 05       	.word	H'0,H'5
    1c86:	a4 04       	cmp.b	#0x4,r4h
    1c88:	1c 00       	cmp.b	r0h,r0h
    1c8a:	00 00       	nop	
    1c8c:	82 04       	add.b	#0x4,r2h
    1c8e:	0d 00       	mov.w	r0,r0
    1c90:	00 07       	.word	H'0,H'7
    1c92:	62 04       	bclr	r0h,r4h
    1c94:	1d 00       	cmp.w	r0,r0
    1c96:	00 00       	nop	
    1c98:	75 08       	bxor	#0x0,r0l
    1c9a:	0d 00       	mov.w	r0,r0
    1c9c:	00 04       	.word	H'0,H'4
    1c9e:	d5 04       	xor.b	#0x4,r5h
    1ca0:	1e 00       	subx	r0h,r0h
    1ca2:	00 00       	nop	
    1ca4:	75 0a       	bxor	#0x0,r2l
    1ca6:	0d 00       	mov.w	r0,r0
    1ca8:	00 00       	nop	
    1caa:	3b 04       	mov.b	r3l,@0x4:8
    1cac:	1f 00       	das	r0h
    1cae:	00 00       	nop	
    1cb0:	75 0c       	bxor	#0x0,r4l
    1cb2:	0d 00       	mov.w	r0,r0
    1cb4:	00 00       	nop	
    1cb6:	87 04       	add.b	#0x4,r7h
    1cb8:	20 00       	mov.b	@0x0:8,r0h
    1cba:	00 00       	nop	
    1cbc:	7c 10       	.word	H'7c,H'10
    1cbe:	0e 72       	addx	r7h,r2h
    1cc0:	65 74       	xor.w	r7,r4
    1cc2:	00 04       	.word	H'0,H'4
    1cc4:	21 00       	mov.b	@0x0:8,r1h
    1cc6:	00 00       	nop	
    1cc8:	45 14       	bcs	.+20 (0x1cde)
    1cca:	00 0c       	.word	H'0,H'c
    1ccc:	02 04       	stc	ccr,r4h
    1cce:	23 00       	mov.b	@0x0:8,r3h
    1cd0:	00 01       	.word	H'0,H'1
    1cd2:	d0 0d       	xor.b	#0xd,r0h
    1cd4:	00 00       	nop	
    1cd6:	05 82       	xorc	#0x82,ccr
    1cd8:	04 24       	orc	#0x24,ccr
    1cda:	00 00       	nop	
    1cdc:	00 75       	.word	H'0,H'75
    1cde:	00 00       	nop	
    1ce0:	0c 02       	mov.b	r0h,r2h
    1ce2:	04 26       	orc	#0x26,ccr
    1ce4:	00 00       	nop	
    1ce6:	01 e5       	.word	H'1,H'e5
    1ce8:	0e 72       	addx	r7h,r2h
    1cea:	65 74       	xor.w	r7,r4
    1cec:	00 04       	.word	H'0,H'4
    1cee:	27 00       	mov.b	@0x0:8,r7h
    1cf0:	00 00       	nop	
    1cf2:	75 00       	bxor	#0x0,r0h
    1cf4:	00 0c       	.word	H'0,H'c
    1cf6:	02 04       	stc	ccr,r4h
    1cf8:	29 00       	mov.b	@0x0:8,r1l
    1cfa:	00 01       	.word	H'0,H'1
    1cfc:	fa 0e       	mov.b	#0xe,r2l
    1cfe:	72 65       	bclr	#0x6,r5h
    1d00:	74 00       	bor	#0x0,r0h
    1d02:	04 2a       	orc	#0x2a,ccr
    1d04:	00 00       	nop	
    1d06:	00 75       	.word	H'0,H'75
    1d08:	00 00       	nop	
    1d0a:	0c 08       	mov.b	r0h,r0l
    1d0c:	04 2c       	orc	#0x2c,ccr
    1d0e:	00 00       	nop	
    1d10:	02 1a       	stc	exr,r2l
    1d12:	0e 69       	addx	r6h,r1l
    1d14:	64 00       	or.w	r0,r0
    1d16:	04 2d       	orc	#0x2d,ccr
    1d18:	00 00       	nop	
    1d1a:	00 45       	.word	H'0,H'45
    1d1c:	00 0e       	.word	H'0,H'e
    1d1e:	72 65       	bclr	#0x6,r5h
    1d20:	74 00       	bor	#0x0,r0h
    1d22:	04 2e       	orc	#0x2e,ccr
    1d24:	00 00       	nop	
    1d26:	00 75       	.word	H'0,H'75
    1d28:	04 00       	orc	#0x0,ccr
    1d2a:	0c 04       	mov.b	r0h,r4h
    1d2c:	04 30       	orc	#0x30,ccr
    1d2e:	00 00       	nop	
    1d30:	02 2f       	stmac	mach,er7
    1d32:	0e 72       	addx	r7h,r2h
    1d34:	65 74       	xor.w	r7,r4
    1d36:	00 04       	.word	H'0,H'4
    1d38:	31 00       	mov.b	r1h,@0x0:8
    1d3a:	00 00       	nop	
    1d3c:	45 00       	bcs	.0 (0x1d3e)
    1d3e:	00 0c       	.word	H'0,H'c
    1d40:	04 04       	orc	#0x4,ccr
    1d42:	33 00       	mov.b	r3h,@0x0:8
    1d44:	00 02       	.word	H'0,H'2
    1d46:	50 0d       	mulxu.b	r0h,e5
    1d48:	00 00       	nop	
    1d4a:	07 62       	ldc	#0x62,ccr
    1d4c:	04 34       	orc	#0x34,ccr
    1d4e:	00 00       	nop	
    1d50:	00 75       	.word	H'0,H'75
    1d52:	00 0e       	.word	H'0,H'e
    1d54:	72 65       	bclr	#0x6,r5h
    1d56:	74 00       	bor	#0x0,r0h
    1d58:	04 35       	orc	#0x35,ccr
    1d5a:	00 00       	nop	
    1d5c:	00 75       	.word	H'0,H'75
    1d5e:	02 00       	stc	ccr,r0h
    1d60:	0c 08       	mov.b	r0h,r0l
    1d62:	04 37       	orc	#0x37,ccr
    1d64:	00 00       	nop	
    1d66:	02 71       	stc	sbr,er1
    1d68:	0d 00       	mov.w	r0,r0
    1d6a:	00 09       	.word	H'0,H'9
    1d6c:	99 04       	addx	#0x4,r1l
    1d6e:	38 00       	mov.b	r0l,@0x0:8
    1d70:	00 00       	nop	
    1d72:	75 00       	bxor	#0x0,r0h
    1d74:	0e 72       	addx	r7h,r2h
    1d76:	65 74       	xor.w	r7,r4
    1d78:	00 04       	.word	H'0,H'4
    1d7a:	39 00       	mov.b	r1l,@0x0:8
    1d7c:	00 02       	.word	H'0,H'2
    1d7e:	71 04       	bnot	#0x0,r4h
    1d80:	00 0f       	.word	H'0,H'f
    1d82:	04 0c       	orc	#0xc,ccr
    1d84:	08 04       	add.b	r0h,r4h
    1d86:	3b 00       	mov.b	r3l,@0x0:8
    1d88:	00 02       	.word	H'0,H'2
    1d8a:	92 0e       	addx	#0xe,r2h
    1d8c:	70 00       	bset	#0x0,r0h
    1d8e:	04 3c       	orc	#0x3c,ccr
    1d90:	00 00       	nop	
    1d92:	00 82       	.word	H'0,H'82
    1d94:	00 0e       	.word	H'0,H'e
    1d96:	72 65       	bclr	#0x6,r5h
    1d98:	74 00       	bor	#0x0,r0h
    1d9a:	04 3d       	orc	#0x3d,ccr
    1d9c:	00 00       	nop	
    1d9e:	00 75       	.word	H'0,H'75
    1da0:	04 00       	orc	#0x0,ccr
    1da2:	0c 0c       	mov.b	r0h,r4l
    1da4:	04 3f       	orc	#0x3f,ccr
    1da6:	00 00       	nop	
    1da8:	02 c8       	.word	H'2,H'c8
    1daa:	0e 69       	addx	r6h,r1l
    1dac:	64 00       	or.w	r0,r0
    1dae:	04 40       	orc	#0x40,ccr
    1db0:	00 00       	nop	
    1db2:	00 e0       	.word	H'0,H'e0
    1db4:	00 0d       	.word	H'0,H'd
    1db6:	00 00       	nop	
    1db8:	09 99       	add.w	e1,e1
    1dba:	04 41       	orc	#0x41,ccr
    1dbc:	00 00       	nop	
    1dbe:	00 75       	.word	H'0,H'75
    1dc0:	02 0e       	stc	ccr,r6l
    1dc2:	70 00       	bset	#0x0,r0h
    1dc4:	04 42       	orc	#0x42,ccr
    1dc6:	00 00       	nop	
    1dc8:	00 82       	.word	H'0,H'82
    1dca:	04 0e       	orc	#0xe,ccr
    1dcc:	72 65       	bclr	#0x6,r5h
    1dce:	74 00       	bor	#0x0,r0h
    1dd0:	04 43       	orc	#0x43,ccr
    1dd2:	00 00       	nop	
    1dd4:	00 75       	.word	H'0,H'75
    1dd6:	08 00       	add.b	r0h,r0h
    1dd8:	0c 10       	mov.b	r1h,r0h
    1dda:	04 45       	orc	#0x45,ccr
    1ddc:	00 00       	nop	
    1dde:	02 ff       	.word	H'2,H'ff
    1de0:	0e 69       	addx	r6h,r1l
    1de2:	64 00       	or.w	r0,r0
    1de4:	04 46       	orc	#0x46,ccr
    1de6:	00 00       	nop	
    1de8:	00 e0       	.word	H'0,H'e0
    1dea:	00 0d       	.word	H'0,H'd
    1dec:	00 00       	nop	
    1dee:	04 5a       	orc	#0x5a,ccr
    1df0:	04 47       	orc	#0x47,ccr
    1df2:	00 00       	nop	
    1df4:	02 ff       	.word	H'2,H'ff
    1df6:	04 0e       	orc	#0xe,ccr
    1df8:	70 70       	bset	#0x7,r0h
    1dfa:	00 04       	.word	H'0,H'4
    1dfc:	48 00       	bvc	.0 (0x1dfe)
    1dfe:	00 00       	nop	
    1e00:	7c 08       	.word	H'7c,H'8
    1e02:	0e 72       	addx	r7h,r2h
    1e04:	65 74       	xor.w	r7,r4
    1e06:	00 04       	.word	H'0,H'4
    1e08:	49 00       	bvs	.0 (0x1e0a)
    1e0a:	00 00       	nop	
    1e0c:	45 0c       	bcs	.+12 (0x1e1a)
    1e0e:	00 04       	.word	H'0,H'4
    1e10:	04 00       	orc	#0x0,ccr
    1e12:	00 00       	nop	
    1e14:	75 0c       	bxor	#0x0,r4l
    1e16:	0c 04       	mov.b	r0h,r4h
    1e18:	4b 00       	bmi	.0 (0x1e1a)
    1e1a:	00 03       	.word	H'0,H'3
    1e1c:	32 0d       	mov.b	r2h,@0xd:8
    1e1e:	00 00       	nop	
    1e20:	00 d6       	.word	H'0,H'd6
    1e22:	04 4c       	orc	#0x4c,ccr
    1e24:	00 00       	nop	
    1e26:	00 f6       	.word	H'0,H'f6
    1e28:	00 0d       	.word	H'0,H'd
    1e2a:	00 00       	nop	
    1e2c:	00 be       	.word	H'0,H'be
    1e2e:	04 4d       	orc	#0x4d,ccr
    1e30:	00 00       	nop	
    1e32:	00 8f       	.word	H'0,H'8f
    1e34:	04 0e       	orc	#0xe,ccr
    1e36:	72 65       	bclr	#0x6,r5h
    1e38:	74 00       	bor	#0x0,r0h
    1e3a:	04 4e       	orc	#0x4e,ccr
    1e3c:	00 00       	nop	
    1e3e:	00 75       	.word	H'0,H'75
    1e40:	08 00       	add.b	r0h,r0h
    1e42:	10 18       	shll.w	e0
    1e44:	04 19       	orc	#0x19,ccr
    1e46:	00 00       	nop	
    1e48:	03 bf       	ldmac	er7,macl
    1e4a:	11 72       	shlr.l	#2,er2
    1e4c:	75 6e       	bxor	#0x6,r6l
    1e4e:	00 04       	.word	H'0,H'4
    1e50:	22 00       	mov.b	@0x0:8,r2h
    1e52:	00 01       	.word	H'0,H'1
    1e54:	5e 12 00 00 	jsr	@0x120000:24
    1e58:	06 60       	andc	#0x60,ccr
    1e5a:	04 25       	orc	#0x25,ccr
    1e5c:	00 00       	nop	
    1e5e:	01 bb       	.word	H'1,H'bb
    1e60:	12 00       	rotxl.b	r0h
    1e62:	00 05       	.word	H'0,H'5
    1e64:	ca 04       	or.b	#0x4,r2l
    1e66:	28 00       	mov.b	@0x0:8,r0l
    1e68:	00 01       	.word	H'0,H'1
    1e6a:	d0 12       	xor.b	#0x12,r0h
    1e6c:	00 00       	nop	
    1e6e:	07 1a       	ldc	#0x1a,ccr
    1e70:	04 2b       	orc	#0x2b,ccr
    1e72:	00 00       	nop	
    1e74:	01 e5       	.word	H'1,H'e5
    1e76:	12 00       	rotxl.b	r0h
    1e78:	00 05       	.word	H'0,H'5
    1e7a:	2c 04       	mov.b	@0x4:8,r4l
    1e7c:	2f 00       	mov.b	@0x0:8,r7l
    1e7e:	00 01       	.word	H'0,H'1
    1e80:	fa 12       	mov.b	#0x12,r2l
    1e82:	00 00       	nop	
    1e84:	05 5b       	xorc	#0x5b,ccr
    1e86:	04 32       	orc	#0x32,ccr
    1e88:	00 00       	nop	
    1e8a:	02 1a       	stc	exr,r2l
    1e8c:	12 00       	rotxl.b	r0h
    1e8e:	00 05       	.word	H'0,H'5
    1e90:	8f 04       	add.b	#0x4,r7l
    1e92:	36 00       	mov.b	r6h,@0x0:8
    1e94:	00 02       	.word	H'0,H'2
    1e96:	2f 12       	mov.b	@0x12:8,r7l
    1e98:	00 00       	nop	
    1e9a:	05 e1       	xorc	#0xe1,ccr
    1e9c:	04 3a       	orc	#0x3a,ccr
    1e9e:	00 00       	nop	
    1ea0:	02 50       	.word	H'2,H'50
    1ea2:	12 00       	rotxl.b	r0h
    1ea4:	00 07       	.word	H'0,H'7
    1ea6:	52 04       	mulxu.w	r0,er4
    1ea8:	3e 00       	mov.b	r6l,@0x0:8
    1eaa:	00 02       	.word	H'0,H'2
    1eac:	73 12       	btst	#0x1,r2h
    1eae:	00 00       	nop	
    1eb0:	06 06       	andc	#0x6,ccr
    1eb2:	04 44       	orc	#0x44,ccr
    1eb4:	00 00       	nop	
    1eb6:	02 92       	.word	H'2,H'92
    1eb8:	12 00       	rotxl.b	r0h
    1eba:	00 06       	.word	H'0,H'6
    1ebc:	18 04       	sub.b	r0h,r4h
    1ebe:	4a 00       	bpl	.0 (0x1ec0)
    1ec0:	00 02       	.word	H'0,H'2
    1ec2:	c8 12       	or.b	#0x12,r0l
    1ec4:	00 00       	nop	
    1ec6:	00 ce       	.word	H'0,H'ce
    1ec8:	04 4f       	orc	#0x4f,ccr
    1eca:	00 00       	nop	
    1ecc:	03 05       	ldc	r5h,ccr
    1ece:	00 0c       	.word	H'0,H'c
    1ed0:	18 04       	sub.b	r0h,r4h
    1ed2:	18 00       	sub.b	r0h,r0h
    1ed4:	00 03       	.word	H'0,H'3
    1ed6:	d3 0e       	xor.b	#0xe,r3h
    1ed8:	75 6e       	bxor	#0x6,r6l
    1eda:	00 04       	.word	H'0,H'4
    1edc:	50 00       	mulxu.b	r0h,r0
    1ede:	00 03       	.word	H'0,H'3
    1ee0:	32 00       	mov.b	r2h,@0x0:8
    1ee2:	00 03       	.word	H'0,H'3
    1ee4:	00 00       	nop	
    1ee6:	04 60       	orc	#0x60,ccr
    1ee8:	04 51       	orc	#0x51,ccr
    1eea:	00 00       	nop	
    1eec:	03 bf       	ldmac	er7,macl
    1eee:	13 00       	rotxr.b	r0h
    1ef0:	00 08       	.word	H'0,H'8
    1ef2:	76 01       	band	#0x0,r1h
    1ef4:	87 00       	add.b	#0x0,r7h
    1ef6:	00 00       	nop	
    1ef8:	75 00       	bxor	#0x0,r0h
    1efa:	40 29       	bra/s	.+40 (0x1f24)
    1efc:	68 00       	mov.b	@er0,r0h
    1efe:	00 00       	nop	
    1f00:	5a 01 9c 00 	jmp	@0x19c00:24
    1f04:	00 04       	.word	H'0,H'4
    1f06:	2d 14       	mov.b	@0x14:8,r5l
    1f08:	69 64       	mov.w	@er6,r4
    1f0a:	00 01       	.word	H'0,H'1
    1f0c:	87 00       	add.b	#0x0,r7h
    1f0e:	00 00       	nop	
    1f10:	e0 02       	and.b	#0x2,r0h
    1f12:	91 5e       	addx	#0x5e,r1h
    1f14:	15 00       	xor.b	r0h,r0h
    1f16:	00 09       	.word	H'0,H'9
    1f18:	99 01       	addx	#0x1,r1l
    1f1a:	87 00       	add.b	#0x0,r7h
    1f1c:	00 00       	nop	
    1f1e:	75 02       	bxor	#0x0,r2h
    1f20:	91 5c       	addx	#0x5c,r1h
    1f22:	14 70       	or.b	r7h,r0h
    1f24:	00 01       	.word	H'0,H'1
    1f26:	87 00       	add.b	#0x0,r7h
    1f28:	00 00       	nop	
    1f2a:	82 02       	add.b	#0x2,r2h
    1f2c:	91 58       	addx	#0x58,r1h
    1f2e:	16 00       	and.b	r0h,r0h
    1f30:	00 06       	.word	H'0,H'6
    1f32:	0b 01       	adds	#1,er1
    1f34:	89 00       	add.b	#0x0,r1l
    1f36:	00 03       	.word	H'0,H'3
    1f38:	d3 02       	xor.b	#0x2,r3h
    1f3a:	91 60       	addx	#0x60,r1h
    1f3c:	00 13       	.word	H'0,H'13
    1f3e:	00 00       	nop	
    1f40:	08 62       	add.b	r6h,r2h
    1f42:	01 7f       	.word	H'1,H'7f
    1f44:	00 00       	nop	
    1f46:	00 75       	.word	H'0,H'75
    1f48:	00 40       	.word	H'0,H'40
    1f4a:	29 26       	mov.b	@0x26:8,r1l
    1f4c:	00 00       	nop	
    1f4e:	00 42       	.word	H'0,H'42
    1f50:	01 9c       	.word	H'1,H'9c
    1f52:	00 00       	nop	
    1f54:	04 61       	orc	#0x61,ccr
    1f56:	14 70       	or.b	r7h,r0h
    1f58:	00 01       	.word	H'0,H'1
    1f5a:	7f 00       	.word	H'7f,H'0
    1f5c:	00 02       	.word	H'0,H'2
    1f5e:	71 02       	bnot	#0x0,r2h
    1f60:	91 5c       	addx	#0x5c,r1h
    1f62:	16 00       	and.b	r0h,r0h
    1f64:	00 06       	.word	H'0,H'6
    1f66:	0b 01       	adds	#1,er1
    1f68:	81 00       	add.b	#0x0,r1h
    1f6a:	00 03       	.word	H'0,H'3
    1f6c:	d3 02       	xor.b	#0x2,r3h
    1f6e:	91 60       	addx	#0x60,r1h
    1f70:	00 13       	.word	H'0,H'13
    1f72:	00 00       	nop	
    1f74:	08 21       	add.b	r2h,r1h
    1f76:	01 77       	.word	H'1,H'77
    1f78:	00 00       	nop	
    1f7a:	02 71       	stc	sbr,er1
    1f7c:	00 40       	.word	H'0,H'40
    1f7e:	28 e8       	mov.b	@0xe8:8,r0l
    1f80:	00 00       	nop	
    1f82:	00 3e       	.word	H'0,H'3e
    1f84:	01 9c       	.word	H'1,H'9c
    1f86:	00 00       	nop	
    1f88:	04 97       	orc	#0x97,ccr
    1f8a:	15 00       	xor.b	r0h,r0h
    1f8c:	00 09       	.word	H'0,H'9
    1f8e:	99 01       	addx	#0x1,r1l
    1f90:	77 00       	bld	#0x0,r0h
    1f92:	00 00       	nop	
    1f94:	75 02       	bxor	#0x0,r2h
    1f96:	91 5e       	addx	#0x5e,r1h
    1f98:	16 00       	and.b	r0h,r0h
    1f9a:	00 06       	.word	H'0,H'6
    1f9c:	0b 01       	adds	#1,er1
    1f9e:	79 00 00 03 	mov.w	#0x3,r0
    1fa2:	d3 02       	xor.b	#0x2,r3h
    1fa4:	91 60       	addx	#0x60,r1h
    1fa6:	00 13       	.word	H'0,H'13
    1fa8:	00 00       	nop	
    1faa:	08 48       	add.b	r4h,r0l
    1fac:	01 6f       	.word	H'1,H'6f
    1fae:	00 00       	nop	
    1fb0:	00 75       	.word	H'0,H'75
    1fb2:	00 40       	.word	H'0,H'40
    1fb4:	28 a6       	mov.b	@0xa6:8,r0l
    1fb6:	00 00       	nop	
    1fb8:	00 42       	.word	H'0,H'42
    1fba:	01 9c       	.word	H'1,H'9c
    1fbc:	00 00       	nop	
    1fbe:	04 cc       	orc	#0xcc,ccr
    1fc0:	14 69       	or.b	r6h,r1l
    1fc2:	64 00       	or.w	r0,r0
    1fc4:	01 6f       	.word	H'1,H'6f
    1fc6:	00 00       	nop	
    1fc8:	00 45       	.word	H'0,H'45
    1fca:	02 91       	.word	H'2,H'91
    1fcc:	5c 16       	.word	H'5c,H'16
    1fce:	00 00       	nop	
    1fd0:	06 0b       	andc	#0xb,ccr
    1fd2:	01 71       	.word	H'1,H'71
    1fd4:	00 00       	nop	
    1fd6:	03 d3       	.word	H'3,H'd3
    1fd8:	02 91       	.word	H'2,H'91
    1fda:	60 00       	bset	r0h,r0h
    1fdc:	13 00       	rotxr.b	r0h
    1fde:	00 08       	.word	H'0,H'8
    1fe0:	3d 01       	mov.b	r5l,@0x1:8
    1fe2:	64 00       	or.w	r0,r0
    1fe4:	00 00       	nop	
    1fe6:	75 00       	bxor	#0x0,r0h
    1fe8:	40 28       	bra	.+40 (0x2012)
    1fea:	58 00 00 00 	bra	.0 (0x1fee)
    1fee:	4e 01       	.word	H'4e,H'1
    1ff0:	9c 00       	addx	#0x0,r4l
    1ff2:	00 05       	.word	H'0,H'5
    1ff4:	10 15       	shll.w	r5
    1ff6:	00 00       	nop	
    1ff8:	00 d6       	.word	H'0,H'd6
    1ffa:	01 64       	.word	H'1,H'64
    1ffc:	00 00       	nop	
    1ffe:	00 f6       	.word	H'0,H'f6
    2000:	02 91       	.word	H'2,H'91
    2002:	5e 15 00 00 	jsr	@0x150000:24
    2006:	00 be       	.word	H'0,H'be
    2008:	01 64       	.word	H'1,H'64
    200a:	00 00       	nop	
    200c:	00 8f       	.word	H'0,H'8f
    200e:	02 91       	.word	H'2,H'91
    2010:	58 16       	.word	H'58,H'16
    2012:	00 00       	nop	
    2014:	06 0b       	andc	#0xb,ccr
    2016:	01 66       	.word	H'1,H'66
    2018:	00 00       	nop	
    201a:	03 d3       	.word	H'3,H'd3
    201c:	02 91       	.word	H'2,H'91
    201e:	60 00       	bset	r0h,r0h
    2020:	13 00       	rotxr.b	r0h
    2022:	00 08       	.word	H'0,H'8
    2024:	5a 01 5a 00 	jmp	@0x15a00:24
    2028:	00 00       	nop	
    202a:	45 00       	bcs	.0 (0x202c)
    202c:	40 27       	bra/s	.+38 (0x2054)
    202e:	f6 00       	mov.b	#0x0,r6h
    2030:	00 00       	nop	
    2032:	62 01       	bclr	r0h,r1h
    2034:	9c 00       	addx	#0x0,r4l
    2036:	00 05       	.word	H'0,H'5
    2038:	60 14       	bset	r1h,r4h
    203a:	69 64       	mov.w	@er6,r4
    203c:	00 01       	.word	H'0,H'1
    203e:	5a 00 00 00 	jmp	@0x0:24
    2042:	e0 02       	and.b	#0x2,r0h
    2044:	91 5e       	addx	#0x5e,r1h
    2046:	15 00       	xor.b	r0h,r0h
    2048:	00 04       	.word	H'0,H'4
    204a:	5a 01 5a 00 	jmp	@0x15a00:24
    204e:	00 02       	.word	H'0,H'2
    2050:	ff 02       	mov.b	#0x2,r7l
    2052:	91 58       	addx	#0x58,r1h
    2054:	14 70       	or.b	r7h,r0h
    2056:	70 00       	bset	#0x0,r0h
    2058:	01 5a       	.word	H'1,H'5a
    205a:	00 00       	nop	
    205c:	00 7c       	.word	H'0,H'7c
    205e:	02 91       	.word	H'2,H'91
    2060:	54 16       	rts/l	er5-er6
    2062:	00 00       	nop	
    2064:	06 0b       	andc	#0xb,ccr
    2066:	01 5c       	.word	H'1,H'5c
    2068:	00 00       	nop	
    206a:	03 d3       	.word	H'3,H'd3
    206c:	02 91       	.word	H'2,H'91
    206e:	60 00       	bset	r0h,r0h
    2070:	13 00       	rotxr.b	r0h
    2072:	00 08       	.word	H'0,H'8
    2074:	2c 01       	mov.b	@0x1:8,r4l
    2076:	50 00       	mulxu.b	r0h,r0
    2078:	00 00       	nop	
    207a:	75 00       	bxor	#0x0,r0h
    207c:	40 27       	bra/s	.+38 (0x20a4)
    207e:	9c 00       	addx	#0x0,r4l
    2080:	00 00       	nop	
    2082:	5a 01 9c 00 	jmp	@0x19c00:24
    2086:	00 05       	.word	H'0,H'5
    2088:	af 14       	cmp.b	#0x14,r7l
    208a:	69 64       	mov.w	@er6,r4
    208c:	00 01       	.word	H'0,H'1
    208e:	50 00       	mulxu.b	r0h,r0
    2090:	00 00       	nop	
    2092:	e0 02       	and.b	#0x2,r0h
    2094:	91 5e       	addx	#0x5e,r1h
    2096:	15 00       	xor.b	r0h,r0h
    2098:	00 09       	.word	H'0,H'9
    209a:	99 01       	addx	#0x1,r1l
    209c:	50 00       	mulxu.b	r0h,r0
    209e:	00 00       	nop	
    20a0:	75 02       	bxor	#0x0,r2h
    20a2:	91 5c       	addx	#0x5c,r1h
    20a4:	14 70       	or.b	r7h,r0h
    20a6:	00 01       	.word	H'0,H'1
    20a8:	50 00       	mulxu.b	r0h,r0
    20aa:	00 00       	nop	
    20ac:	82 02       	add.b	#0x2,r2h
    20ae:	91 58       	addx	#0x58,r1h
    20b0:	16 00       	and.b	r0h,r0h
    20b2:	00 06       	.word	H'0,H'6
    20b4:	0b 01       	adds	#1,er1
    20b6:	52 00       	mulxu.w	r0,er0
    20b8:	00 03       	.word	H'0,H'3
    20ba:	d3 02       	xor.b	#0x2,r3h
    20bc:	91 60       	addx	#0x60,r1h
    20be:	00 13       	.word	H'0,H'13
    20c0:	00 00       	nop	
    20c2:	08 06       	add.b	r0h,r6h
    20c4:	01 48       	.word	H'1,H'48
    20c6:	00 00       	nop	
    20c8:	00 75       	.word	H'0,H'75
    20ca:	00 40       	.word	H'0,H'40
    20cc:	27 5a       	mov.b	@0x5a:8,r7h
    20ce:	00 00       	nop	
    20d0:	00 42       	.word	H'0,H'42
    20d2:	01 9c       	.word	H'1,H'9c
    20d4:	00 00       	nop	
    20d6:	05 e3       	xorc	#0xe3,ccr
    20d8:	14 70       	or.b	r7h,r0h
    20da:	00 01       	.word	H'0,H'1
    20dc:	48 00       	bvc	.0 (0x20de)
    20de:	00 02       	.word	H'0,H'2
    20e0:	71 02       	bnot	#0x0,r2h
    20e2:	91 5c       	addx	#0x5c,r1h
    20e4:	16 00       	and.b	r0h,r0h
    20e6:	00 06       	.word	H'0,H'6
    20e8:	0b 01       	adds	#1,er1
    20ea:	4a 00       	bpl	.0 (0x20ec)
    20ec:	00 03       	.word	H'0,H'3
    20ee:	d3 02       	xor.b	#0x2,r3h
    20f0:	91 60       	addx	#0x60,r1h
    20f2:	00 13       	.word	H'0,H'13
    20f4:	00 00       	nop	
    20f6:	07 f2       	ldc	#0xf2,ccr
    20f8:	01 40       	.word	H'1,H'40
    20fa:	00 00       	nop	
    20fc:	02 71       	stc	sbr,er1
    20fe:	00 40       	.word	H'0,H'40
    2100:	27 1c       	mov.b	@0x1c:8,r7h
    2102:	00 00       	nop	
    2104:	00 3e       	.word	H'0,H'3e
    2106:	01 9c       	.word	H'1,H'9c
    2108:	00 00       	nop	
    210a:	06 19       	andc	#0x19,ccr
    210c:	15 00       	xor.b	r0h,r0h
    210e:	00 09       	.word	H'0,H'9
    2110:	99 01       	addx	#0x1,r1l
    2112:	40 00       	bra	.0 (0x2114)
    2114:	00 00       	nop	
    2116:	75 02       	bxor	#0x0,r2h
    2118:	91 5e       	addx	#0x5e,r1h
    211a:	16 00       	and.b	r0h,r0h
    211c:	00 06       	.word	H'0,H'6
    211e:	0b 01       	adds	#1,er1
    2120:	42 00       	bhi	.0 (0x2122)
    2122:	00 03       	.word	H'0,H'3
    2124:	d3 02       	xor.b	#0x2,r3h
    2126:	91 60       	addx	#0x60,r1h
    2128:	00 13       	.word	H'0,H'13
    212a:	00 00       	nop	
    212c:	07 e1       	ldc	#0xe1,ccr
    212e:	01 38       	.word	H'1,H'38
    2130:	00 00       	nop	
    2132:	00 75       	.word	H'0,H'75
    2134:	00 40       	.word	H'0,H'40
    2136:	26 e0       	mov.b	@0xe0:8,r6h
    2138:	00 00       	nop	
    213a:	00 3c       	.word	H'0,H'3c
    213c:	01 9c       	.word	H'1,H'9c
    213e:	00 00       	nop	
    2140:	06 4f       	andc	#0x4f,ccr
    2142:	15 00       	xor.b	r0h,r0h
    2144:	00 07       	.word	H'0,H'7
    2146:	62 01       	bclr	r0h,r1h
    2148:	38 00       	mov.b	r0l,@0x0:8
    214a:	00 00       	nop	
    214c:	75 02       	bxor	#0x0,r2h
    214e:	91 5e       	addx	#0x5e,r1h
    2150:	16 00       	and.b	r0h,r0h
    2152:	00 06       	.word	H'0,H'6
    2154:	0b 01       	adds	#1,er1
    2156:	3a 00       	mov.b	r2l,@0x0:8
    2158:	00 03       	.word	H'0,H'3
    215a:	d3 02       	xor.b	#0x2,r3h
    215c:	91 60       	addx	#0x60,r1h
    215e:	00 13       	.word	H'0,H'13
    2160:	00 00       	nop	
    2162:	08 34       	add.b	r3h,r4h
    2164:	01 31       	.word	H'1,H'31
    2166:	00 00       	nop	
    2168:	00 45       	.word	H'0,H'45
    216a:	00 40       	.word	H'0,H'40
    216c:	26 ae       	mov.b	@0xae:8,r6h
    216e:	00 00       	nop	
    2170:	00 32       	.word	H'0,H'32
    2172:	01 9c       	.word	H'1,H'9c
    2174:	00 00       	nop	
    2176:	06 77       	andc	#0x77,ccr
    2178:	16 00       	and.b	r0h,r0h
    217a:	00 06       	.word	H'0,H'6
    217c:	0b 01       	adds	#1,er1
    217e:	33 00       	mov.b	r3h,@0x0:8
    2180:	00 03       	.word	H'0,H'3
    2182:	d3 02       	xor.b	#0x2,r3h
    2184:	91 60       	addx	#0x60,r1h
    2186:	00 13       	.word	H'0,H'13
    2188:	00 00       	nop	
    218a:	08 17       	add.b	r1h,r7h
    218c:	01 29       	.word	H'1,H'29
    218e:	00 00       	nop	
    2190:	00 75       	.word	H'0,H'75
    2192:	00 40       	.word	H'0,H'40
    2194:	26 6c       	mov.b	@0x6c:8,r6h
    2196:	00 00       	nop	
    2198:	00 42       	.word	H'0,H'42
    219a:	01 9c       	.word	H'1,H'9c
    219c:	00 00       	nop	
    219e:	06 ac       	andc	#0xac,ccr
    21a0:	14 69       	or.b	r6h,r1l
    21a2:	64 00       	or.w	r0,r0
    21a4:	01 29       	.word	H'1,H'29
    21a6:	00 00       	nop	
    21a8:	00 45       	.word	H'0,H'45
    21aa:	02 91       	.word	H'2,H'91
    21ac:	5c 16       	.word	H'5c,H'16
    21ae:	00 00       	nop	
    21b0:	06 0b       	andc	#0xb,ccr
    21b2:	01 2b       	.word	H'1,H'2b
    21b4:	00 00       	nop	
    21b6:	03 d3       	.word	H'3,H'd3
    21b8:	02 91       	.word	H'2,H'91
    21ba:	60 00       	bset	r0h,r0h
    21bc:	13 00       	rotxr.b	r0h
    21be:	00 07       	.word	H'0,H'7
    21c0:	fd 01       	mov.b	#0x1,r5l
    21c2:	22 00       	mov.b	@0x0:8,r2h
    21c4:	00 00       	nop	
    21c6:	75 00       	bxor	#0x0,r0h
    21c8:	40 26       	bra	.+38 (0x21f0)
    21ca:	3c 00       	mov.b	r4l,@0x0:8
    21cc:	00 00       	nop	
    21ce:	30 01       	mov.b	r0h,@0x1:8
    21d0:	9c 00       	addx	#0x0,r4l
    21d2:	00 06       	.word	H'0,H'6
    21d4:	d4 16       	xor.b	#0x16,r4h
    21d6:	00 00       	nop	
    21d8:	06 0b       	andc	#0xb,ccr
    21da:	01 24       	.word	H'1,H'24
    21dc:	00 00       	nop	
    21de:	03 d3       	.word	H'3,H'd3
    21e0:	02 91       	.word	H'2,H'91
    21e2:	60 00       	bset	r0h,r0h
    21e4:	13 00       	rotxr.b	r0h
    21e6:	00 07       	.word	H'0,H'7
    21e8:	ea 01       	and.b	#0x1,r2l
    21ea:	1b 00       	subs	#1,er0
    21ec:	00 00       	nop	
    21ee:	75 00       	bxor	#0x0,r0h
    21f0:	40 26       	bra	.+38 (0x2218)
    21f2:	0c 00       	mov.b	r0h,r0h
    21f4:	00 00       	nop	
    21f6:	30 01       	mov.b	r0h,@0x1:8
    21f8:	9c 00       	addx	#0x0,r4l
    21fa:	00 06       	.word	H'0,H'6
    21fc:	fc 16       	mov.b	#0x16,r4l
    21fe:	00 00       	nop	
    2200:	06 0b       	andc	#0xb,ccr
    2202:	01 1d       	.word	H'1,H'1d
    2204:	00 00       	nop	
    2206:	03 d3       	.word	H'3,H'd3
    2208:	02 91       	.word	H'2,H'91
    220a:	60 00       	bset	r0h,r0h
    220c:	17 00       	not.b	r0h
    220e:	00 08       	.word	H'0,H'8
    2210:	52 01       	mulxu.w	r0,er1
    2212:	16 00       	and.b	r0h,r0h
    2214:	40 25       	bra/s	.+36 (0x223a)
    2216:	f4 00       	mov.b	#0x0,r4h
    2218:	00 00       	nop	
    221a:	18 01       	sub.b	r0h,r1h
    221c:	9c 18       	addx	#0x18,r4l
    221e:	00 00       	nop	
    2220:	08 10       	add.b	r1h,r0h
    2222:	01 08 00 00 	mov.l	@er0,@er0
    2226:	00 45       	.word	H'0,H'45
    2228:	00 40       	.word	H'0,H'40
    222a:	25 78       	mov.b	@0x78:8,r5h
    222c:	00 00       	nop	
    222e:	00 7c       	.word	H'0,H'7c
    2230:	01 9c       	.word	H'1,H'9c
    2232:	15 00       	xor.b	r0h,r0h
    2234:	00 05       	.word	H'0,H'5
    2236:	44 01       	.word	H'44,H'1
    2238:	08 00       	add.b	r0h,r0h
    223a:	00 00       	nop	
    223c:	50 02       	mulxu.b	r0h,r2
    223e:	91 5c       	addx	#0x5c,r1h
    2240:	15 00       	xor.b	r0h,r0h
    2242:	00 05       	.word	H'0,H'5
    2244:	a4 01       	cmp.b	#0x1,r4h
    2246:	08 00       	add.b	r0h,r0h
    2248:	00 00       	nop	
    224a:	82 02       	add.b	#0x2,r2h
    224c:	91 58       	addx	#0x58,r1h
    224e:	15 00       	xor.b	r0h,r0h
    2250:	00 07       	.word	H'0,H'7
    2252:	62 01       	bclr	r0h,r1h
    2254:	08 00       	add.b	r0h,r0h
    2256:	00 00       	nop	
    2258:	75 02       	bxor	#0x0,r2h
    225a:	91 56       	addx	#0x56,r1h
    225c:	15 00       	xor.b	r0h,r0h
    225e:	00 04       	.word	H'0,H'4
    2260:	d5 01       	xor.b	#0x1,r5h
    2262:	08 00       	add.b	r0h,r0h
    2264:	00 00       	nop	
    2266:	75 02       	bxor	#0x0,r2h
    2268:	91 02       	addx	#0x2,r1h
    226a:	15 00       	xor.b	r0h,r0h
    226c:	00 00       	nop	
    226e:	3b 01       	mov.b	r3l,@0x1:8
    2270:	09 00       	add.w	r0,r0
    2272:	00 00       	nop	
    2274:	75 02       	bxor	#0x0,r2h
    2276:	91 06       	addx	#0x6,r1h
    2278:	15 00       	xor.b	r0h,r0h
    227a:	00 00       	nop	
    227c:	87 01       	add.b	#0x1,r7h
    227e:	09 00       	add.w	r0,r0
    2280:	00 00       	nop	
    2282:	7c 02       	.word	H'7c,H'2
    2284:	91 08       	addx	#0x8,r1h
    2286:	16 00       	and.b	r0h,r0h
    2288:	00 06       	.word	H'0,H'6
    228a:	0b 01       	adds	#1,er1
    228c:	0b 00       	adds	#1,er0
    228e:	00 03       	.word	H'0,H'3
    2290:	d3 02       	xor.b	#0x2,r3h
    2292:	91 60       	addx	#0x60,r1h
	...

00002296 <.Ldebug_info0>:
    2296:	00 00       	nop	
    2298:	02 30       	stmac	macl,er0
    229a:	00 04       	.word	H'0,H'4
    229c:	00 00       	nop	
    229e:	0a 09       	inc	r1l
    22a0:	04 01       	orc	#0x1,ccr
    22a2:	00 00       	nop	
    22a4:	00 65       	.word	H'0,H'65
    22a6:	0c 00       	mov.b	r0h,r0h
    22a8:	00 08       	.word	H'0,H'8
    22aa:	95 00       	addx	#0x0,r5h
    22ac:	00 00       	nop	
    22ae:	51 00       	divxu.b	r0h,r0
    22b0:	40 29       	bra/s	.+40 (0x22da)
    22b2:	c2 00       	or.b	#0x0,r2h
    22b4:	00 02       	.word	H'0,H'2
    22b6:	9c 00       	addx	#0x0,r4l
    22b8:	00 1a       	.word	H'0,H'1a
    22ba:	93 02       	addx	#0x2,r3h
    22bc:	01 08 00 00 	mov.l	@er0,@er0
    22c0:	00 57       	.word	H'0,H'57
    22c2:	02 02       	stc	ccr,r2h
    22c4:	07 00       	ldc	#0x0,ccr
    22c6:	00 00       	nop	
    22c8:	28 02       	mov.b	@0x2:8,r0l
    22ca:	04 07       	orc	#0x7,ccr
    22cc:	00 00       	nop	
    22ce:	00 00       	nop	
    22d0:	03 02       	ldc	r2h,ccr
    22d2:	05 69       	xorc	#0x69,ccr
    22d4:	6e 74 00 04 	mov.b	@(0x4:16,er7),r4h
    22d8:	04 00       	orc	#0x0,ccr
    22da:	00 00       	nop	
    22dc:	47 02       	beq	.+2 (0x22e0)
    22de:	01 08 00 00 	mov.l	@er0,@er0
    22e2:	00 60       	.word	H'0,H'60
    22e4:	02 02       	stc	ccr,r2h
    22e6:	07 00       	ldc	#0x0,ccr
    22e8:	00 00       	nop	
    22ea:	05 05       	xorc	#0x5,ccr
    22ec:	00 00       	nop	
    22ee:	00 12       	.word	H'0,H'12
    22f0:	02 05       	stc	ccr,r5h
    22f2:	00 00       	nop	
    22f4:	00 47       	.word	H'0,H'47
    22f6:	02 02       	stc	ccr,r2h
    22f8:	05 00       	xorc	#0x0,ccr
    22fa:	00 00       	nop	
    22fc:	40 06       	bra	.+6 (0x2304)
    22fe:	04 07       	orc	#0x7,ccr
    2300:	00 00       	nop	
    2302:	08 9e       	add.b	r1l,r6l
    2304:	08 01       	add.b	r0h,r1h
    2306:	0a 00       	inc	r0h
    2308:	00 00       	nop	
    230a:	8e 08       	add.b	#0x8,r6l
    230c:	00 00       	nop	
    230e:	07 bf       	ldc	#0xbf,ccr
    2310:	01 0b       	.word	H'1,H'b
    2312:	00 00       	nop	
    2314:	00 8e       	.word	H'0,H'8e
    2316:	00 08       	.word	H'0,H'8
    2318:	00 00       	nop	
    231a:	09 99       	add.w	e1,e1
    231c:	01 0c       	.word	H'1,H'c
    231e:	00 00       	nop	
    2320:	00 3a       	.word	H'0,H'3a
    2322:	04 00       	orc	#0x0,ccr
    2324:	04 04       	orc	#0x4,ccr
    2326:	00 00       	nop	
    2328:	00 69       	.word	H'0,H'69
    232a:	09 00       	add.w	r0,r0
    232c:	00 08       	.word	H'0,H'8
    232e:	9f 01       	addx	#0x1,r7l
    2330:	0d 00       	mov.w	r0,r0
    2332:	00 00       	nop	
    2334:	69 07       	mov.w	@er0,r7
    2336:	00 00       	nop	
    2338:	08 ab       	add.b	r2l,r3l
    233a:	08 01       	add.b	r0h,r1h
    233c:	10 00       	shll.b	r0h
    233e:	00 00       	nop	
    2340:	d0 08       	xor.b	#0x8,r0h
    2342:	00 00       	nop	
    2344:	09 99       	add.w	e1,e1
    2346:	01 11       	.word	H'1,H'11
    2348:	00 00       	nop	
    234a:	00 3a       	.word	H'0,H'3a
    234c:	00 0a       	.word	H'0,H'a
    234e:	6e 75 6d 00 	mov.b	@(0x6d00:16,er7),r5h
    2352:	01 12       	.word	H'1,H'12
    2354:	00 00       	nop	
    2356:	00 3a       	.word	H'0,H'3a
    2358:	02 08       	stc	ccr,r0l
    235a:	00 00       	nop	
    235c:	08 84       	add.b	r0l,r4h
    235e:	01 13       	.word	H'1,H'13
    2360:	00 00       	nop	
    2362:	00 d0       	.word	H'0,H'd0
    2364:	04 00       	orc	#0x0,ccr
    2366:	04 04       	orc	#0x4,ccr
    2368:	00 00       	nop	
    236a:	00 94       	.word	H'0,H'94
    236c:	09 00       	add.w	r0,r0
    236e:	00 08       	.word	H'0,H'8
    2370:	ac 01       	cmp.b	#0x1,r4l
    2372:	14 00       	or.b	r0h,r0h
    2374:	00 00       	nop	
    2376:	9f 0b       	addx	#0xb,r7l
    2378:	00 00       	nop	
    237a:	00 d6       	.word	H'0,H'd6
    237c:	00 00       	nop	
    237e:	00 f1       	.word	H'0,H'f1
    2380:	0c 00       	mov.b	r0h,r0h
    2382:	00 00       	nop	
    2384:	33 03       	mov.b	r3h,@0x3:8
    2386:	00 0d       	.word	H'0,H'd
    2388:	00 00       	nop	
    238a:	08 b2       	add.b	r3l,r2h
    238c:	01 17       	.word	H'1,H'17
    238e:	00 00       	nop	
    2390:	00 e1       	.word	H'0,H'e1
    2392:	05 03       	xorc	#0x3,ccr
    2394:	00 40       	.word	H'0,H'40
    2396:	41 e8       	brn	.-24 (0x2380)
    2398:	0e 00       	addx	r0h,r0h
    239a:	00 08       	.word	H'0,H'8
    239c:	7e 01       	.word	H'7e,H'1
    239e:	61 00       	bnot	r0h,r0h
    23a0:	40 2b       	bra/s	.+42 (0x23cc)
    23a2:	b8 00       	subx	#0x0,r0l
    23a4:	00 00       	nop	
    23a6:	a6 01       	cmp.b	#0x1,r6h
    23a8:	9c 00       	addx	#0x0,r4l
    23aa:	00 01       	.word	H'0,H'1
    23ac:	4b 0f       	.word	H'4b,H'f
    23ae:	6d 65       	mov.w	@er6+,r5
    23b0:	6d 00       	mov.w	@er0+,r0
    23b2:	01 61       	.word	H'1,H'61
    23b4:	00 00       	nop	
    23b6:	00 67       	.word	H'0,H'67
    23b8:	02 91       	.word	H'2,H'91
    23ba:	68 10       	mov.b	@er1,r0h
    23bc:	69 00       	mov.w	@er0,r0
    23be:	01 63       	.word	H'1,H'63
    23c0:	00 00       	nop	
    23c2:	00 3a       	.word	H'0,H'3a
    23c4:	02 91       	.word	H'2,H'91
    23c6:	76 10       	band	#0x1,r0h
    23c8:	6d 70       	mov.w	@er7+,r0
    23ca:	00 01       	.word	H'0,H'1
    23cc:	64 00       	or.w	r0,r0
    23ce:	00 00       	nop	
    23d0:	d0 02       	xor.b	#0x2,r0h
    23d2:	91 70       	addx	#0x70,r1h
    23d4:	10 70       	shll.l	#2,er0
    23d6:	00 01       	.word	H'0,H'1
    23d8:	65 00       	xor.w	r0,r0
    23da:	00 01       	.word	H'0,H'1
    23dc:	4b 02       	bmi	.+2 (0x23e0)
    23de:	91 6c       	addx	#0x6c,r1h
    23e0:	00 04       	.word	H'0,H'4
    23e2:	04 00       	orc	#0x0,ccr
    23e4:	00 00       	nop	
    23e6:	d6 11       	xor.b	#0x11,r6h
    23e8:	00 00       	nop	
    23ea:	08 89       	add.b	r0l,r1l
    23ec:	01 41       	.word	H'1,H'41
    23ee:	00 00       	nop	
    23f0:	00 67       	.word	H'0,H'67
    23f2:	00 40       	.word	H'0,H'40
    23f4:	2a e4       	mov.b	@0xe4:8,r2l
    23f6:	00 00       	nop	
    23f8:	00 d4       	.word	H'0,H'd4
    23fa:	01 9c       	.word	H'1,H'9c
    23fc:	00 00       	nop	
    23fe:	01 9e       	.word	H'1,H'9e
    2400:	12 00       	rotxl.b	r0h
    2402:	00 09       	.word	H'0,H'9
    2404:	99 01       	addx	#0x1,r1l
    2406:	41 00       	brn	.0 (0x2408)
    2408:	00 00       	nop	
    240a:	3a 02       	mov.b	r2l,@0x2:8
    240c:	91 6a       	addx	#0x6a,r1h
    240e:	10 69       	shll.w	#8,e1
    2410:	00 01       	.word	H'0,H'1
    2412:	43 00       	bls	.0 (0x2414)
    2414:	00 00       	nop	
    2416:	3a 02       	mov.b	r2l,@0x2:8
    2418:	91 76       	addx	#0x76,r1h
    241a:	10 6d       	shll.w	#8,e5
    241c:	70 00       	bset	#0x0,r0h
    241e:	01 44       	.word	H'1,H'44
    2420:	00 00       	nop	
    2422:	00 d0       	.word	H'0,H'd0
    2424:	02 91       	.word	H'2,H'91
    2426:	6c 10       	mov.b	@er1+,r0h
    2428:	70 00       	bset	#0x0,r0h
    242a:	01 45       	.word	H'1,H'45
    242c:	00 00       	nop	
    242e:	01 4b       	.word	H'1,H'4b
    2430:	02 91       	.word	H'2,H'91
    2432:	70 00       	bset	#0x0,r0h
    2434:	11 00       	shlr.b	r0h
    2436:	00 08       	.word	H'0,H'8
    2438:	c7 01       	or.b	#0x1,r7h
    243a:	37 00       	mov.b	r7h,@0x0:8
    243c:	00 00       	nop	
    243e:	3a 00       	mov.b	r2l,@0x0:8
    2440:	40 2a       	bra	.+42 (0x246c)
    2442:	9c 00       	addx	#0x0,r4l
    2444:	00 00       	nop	
    2446:	48 01       	.word	H'48,H'1
    2448:	9c 00       	addx	#0x0,r4l
    244a:	00 01       	.word	H'0,H'1
    244c:	c4 10       	or.b	#0x10,r4h
    244e:	69 00       	mov.w	@er0,r0
    2450:	01 39       	.word	H'1,H'39
    2452:	00 00       	nop	
    2454:	00 3a       	.word	H'0,H'3a
    2456:	02 91       	.word	H'2,H'91
    2458:	76 00       	band	#0x0,r0h
    245a:	13 00       	rotxr.b	r0h
    245c:	00 08       	.word	H'0,H'8
    245e:	b7 01       	subx	#0x1,r7h
    2460:	1e 00       	subx	r0h,r0h
    2462:	00 00       	nop	
    2464:	3a 00       	mov.b	r2l,@0x0:8
    2466:	40 29       	bra/s	.+40 (0x2490)
    2468:	c2 00       	or.b	#0x0,r2h
    246a:	00 00       	nop	
    246c:	da 01       	xor.b	#0x1,r2l
    246e:	9c 00       	addx	#0x0,r4l
    2470:	00 02       	.word	H'0,H'2
    2472:	2d 0f       	mov.b	@0xf:8,r5l
    2474:	70 00       	bset	#0x0,r0h
    2476:	01 1e       	.word	H'1,H'1e
    2478:	00 00       	nop	
    247a:	01 4b       	.word	H'1,H'4b
    247c:	02 91       	.word	H'2,H'91
    247e:	68 10       	mov.b	@er1,r0h
    2480:	69 00       	mov.w	@er0,r0
    2482:	01 20       	.word	H'1,H'20
    2484:	00 00       	nop	
    2486:	00 3a       	.word	H'0,H'3a
    2488:	02 91       	.word	H'2,H'91
    248a:	76 10       	band	#0x1,r0h
    248c:	6d 70       	mov.w	@er7+,r0
    248e:	00 01       	.word	H'0,H'1
    2490:	21 00       	mov.b	@0x0:8,r1h
    2492:	00 00       	nop	
    2494:	d0 02       	xor.b	#0x2,r0h
    2496:	91 70       	addx	#0x70,r1h
    2498:	10 6d       	shll.w	#8,e5
    249a:	70 70       	bset	#0x7,r0h
    249c:	00 01       	.word	H'0,H'1
    249e:	22 00       	mov.b	@0x0:8,r2h
    24a0:	00 02       	.word	H'0,H'2
    24a2:	2d 02       	mov.b	@0x2:8,r5l
    24a4:	91 6c       	addx	#0x6c,r1h
    24a6:	05 00       	xorc	#0x0,ccr
    24a8:	00 08       	.word	H'0,H'8
    24aa:	d2 01       	xor.b	#0x1,r2h
    24ac:	23 00       	mov.b	@0x0:8,r3h
    24ae:	00 00       	nop	
    24b0:	47 0d       	.word	H'47,H'd
    24b2:	00 00       	nop	
    24b4:	08 d6       	add.b	r5l,r6h
    24b6:	01 24       	.word	H'1,H'24
    24b8:	00 00       	nop	
    24ba:	00 41       	.word	H'0,H'41
    24bc:	05 03       	xorc	#0x3,ccr
    24be:	00 40       	.word	H'0,H'40
    24c0:	42 08       	bhi	.+8 (0x24ca)
    24c2:	00 04       	.word	H'0,H'4
    24c4:	04 00       	orc	#0x0,ccr
    24c6:	00 00       	nop	
    24c8:	d0 00       	xor.b	#0x0,r0h

000024ca <.Ldebug_info0>:
    24ca:	00 00       	nop	
    24cc:	01 c3       	.word	H'1,H'c3
    24ce:	00 04       	.word	H'0,H'4
    24d0:	00 00       	nop	
    24d2:	0b 2c       	.word	H'b,H'2c
    24d4:	04 01       	orc	#0x1,ccr
    24d6:	00 00       	nop	
    24d8:	00 65       	.word	H'0,H'65
    24da:	0c 00       	mov.b	r0h,r0h
    24dc:	00 09       	.word	H'0,H'9
    24de:	10 00       	shll.b	r0h
    24e0:	00 00       	nop	
    24e2:	51 00       	divxu.b	r0h,r0
    24e4:	40 2c       	bra	.+44 (0x2512)
    24e6:	5e 00 00 02 	jsr	@0x2:24
    24ea:	2e 00       	mov.b	@0x0:8,r6l
    24ec:	00 1c       	.word	H'0,H'1c
    24ee:	98 02       	addx	#0x2,r0l
    24f0:	01 08 00 00 	mov.l	@er0,@er0
    24f4:	00 57       	.word	H'0,H'57
    24f6:	02 02       	stc	ccr,r2h
    24f8:	07 00       	ldc	#0x0,ccr
    24fa:	00 00       	nop	
    24fc:	28 02       	mov.b	@0x2:8,r0l
    24fe:	04 07       	orc	#0x7,ccr
    2500:	00 00       	nop	
    2502:	00 00       	nop	
    2504:	03 02       	ldc	r2h,ccr
    2506:	05 69       	xorc	#0x69,ccr
    2508:	6e 74 00 04 	mov.b	@(0x4:16,er7),r4h
    250c:	04 00       	orc	#0x0,ccr
    250e:	00 00       	nop	
    2510:	47 04       	beq	.+4 (0x2516)
    2512:	04 00       	orc	#0x0,ccr
    2514:	00 00       	nop	
    2516:	4d 02       	blt	.+2 (0x251a)
    2518:	01 08 00 00 	mov.l	@er0,@er0
    251c:	00 60       	.word	H'0,H'60
    251e:	05 07       	xorc	#0x7,ccr
    2520:	02 00       	stc	ccr,r0h
    2522:	00 00       	nop	
    2524:	8c 02       	add.b	#0x2,r4l
    2526:	10 00       	shll.b	r0h
    2528:	00 00       	nop	
    252a:	8c 06       	add.b	#0x6,r4l
    252c:	00 00       	nop	
    252e:	07 6b       	ldc	#0x6b,ccr
    2530:	00 06       	.word	H'0,H'6
    2532:	00 00       	nop	
    2534:	07 36       	ldc	#0x36,ccr
    2536:	01 06       	.word	H'1,H'6
    2538:	00 00       	nop	
    253a:	04 23       	orc	#0x23,ccr
    253c:	02 06       	stc	ccr,r6h
    253e:	00 00       	nop	
    2540:	04 df       	orc	#0xdf,ccr
    2542:	03 06       	ldc	r6h,ccr
    2544:	00 00       	nop	
    2546:	04 73       	orc	#0x73,ccr
    2548:	04 06       	orc	#0x6,ccr
    254a:	00 00       	nop	
    254c:	06 7e       	andc	#0x7e,ccr
    254e:	05 06       	xorc	#0x6,ccr
    2550:	00 00       	nop	
    2552:	06 e0       	andc	#0xe0,ccr
    2554:	06 00       	andc	#0x0,ccr
    2556:	02 02       	stc	ccr,r2h
    2558:	07 00       	ldc	#0x0,ccr
    255a:	00 00       	nop	
    255c:	05 07       	xorc	#0x7,ccr
    255e:	00 00       	nop	
    2560:	03 f3       	.word	H'3,H'f3
    2562:	02 18       	stc	exr,r0l
    2564:	00 00       	nop	
    2566:	00 54       	.word	H'0,H'54
    2568:	08 00       	add.b	r0h,r0h
    256a:	00 00       	nop	
    256c:	12 03       	rotxl.b	r3h
    256e:	05 00       	xorc	#0x0,ccr
    2570:	00 00       	nop	
    2572:	4d 02       	blt	.+2 (0x2576)
    2574:	02 05       	stc	ccr,r5h
    2576:	00 00       	nop	
    2578:	00 40       	.word	H'0,H'40
    257a:	09 00       	add.w	r0,r0
    257c:	00 09       	.word	H'0,H'9
    257e:	07 04       	ldc	#0x4,ccr
    2580:	04 08       	orc	#0x8,ccr
    2582:	00 00       	nop	
    2584:	00 d4       	.word	H'0,H'd4
    2586:	0a 69       	add.w	#0x6,e1
    2588:	64 00       	or.w	r0,r0
    258a:	04 09       	orc	#0x9,ccr
    258c:	00 00       	nop	
    258e:	00 93       	.word	H'0,H'93
    2590:	00 0b       	.word	H'0,H'b
    2592:	00 00       	nop	
    2594:	02 e2       	.word	H'2,H'e2
    2596:	04 0a       	orc	#0xa,ccr
    2598:	00 00       	nop	
    259a:	00 3a       	.word	H'0,H'3a
    259c:	02 00       	stc	ccr,r0h
    259e:	0c 00       	mov.b	r0h,r0h
    25a0:	00 08       	.word	H'0,H'8
    25a2:	ef 01       	and.b	#0x1,r7l
    25a4:	29 00       	mov.b	@0x0:8,r1l
    25a6:	00 00       	nop	
    25a8:	3a 00       	mov.b	r2l,@0x0:8
    25aa:	40 2d       	bra/s	.+44 (0x25d8)
    25ac:	a8 00       	cmp.b	#0x0,r0l
    25ae:	00 00       	nop	
    25b0:	e4 01       	and.b	#0x1,r4h
    25b2:	9c 00       	addx	#0x0,r4l
    25b4:	00 01       	.word	H'0,H'1
    25b6:	24 0d       	mov.b	@0xd:8,r4h
    25b8:	00 00       	nop	
    25ba:	00 3b       	.word	H'0,H'3b
    25bc:	01 29       	.word	H'1,H'29
    25be:	00 00       	nop	
    25c0:	00 3a       	.word	H'0,H'3a
    25c2:	02 91       	.word	H'2,H'91
    25c4:	6e 0d 00 00 	mov.b	@(0x0:16,er0),r5l
    25c8:	00 87       	.word	H'0,H'87
    25ca:	01 29       	.word	H'1,H'29
    25cc:	00 00       	nop	
    25ce:	00 41       	.word	H'0,H'41
    25d0:	02 91       	.word	H'2,H'91
    25d2:	68 0e       	mov.b	@er0,r6l
    25d4:	70 00       	bset	#0x0,r0h
    25d6:	01 2b       	.word	H'1,H'2b
    25d8:	00 00       	nop	
    25da:	00 47       	.word	H'0,H'47
    25dc:	02 91       	.word	H'2,H'91
    25de:	74 0f       	bor	#0x0,r7l
    25e0:	00 00       	nop	
    25e2:	09 99       	add.w	e1,e1
    25e4:	01 2c       	.word	H'1,H'2c
    25e6:	00 00       	nop	
    25e8:	00 3a       	.word	H'0,H'3a
    25ea:	02 91       	.word	H'2,H'91
    25ec:	72 00       	bclr	#0x0,r0h
    25ee:	10 00       	shll.b	r0h
    25f0:	00 08       	.word	H'0,H'8
    25f2:	db 01       	xor.b	#0x1,r3l
    25f4:	20 00       	mov.b	@0x0:8,r0h
    25f6:	40 2d       	bra/s	.+44 (0x2624)
    25f8:	54 00       	rts/l	er0
    25fa:	00 00       	nop	
    25fc:	54 01       	rts/l	er1
    25fe:	9c 00       	addx	#0x0,r4l
    2600:	00 01       	.word	H'0,H'1
    2602:	56 0d       	.word	H'56,H'd
    2604:	00 00       	nop	
    2606:	02 e2       	.word	H'2,H'e2
    2608:	01 20       	.word	H'1,H'20
    260a:	00 00       	nop	
    260c:	00 3a       	.word	H'0,H'3a
    260e:	02 91       	.word	H'2,H'91
    2610:	72 0e       	bclr	#0x0,r6l
    2612:	72 65       	bclr	#0x6,r5h
    2614:	71 00       	bnot	#0x0,r0h
    2616:	01 22       	.word	H'1,H'22
    2618:	00 00       	nop	
    261a:	01 56       	.word	H'1,H'56
    261c:	02 91       	.word	H'2,H'91
    261e:	74 00       	bor	#0x0,r0h
    2620:	04 04       	orc	#0x4,ccr
    2622:	00 00       	nop	
    2624:	00 b0       	.word	H'0,H'b0
    2626:	10 00       	shll.b	r0h
    2628:	00 08       	.word	H'0,H'8
    262a:	fc 01       	mov.b	#0x1,r4l
    262c:	13 00       	rotxr.b	r0h
    262e:	40 2c       	bra	.+44 (0x265c)
    2630:	c2 00       	or.b	#0x0,r2h
    2632:	00 00       	nop	
    2634:	92 01       	addx	#0x1,r2h
    2636:	9c 00       	addx	#0x0,r4l
    2638:	00 01       	.word	H'0,H'1
    263a:	9a 11       	addx	#0x11,r2l
    263c:	73 74       	btst	#0x7,r4h
    263e:	72 00       	bclr	#0x0,r0h
    2640:	01 13       	.word	H'1,H'13
    2642:	00 00       	nop	
    2644:	00 47       	.word	H'0,H'47
    2646:	02 91       	.word	H'2,H'91
    2648:	6c 0e       	mov.b	@er0+,r6l
    264a:	70 00       	bset	#0x0,r0h
    264c:	01 15       	.word	H'1,H'15
    264e:	00 00       	nop	
    2650:	00 47       	.word	H'0,H'47
    2652:	02 91       	.word	H'2,H'91
    2654:	70 0e       	bset	#0x0,r6l
    2656:	6c 65       	mov.b	@er6+,r5h
    2658:	6e 00 01 16 	mov.b	@(0x116:16,er0),r0h
    265c:	00 00       	nop	
    265e:	00 3a       	.word	H'0,H'3a
    2660:	02 91       	.word	H'2,H'91
    2662:	76 00       	band	#0x0,r0h
    2664:	12 00       	rotxl.b	r0h
    2666:	00 08       	.word	H'0,H'8
    2668:	e6 01       	and.b	#0x1,r6h
    266a:	08 00       	add.b	r0h,r0h
    266c:	40 2c       	bra	.+44 (0x269a)
    266e:	5e 00 00 00 	jsr	@0x0:24
    2672:	64 01       	or.w	r0,r1
    2674:	9c 0d       	addx	#0xd,r4l
    2676:	00 00       	nop	
    2678:	02 48       	.word	H'2,H'48
    267a:	01 08 00 00 	mov.l	@er0,@er0
    267e:	00 3a       	.word	H'0,H'3a
    2680:	02 91       	.word	H'2,H'91
    2682:	72 0e       	bclr	#0x0,r6l
    2684:	70 00       	bset	#0x0,r0h
    2686:	01 0a       	.word	H'1,H'a
    2688:	00 00       	nop	
    268a:	00 47       	.word	H'0,H'47
    268c:	02 91       	.word	H'2,H'91
    268e:	74 00       	bor	#0x0,r0h
	...

00002691 <.Ldebug_info0>:
    2691:	00 00       	nop	
    2693:	01 7d 00 04 	mov.b	#0x4,@er0
    2697:	00 00       	nop	
    2699:	0c 4a       	mov.b	r4h,r2l
    269b:	04 01       	orc	#0x1,ccr
    269d:	00 00       	nop	
    269f:	00 65       	.word	H'0,H'65
    26a1:	0c 00       	mov.b	r0h,r0h
    26a3:	00 09       	.word	H'0,H'9
    26a5:	25 00       	mov.b	@0x0:8,r5h
    26a7:	00 00       	nop	
    26a9:	51 00       	divxu.b	r0h,r0
    26ab:	40 2e       	bra	.+46 (0x26db)
    26ad:	8c 00       	add.b	#0x0,r4l
    26af:	00 01       	.word	H'0,H'1
    26b1:	26 00       	mov.b	@0x0:8,r6h
    26b3:	00 1e       	.word	H'0,H'1e
    26b5:	29 02       	mov.b	@0x2:8,r1l
    26b7:	01 08 00 00 	mov.l	@er0,@er0
    26bb:	00 57       	.word	H'0,H'57
    26bd:	02 02       	stc	ccr,r2h
    26bf:	07 00       	ldc	#0x0,ccr
    26c1:	00 00       	nop	
    26c3:	28 02       	mov.b	@0x2:8,r0l
    26c5:	04 07       	orc	#0x7,ccr
    26c7:	00 00       	nop	
    26c9:	00 00       	nop	
    26cb:	03 02       	ldc	r2h,ccr
    26cd:	05 69       	xorc	#0x69,ccr
    26cf:	6e 74 00 04 	mov.b	@(0x4:16,er7),r4h
    26d3:	04 00       	orc	#0x0,ccr
    26d5:	00 00       	nop	
    26d7:	47 04       	beq	.+4 (0x26dd)
    26d9:	04 00       	orc	#0x0,ccr
    26db:	00 00       	nop	
    26dd:	4d 02       	blt	.+2 (0x26e1)
    26df:	01 08 00 00 	mov.l	@er0,@er0
    26e3:	00 60       	.word	H'0,H'60
    26e5:	05 07       	xorc	#0x7,ccr
    26e7:	02 00       	stc	ccr,r0h
    26e9:	00 00       	nop	
    26eb:	8c 02       	add.b	#0x2,r4l
    26ed:	10 00       	shll.b	r0h
    26ef:	00 00       	nop	
    26f1:	8c 06       	add.b	#0x6,r4l
    26f3:	00 00       	nop	
    26f5:	07 6b       	ldc	#0x6b,ccr
    26f7:	00 06       	.word	H'0,H'6
    26f9:	00 00       	nop	
    26fb:	07 36       	ldc	#0x36,ccr
    26fd:	01 06       	.word	H'1,H'6
    26ff:	00 00       	nop	
    2701:	04 23       	orc	#0x23,ccr
    2703:	02 06       	stc	ccr,r6h
    2705:	00 00       	nop	
    2707:	04 df       	orc	#0xdf,ccr
    2709:	03 06       	ldc	r6h,ccr
    270b:	00 00       	nop	
    270d:	04 73       	orc	#0x73,ccr
    270f:	04 06       	orc	#0x6,ccr
    2711:	00 00       	nop	
    2713:	06 7e       	andc	#0x7e,ccr
    2715:	05 06       	xorc	#0x6,ccr
    2717:	00 00       	nop	
    2719:	06 e0       	andc	#0xe0,ccr
    271b:	06 00       	andc	#0x0,ccr
    271d:	02 02       	stc	ccr,r2h
    271f:	07 00       	ldc	#0x0,ccr
    2721:	00 00       	nop	
    2723:	05 07       	xorc	#0x7,ccr
    2725:	00 00       	nop	
    2727:	03 f3       	.word	H'3,H'f3
    2729:	02 18       	stc	exr,r0l
    272b:	00 00       	nop	
    272d:	00 54       	.word	H'0,H'54
    272f:	08 00       	add.b	r0h,r0h
    2731:	00 00       	nop	
    2733:	12 03       	rotxl.b	r3h
    2735:	05 00       	xorc	#0x0,ccr
    2737:	00 00       	nop	
    2739:	4d 02       	blt	.+2 (0x273d)
    273b:	02 05       	stc	ccr,r5h
    273d:	00 00       	nop	
    273f:	00 40       	.word	H'0,H'40
    2741:	09 00       	add.w	r0,r0
    2743:	00 09       	.word	H'0,H'9
    2745:	07 04       	ldc	#0x4,ccr
    2747:	04 08       	orc	#0x8,ccr
    2749:	00 00       	nop	
    274b:	00 d4       	.word	H'0,H'd4
    274d:	0a 69       	add.w	#0x6,e1
    274f:	64 00       	or.w	r0,r0
    2751:	04 09       	orc	#0x9,ccr
    2753:	00 00       	nop	
    2755:	00 93       	.word	H'0,H'93
    2757:	00 0b       	.word	H'0,H'b
    2759:	00 00       	nop	
    275b:	02 e2       	.word	H'2,H'e2
    275d:	04 0a       	orc	#0xa,ccr
    275f:	00 00       	nop	
    2761:	00 3a       	.word	H'0,H'3a
    2763:	02 00       	stc	ccr,r0h
    2765:	0c 00       	mov.b	r0h,r0h
    2767:	00 09       	.word	H'0,H'9
    2769:	1a 01       	dec.b	r1h
    276b:	1e 00       	subx	r0h,r0h
    276d:	00 00       	nop	
    276f:	3a 00       	mov.b	r2l,@0x0:8
    2771:	40 2f       	bra/s	.+46 (0x27a1)
    2773:	74 00       	bor	#0x0,r0h
    2775:	00 00       	nop	
    2777:	3e 01       	mov.b	r6l,@0x1:8
    2779:	9c 00       	addx	#0x0,r4l
    277b:	00 01       	.word	H'0,H'1
    277d:	0a 0d       	inc	r5l
    277f:	00 00       	nop	
    2781:	00 3b       	.word	H'0,H'3b
    2783:	01 1e       	.word	H'1,H'1e
    2785:	00 00       	nop	
    2787:	00 3a       	.word	H'0,H'3a
    2789:	02 91       	.word	H'2,H'91
    278b:	76 0d       	band	#0x0,r5l
    278d:	00 00       	nop	
    278f:	00 87       	.word	H'0,H'87
    2791:	01 1e       	.word	H'1,H'1e
    2793:	00 00       	nop	
    2795:	00 41       	.word	H'0,H'41
    2797:	02 91       	.word	H'2,H'91
    2799:	70 00       	bset	#0x0,r0h
    279b:	0e 00       	addx	r0h,r0h
    279d:	00 08       	.word	H'0,H'8
    279f:	fc 01       	mov.b	#0x1,r4l
    27a1:	12 00       	rotxl.b	r0h
    27a3:	40 2e       	bra	.+46 (0x27d3)
    27a5:	e2 00       	and.b	#0x0,r2h
    27a7:	00 00       	nop	
    27a9:	92 01       	addx	#0x1,r2h
    27ab:	9c 00       	addx	#0x0,r4l
    27ad:	00 01       	.word	H'0,H'1
    27af:	48 0f       	.word	H'48,H'f
    27b1:	73 74       	btst	#0x7,r4h
    27b3:	72 00       	bclr	#0x0,r0h
    27b5:	01 12       	.word	H'1,H'12
    27b7:	00 00       	nop	
    27b9:	00 47       	.word	H'0,H'47
    27bb:	02 91       	.word	H'2,H'91
    27bd:	6c 10       	mov.b	@er1+,r0h
    27bf:	70 00       	bset	#0x0,r0h
    27c1:	01 14       	.word	H'1,H'14
    27c3:	00 00       	nop	
    27c5:	00 47       	.word	H'0,H'47
    27c7:	02 91       	.word	H'2,H'91
    27c9:	70 10       	bset	#0x1,r0h
    27cb:	6c 65       	mov.b	@er6+,r5h
    27cd:	6e 00 01 15 	mov.b	@(0x115:16,er0),r0h
    27d1:	00 00       	nop	
    27d3:	00 3a       	.word	H'0,H'3a
    27d5:	02 91       	.word	H'2,H'91
    27d7:	76 00       	band	#0x0,r0h
    27d9:	0e 00       	addx	r0h,r0h
    27db:	00 08       	.word	H'0,H'8
    27dd:	db 01       	xor.b	#0x1,r3l
    27df:	08 00       	add.b	r0h,r0h
    27e1:	40 2e       	bra	.+46 (0x2811)
    27e3:	8c 00       	add.b	#0x0,r4l
    27e5:	00 00       	nop	
    27e7:	56 01       	rte/l	er1
    27e9:	9c 00       	addx	#0x0,r4l
    27eb:	00 01       	.word	H'0,H'1
    27ed:	7a 0d 00 00 	mov.l	#0x0,er5
    27f1:	02 e2       	.word	H'2,H'e2
    27f3:	01 08 00 00 	mov.l	@er0,@er0
    27f7:	00 3a       	.word	H'0,H'3a
    27f9:	02 91       	.word	H'2,H'91
    27fb:	72 10       	bclr	#0x1,r0h
    27fd:	72 65       	bclr	#0x6,r5h
    27ff:	71 00       	bnot	#0x0,r0h
    2801:	01 0a       	.word	H'1,H'a
    2803:	00 00       	nop	
    2805:	01 7a       	.word	H'1,H'7a
    2807:	02 91       	.word	H'2,H'91
    2809:	74 00       	bor	#0x0,r0h
    280b:	04 04       	orc	#0x4,ccr
    280d:	00 00       	nop	
    280f:	00 b0       	.word	H'0,H'b0
	...

00002812 <.Ldebug_info0>:
    2812:	00 00       	nop	
    2814:	04 ff       	orc	#0xff,ccr
    2816:	00 04       	.word	H'0,H'4
    2818:	00 00       	nop	
    281a:	0d 43       	mov.w	r4,r3
    281c:	04 01       	orc	#0x1,ccr
    281e:	00 00       	nop	
    2820:	00 65       	.word	H'0,H'65
    2822:	0c 00       	mov.b	r0h,r0h
    2824:	00 0a       	.word	H'0,H'a
    2826:	54 00       	rts/l	er0
    2828:	00 00       	nop	
    282a:	51 00       	divxu.b	r0h,r0
    282c:	40 2f       	bra/s	.+46 (0x285c)
    282e:	b2 00       	subx	#0x0,r2h
    2830:	00 06       	.word	H'0,H'6
    2832:	dc 00       	xor.b	#0x0,r4l
    2834:	00 1f       	.word	H'0,H'1f
    2836:	2a 02       	mov.b	@0x2:8,r2l
    2838:	00 00       	nop	
    283a:	01 9b       	.word	H'1,H'9b
    283c:	02 08       	stc	ccr,r0l
    283e:	00 00       	nop	
    2840:	00 30       	.word	H'0,H'30
    2842:	03 01       	ldc	r1h,ccr
    2844:	08 00       	add.b	r0h,r0h
    2846:	00 00       	nop	
    2848:	57 02       	.word	H'57,H'2
    284a:	00 00       	nop	
    284c:	02 db       	.word	H'2,H'db
    284e:	02 09       	stc	ccr,r1l
    2850:	00 00       	nop	
    2852:	00 42       	.word	H'0,H'42
    2854:	03 02       	ldc	r2h,ccr
    2856:	07 00       	ldc	#0x0,ccr
    2858:	00 00       	nop	
    285a:	28 02       	mov.b	@0x2:8,r0l
    285c:	00 00       	nop	
    285e:	06 c7       	andc	#0xc7,ccr
    2860:	02 0a       	stc	ccr,r2l
    2862:	00 00       	nop	
    2864:	00 54       	.word	H'0,H'54
    2866:	03 04       	ldc	r4h,ccr
    2868:	07 00       	ldc	#0x0,ccr
    286a:	00 00       	nop	
    286c:	00 04       	.word	H'0,H'4
    286e:	02 05       	stc	ccr,r5h
    2870:	69 6e       	mov.w	@er6,e6
    2872:	74 00       	bor	#0x0,r0h
    2874:	05 04       	xorc	#0x4,ccr
    2876:	00 00       	nop	
    2878:	00 68       	.word	H'0,H'68
    287a:	05 04       	xorc	#0x4,ccr
    287c:	00 00       	nop	
    287e:	00 6e       	.word	H'0,H'6e
    2880:	03 01       	ldc	r1h,ccr
    2882:	08 00       	add.b	r0h,r0h
    2884:	00 00       	nop	
    2886:	60 06       	bset	r0h,r6h
    2888:	07 02       	ldc	#0x2,ccr
    288a:	00 00       	nop	
    288c:	00 ad       	.word	H'0,H'ad
    288e:	02 10       	stc	exr,r0h
    2890:	00 00       	nop	
    2892:	00 ad       	.word	H'0,H'ad
    2894:	07 00       	ldc	#0x0,ccr
    2896:	00 07       	.word	H'0,H'7
    2898:	6b 00 07 00 	mov.w	@0x700:16,r0
    289c:	00 07       	.word	H'0,H'7
    289e:	36 01       	mov.b	r6h,@0x1:8
    28a0:	07 00       	ldc	#0x0,ccr
    28a2:	00 04       	.word	H'0,H'4
    28a4:	23 02       	mov.b	@0x2:8,r3h
    28a6:	07 00       	ldc	#0x0,ccr
    28a8:	00 04       	.word	H'0,H'4
    28aa:	df 03       	xor.b	#0x3,r7l
    28ac:	07 00       	ldc	#0x0,ccr
    28ae:	00 04       	.word	H'0,H'4
    28b0:	73 04       	btst	#0x0,r4h
    28b2:	07 00       	ldc	#0x0,ccr
    28b4:	00 06       	.word	H'0,H'6
    28b6:	7e 05       	.word	H'7e,H'5
    28b8:	07 00       	ldc	#0x0,ccr
    28ba:	00 06       	.word	H'0,H'6
    28bc:	e0 06       	and.b	#0x6,r0h
    28be:	00 03       	.word	H'0,H'3
    28c0:	02 07       	stc	ccr,r7h
    28c2:	00 00       	nop	
    28c4:	00 05       	.word	H'0,H'5
    28c6:	08 00       	add.b	r0h,r0h
    28c8:	00 00       	nop	
    28ca:	12 03       	rotxl.b	r3h
    28cc:	05 00       	xorc	#0x0,ccr
    28ce:	00 00       	nop	
    28d0:	6e 03 02 05 	mov.b	@(0x205:16,er0),r3h
    28d4:	00 00       	nop	
    28d6:	00 40       	.word	H'0,H'40
    28d8:	09 04       	add.w	r0,r4
    28da:	0a 00       	inc	r0h
    28dc:	00 09       	.word	H'0,H'9
    28de:	d2 01       	xor.b	#0x1,r2h
    28e0:	07 00       	ldc	#0x0,ccr
    28e2:	00 00       	nop	
    28e4:	49 05       	.word	H'49,H'5
    28e6:	03 00       	ldc	r0h,ccr
    28e8:	40 44       	bra	.+68 (0x292e)
    28ea:	b0 0b       	subx	#0xb,r0h
    28ec:	00 00       	nop	
    28ee:	09 35       	add.w	r3,r5
    28f0:	01 0c       	.word	H'1,H'c
    28f2:	00 00       	nop	
    28f4:	00 49       	.word	H'0,H'49
    28f6:	05 03       	xorc	#0x3,ccr
    28f8:	00 40       	.word	H'0,H'40
    28fa:	42 0c       	bhi	.+12 (0x2908)
    28fc:	0c 00       	mov.b	r0h,r0h
    28fe:	00 09       	.word	H'0,H'9
    2900:	c2 0e       	or.b	#0xe,r2h
    2902:	01 16       	.word	H'1,H'16
    2904:	00 00       	nop	
    2906:	01 1b       	.word	H'1,H'1b
    2908:	0d 00       	mov.w	r0,r0
    290a:	00 09       	.word	H'0,H'9
    290c:	5f 01       	jsr	@@1 (0x1)
    290e:	17 00       	not.b	r0h
    2910:	00 01       	.word	H'0,H'1
    2912:	1b 00       	subs	#1,er0
    2914:	0d 00       	mov.w	r0,r0
    2916:	00 09       	.word	H'0,H'9
    2918:	e5 01       	and.b	#0x1,r5h
    291a:	18 00       	sub.b	r0h,r0h
    291c:	00 01       	.word	H'0,H'1
    291e:	1b 06       	subs	#1,er6
    2920:	0d 00       	mov.w	r0,r0
    2922:	00 00       	nop	
    2924:	d6 01       	xor.b	#0x1,r6h
    2926:	19 00       	sub.w	r0,r0
    2928:	00 00       	nop	
    292a:	37 0c       	mov.b	r7h,@0xc:8
    292c:	00 0e       	.word	H'0,H'e
    292e:	00 00       	nop	
    2930:	00 25       	.word	H'0,H'25
    2932:	00 00       	nop	
    2934:	01 2b       	.word	H'1,H'2b
    2936:	0f 00       	daa	r0h
    2938:	00 00       	nop	
    293a:	54 05       	rts/l	er5
    293c:	00 0c       	.word	H'0,H'c
    293e:	00 00       	nop	
    2940:	0a 2f       	add.w	#0x2,e7
    2942:	1c 01       	cmp.b	r0h,r1h
    2944:	1e 00       	subx	r0h,r0h
    2946:	00 01       	.word	H'0,H'1
    2948:	a4 0d       	cmp.b	#0xd,r4h
    294a:	00 00       	nop	
    294c:	0a 73       	add.w	#0x7,r3
    294e:	01 20       	.word	H'1,H'20
    2950:	00 00       	nop	
    2952:	00 37       	.word	H'0,H'37
    2954:	00 0d       	.word	H'0,H'd
    2956:	00 00       	nop	
    2958:	09 b9       	add.w	e3,e1
    295a:	01 23       	.word	H'1,H'23
    295c:	00 00       	nop	
    295e:	00 37       	.word	H'0,H'37
    2960:	02 0d       	stc	ccr,r5l
    2962:	00 00       	nop	
    2964:	09 8b       	add.w	e0,e3
    2966:	01 25       	.word	H'1,H'25
    2968:	00 00       	nop	
    296a:	00 25       	.word	H'0,H'25
    296c:	04 0d       	orc	#0xd,ccr
    296e:	00 00       	nop	
    2970:	0a 7c       	add.w	#0x7,e4
    2972:	01 27       	.word	H'1,H'27
    2974:	00 00       	nop	
    2976:	00 25       	.word	H'0,H'25
    2978:	05 0d       	xorc	#0xd,ccr
    297a:	00 00       	nop	
    297c:	09 af       	add.w	e2,e7
    297e:	01 29       	.word	H'1,H'29
    2980:	00 00       	nop	
    2982:	00 37       	.word	H'0,H'37
    2984:	06 0d       	andc	#0xd,ccr
    2986:	00 00       	nop	
    2988:	0a 3a       	add.w	#0x3,e2
    298a:	01 2e       	.word	H'1,H'2e
    298c:	00 00       	nop	
    298e:	01 1b       	.word	H'1,H'1b
    2990:	08 0d       	add.b	r0h,r5l
    2992:	00 00       	nop	
    2994:	09 76       	add.w	r7,r6
    2996:	01 30       	.word	H'1,H'30
    2998:	00 00       	nop	
    299a:	01 a4       	.word	H'1,H'a4
    299c:	0e 0d       	addx	r0h,r5l
    299e:	00 00       	nop	
    29a0:	0a 1a       	add.w	#0x1,e2
    29a2:	01 32       	.word	H'1,H'32
    29a4:	00 00       	nop	
    29a6:	01 1b       	.word	H'1,H'1b
    29a8:	12 0d       	rotxl.b	r5l
    29aa:	00 00       	nop	
    29ac:	09 3c       	add.w	r3,e4
    29ae:	01 34       	.word	H'1,H'34
    29b0:	00 00       	nop	
    29b2:	01 a4       	.word	H'1,H'a4
    29b4:	18 00       	sub.b	r0h,r0h
    29b6:	0e 00       	addx	r0h,r0h
    29b8:	00 00       	nop	
    29ba:	25 00       	mov.b	@0x0:8,r5h
    29bc:	00 01       	.word	H'0,H'1
    29be:	b4 0f       	subx	#0xf,r4h
    29c0:	00 00       	nop	
    29c2:	00 54       	.word	H'0,H'54
    29c4:	03 00       	ldc	r0h,ccr
    29c6:	0c 00       	mov.b	r0h,r0h
    29c8:	00 0a       	.word	H'0,H'a
    29ca:	8f 14       	add.b	#0x14,r7l
    29cc:	01 37       	.word	H'1,H'37
    29ce:	00 00       	nop	
    29d0:	02 38       	stmac	macl,er0
    29d2:	0d 00       	mov.w	r0,r0
    29d4:	00 0a       	.word	H'0,H'a
    29d6:	99 01       	addx	#0x1,r1l
    29d8:	39 00       	mov.b	r1l,@0x0:8
    29da:	00 00       	nop	
    29dc:	25 00       	mov.b	@0x0:8,r5h
    29de:	10 74       	shll.l	#2,er4
    29e0:	6f 73 00 01 	mov.w	@(0x1:16,er7),r3
    29e4:	3c 00       	mov.b	r4l,@0x0:8
    29e6:	00 00       	nop	
    29e8:	25 01       	mov.b	@0x1:8,r5h
    29ea:	0d 00       	mov.w	r0,r0
    29ec:	00 09       	.word	H'0,H'9
    29ee:	fa 01       	mov.b	#0x1,r2l
    29f0:	3e 00       	mov.b	r6l,@0x0:8
    29f2:	00 00       	nop	
    29f4:	37 02       	mov.b	r7h,@0x2:8
    29f6:	10 69       	shll.w	#8,e1
    29f8:	64 00       	or.w	r0,r0
    29fa:	01 40       	.word	H'1,H'40
    29fc:	00 00       	nop	
    29fe:	00 37       	.word	H'0,H'37
    2a00:	04 0d       	orc	#0xd,ccr
    2a02:	00 00       	nop	
    2a04:	0a 07       	inc	r7h
    2a06:	01 42       	.word	H'1,H'42
    2a08:	00 00       	nop	
    2a0a:	00 37       	.word	H'0,H'37
    2a0c:	06 10       	andc	#0x10,ccr
    2a0e:	74 74       	bor	#0x7,r4h
    2a10:	6c 00       	mov.b	@er0+,r0h
    2a12:	01 44       	.word	H'1,H'44
    2a14:	00 00       	nop	
    2a16:	00 25       	.word	H'0,H'25
    2a18:	08 0d       	add.b	r0h,r5l
    2a1a:	00 00       	nop	
    2a1c:	09 b9       	add.w	e3,e1
    2a1e:	01 46       	.word	H'1,H'46
    2a20:	00 00       	nop	
    2a22:	00 25       	.word	H'0,H'25
    2a24:	09 0d       	add.w	r0,e5
    2a26:	00 00       	nop	
    2a28:	09 6d       	add.w	r6,e5
    2a2a:	01 4b       	.word	H'1,H'4b
    2a2c:	00 00       	nop	
    2a2e:	00 37       	.word	H'0,H'37
    2a30:	0a 0d       	inc	r5l
    2a32:	00 00       	nop	
    2a34:	09 e5       	add.w	e6,r5
    2a36:	01 4d       	.word	H'1,H'4d
    2a38:	00 00       	nop	
    2a3a:	01 a4       	.word	H'1,H'a4
    2a3c:	0c 0d       	mov.b	r0h,r5l
    2a3e:	00 00       	nop	
    2a40:	09 5f       	add.w	r5,e7
    2a42:	01 4f       	.word	H'1,H'4f
    2a44:	00 00       	nop	
    2a46:	01 a4       	.word	H'1,H'a4
    2a48:	10 00       	shll.b	r0h
    2a4a:	0c 00       	mov.b	r0h,r0h
    2a4c:	00 09       	.word	H'0,H'9
    2a4e:	ee 04       	and.b	#0x4,r6l
    2a50:	01 52       	.word	H'1,H'52
    2a52:	00 00       	nop	
    2a54:	02 69       	stc	vbr,er1
    2a56:	0d 00       	mov.w	r0,r0
    2a58:	00 00       	nop	
    2a5a:	d6 01       	xor.b	#0x1,r6h
    2a5c:	54 00       	rts/l	er0
    2a5e:	00 00       	nop	
    2a60:	25 00       	mov.b	@0x0:8,r5h
    2a62:	0d 00       	mov.w	r0,r0
    2a64:	00 0a       	.word	H'0,H'a
    2a66:	4f 01       	.word	H'4f,H'1
    2a68:	58 00 00 00 	bra	.0 (0x2a6c)
    2a6c:	25 01       	mov.b	@0x1:8,r5h
    2a6e:	0d 00       	mov.w	r0,r0
    2a70:	00 09       	.word	H'0,H'9
    2a72:	6d 01       	mov.w	@er0+,r1
    2a74:	59 00       	jmp	@er0
    2a76:	00 00       	nop	
    2a78:	37 02       	mov.b	r7h,@0x2:8
    2a7a:	00 11       	.word	H'0,H'11
    2a7c:	00 00       	nop	
    2a7e:	09 2d       	add.w	r2,e5
    2a80:	01 01       	.word	H'1,H'1
    2a82:	1c 00       	cmp.b	r0h,r0h
    2a84:	00 00       	nop	
    2a86:	5b 00       	jmp	@@0 (0x0)
    2a88:	40 36       	bra	.+54 (0x2ac0)
    2a8a:	00 00       	nop	
    2a8c:	00 00       	nop	
    2a8e:	8e 01       	add.b	#0x1,r6l
    2a90:	9c 00       	addx	#0x0,r4l
    2a92:	00 02       	.word	H'0,H'2
    2a94:	be 12       	subx	#0x12,r6l
    2a96:	00 00       	nop	
    2a98:	00 3b       	.word	H'0,H'3b
    2a9a:	01 01       	.word	H'1,H'1
    2a9c:	1c 00       	cmp.b	r0h,r0h
    2a9e:	00 00       	nop	
    2aa0:	5b 02       	jmp	@@2 (0x2)
    2aa2:	91 6e       	addx	#0x6e,r1h
    2aa4:	12 00       	rotxl.b	r0h
    2aa6:	00 00       	nop	
    2aa8:	87 01       	add.b	#0x1,r7h
    2aaa:	01 1c       	.word	H'1,H'1c
    2aac:	00 00       	nop	
    2aae:	00 62       	.word	H'0,H'62
    2ab0:	02 91       	.word	H'2,H'91
    2ab2:	68 13       	mov.b	@er1,r3h
    2ab4:	70 00       	bset	#0x0,r0h
    2ab6:	01 01       	.word	H'1,H'1
    2ab8:	1e 00       	subx	r0h,r0h
    2aba:	00 00       	nop	
    2abc:	68 02       	mov.b	@er0,r2h
    2abe:	91 74       	addx	#0x74,r1h
    2ac0:	14 00       	or.b	r0h,r0h
    2ac2:	00 09       	.word	H'0,H'9
    2ac4:	99 01       	addx	#0x1,r1l
    2ac6:	01 1f       	.word	H'1,H'1f
    2ac8:	00 00       	nop	
    2aca:	00 5b       	.word	H'0,H'5b
    2acc:	02 91       	.word	H'2,H'91
    2ace:	72 00       	bclr	#0x0,r0h
    2ad0:	15 00       	xor.b	r0h,r0h
    2ad2:	00 0a       	.word	H'0,H'a
    2ad4:	59 01       	.word	H'59,H'1
    2ad6:	01 11       	.word	H'1,H'11
    2ad8:	00 40       	.word	H'0,H'40
    2ada:	35 86       	mov.b	r5h,@0x86:8
    2adc:	00 00       	nop	
    2ade:	00 7a       	.word	H'0,H'7a
    2ae0:	01 9c       	.word	H'1,H'9c
    2ae2:	00 00       	nop	
    2ae4:	03 00       	ldc	r0h,ccr
    2ae6:	12 00       	rotxl.b	r0h
    2ae8:	00 09       	.word	H'0,H'9
    2aea:	99 01       	addx	#0x1,r1l
    2aec:	01 11       	.word	H'1,H'11
    2aee:	00 00       	nop	
    2af0:	00 5b       	.word	H'0,H'5b
    2af2:	02 91       	.word	H'2,H'91
    2af4:	72 16       	bclr	#0x1,r6h
    2af6:	62 75       	bclr	r7h,r5h
    2af8:	66 00       	and.w	r0,r0
    2afa:	01 01       	.word	H'1,H'1
    2afc:	11 00       	shlr.b	r0h
    2afe:	00 00       	nop	
    2b00:	68 02       	mov.b	@er0,r2h
    2b02:	91 6c       	addx	#0x6c,r1h
    2b04:	13 70       	rotxr.l	#2,er0
    2b06:	00 01       	.word	H'0,H'1
    2b08:	01 13       	.word	H'1,H'13
    2b0a:	00 00       	nop	
    2b0c:	00 68       	.word	H'0,H'68
    2b0e:	02 91       	.word	H'2,H'91
    2b10:	74 00       	bor	#0x0,r0h
    2b12:	15 00       	xor.b	r0h,r0h
    2b14:	00 08       	.word	H'0,H'8
    2b16:	e6 01       	and.b	#0x1,r6h
    2b18:	01 07       	.word	H'1,H'7
    2b1a:	00 40       	.word	H'0,H'40
    2b1c:	35 4a       	mov.b	r5h,@0x4a:8
    2b1e:	00 00       	nop	
    2b20:	00 3c       	.word	H'0,H'3c
    2b22:	01 9c       	.word	H'1,H'9c
    2b24:	00 00       	nop	
    2b26:	03 24       	ldmac	er4,mach
    2b28:	13 70       	rotxr.l	#2,er0
    2b2a:	00 01       	.word	H'0,H'1
    2b2c:	01 09       	.word	H'1,H'9
    2b2e:	00 00       	nop	
    2b30:	00 68       	.word	H'0,H'68
    2b32:	02 91       	.word	H'2,H'91
    2b34:	74 00       	bor	#0x0,r0h
    2b36:	17 00       	not.b	r0h
    2b38:	00 09       	.word	H'0,H'9
    2b3a:	51 01       	divxu.b	r0h,r1
    2b3c:	df 00       	xor.b	#0x0,r7l
    2b3e:	00 00       	nop	
    2b40:	5b 00       	jmp	@@0 (0x0)
    2b42:	40 34       	bra	.+52 (0x2b78)
    2b44:	34 00       	mov.b	r4h,@0x0:8
    2b46:	00 01       	.word	H'0,H'1
    2b48:	16 01       	and.b	r0h,r1h
    2b4a:	9c 00       	addx	#0x0,r4l
    2b4c:	00 03       	.word	H'0,H'3
    2b4e:	84 18       	add.b	#0x18,r4h
    2b50:	00 00       	nop	
    2b52:	09 99       	add.w	e1,e1
    2b54:	01 df       	.word	H'1,H'df
    2b56:	00 00       	nop	
    2b58:	00 5b       	.word	H'0,H'5b
    2b5a:	02 91       	.word	H'2,H'91
    2b5c:	6e 19 68 64 	mov.b	@(0x6864:16,er1),r1l
    2b60:	72 00       	bclr	#0x0,r0h
    2b62:	01 df       	.word	H'1,H'df
    2b64:	00 00       	nop	
    2b66:	03 84       	.word	H'3,H'84
    2b68:	02 91       	.word	H'2,H'91
    2b6a:	68 1a       	mov.b	@er1,r2l
    2b6c:	72 65       	bclr	#0x6,r5h
    2b6e:	74 00       	bor	#0x0,r0h
    2b70:	01 e1       	.word	H'1,H'e1
    2b72:	00 00       	nop	
    2b74:	00 5b       	.word	H'0,H'5b
    2b76:	02 91       	.word	H'2,H'91
    2b78:	76 0b       	band	#0x0,r3l
    2b7a:	00 00       	nop	
    2b7c:	09 a6       	add.w	e2,r6
    2b7e:	01 e1       	.word	H'1,H'e1
    2b80:	00 00       	nop	
    2b82:	00 5b       	.word	H'0,H'5b
    2b84:	02 91       	.word	H'2,H'91
    2b86:	74 0b       	bor	#0x0,r3l
    2b88:	00 00       	nop	
    2b8a:	09 9e       	add.w	e1,e6
    2b8c:	01 e2       	.word	H'1,H'e2
    2b8e:	00 00       	nop	
    2b90:	00 c6       	.word	H'0,H'c6
    2b92:	02 91       	.word	H'2,H'91
    2b94:	70 00       	bset	#0x0,r0h
    2b96:	05 04       	xorc	#0x4,ccr
    2b98:	00 00       	nop	
    2b9a:	00 ea       	.word	H'0,H'ea
    2b9c:	17 00       	not.b	r0h
    2b9e:	00 0a       	.word	H'0,H'a
    2ba0:	6a 01 b7 00 	mov.b	@0xb700:16,r1h
    2ba4:	00 00       	nop	
    2ba6:	5b 00       	jmp	@@0 (0x0)
    2ba8:	40 32       	bra	.+50 (0x2bdc)
    2baa:	98 00       	addx	#0x0,r0l
    2bac:	00 01       	.word	H'0,H'1
    2bae:	9c 01       	addx	#0x1,r4l
    2bb0:	9c 00       	addx	#0x0,r4l
    2bb2:	00 03       	.word	H'0,H'3
    2bb4:	ce 18       	or.b	#0x18,r6l
    2bb6:	00 00       	nop	
    2bb8:	09 99       	add.w	e1,e1
    2bba:	01 b7       	.word	H'1,H'b7
    2bbc:	00 00       	nop	
    2bbe:	00 5b       	.word	H'0,H'5b
    2bc0:	02 91       	.word	H'2,H'91
    2bc2:	72 19       	bclr	#0x1,r1l
    2bc4:	68 64       	mov.b	@er6,r4h
    2bc6:	72 00       	bclr	#0x0,r0h
    2bc8:	01 b7       	.word	H'1,H'b7
    2bca:	00 00       	nop	
    2bcc:	03 ce       	.word	H'3,H'ce
    2bce:	02 91       	.word	H'2,H'91
    2bd0:	6c 1a       	mov.b	@er1+,r2l
    2bd2:	72 65       	bclr	#0x6,r5h
    2bd4:	74 00       	bor	#0x0,r0h
    2bd6:	01 b9       	.word	H'1,H'b9
    2bd8:	00 00       	nop	
    2bda:	00 5b       	.word	H'0,H'5b
    2bdc:	02 91       	.word	H'2,H'91
    2bde:	76 00       	band	#0x0,r0h
    2be0:	05 04       	xorc	#0x4,ccr
    2be2:	00 00       	nop	
    2be4:	01 2b       	.word	H'1,H'2b
    2be6:	17 00       	not.b	r0h
    2be8:	00 09       	.word	H'0,H'9
    2bea:	dd 01       	xor.b	#0x1,r5l
    2bec:	89 00       	add.b	#0x0,r1l
    2bee:	00 00       	nop	
    2bf0:	5b 00       	jmp	@@0 (0x0)
    2bf2:	40 31       	bra/s	.+48 (0x2c24)
    2bf4:	0e 00       	addx	r0h,r0h
    2bf6:	00 01       	.word	H'0,H'1
    2bf8:	8a 01       	add.b	#0x1,r2l
    2bfa:	9c 00       	addx	#0x0,r4l
    2bfc:	00 04       	.word	H'0,H'4
    2bfe:	42 18       	bhi	.+24 (0x2c18)
    2c00:	00 00       	nop	
    2c02:	09 99       	add.w	e1,e1
    2c04:	01 89       	.word	H'1,H'89
    2c06:	00 00       	nop	
    2c08:	00 5b       	.word	H'0,H'5b
    2c0a:	02 91       	.word	H'2,H'91
    2c0c:	6a 19       	.word	H'6a,H'19
    2c0e:	68 64       	mov.b	@er6,r4h
    2c10:	72 00       	bclr	#0x0,r0h
    2c12:	01 89       	.word	H'1,H'89
    2c14:	00 00       	nop	
    2c16:	04 42       	orc	#0x42,ccr
    2c18:	02 91       	.word	H'2,H'91
    2c1a:	64 1a       	or.w	r1,e2
    2c1c:	72 65       	bclr	#0x6,r5h
    2c1e:	74 00       	bor	#0x0,r0h
    2c20:	01 8b       	.word	H'1,H'8b
    2c22:	00 00       	nop	
    2c24:	00 5b       	.word	H'0,H'5b
    2c26:	02 91       	.word	H'2,H'91
    2c28:	76 0b       	band	#0x0,r3l
    2c2a:	00 00       	nop	
    2c2c:	0a 63       	add.w	#0x6,r3
    2c2e:	01 8b       	.word	H'1,H'8b
    2c30:	00 00       	nop	
    2c32:	00 5b       	.word	H'0,H'5b
    2c34:	02 91       	.word	H'2,H'91
    2c36:	74 0b       	bor	#0x0,r3l
    2c38:	00 00       	nop	
    2c3a:	09 a6       	add.w	e2,r6
    2c3c:	01 8b       	.word	H'1,H'8b
    2c3e:	00 00       	nop	
    2c40:	00 5b       	.word	H'0,H'5b
    2c42:	02 91       	.word	H'2,H'91
    2c44:	72 0b       	bclr	#0x0,r3l
    2c46:	00 00       	nop	
    2c48:	09 9e       	add.w	e1,e6
    2c4a:	01 8c       	.word	H'1,H'8c
    2c4c:	00 00       	nop	
    2c4e:	00 c6       	.word	H'0,H'c6
    2c50:	02 91       	.word	H'2,H'91
    2c52:	6c 00       	mov.b	@er0+,r0h
    2c54:	05 04       	xorc	#0x4,ccr
    2c56:	00 00       	nop	
    2c58:	01 b4       	.word	H'1,H'b4
    2c5a:	17 00       	not.b	r0h
    2c5c:	00 0a       	.word	H'0,H'a
    2c5e:	10 01       	shll.b	r1h
    2c60:	76 00       	band	#0x0,r0h
    2c62:	00 00       	nop	
    2c64:	5b 00       	jmp	@@0 (0x0)
    2c66:	40 30       	bra	.+48 (0x2c98)
    2c68:	90 00       	addx	#0x0,r0h
    2c6a:	00 00       	nop	
    2c6c:	7e 01       	.word	H'7e,H'1
    2c6e:	9c 00       	addx	#0x0,r4l
    2c70:	00 04       	.word	H'0,H'4
    2c72:	8c 18       	add.b	#0x18,r4l
    2c74:	00 00       	nop	
    2c76:	09 99       	add.w	e1,e1
    2c78:	01 76       	.word	H'1,H'76
    2c7a:	00 00       	nop	
    2c7c:	00 5b       	.word	H'0,H'5b
    2c7e:	02 91       	.word	H'2,H'91
    2c80:	72 19       	bclr	#0x1,r1l
    2c82:	68 64       	mov.b	@er6,r4h
    2c84:	72 00       	bclr	#0x0,r0h
    2c86:	01 76       	.word	H'1,H'76
    2c88:	00 00       	nop	
    2c8a:	04 8c       	orc	#0x8c,ccr
    2c8c:	02 91       	.word	H'2,H'91
    2c8e:	6c 1a       	mov.b	@er1+,r2l
    2c90:	72 65       	bclr	#0x6,r5h
    2c92:	74 00       	bor	#0x0,r0h
    2c94:	01 78 00 00 	mov.b	@er0,@er0
    2c98:	00 5b       	.word	H'0,H'5b
    2c9a:	02 91       	.word	H'2,H'91
    2c9c:	76 00       	band	#0x0,r0h
    2c9e:	05 04       	xorc	#0x4,ccr
    2ca0:	00 00       	nop	
    2ca2:	02 38       	stmac	macl,er0
    2ca4:	1b 00       	subs	#1,er0
    2ca6:	00 09       	.word	H'0,H'9
    2ca8:	68 01       	mov.b	@er0,r1h
    2caa:	5f 00       	jsr	@@0 (0x0)
    2cac:	00 00       	nop	
    2cae:	37 00       	mov.b	r7h,@0x0:8
    2cb0:	40 2f       	bra/s	.+46 (0x2ce0)
    2cb2:	b2 00       	subx	#0x0,r2h
    2cb4:	00 00       	nop	
    2cb6:	de 01       	xor.b	#0x1,r6l
    2cb8:	9c 00       	addx	#0x0,r4l
    2cba:	00 04       	.word	H'0,H'4
    2cbc:	fc 18       	mov.b	#0x18,r4l
    2cbe:	00 00       	nop	
    2cc0:	09 99       	add.w	e1,e1
    2cc2:	01 5f       	.word	H'1,H'5f
    2cc4:	00 00       	nop	
    2cc6:	00 5b       	.word	H'0,H'5b
    2cc8:	02 91       	.word	H'2,H'91
    2cca:	6a 19       	.word	H'6a,H'19
    2ccc:	62 75       	bclr	r7h,r5h
    2cce:	66 00       	and.w	r0,r0
    2cd0:	01 5f       	.word	H'1,H'5f
    2cd2:	00 00       	nop	
    2cd4:	00 c6       	.word	H'0,H'c6
    2cd6:	02 91       	.word	H'2,H'91
    2cd8:	64 1a       	or.w	r1,e2
    2cda:	69 00       	mov.w	@er0,r0
    2cdc:	01 61       	.word	H'1,H'61
    2cde:	00 00       	nop	
    2ce0:	00 5b       	.word	H'0,H'5b
    2ce2:	02 91       	.word	H'2,H'91
    2ce4:	76 1a       	band	#0x1,r2l
    2ce6:	76 61       	band	#0x6,r1h
    2ce8:	6c 00       	mov.b	@er0+,r0h
    2cea:	01 62       	.word	H'1,H'62
    2cec:	00 00       	nop	
    2cee:	00 37       	.word	H'0,H'37
    2cf0:	02 91       	.word	H'2,H'91
    2cf2:	74 1a       	bor	#0x1,r2l
    2cf4:	73 75       	btst	#0x7,r5h
    2cf6:	6d 00       	mov.w	@er0+,r0
    2cf8:	01 63       	.word	H'1,H'63
    2cfa:	00 00       	nop	
    2cfc:	00 49       	.word	H'0,H'49
    2cfe:	02 91       	.word	H'2,H'91
    2d00:	70 1a       	bset	#0x1,r2l
    2d02:	70 00       	bset	#0x0,r0h
    2d04:	01 64       	.word	H'1,H'64
    2d06:	00 00       	nop	
    2d08:	04 fc       	orc	#0xfc,ccr
    2d0a:	02 91       	.word	H'2,H'91
    2d0c:	6c 00       	mov.b	@er0+,r0h
    2d0e:	05 04       	xorc	#0x4,ccr
    2d10:	00 00       	nop	
    2d12:	00 37       	.word	H'0,H'37
	...

00002d15 <.Ldebug_info0>:
    2d15:	00 00       	nop	
    2d17:	03 1d       	ldc	r5l,exr
    2d19:	00 04       	.word	H'0,H'4
    2d1b:	00 00       	nop	
    2d1d:	0e e5       	addx	r6l,r5h
    2d1f:	04 01       	orc	#0x1,ccr
    2d21:	00 00       	nop	
    2d23:	00 65       	.word	H'0,H'65
    2d25:	0c 00       	mov.b	r0h,r0h
    2d27:	00 0b       	.word	H'0,H'b
    2d29:	0a 00       	inc	r0h
    2d2b:	00 00       	nop	
    2d2d:	51 00       	divxu.b	r0h,r0
    2d2f:	40 36       	bra	.+54 (0x2d67)
    2d31:	8e 00       	add.b	#0x0,r6l
    2d33:	00 05       	.word	H'0,H'5
    2d35:	8c 00       	add.b	#0x0,r4l
    2d37:	00 23       	.word	H'0,H'23
    2d39:	22 02       	mov.b	@0x2:8,r2h
    2d3b:	01 08 00 00 	mov.l	@er0,@er0
    2d3f:	00 57       	.word	H'0,H'57
    2d41:	02 02       	stc	ccr,r2h
    2d43:	07 00       	ldc	#0x0,ccr
    2d45:	00 00       	nop	
    2d47:	28 03       	mov.b	@0x3:8,r0l
    2d49:	00 00       	nop	
    2d4b:	06 c7       	andc	#0xc7,ccr
    2d4d:	02 0a       	stc	ccr,r2l
    2d4f:	00 00       	nop	
    2d51:	00 3e       	.word	H'0,H'3e
    2d53:	02 04       	stc	ccr,r4h
    2d55:	07 00       	ldc	#0x0,ccr
    2d57:	00 00       	nop	
    2d59:	00 03       	.word	H'0,H'3
    2d5b:	00 00       	nop	
    2d5d:	05 95       	xorc	#0x95,ccr
    2d5f:	02 0c       	stc	ccr,r4l
    2d61:	00 00       	nop	
    2d63:	00 33       	.word	H'0,H'33
    2d65:	04 02       	orc	#0x2,ccr
    2d67:	05 69       	xorc	#0x69,ccr
    2d69:	6e 74 00 05 	mov.b	@(0x5:16,er7),r4h
    2d6d:	04 00       	orc	#0x0,ccr
    2d6f:	00 00       	nop	
    2d71:	5d 05       	bsr	r0l.b
    2d73:	04 00       	orc	#0x0,ccr
    2d75:	00 00       	nop	
    2d77:	63 02       	btst	r0h,r2h
    2d79:	01 08 00 00 	mov.l	@er0,@er0
    2d7d:	00 60       	.word	H'0,H'60
    2d7f:	06 07       	andc	#0x7,ccr
    2d81:	02 00       	stc	ccr,r0h
    2d83:	00 00       	nop	
    2d85:	a2 02       	cmp.b	#0x2,r2h
    2d87:	10 00       	shll.b	r0h
    2d89:	00 00       	nop	
    2d8b:	a2 07       	cmp.b	#0x7,r2h
    2d8d:	00 00       	nop	
    2d8f:	07 6b       	ldc	#0x6b,ccr
    2d91:	00 07       	.word	H'0,H'7
    2d93:	00 00       	nop	
    2d95:	07 36       	ldc	#0x36,ccr
    2d97:	01 07       	.word	H'1,H'7
    2d99:	00 00       	nop	
    2d9b:	04 23       	orc	#0x23,ccr
    2d9d:	02 07       	stc	ccr,r7h
    2d9f:	00 00       	nop	
    2da1:	04 df       	orc	#0xdf,ccr
    2da3:	03 07       	ldc	r7h,ccr
    2da5:	00 00       	nop	
    2da7:	04 73       	orc	#0x73,ccr
    2da9:	04 07       	orc	#0x7,ccr
    2dab:	00 00       	nop	
    2dad:	06 7e       	andc	#0x7e,ccr
    2daf:	05 07       	xorc	#0x7,ccr
    2db1:	00 00       	nop	
    2db3:	06 e0       	andc	#0xe0,ccr
    2db5:	06 00       	andc	#0x0,ccr
    2db7:	02 02       	stc	ccr,r2h
    2db9:	07 00       	ldc	#0x0,ccr
    2dbb:	00 00       	nop	
    2dbd:	05 08       	xorc	#0x8,ccr
    2dbf:	00 00       	nop	
    2dc1:	00 12       	.word	H'0,H'12
    2dc3:	03 05       	ldc	r5h,ccr
    2dc5:	00 00       	nop	
    2dc7:	00 63       	.word	H'0,H'63
    2dc9:	02 02       	stc	ccr,r2h
    2dcb:	05 00       	xorc	#0x0,ccr
    2dcd:	00 00       	nop	
    2dcf:	40 09       	bra/s	.+8 (0x2dd9)
    2dd1:	00 00       	nop	
    2dd3:	0b 2a       	.word	H'b,H'2a
    2dd5:	20 01       	mov.b	@0x1:8,r0h
    2dd7:	0b 00       	adds	#1,er0
    2dd9:	00 01       	.word	H'0,H'1
    2ddb:	1b 0a       	subs	#1,er2
    2ddd:	69 64       	mov.w	@er6,r4
    2ddf:	00 01       	.word	H'0,H'1
    2de1:	0c 00       	mov.b	r0h,r0h
    2de3:	00 00       	nop	
    2de5:	45 00       	bcs	.0 (0x2de7)
    2de7:	0b 00       	adds	#1,er0
    2de9:	00 02       	.word	H'0,H'2
    2deb:	48 01       	.word	H'48,H'1
    2ded:	0d 00       	mov.w	r0,r0
    2def:	00 00       	nop	
    2df1:	50 04       	mulxu.b	r0h,r4
    2df3:	0b 00       	adds	#1,er0
    2df5:	00 0b       	.word	H'0,H'b
    2df7:	21 01       	mov.b	@0x1:8,r1h
    2df9:	0f 00       	daa	r0h
    2dfb:	00 00       	nop	
    2dfd:	5d 08 0b 00 	jsr	@0xb00000a:32
    2e01:	00 0a 
    2e03:	ef 01       	and.b	#0x1,r7l
    2e05:	10 00       	shll.b	r0h
    2e07:	00 00       	nop	
    2e09:	5d 0c       	jsr	@@560 (0x230)
    2e0b:	0b 00       	adds	#1,er0
    2e0d:	00 0a       	.word	H'0,H'a
    2e0f:	f8 01       	mov.b	#0x1,r0l
    2e11:	11 00       	shlr.b	r0h
    2e13:	00 00       	nop	
    2e15:	50 10       	mulxu.b	r1h,r0
    2e17:	0b 00       	adds	#1,er0
    2e19:	00 0b       	.word	H'0,H'b
    2e1b:	01 01       	.word	H'1,H'1
    2e1d:	12 00       	rotxl.b	r0h
    2e1f:	00 00       	nop	
    2e21:	50 12       	mulxu.b	r1h,r2
    2e23:	0b 00       	adds	#1,er0
    2e25:	00 05       	.word	H'0,H'5
    2e27:	82 01       	add.b	#0x1,r2h
    2e29:	15 00       	xor.b	r0h,r0h
    2e2b:	00 01       	.word	H'0,H'1
    2e2d:	1b 14       	.word	H'1b,H'14
    2e2f:	00 0c       	.word	H'0,H'c
    2e31:	00 00       	nop	
    2e33:	01 2b       	.word	H'1,H'2b
    2e35:	00 00       	nop	
    2e37:	01 2b       	.word	H'1,H'2b
    2e39:	0d 00       	mov.w	r0,r0
    2e3b:	00 00       	nop	
    2e3d:	3e 02       	mov.b	r6l,@0x2:8
    2e3f:	00 02       	.word	H'0,H'2
    2e41:	04 05       	orc	#0x5,ccr
    2e43:	00 00       	nop	
    2e45:	01 49       	.word	H'1,H'49
    2e47:	0c 00       	mov.b	r0h,r0h
    2e49:	00 00       	nop	
    2e4b:	bb 00       	subx	#0x0,r3l
    2e4d:	00 01       	.word	H'0,H'1
    2e4f:	42 0d       	.word	H'42,H'd
    2e51:	00 00       	nop	
    2e53:	00 3e       	.word	H'0,H'3e
    2e55:	00 00       	nop	
    2e57:	0e 00       	addx	r0h,r0h
    2e59:	00 0b       	.word	H'0,H'b
    2e5b:	2a 01       	mov.b	@0x1:8,r2l
    2e5d:	16 00       	and.b	r0h,r0h
    2e5f:	00 01       	.word	H'0,H'1
    2e61:	32 05       	mov.b	r2h,@0x5:8
    2e63:	03 00       	ldc	r0h,ccr
    2e65:	40 44       	bra	.+68 (0x2eab)
    2e67:	88 0f       	add.b	#0xf,r0l
    2e69:	00 00       	nop	
    2e6b:	0b 14       	.word	H'b,H'14
    2e6d:	01 aa       	.word	H'1,H'aa
    2e6f:	00 00       	nop	
    2e71:	00 50       	.word	H'0,H'50
    2e73:	00 40       	.word	H'0,H'40
    2e75:	3b 62       	mov.b	r3l,@0x62:8
    2e77:	00 00       	nop	
    2e79:	00 b8       	.word	H'0,H'b8
    2e7b:	01 9c       	.word	H'1,H'9c
    2e7d:	00 00       	nop	
    2e7f:	01 be       	.word	H'1,H'be
    2e81:	10 00       	shll.b	r0h
    2e83:	00 00       	nop	
    2e85:	3b 01       	mov.b	r3l,@0x1:8
    2e87:	aa 00       	cmp.b	#0x0,r2l
    2e89:	00 00       	nop	
    2e8b:	50 02       	mulxu.b	r0h,r2
    2e8d:	91 66       	addx	#0x66,r1h
    2e8f:	10 00       	shll.b	r0h
    2e91:	00 00       	nop	
    2e93:	87 01       	add.b	#0x1,r7h
    2e95:	aa 00       	cmp.b	#0x0,r2l
    2e97:	00 00       	nop	
    2e99:	57 02       	.word	H'57,H'2
    2e9b:	91 60       	addx	#0x60,r1h
    2e9d:	0e 00       	addx	r0h,r0h
    2e9f:	00 09       	.word	H'0,H'9
    2ea1:	99 01       	addx	#0x1,r1l
    2ea3:	ac 00       	cmp.b	#0x0,r4l
    2ea5:	00 00       	nop	
    2ea7:	50 02       	mulxu.b	r0h,r2
    2ea9:	91 6c       	addx	#0x6c,r1h
    2eab:	0e 00       	addx	r0h,r0h
    2ead:	00 02       	.word	H'0,H'2
    2eaf:	48 01       	.word	H'48,H'1
    2eb1:	ac 00       	cmp.b	#0x0,r4l
    2eb3:	00 00       	nop	
    2eb5:	50 02       	mulxu.b	r0h,r2
    2eb7:	91 6e       	addx	#0x6e,r1h
    2eb9:	11 69       	shlr.w	#8,e1
    2ebb:	64 00       	or.w	r0,r0
    2ebd:	01 ad       	.word	H'1,H'ad
    2ebf:	00 00       	nop	
    2ec1:	00 45       	.word	H'0,H'45
    2ec3:	02 91       	.word	H'2,H'91
    2ec5:	70 11       	bset	#0x1,r1h
    2ec7:	70 00       	bset	#0x0,r0h
    2ec9:	01 ae       	.word	H'1,H'ae
    2ecb:	00 00       	nop	
    2ecd:	00 5d       	.word	H'0,H'5d
    2ecf:	02 91       	.word	H'2,H'91
    2ed1:	68 00       	mov.b	@er0,r0h
    2ed3:	12 00       	rotxl.b	r0h
    2ed5:	00 0a       	.word	H'0,H'a
    2ed7:	aa 01       	cmp.b	#0x1,r2l
    2ed9:	8a 00       	add.b	#0x0,r2l
    2edb:	00 00       	nop	
    2edd:	50 00       	mulxu.b	r0h,r0
    2edf:	40 3a       	bra	.+58 (0x2f1b)
    2ee1:	60 00       	bset	r0h,r0h
    2ee3:	00 01       	.word	H'0,H'1
    2ee5:	02 01       	stc	ccr,r1h
    2ee7:	9c 00       	addx	#0x0,r4l
    2ee9:	00 02       	.word	H'0,H'2
    2eeb:	1d 10       	cmp.w	r1,r0
    2eed:	00 00       	nop	
    2eef:	0b 32       	.word	H'b,H'32
    2ef1:	01 8a       	.word	H'1,H'8a
    2ef3:	00 00       	nop	
    2ef5:	02 1d       	stc	exr,r5l
    2ef7:	02 91       	.word	H'2,H'91
    2ef9:	74 13       	bor	#0x1,r3h
    2efb:	69 64       	mov.w	@er6,r4
    2efd:	00 01       	.word	H'0,H'1
    2eff:	8a 00       	add.b	#0x0,r2l
    2f01:	00 00       	nop	
    2f03:	45 02       	bcs	.+2 (0x2f07)
    2f05:	91 70       	addx	#0x70,r1h
    2f07:	10 00       	shll.b	r0h
    2f09:	00 02       	.word	H'0,H'2
    2f0b:	48 01       	.word	H'48,H'1
    2f0d:	8b 00       	add.b	#0x0,r3l
    2f0f:	00 00       	nop	
    2f11:	50 02       	mulxu.b	r0h,r2
    2f13:	91 6e       	addx	#0x6e,r1h
    2f15:	10 00       	shll.b	r0h
    2f17:	00 09       	.word	H'0,H'9
    2f19:	99 01       	addx	#0x1,r1l
    2f1b:	8b 00       	add.b	#0x0,r3l
    2f1d:	00 00       	nop	
    2f1f:	50 02       	mulxu.b	r0h,r2
    2f21:	91 02       	addx	#0x2,r1h
    2f23:	10 00       	shll.b	r0h
    2f25:	00 0b       	.word	H'0,H'b
    2f27:	e8 01       	and.b	#0x1,r0l
    2f29:	8b 00       	add.b	#0x0,r3l
    2f2b:	00 00       	nop	
    2f2d:	5d 02       	jsr	@@520 (0x208)
    2f2f:	91 04       	addx	#0x4,r1h
    2f31:	00 05       	.word	H'0,H'5
    2f33:	04 00       	orc	#0x0,ccr
    2f35:	00 00       	nop	
    2f37:	bb 14       	subx	#0x14,r3l
    2f39:	00 00       	nop	
    2f3b:	0a e2       	add.l	er6,er2
    2f3d:	01 83       	.word	H'1,H'83
    2f3f:	00 00       	nop	
    2f41:	00 50       	.word	H'0,H'50
    2f43:	00 40       	.word	H'0,H'40
    2f45:	3a 40       	mov.b	r2l,@0x40:8
    2f47:	00 00       	nop	
    2f49:	00 20       	.word	H'0,H'20
    2f4b:	01 9c       	.word	H'1,H'9c
    2f4d:	15 00       	xor.b	r0h,r0h
    2f4f:	00 0a       	.word	H'0,H'a
    2f51:	d5 01       	xor.b	#0x1,r5h
    2f53:	73 00       	btst	#0x0,r0h
    2f55:	40 39       	bra/s	.+56 (0x2f8f)
    2f57:	ae 00       	cmp.b	#0x0,r6l
    2f59:	00 00       	nop	
    2f5b:	92 01       	addx	#0x1,r2h
    2f5d:	9c 00       	addx	#0x0,r4l
    2f5f:	00 02       	.word	H'0,H'2
    2f61:	68 11       	mov.b	@er1,r1h
    2f63:	69 00       	mov.w	@er0,r0
    2f65:	01 75       	.word	H'1,H'75
    2f67:	00 00       	nop	
    2f69:	00 50       	.word	H'0,H'50
    2f6b:	02 91       	.word	H'2,H'91
    2f6d:	76 0e       	band	#0x0,r6l
    2f6f:	00 00       	nop	
    2f71:	0b 32       	.word	H'b,H'32
    2f73:	01 76       	.word	H'1,H'76
    2f75:	00 00       	nop	
    2f77:	02 1d       	stc	exr,r5l
    2f79:	02 91       	.word	H'2,H'91
    2f7b:	70 00       	bset	#0x0,r0h
    2f7d:	12 00       	rotxl.b	r0h
    2f7f:	00 0a       	.word	H'0,H'a
    2f81:	c4 01       	or.b	#0x1,r4h
    2f83:	47 00       	beq	.0 (0x2f85)
    2f85:	00 00       	nop	
    2f87:	50 00       	mulxu.b	r0h,r0
    2f89:	40 38       	bra	.+56 (0x2fc3)
    2f8b:	44 00       	bcc	.0 (0x2f8d)
    2f8d:	00 01       	.word	H'0,H'1
    2f8f:	6a 01 9c 00 	mov.b	@0x9c00:16,r1h
    2f93:	00 02       	.word	H'0,H'2
    2f95:	a8 10       	cmp.b	#0x10,r0l
    2f97:	00 00       	nop	
    2f99:	0b 32       	.word	H'b,H'32
    2f9b:	01 47       	.word	H'1,H'47
    2f9d:	00 00       	nop	
    2f9f:	02 1d       	stc	exr,r5l
    2fa1:	02 91       	.word	H'2,H'91
    2fa3:	6c 11       	mov.b	@er1+,r1h
    2fa5:	63 00       	btst	r0h,r0h
    2fa7:	01 49       	.word	H'1,H'49
    2fa9:	00 00       	nop	
    2fab:	00 25       	.word	H'0,H'25
    2fad:	02 91       	.word	H'2,H'91
    2faf:	73 11       	btst	#0x1,r1h
    2fb1:	70 00       	bset	#0x0,r0h
    2fb3:	01 4a       	.word	H'1,H'4a
    2fb5:	00 00       	nop	
    2fb7:	00 5d       	.word	H'0,H'5d
    2fb9:	02 91       	.word	H'2,H'91
    2fbb:	74 00       	bor	#0x0,r0h
    2fbd:	15 00       	xor.b	r0h,r0h
    2fbf:	00 0a       	.word	H'0,H'a
    2fc1:	9e 01       	addx	#0x1,r6l
    2fc3:	2a 00       	mov.b	@0x0:8,r2l
    2fc5:	40 37       	bra/s	.+54 (0x2ffd)
    2fc7:	36 00       	mov.b	r6h,@0x0:8
    2fc9:	00 01       	.word	H'0,H'1
    2fcb:	0e 01       	addx	r0h,r1h
    2fcd:	9c 00       	addx	#0x0,r4l
    2fcf:	00 02       	.word	H'0,H'2
    2fd1:	f4 10       	mov.b	#0x10,r4h
    2fd3:	00 00       	nop	
    2fd5:	0b 32       	.word	H'b,H'32
    2fd7:	01 2a       	.word	H'1,H'2a
    2fd9:	00 00       	nop	
    2fdb:	02 1d       	stc	exr,r5l
    2fdd:	02 91       	.word	H'2,H'91
    2fdf:	6c 13       	mov.b	@er1+,r3h
    2fe1:	73 74       	btst	#0x7,r4h
    2fe3:	72 00       	bclr	#0x0,r0h
    2fe5:	01 2a       	.word	H'1,H'2a
    2fe7:	00 00       	nop	
    2fe9:	00 5d       	.word	H'0,H'5d
    2feb:	02 91       	.word	H'2,H'91
    2fed:	68 13       	mov.b	@er1,r3h
    2fef:	6c 65       	mov.b	@er6+,r5h
    2ff1:	6e 00 01 2a 	mov.b	@(0x12a:16,er0),r0h
    2ff5:	00 00       	nop	
    2ff7:	00 50       	.word	H'0,H'50
    2ff9:	02 91       	.word	H'2,H'91
    2ffb:	66 11       	and.w	r1,r1
    2ffd:	69 00       	mov.w	@er0,r0
    2fff:	01 2c       	.word	H'1,H'2c
    3001:	00 00       	nop	
    3003:	00 50       	.word	H'0,H'50
    3005:	02 91       	.word	H'2,H'91
    3007:	72 00       	bclr	#0x0,r0h
    3009:	16 00       	and.b	r0h,r0h
    300b:	00 0a       	.word	H'0,H'a
    300d:	ba 01       	subx	#0x1,r2l
    300f:	1f 00       	das	r0h
    3011:	40 36       	bra	.+54 (0x3049)
    3013:	8e 00       	add.b	#0x0,r6l
    3015:	00 00       	nop	
    3017:	a8 01       	cmp.b	#0x1,r0l
    3019:	9c 10       	addx	#0x10,r4l
    301b:	00 00       	nop	
    301d:	0b 32       	.word	H'b,H'32
    301f:	01 1f       	.word	H'1,H'1f
    3021:	00 00       	nop	
    3023:	02 1d       	stc	exr,r5l
    3025:	02 91       	.word	H'2,H'91
    3027:	70 11       	bset	#0x1,r1h
    3029:	69 00       	mov.w	@er0,r0
    302b:	01 21       	.word	H'1,H'21
    302d:	00 00       	nop	
    302f:	00 50       	.word	H'0,H'50
    3031:	02 91       	.word	H'2,H'91
    3033:	76 00       	band	#0x0,r0h
	...

00003036 <.Ldebug_info0>:
    3036:	00 00       	nop	
    3038:	02 5a       	.word	H'2,H'5a
    303a:	00 04       	.word	H'0,H'4
    303c:	00 00       	nop	
    303e:	10 47       	shll.b	#2,r7h
    3040:	04 01       	orc	#0x1,ccr
    3042:	00 00       	nop	
    3044:	00 65       	.word	H'0,H'65
    3046:	0c 00       	mov.b	r0h,r0h
    3048:	00 0b       	.word	H'0,H'b
    304a:	98 00       	addx	#0x0,r0l
    304c:	00 00       	nop	
    304e:	51 00       	divxu.b	r0h,r0
    3050:	40 3c       	bra	.+60 (0x308e)
    3052:	1a 00       	dec.b	r0h
    3054:	00 03       	.word	H'0,H'3
    3056:	5a 00 00 26 	jmp	@0x26:24
    305a:	47 02       	beq	.+2 (0x305e)
    305c:	01 08 00 00 	mov.l	@er0,@er0
    3060:	00 57       	.word	H'0,H'57
    3062:	02 02       	stc	ccr,r2h
    3064:	07 00       	ldc	#0x0,ccr
    3066:	00 00       	nop	
    3068:	28 02       	mov.b	@0x2:8,r0l
    306a:	04 07       	orc	#0x7,ccr
    306c:	00 00       	nop	
    306e:	00 00       	nop	
    3070:	03 02       	ldc	r2h,ccr
    3072:	05 69       	xorc	#0x69,ccr
    3074:	6e 74 00 04 	mov.b	@(0x4:16,er7),r4h
    3078:	04 00       	orc	#0x0,ccr
    307a:	00 00       	nop	
    307c:	47 04       	beq	.+4 (0x3082)
    307e:	04 00       	orc	#0x0,ccr
    3080:	00 00       	nop	
    3082:	4d 02       	blt	.+2 (0x3086)
    3084:	01 08 00 00 	mov.l	@er0,@er0
    3088:	00 60       	.word	H'0,H'60
    308a:	05 07       	xorc	#0x7,ccr
    308c:	02 00       	stc	ccr,r0h
    308e:	00 00       	nop	
    3090:	8c 03       	add.b	#0x3,r4l
    3092:	10 00       	shll.b	r0h
    3094:	00 00       	nop	
    3096:	8c 06       	add.b	#0x6,r4l
    3098:	00 00       	nop	
    309a:	07 6b       	ldc	#0x6b,ccr
    309c:	00 06       	.word	H'0,H'6
    309e:	00 00       	nop	
    30a0:	07 36       	ldc	#0x36,ccr
    30a2:	01 06       	.word	H'1,H'6
    30a4:	00 00       	nop	
    30a6:	04 23       	orc	#0x23,ccr
    30a8:	02 06       	stc	ccr,r6h
    30aa:	00 00       	nop	
    30ac:	04 df       	orc	#0xdf,ccr
    30ae:	03 06       	ldc	r6h,ccr
    30b0:	00 00       	nop	
    30b2:	04 73       	orc	#0x73,ccr
    30b4:	04 06       	orc	#0x6,ccr
    30b6:	00 00       	nop	
    30b8:	06 7e       	andc	#0x7e,ccr
    30ba:	05 06       	xorc	#0x6,ccr
    30bc:	00 00       	nop	
    30be:	06 e0       	andc	#0xe0,ccr
    30c0:	06 00       	andc	#0x0,ccr
    30c2:	02 02       	stc	ccr,r2h
    30c4:	07 00       	ldc	#0x0,ccr
    30c6:	00 00       	nop	
    30c8:	05 07       	xorc	#0x7,ccr
    30ca:	00 00       	nop	
    30cc:	03 f3       	.word	H'3,H'f3
    30ce:	03 18       	ldc	r0l,exr
    30d0:	00 00       	nop	
    30d2:	00 54       	.word	H'0,H'54
    30d4:	08 00       	add.b	r0h,r0h
    30d6:	00 00       	nop	
    30d8:	12 04       	rotxl.b	r4h
    30da:	05 00       	xorc	#0x0,ccr
    30dc:	00 00       	nop	
    30de:	4d 02       	blt	.+2 (0x30e2)
    30e0:	02 05       	stc	ccr,r5h
    30e2:	00 00       	nop	
    30e4:	00 40       	.word	H'0,H'40
    30e6:	09 00       	add.w	r0,r0
    30e8:	00 09       	.word	H'0,H'9
    30ea:	07 04       	ldc	#0x4,ccr
    30ec:	02 08       	stc	ccr,r0l
    30ee:	00 00       	nop	
    30f0:	00 d4       	.word	H'0,H'd4
    30f2:	0a 69       	add.w	#0x6,e1
    30f4:	64 00       	or.w	r0,r0
    30f6:	02 09       	stc	ccr,r1l
    30f8:	00 00       	nop	
    30fa:	00 93       	.word	H'0,H'93
    30fc:	00 0b       	.word	H'0,H'b
    30fe:	00 00       	nop	
    3100:	02 e2       	.word	H'2,H'e2
    3102:	02 0a       	stc	ccr,r2l
    3104:	00 00       	nop	
    3106:	00 3a       	.word	H'0,H'3a
    3108:	02 00       	stc	ccr,r0h
    310a:	09 00       	add.w	r0,r0
    310c:	00 0b       	.word	H'0,H'b
    310e:	72 08       	bclr	#0x0,r0l
    3110:	01 09       	.word	H'1,H'9
    3112:	00 00       	nop	
    3114:	01 04       	.word	H'1,H'4
    3116:	0b 00       	adds	#1,er0
    3118:	00 07       	.word	H'0,H'7
    311a:	bf 01       	subx	#0x1,r7l
    311c:	0a 00       	inc	r0h
    311e:	00 01       	.word	H'0,H'1
    3120:	04 00       	orc	#0x0,ccr
    3122:	0a 69       	add.w	#0x6,e1
    3124:	64 00       	or.w	r0,r0
    3126:	01 0b       	.word	H'1,H'b
    3128:	00 00       	nop	
    312a:	00 93       	.word	H'0,H'93
    312c:	04 0b       	orc	#0xb,ccr
    312e:	00 00       	nop	
    3130:	02 e2       	.word	H'2,H'e2
    3132:	01 0d 00 00 	mov.l	#0x0,@er0
    3136:	00 3a       	.word	H'0,H'3a
    3138:	06 00       	andc	#0x0,ccr
    313a:	04 04       	orc	#0x4,ccr
    313c:	00 00       	nop	
    313e:	00 d4       	.word	H'0,H'd4
    3140:	09 00       	add.w	r0,r0
    3142:	00 0b       	.word	H'0,H'b
    3144:	81 08       	add.b	#0x8,r1h
    3146:	01 10       	.word	H'1,H'10
    3148:	00 00       	nop	
    314a:	01 2f       	.word	H'1,H'2f
    314c:	0b 00       	adds	#1,er0
    314e:	00 0b       	.word	H'0,H'b
    3150:	6b 01 11 00 	mov.w	@0x1100:16,r1
    3154:	00 01       	.word	H'0,H'1
    3156:	04 00       	orc	#0x0,ccr
    3158:	0b 00       	adds	#1,er0
    315a:	00 02       	.word	H'0,H'2
    315c:	48 01       	.word	H'48,H'1
    315e:	12 00       	rotxl.b	r0h
    3160:	00 00       	nop	
    3162:	3a 04       	mov.b	r2l,@0x4:8
    3164:	00 0c       	.word	H'0,H'c
    3166:	00 00       	nop	
    3168:	0b 81       	adds	#2,er1
    316a:	01 13       	.word	H'1,H'13
    316c:	00 00       	nop	
    316e:	01 0a       	.word	H'1,H'a
    3170:	05 03       	xorc	#0x3,ccr
    3172:	00 40       	.word	H'0,H'40
    3174:	44 a8       	bcc	.-88 (0x311e)
    3176:	0d 00       	mov.w	r0,r0
    3178:	00 0b       	.word	H'0,H'b
    317a:	8a 01       	add.b	#0x1,r2l
    317c:	84 00       	add.b	#0x0,r4h
    317e:	00 00       	nop	
    3180:	3a 00       	mov.b	r2l,@0x0:8
    3182:	40 3f       	bra/s	.+62 (0x31c2)
    3184:	20 00       	mov.b	@0x0:8,r0h
    3186:	00 00       	nop	
    3188:	54 01       	rts/l	er1
    318a:	9c 00       	addx	#0x0,r4l
    318c:	00 01       	.word	H'0,H'1
    318e:	90 0e       	addx	#0xe,r0h
    3190:	00 00       	nop	
    3192:	00 3b       	.word	H'0,H'3b
    3194:	01 84       	.word	H'1,H'84
    3196:	00 00       	nop	
    3198:	00 3a       	.word	H'0,H'3a
    319a:	02 91       	.word	H'2,H'91
    319c:	6e 0e 00 00 	mov.b	@(0x0:16,er0),r6l
    31a0:	00 87       	.word	H'0,H'87
    31a2:	01 84       	.word	H'1,H'84
    31a4:	00 00       	nop	
    31a6:	00 41       	.word	H'0,H'41
    31a8:	02 91       	.word	H'2,H'91
    31aa:	68 0f       	mov.b	@er0,r7l
    31ac:	63 6d       	btst	r6h,r5l
    31ae:	64 00       	or.w	r0,r0
    31b0:	01 86       	.word	H'1,H'86
    31b2:	00 00       	nop	
    31b4:	00 3a       	.word	H'0,H'3a
    31b6:	02 91       	.word	H'2,H'91
    31b8:	76 0f       	band	#0x0,r7l
    31ba:	70 00       	bset	#0x0,r0h
    31bc:	01 87       	.word	H'1,H'87
    31be:	00 00       	nop	
    31c0:	00 47       	.word	H'0,H'47
    31c2:	02 91       	.word	H'2,H'91
    31c4:	70 00       	bset	#0x0,r0h
    31c6:	10 00       	shll.b	r0h
    31c8:	00 0b       	.word	H'0,H'b
    31ca:	37 01       	mov.b	r7h,@0x1:8
    31cc:	32 00       	mov.b	r2h,@0x0:8
    31ce:	00 00       	nop	
    31d0:	3a 00       	mov.b	r2l,@0x0:8
    31d2:	40 3c       	bra	.+60 (0x3210)
    31d4:	96 00       	addx	#0x0,r6h
    31d6:	00 02       	.word	H'0,H'2
    31d8:	8a 01       	add.b	#0x1,r2l
    31da:	9c 00       	addx	#0x0,r4l
    31dc:	00 02       	.word	H'0,H'2
    31de:	16 11       	and.b	r1h,r1h
    31e0:	74 69       	bor	#0x6,r1l
    31e2:	6d 00       	mov.w	@er0+,r0
    31e4:	01 32       	.word	H'1,H'32
    31e6:	00 00       	nop	
    31e8:	02 16       	stc	exr,r6h
    31ea:	02 91       	.word	H'2,H'91
    31ec:	64 11       	or.w	r1,r1
    31ee:	63 6d       	btst	r6h,r5l
    31f0:	64 00       	or.w	r0,r0
    31f2:	01 32       	.word	H'1,H'32
    31f4:	00 00       	nop	
    31f6:	00 3a       	.word	H'0,H'3a
    31f8:	02 91       	.word	H'2,H'91
    31fa:	62 11       	bclr	r1h,r1h
    31fc:	70 00       	bset	#0x0,r0h
    31fe:	01 32       	.word	H'1,H'32
    3200:	00 00       	nop	
    3202:	00 47       	.word	H'0,H'47
    3204:	02 91       	.word	H'2,H'91
    3206:	5c 0c       	.word	H'5c,H'c
    3208:	00 00       	nop	
    320a:	0b 7b       	.word	H'b,H'7b
    320c:	01 34       	.word	H'1,H'34
    320e:	00 00       	nop	
    3210:	01 04       	.word	H'1,H'4
    3212:	02 91       	.word	H'2,H'91
    3214:	68 0c       	mov.b	@er0,r4l
    3216:	00 00       	nop	
    3218:	0b 56       	inc.w	#1,r6
    321a:	01 35       	.word	H'1,H'35
    321c:	00 00       	nop	
    321e:	02 1c       	stc	exr,r4l
    3220:	02 91       	.word	H'2,H'91
    3222:	74 0f       	bor	#0x0,r7l
    3224:	72 65       	bclr	#0x6,r5h
    3226:	71 00       	bnot	#0x0,r0h
    3228:	01 36       	.word	H'1,H'36
    322a:	00 00       	nop	
    322c:	02 22       	stmac	mach,er2
    322e:	02 91       	.word	H'2,H'91
    3230:	6c 0f       	mov.b	@er0+,r7l
    3232:	74 00       	bor	#0x0,r0h
    3234:	01 37       	.word	H'1,H'37
    3236:	00 00       	nop	
    3238:	00 3a       	.word	H'0,H'3a
    323a:	02 91       	.word	H'2,H'91
    323c:	72 0c       	bclr	#0x0,r4l
    323e:	00 00       	nop	
    3240:	02 e2       	.word	H'2,H'e2
    3242:	01 37       	.word	H'1,H'37
    3244:	00 00       	nop	
    3246:	00 3a       	.word	H'0,H'3a
    3248:	02 91       	.word	H'2,H'91
    324a:	70 00       	bset	#0x0,r0h
    324c:	04 04       	orc	#0x4,ccr
    324e:	00 00       	nop	
    3250:	01 0a       	.word	H'1,H'a
    3252:	04 04       	orc	#0x4,ccr
    3254:	00 00       	nop	
    3256:	01 04       	.word	H'1,H'4
    3258:	04 04       	orc	#0x4,ccr
    325a:	00 00       	nop	
    325c:	00 b0       	.word	H'0,H'b0
    325e:	12 00       	rotxl.b	r0h
    3260:	00 0b       	.word	H'0,H'b
    3262:	5d 01       	jsr	@@516 (0x204)
    3264:	2a 00       	mov.b	@0x0:8,r2l
    3266:	00 00       	nop	
    3268:	3a 00       	mov.b	r2l,@0x0:8
    326a:	40 3c       	bra	.+60 (0x32a8)
    326c:	6c 00       	mov.b	@er0+,r0h
    326e:	00 00       	nop	
    3270:	2a 01       	mov.b	@0x1:8,r2l
    3272:	9c 13       	addx	#0x13,r4l
    3274:	00 00       	nop	
    3276:	0b 48       	.word	H'b,H'48
    3278:	01 1f       	.word	H'1,H'1f
    327a:	00 40       	.word	H'0,H'40
    327c:	3c 1a       	mov.b	r4l,@0x1a:8
    327e:	00 00       	nop	
    3280:	00 52       	.word	H'0,H'52
    3282:	01 9c       	.word	H'1,H'9c
    3284:	0f 74       	mov.w	#0x7,r4
    3286:	69 6d       	mov.w	@er6,e5
    3288:	00 01       	.word	H'0,H'1
    328a:	21 00       	mov.b	@0x0:8,r1h
    328c:	00 02       	.word	H'0,H'2
    328e:	16 02       	and.b	r0h,r2h
    3290:	91 74       	addx	#0x74,r1h
	...

00003294 <.Ldebug_info0>:
    3294:	00 00       	nop	
    3296:	01 6b       	.word	H'1,H'6b
    3298:	00 04       	.word	H'0,H'4
    329a:	00 00       	nop	
    329c:	11 7f       	shlr.l	#8,er7
    329e:	04 01       	orc	#0x1,ccr
    32a0:	00 00       	nop	
    32a2:	00 65       	.word	H'0,H'65
    32a4:	0c 00       	mov.b	r0h,r0h
    32a6:	00 0b       	.word	H'0,H'b
    32a8:	b8 00       	subx	#0x0,r0l
    32aa:	00 00       	nop	
    32ac:	51 00       	divxu.b	r0h,r0
    32ae:	40 3f       	bra/s	.+62 (0x32ee)
    32b0:	74 00       	bor	#0x0,r0h
    32b2:	00 01       	.word	H'0,H'1
    32b4:	42 00       	bhi	.0 (0x32b6)
    32b6:	00 28       	.word	H'0,H'28
    32b8:	a4 02       	cmp.b	#0x2,r4h
    32ba:	01 08 00 00 	mov.l	@er0,@er0
    32be:	00 57       	.word	H'0,H'57
    32c0:	02 02       	stc	ccr,r2h
    32c2:	07 00       	ldc	#0x0,ccr
    32c4:	00 00       	nop	
    32c6:	28 02       	mov.b	@0x2:8,r0l
    32c8:	04 07       	orc	#0x7,ccr
    32ca:	00 00       	nop	
    32cc:	00 00       	nop	
    32ce:	03 02       	ldc	r2h,ccr
    32d0:	05 69       	xorc	#0x69,ccr
    32d2:	6e 74 00 04 	mov.b	@(0x4:16,er7),r4h
    32d6:	04 00       	orc	#0x0,ccr
    32d8:	00 00       	nop	
    32da:	47 04       	beq	.+4 (0x32e0)
    32dc:	04 00       	orc	#0x0,ccr
    32de:	00 00       	nop	
    32e0:	4d 02       	blt	.+2 (0x32e4)
    32e2:	01 08 00 00 	mov.l	@er0,@er0
    32e6:	00 60       	.word	H'0,H'60
    32e8:	05 07       	xorc	#0x7,ccr
    32ea:	02 00       	stc	ccr,r0h
    32ec:	00 00       	nop	
    32ee:	8c 02       	add.b	#0x2,r4l
    32f0:	10 00       	shll.b	r0h
    32f2:	00 00       	nop	
    32f4:	8c 06       	add.b	#0x6,r4l
    32f6:	00 00       	nop	
    32f8:	07 6b       	ldc	#0x6b,ccr
    32fa:	00 06       	.word	H'0,H'6
    32fc:	00 00       	nop	
    32fe:	07 36       	ldc	#0x36,ccr
    3300:	01 06       	.word	H'1,H'6
    3302:	00 00       	nop	
    3304:	04 23       	orc	#0x23,ccr
    3306:	02 06       	stc	ccr,r6h
    3308:	00 00       	nop	
    330a:	04 df       	orc	#0xdf,ccr
    330c:	03 06       	ldc	r6h,ccr
    330e:	00 00       	nop	
    3310:	04 73       	orc	#0x73,ccr
    3312:	04 06       	orc	#0x6,ccr
    3314:	00 00       	nop	
    3316:	06 7e       	andc	#0x7e,ccr
    3318:	05 06       	xorc	#0x6,ccr
    331a:	00 00       	nop	
    331c:	06 e0       	andc	#0xe0,ccr
    331e:	06 00       	andc	#0x0,ccr
    3320:	02 02       	stc	ccr,r2h
    3322:	07 00       	ldc	#0x0,ccr
    3324:	00 00       	nop	
    3326:	05 07       	xorc	#0x7,ccr
    3328:	00 00       	nop	
    332a:	00 12       	.word	H'0,H'12
    332c:	03 05       	ldc	r5h,ccr
    332e:	00 00       	nop	
    3330:	00 4d       	.word	H'0,H'4d
    3332:	02 02       	stc	ccr,r2h
    3334:	05 00       	xorc	#0x0,ccr
    3336:	00 00       	nop	
    3338:	40 08       	bra	.+8 (0x3342)
    333a:	00 00       	nop	
    333c:	0b aa       	.word	H'b,H'aa
    333e:	01 3b       	.word	H'1,H'3b
    3340:	00 00       	nop	
    3342:	00 3a       	.word	H'0,H'3a
    3344:	00 40       	.word	H'0,H'40
    3346:	40 5a       	bra	.+90 (0x33a2)
    3348:	00 00       	nop	
    334a:	00 5c       	.word	H'0,H'5c
    334c:	01 9c       	.word	H'1,H'9c
    334e:	00 00       	nop	
    3350:	00 f5       	.word	H'0,H'f5
    3352:	09 00       	add.w	r0,r0
    3354:	00 00       	nop	
    3356:	3b 01       	mov.b	r3l,@0x1:8
    3358:	3b 00       	mov.b	r3l,@0x0:8
    335a:	00 00       	nop	
    335c:	3a 02       	mov.b	r2l,@0x2:8
    335e:	91 6e       	addx	#0x6e,r1h
    3360:	09 00       	add.w	r0,r0
    3362:	00 00       	nop	
    3364:	87 01       	add.b	#0x1,r7h
    3366:	3b 00       	mov.b	r3l,@0x0:8
    3368:	00 00       	nop	
    336a:	41 02       	brn	.+2 (0x336e)
    336c:	91 68       	addx	#0x68,r1h
    336e:	0a 00       	inc	r0h
    3370:	00 09       	.word	H'0,H'9
    3372:	99 01       	addx	#0x1,r1l
    3374:	3d 00       	mov.b	r5l,@0x0:8
    3376:	00 00       	nop	
    3378:	3a 02       	mov.b	r2l,@0x2:8
    337a:	91 76       	addx	#0x76,r1h
    337c:	0b 70       	inc.l	#1,er0
    337e:	00 01       	.word	H'0,H'1
    3380:	3e 00       	mov.b	r6l,@0x0:8
    3382:	00 00       	nop	
    3384:	47 02       	beq	.+2 (0x3388)
    3386:	91 70       	addx	#0x70,r1h
    3388:	00 0c       	.word	H'0,H'c
    338a:	00 00       	nop	
    338c:	0b df       	inc.w	#2,e7
    338e:	01 26       	.word	H'1,H'26
    3390:	00 00       	nop	
    3392:	00 3a       	.word	H'0,H'3a
    3394:	00 40       	.word	H'0,H'40
    3396:	3f f2       	mov.b	r7l,@0xf2:8
    3398:	00 00       	nop	
    339a:	00 68       	.word	H'0,H'68
    339c:	01 9c       	.word	H'1,H'9c
    339e:	00 00       	nop	
    33a0:	01 2b       	.word	H'1,H'2b
    33a2:	09 00       	add.w	r0,r0
    33a4:	00 09       	.word	H'0,H'9
    33a6:	99 01       	addx	#0x1,r1l
    33a8:	26 00       	mov.b	@0x0:8,r6h
    33aa:	00 00       	nop	
    33ac:	3a 02       	mov.b	r2l,@0x2:8
    33ae:	91 76       	addx	#0x76,r1h
    33b0:	09 00       	add.w	r0,r0
    33b2:	00 0b       	.word	H'0,H'b
    33b4:	e8 01       	and.b	#0x1,r0l
    33b6:	26 00       	mov.b	@0x0:8,r6h
    33b8:	00 00       	nop	
    33ba:	47 02       	beq	.+2 (0x33be)
    33bc:	91 70       	addx	#0x70,r1h
    33be:	00 0d       	.word	H'0,H'd
    33c0:	00 00       	nop	
    33c2:	0b d1       	inc.w	#2,r1
    33c4:	01 20       	.word	H'1,H'20
    33c6:	00 00       	nop	
    33c8:	00 3a       	.word	H'0,H'3a
    33ca:	00 40       	.word	H'0,H'40
    33cc:	3f e2       	mov.b	r7l,@0xe2:8
    33ce:	00 00       	nop	
    33d0:	00 10       	.word	H'0,H'10
    33d2:	01 9c       	.word	H'1,H'9c
    33d4:	0e 00       	addx	r0h,r0h
    33d6:	00 0b       	.word	H'0,H'b
    33d8:	c3 01       	or.b	#0x1,r3h
    33da:	0c 00       	mov.b	r0h,r0h
    33dc:	40 3f       	bra/s	.+62 (0x341c)
    33de:	74 00       	bor	#0x0,r0h
    33e0:	00 00       	nop	
    33e2:	6e 01 9c 0a 	mov.b	@(0x9c0a:16,er0),r1h
    33e6:	00 00       	nop	
    33e8:	09 99       	add.w	e1,e1
    33ea:	01 10       	.word	H'1,H'10
    33ec:	00 00       	nop	
    33ee:	00 3a       	.word	H'0,H'3a
    33f0:	02 91       	.word	H'2,H'91
    33f2:	72 0a       	bclr	#0x0,r2l
    33f4:	00 00       	nop	
    33f6:	0b a3       	.word	H'b,H'a3
    33f8:	01 11       	.word	H'1,H'11
    33fa:	00 00       	nop	
    33fc:	00 47       	.word	H'0,H'47
    33fe:	02 91       	.word	H'2,H'91
    3400:	74 00       	bor	#0x0,r0h
	...

Disassembly of section .debug_abbrev:

00000000 <.Ldebug_abbrev0>:
.Ldebug_abbrev0():
       0:	01 11       	.word	H'1,H'11
       2:	01 25       	.word	H'1,H'25
       4:	0e 13       	addx	r1h,r3h
       6:	0b 03       	adds	#1,er3
       8:	0e 1b       	addx	r1h,r3l
       a:	0e 11       	addx	r1h,r1h
       c:	01 12       	.word	H'1,H'12
       e:	06 10       	andc	#0x10,ccr
      10:	17 00       	not.b	r0h
      12:	00 02       	.word	H'0,H'2
      14:	24 00       	mov.b	@0x0:8,r4h
      16:	0b 0b       	adds	#1,er3
      18:	3e 0b       	mov.b	r6l,@0xb:8
      1a:	03 0e       	ldc	r6l,ccr
      1c:	00 00       	nop	
      1e:	03 24       	ldmac	er4,mach
      20:	00 0b       	.word	H'0,H'b
      22:	0b 3e       	.word	H'b,H'3e
      24:	0b 03       	adds	#1,er3
      26:	08 00       	add.b	r0h,r0h
      28:	00 04       	.word	H'0,H'4
      2a:	0f 00       	daa	r0h
      2c:	0b 0b       	adds	#1,er3
      2e:	49 13       	.word	H'49,H'13
      30:	00 00       	nop	
      32:	05 34       	xorc	#0x34,ccr
      34:	00 03       	.word	H'0,H'3
      36:	0e 3a       	addx	r3h,r2l
      38:	0b 3b       	.word	H'b,H'3b
      3a:	0b 49       	.word	H'b,H'49
      3c:	13 3f       	.word	H'13,H'3f
      3e:	19 3c       	sub.w	r3,e4
      40:	19 00       	sub.w	r0,r0
      42:	00 06       	.word	H'0,H'6
      44:	2e 00       	mov.b	@0x0:8,r6l
      46:	3f 19       	mov.b	r7l,@0x19:8
      48:	03 0e       	ldc	r6l,ccr
      4a:	3a 0b       	mov.b	r2l,@0xb:8
      4c:	3b 0b       	mov.b	r3l,@0xb:8
      4e:	27 19       	mov.b	@0x19:8,r7h
      50:	49 13       	.word	H'49,H'13
      52:	11 01       	shlr.b	r1h
      54:	12 06       	rotxl.b	r6h
      56:	40 18       	bra	.+24 (0x70)
      58:	96 42       	addx	#0x42,r6h
      5a:	19 00       	sub.w	r0,r0
      5c:	00 07       	.word	H'0,H'7
      5e:	2e 01       	mov.b	@0x1:8,r6l
      60:	03 0e       	ldc	r6l,ccr
      62:	3a 0b       	mov.b	r2l,@0xb:8
      64:	3b 0b       	mov.b	r3l,@0xb:8
      66:	27 19       	mov.b	@0x19:8,r7h
      68:	49 13       	.word	H'49,H'13
      6a:	11 01       	shlr.b	r1h
      6c:	12 06       	rotxl.b	r6h
      6e:	40 18       	bra	.+24 (0x88)
      70:	96 42       	addx	#0x42,r6h
      72:	19 00       	sub.w	r0,r0
      74:	00 08       	.word	H'0,H'8
      76:	05 00       	xorc	#0x0,ccr
      78:	03 0e       	ldc	r6l,ccr
      7a:	3a 0b       	mov.b	r2l,@0xb:8
      7c:	3b 0b       	mov.b	r3l,@0xb:8
      7e:	49 13       	.word	H'49,H'13
      80:	02 18       	stc	exr,r0l
      82:	00 00       	nop	
	...

00000085 <.Ldebug_abbrev0>:
      85:	01 11       	.word	H'1,H'11
      87:	01 25       	.word	H'1,H'25
      89:	0e 13       	addx	r1h,r3h
      8b:	0b 03       	adds	#1,er3
      8d:	0e 1b       	addx	r1h,r3l
      8f:	0e 11       	addx	r1h,r1h
      91:	01 12       	.word	H'1,H'12
      93:	06 10       	andc	#0x10,ccr
      95:	17 00       	not.b	r0h
      97:	00 02       	.word	H'0,H'2
      99:	24 00       	mov.b	@0x0:8,r4h
      9b:	0b 0b       	adds	#1,er3
      9d:	3e 0b       	mov.b	r6l,@0xb:8
      9f:	03 0e       	ldc	r6l,ccr
      a1:	00 00       	nop	
      a3:	03 24       	ldmac	er4,mach
      a5:	00 0b       	.word	H'0,H'b
      a7:	0b 3e       	.word	H'b,H'3e
      a9:	0b 03       	adds	#1,er3
      ab:	08 00       	add.b	r0h,r0h
      ad:	00 04       	.word	H'0,H'4
      af:	34 00       	mov.b	r4h,@0x0:8
      b1:	03 0e       	ldc	r6l,ccr
      b3:	3a 0b       	mov.b	r2l,@0xb:8
      b5:	3b 0b       	mov.b	r3l,@0xb:8
      b7:	49 13       	.word	H'49,H'13
      b9:	3f 19       	mov.b	r7l,@0x19:8
      bb:	3c 19       	mov.b	r4l,@0x19:8
      bd:	00 00       	nop	
      bf:	05 16       	xorc	#0x16,ccr
      c1:	00 03       	.word	H'0,H'3
      c3:	0e 3a       	addx	r3h,r2l
      c5:	0b 3b       	.word	H'b,H'3b
      c7:	0b 49       	.word	H'b,H'49
      c9:	13 00       	rotxr.b	r0h
      cb:	00 06       	.word	H'0,H'6
      cd:	0f 00       	daa	r0h
      cf:	0b 0b       	adds	#1,er3
      d1:	49 13       	.word	H'49,H'13
      d3:	00 00       	nop	
      d5:	07 15       	ldc	#0x15,ccr
      d7:	01 27       	.word	H'1,H'27
      d9:	19 01       	sub.w	r0,r1
      db:	13 00       	rotxr.b	r0h
      dd:	00 08       	.word	H'0,H'8
      df:	05 00       	xorc	#0x0,ccr
      e1:	49 13       	.word	H'49,H'13
      e3:	00 00       	nop	
      e5:	09 2e       	add.w	r2,e6
      e7:	01 3f       	.word	H'1,H'3f
      e9:	19 03       	sub.w	r0,r3
      eb:	0e 3a       	addx	r3h,r2l
      ed:	0b 3b       	.word	H'b,H'3b
      ef:	0b 27       	.word	H'b,H'27
      f1:	19 11       	sub.w	r1,r1
      f3:	01 12       	.word	H'1,H'12
      f5:	06 40       	andc	#0x40,ccr
      f7:	18 96       	sub.b	r1l,r6h
      f9:	42 19       	.word	H'42,H'19
      fb:	01 13       	.word	H'1,H'13
      fd:	00 00       	nop	
      ff:	0a 05       	inc	r5h
     101:	00 03       	.word	H'0,H'3
     103:	0e 3a       	addx	r3h,r2l
     105:	0b 3b       	.word	H'b,H'3b
     107:	0b 49       	.word	H'b,H'49
     109:	13 02       	rotxr.b	r2h
     10b:	18 00       	sub.b	r0h,r0h
     10d:	00 0b       	.word	H'0,H'b
     10f:	05 00       	xorc	#0x0,ccr
     111:	03 08       	ldc	r0l,ccr
     113:	3a 0b       	mov.b	r2l,@0xb:8
     115:	3b 0b       	mov.b	r3l,@0xb:8
     117:	49 13       	.word	H'49,H'13
     119:	02 18       	stc	exr,r0l
     11b:	00 00       	nop	
     11d:	0c 34       	mov.b	r3h,r4h
     11f:	00 03       	.word	H'0,H'3
     121:	0e 3a       	addx	r3h,r2l
     123:	0b 3b       	.word	H'b,H'3b
     125:	0b 49       	.word	H'b,H'49
     127:	13 02       	rotxr.b	r2h
     129:	18 00       	sub.b	r0h,r0h
     12b:	00 0d       	.word	H'0,H'd
     12d:	2e 01       	mov.b	@0x1:8,r6l
     12f:	3f 19       	mov.b	r7l,@0x19:8
     131:	03 0e       	ldc	r6l,ccr
     133:	3a 0b       	mov.b	r2l,@0xb:8
     135:	3b 0b       	mov.b	r3l,@0xb:8
     137:	27 19       	mov.b	@0x19:8,r7h
     139:	49 13       	.word	H'49,H'13
     13b:	11 01       	shlr.b	r1h
     13d:	12 06       	rotxl.b	r6h
     13f:	40 18       	bra	.+24 (0x159)
     141:	97 42       	addx	#0x42,r7h
     143:	19 01       	sub.w	r0,r1
     145:	13 00       	rotxr.b	r0h
     147:	00 0e       	.word	H'0,H'e
     149:	2e 01       	mov.b	@0x1:8,r6l
     14b:	3f 19       	mov.b	r7l,@0x19:8
     14d:	03 0e       	ldc	r6l,ccr
     14f:	3a 0b       	mov.b	r2l,@0xb:8
     151:	3b 0b       	mov.b	r3l,@0xb:8
     153:	27 19       	mov.b	@0x19:8,r7h
     155:	49 13       	.word	H'49,H'13
     157:	11 01       	shlr.b	r1h
     159:	12 06       	rotxl.b	r6h
     15b:	40 18       	bra	.+24 (0x175)
     15d:	96 42       	addx	#0x42,r6h
     15f:	19 00       	sub.w	r0,r0
	...

00000163 <.Ldebug_abbrev0>:
     163:	01 11       	.word	H'1,H'11
     165:	01 25       	.word	H'1,H'25
     167:	0e 13       	addx	r1h,r3h
     169:	0b 03       	adds	#1,er3
     16b:	0e 1b       	addx	r1h,r3l
     16d:	0e 11       	addx	r1h,r1h
     16f:	01 12       	.word	H'1,H'12
     171:	06 10       	andc	#0x10,ccr
     173:	17 00       	not.b	r0h
     175:	00 02       	.word	H'0,H'2
     177:	24 00       	mov.b	@0x0:8,r4h
     179:	0b 0b       	adds	#1,er3
     17b:	3e 0b       	mov.b	r6l,@0xb:8
     17d:	03 0e       	ldc	r6l,ccr
     17f:	00 00       	nop	
     181:	03 24       	ldmac	er4,mach
     183:	00 0b       	.word	H'0,H'b
     185:	0b 3e       	.word	H'b,H'3e
     187:	0b 03       	adds	#1,er3
     189:	08 00       	add.b	r0h,r0h
     18b:	00 04       	.word	H'0,H'4
     18d:	0f 00       	daa	r0h
     18f:	0b 0b       	adds	#1,er3
     191:	49 13       	.word	H'49,H'13
     193:	00 00       	nop	
     195:	05 26       	xorc	#0x26,ccr
     197:	00 49       	.word	H'0,H'49
     199:	13 00       	rotxr.b	r0h
     19b:	00 06       	.word	H'0,H'6
     19d:	2e 01       	mov.b	@0x1:8,r6l
     19f:	3f 19       	mov.b	r7l,@0x19:8
     1a1:	03 0e       	ldc	r6l,ccr
     1a3:	3a 0b       	mov.b	r2l,@0xb:8
     1a5:	3b 0b       	mov.b	r3l,@0xb:8
     1a7:	27 19       	mov.b	@0x19:8,r7h
     1a9:	49 13       	.word	H'49,H'13
     1ab:	11 01       	shlr.b	r1h
     1ad:	12 06       	rotxl.b	r6h
     1af:	40 18       	bra	.+24 (0x1c9)
     1b1:	96 42       	addx	#0x42,r6h
     1b3:	19 01       	sub.w	r0,r1
     1b5:	13 00       	rotxr.b	r0h
     1b7:	00 07       	.word	H'0,H'7
     1b9:	05 00       	xorc	#0x0,ccr
     1bb:	03 0e       	ldc	r6l,ccr
     1bd:	3a 0b       	mov.b	r2l,@0xb:8
     1bf:	3b 0b       	mov.b	r3l,@0xb:8
     1c1:	49 13       	.word	H'49,H'13
     1c3:	02 18       	stc	exr,r0l
     1c5:	00 00       	nop	
     1c7:	08 34       	add.b	r3h,r4h
     1c9:	00 03       	.word	H'0,H'3
     1cb:	08 3a       	add.b	r3h,r2l
     1cd:	0b 3b       	.word	H'b,H'3b
     1cf:	0b 49       	.word	H'b,H'49
     1d1:	13 02       	rotxr.b	r2h
     1d3:	18 00       	sub.b	r0h,r0h
     1d5:	00 09       	.word	H'0,H'9
     1d7:	01 01       	.word	H'1,H'1
     1d9:	49 13       	.word	H'49,H'13
     1db:	01 13       	.word	H'1,H'13
     1dd:	00 00       	nop	
     1df:	0a 21       	add.w	#0x2,r1
     1e1:	00 49       	.word	H'0,H'49
     1e3:	13 2f       	.word	H'13,H'2f
     1e5:	0b 00       	adds	#1,er0
     1e7:	00 0b       	.word	H'0,H'b
     1e9:	05 00       	xorc	#0x0,ccr
     1eb:	03 08       	ldc	r0l,ccr
     1ed:	3a 0b       	mov.b	r2l,@0xb:8
     1ef:	3b 0b       	mov.b	r3l,@0xb:8
     1f1:	49 13       	.word	H'49,H'13
     1f3:	02 18       	stc	exr,r0l
     1f5:	00 00       	nop	
     1f7:	0c 2e       	mov.b	r2h,r6l
     1f9:	01 3f       	.word	H'1,H'3f
     1fb:	19 03       	sub.w	r0,r3
     1fd:	0e 3a       	addx	r3h,r2l
     1ff:	0b 3b       	.word	H'b,H'3b
     201:	0b 27       	.word	H'b,H'27
     203:	19 49       	sub.w	r4,e1
     205:	13 11       	rotxr.w	r1
     207:	01 12       	.word	H'1,H'12
     209:	06 40       	andc	#0x40,ccr
     20b:	18 97       	sub.b	r1l,r7h
     20d:	42 19       	.word	H'42,H'19
     20f:	01 13       	.word	H'1,H'13
     211:	00 00       	nop	
     213:	0d 26       	mov.w	r2,r6
     215:	00 00       	nop	
     217:	00 0e       	.word	H'0,H'e
     219:	0f 00       	daa	r0h
     21b:	0b 0b       	adds	#1,er3
     21d:	00 00       	nop	
     21f:	0f 2e       	mov.w	#0x2,e6
     221:	01 3f       	.word	H'1,H'3f
     223:	19 03       	sub.w	r0,r3
     225:	0e 3a       	addx	r3h,r2l
     227:	0b 3b       	.word	H'b,H'3b
     229:	0b 27       	.word	H'b,H'27
     22b:	19 49       	sub.w	r4,e1
     22d:	13 11       	rotxr.w	r1
     22f:	01 12       	.word	H'1,H'12
     231:	06 40       	andc	#0x40,ccr
     233:	18 97       	sub.b	r1l,r7h
     235:	42 19       	.word	H'42,H'19
     237:	00 00       	nop	
	...

0000023a <.Ldebug_abbrev0>:
     23a:	01 11       	.word	H'1,H'11
     23c:	01 25       	.word	H'1,H'25
     23e:	0e 13       	addx	r1h,r3h
     240:	0b 03       	adds	#1,er3
     242:	0e 1b       	addx	r1h,r3l
     244:	0e 11       	addx	r1h,r1h
     246:	01 12       	.word	H'1,H'12
     248:	06 10       	andc	#0x10,ccr
     24a:	17 00       	not.b	r0h
     24c:	00 02       	.word	H'0,H'2
     24e:	16 00       	and.b	r0h,r0h
     250:	03 0e       	ldc	r6l,ccr
     252:	3a 0b       	mov.b	r2l,@0xb:8
     254:	3b 0b       	mov.b	r3l,@0xb:8
     256:	49 13       	.word	H'49,H'13
     258:	00 00       	nop	
     25a:	03 35       	ldmac	er5,macl
     25c:	00 49       	.word	H'0,H'49
     25e:	13 00       	rotxr.b	r0h
     260:	00 04       	.word	H'0,H'4
     262:	24 00       	mov.b	@0x0:8,r4h
     264:	0b 0b       	adds	#1,er3
     266:	3e 0b       	mov.b	r6l,@0xb:8
     268:	03 0e       	ldc	r6l,ccr
     26a:	00 00       	nop	
     26c:	05 24       	xorc	#0x24,ccr
     26e:	00 0b       	.word	H'0,H'b
     270:	0b 3e       	.word	H'b,H'3e
     272:	0b 03       	adds	#1,er3
     274:	08 00       	add.b	r0h,r0h
     276:	00 06       	.word	H'0,H'6
     278:	13 01       	rotxr.b	r1h
     27a:	03 0e       	ldc	r6l,ccr
     27c:	0b 0b       	adds	#1,er3
     27e:	3a 0b       	mov.b	r2l,@0xb:8
     280:	3b 0b       	mov.b	r3l,@0xb:8
     282:	01 13       	.word	H'1,H'13
     284:	00 00       	nop	
     286:	07 0d       	ldc	#0xd,ccr
     288:	00 03       	.word	H'0,H'3
     28a:	08 3a       	add.b	r3h,r2l
     28c:	0b 3b       	.word	H'b,H'3b
     28e:	0b 49       	.word	H'b,H'49
     290:	13 38       	.word	H'13,H'38
     292:	0b 00       	adds	#1,er0
     294:	00 08       	.word	H'0,H'8
     296:	0d 00       	mov.w	r0,r0
     298:	03 0e       	ldc	r6l,ccr
     29a:	3a 0b       	mov.b	r2l,@0xb:8
     29c:	3b 0b       	mov.b	r3l,@0xb:8
     29e:	49 13       	.word	H'49,H'13
     2a0:	38 0b       	mov.b	r0l,@0xb:8
     2a2:	00 00       	nop	
     2a4:	09 13       	add.w	r1,r3
     2a6:	01 0b       	.word	H'1,H'b
     2a8:	0b 3a       	.word	H'b,H'3a
     2aa:	0b 3b       	.word	H'b,H'3b
     2ac:	0b 01       	adds	#1,er1
     2ae:	13 00       	rotxr.b	r0h
     2b0:	00 0a       	.word	H'0,H'a
     2b2:	0f 00       	daa	r0h
     2b4:	0b 0b       	adds	#1,er3
     2b6:	49 13       	.word	H'49,H'13
     2b8:	00 00       	nop	
     2ba:	0b 01       	adds	#1,er1
     2bc:	01 49       	.word	H'1,H'49
     2be:	13 01       	rotxr.b	r1h
     2c0:	13 00       	rotxr.b	r0h
     2c2:	00 0c       	.word	H'0,H'c
     2c4:	21 00       	mov.b	@0x0:8,r1h
     2c6:	49 13       	.word	H'49,H'13
     2c8:	2f 0b       	mov.b	@0xb:8,r7l
     2ca:	00 00       	nop	
     2cc:	0d 34       	mov.w	r3,r4
     2ce:	00 03       	.word	H'0,H'3
     2d0:	0e 3a       	addx	r3h,r2l
     2d2:	0b 3b       	.word	H'b,H'3b
     2d4:	0b 49       	.word	H'b,H'49
     2d6:	13 02       	rotxr.b	r2h
     2d8:	18 00       	sub.b	r0h,r0h
     2da:	00 0e       	.word	H'0,H'e
     2dc:	2e 01       	mov.b	@0x1:8,r6l
     2de:	3f 19       	mov.b	r7l,@0x19:8
     2e0:	03 0e       	ldc	r6l,ccr
     2e2:	3a 0b       	mov.b	r2l,@0xb:8
     2e4:	3b 0b       	mov.b	r3l,@0xb:8
     2e6:	27 19       	mov.b	@0x19:8,r7h
     2e8:	11 01       	shlr.b	r1h
     2ea:	12 06       	rotxl.b	r6h
     2ec:	40 18       	bra	.+24 (0x306)
     2ee:	97 42       	addx	#0x42,r7h
     2f0:	19 01       	sub.w	r0,r1
     2f2:	13 00       	rotxr.b	r0h
     2f4:	00 0f       	.word	H'0,H'f
     2f6:	05 00       	xorc	#0x0,ccr
     2f8:	03 0e       	ldc	r6l,ccr
     2fa:	3a 0b       	mov.b	r2l,@0xb:8
     2fc:	3b 0b       	mov.b	r3l,@0xb:8
     2fe:	49 13       	.word	H'49,H'13
     300:	02 18       	stc	exr,r0l
     302:	00 00       	nop	
     304:	10 34       	shll.l	er4
     306:	00 03       	.word	H'0,H'3
     308:	08 3a       	add.b	r3h,r2l
     30a:	0b 3b       	.word	H'b,H'3b
     30c:	0b 49       	.word	H'b,H'49
     30e:	13 02       	rotxr.b	r2h
     310:	18 00       	sub.b	r0h,r0h
     312:	00 11       	.word	H'0,H'11
     314:	2e 01       	mov.b	@0x1:8,r6l
     316:	3f 19       	mov.b	r7l,@0x19:8
     318:	03 0e       	ldc	r6l,ccr
     31a:	3a 0b       	mov.b	r2l,@0xb:8
     31c:	3b 0b       	mov.b	r3l,@0xb:8
     31e:	27 19       	mov.b	@0x19:8,r7h
     320:	49 13       	.word	H'49,H'13
     322:	11 01       	shlr.b	r1h
     324:	12 06       	rotxl.b	r6h
     326:	40 18       	bra	.+24 (0x340)
     328:	97 42       	addx	#0x42,r7h
     32a:	19 01       	sub.w	r0,r1
     32c:	13 00       	rotxr.b	r0h
     32e:	00 12       	.word	H'0,H'12
     330:	2e 01       	mov.b	@0x1:8,r6l
     332:	3f 19       	mov.b	r7l,@0x19:8
     334:	03 0e       	ldc	r6l,ccr
     336:	3a 0b       	mov.b	r2l,@0xb:8
     338:	3b 0b       	mov.b	r3l,@0xb:8
     33a:	27 19       	mov.b	@0x19:8,r7h
     33c:	49 13       	.word	H'49,H'13
     33e:	11 01       	shlr.b	r1h
     340:	12 06       	rotxl.b	r6h
     342:	40 18       	bra	.+24 (0x35c)
     344:	96 42       	addx	#0x42,r6h
     346:	19 01       	sub.w	r0,r1
     348:	13 00       	rotxr.b	r0h
     34a:	00 13       	.word	H'0,H'13
     34c:	05 00       	xorc	#0x0,ccr
     34e:	03 08       	ldc	r0l,ccr
     350:	3a 0b       	mov.b	r2l,@0xb:8
     352:	3b 0b       	mov.b	r3l,@0xb:8
     354:	49 13       	.word	H'49,H'13
     356:	02 18       	stc	exr,r0l
     358:	00 00       	nop	
     35a:	14 2e       	or.b	r2h,r6l
     35c:	01 3f       	.word	H'1,H'3f
     35e:	19 03       	sub.w	r0,r3
     360:	0e 3a       	addx	r3h,r2l
     362:	0b 3b       	.word	H'b,H'3b
     364:	0b 27       	.word	H'b,H'27
     366:	19 49       	sub.w	r4,e1
     368:	13 11       	rotxr.w	r1
     36a:	01 12       	.word	H'1,H'12
     36c:	06 40       	andc	#0x40,ccr
     36e:	18 97       	sub.b	r1l,r7h
     370:	42 19       	.word	H'42,H'19
     372:	00 00       	nop	
	...

00000375 <.Ldebug_abbrev0>:
     375:	01 11       	.word	H'1,H'11
     377:	01 25       	.word	H'1,H'25
     379:	0e 13       	addx	r1h,r3h
     37b:	0b 03       	adds	#1,er3
     37d:	0e 1b       	addx	r1h,r3l
     37f:	0e 11       	addx	r1h,r1h
     381:	01 12       	.word	H'1,H'12
     383:	06 10       	andc	#0x10,ccr
     385:	17 00       	not.b	r0h
     387:	00 02       	.word	H'0,H'2
     389:	16 00       	and.b	r0h,r0h
     38b:	03 0e       	ldc	r6l,ccr
     38d:	3a 0b       	mov.b	r2l,@0xb:8
     38f:	3b 0b       	mov.b	r3l,@0xb:8
     391:	49 13       	.word	H'49,H'13
     393:	00 00       	nop	
     395:	03 35       	ldmac	er5,macl
     397:	00 49       	.word	H'0,H'49
     399:	13 00       	rotxr.b	r0h
     39b:	00 04       	.word	H'0,H'4
     39d:	24 00       	mov.b	@0x0:8,r4h
     39f:	0b 0b       	adds	#1,er3
     3a1:	3e 0b       	mov.b	r6l,@0xb:8
     3a3:	03 0e       	ldc	r6l,ccr
     3a5:	00 00       	nop	
     3a7:	05 24       	xorc	#0x24,ccr
     3a9:	00 0b       	.word	H'0,H'b
     3ab:	0b 3e       	.word	H'b,H'3e
     3ad:	0b 03       	adds	#1,er3
     3af:	08 00       	add.b	r0h,r0h
     3b1:	00 06       	.word	H'0,H'6
     3b3:	13 01       	rotxr.b	r1h
     3b5:	03 0e       	ldc	r6l,ccr
     3b7:	0b 0b       	adds	#1,er3
     3b9:	3a 0b       	mov.b	r2l,@0xb:8
     3bb:	3b 0b       	mov.b	r3l,@0xb:8
     3bd:	01 13       	.word	H'1,H'13
     3bf:	00 00       	nop	
     3c1:	07 0d       	ldc	#0xd,ccr
     3c3:	00 03       	.word	H'0,H'3
     3c5:	0e 3a       	addx	r3h,r2l
     3c7:	0b 3b       	.word	H'b,H'3b
     3c9:	0b 49       	.word	H'b,H'49
     3cb:	13 38       	.word	H'13,H'38
     3cd:	0b 00       	adds	#1,er0
     3cf:	00 08       	.word	H'0,H'8
     3d1:	13 01       	rotxr.b	r1h
     3d3:	0b 0b       	adds	#1,er3
     3d5:	3a 0b       	mov.b	r2l,@0xb:8
     3d7:	3b 0b       	mov.b	r3l,@0xb:8
     3d9:	01 13       	.word	H'1,H'13
     3db:	00 00       	nop	
     3dd:	09 0d       	add.w	r0,e5
     3df:	00 03       	.word	H'0,H'3
     3e1:	08 3a       	add.b	r3h,r2l
     3e3:	0b 3b       	.word	H'b,H'3b
     3e5:	0b 49       	.word	H'b,H'49
     3e7:	13 38       	.word	H'13,H'38
     3e9:	0b 00       	adds	#1,er0
     3eb:	00 0a       	.word	H'0,H'a
     3ed:	0f 00       	daa	r0h
     3ef:	0b 0b       	adds	#1,er3
     3f1:	49 13       	.word	H'49,H'13
     3f3:	00 00       	nop	
     3f5:	0b 01       	adds	#1,er1
     3f7:	01 49       	.word	H'1,H'49
     3f9:	13 01       	rotxr.b	r1h
     3fb:	13 00       	rotxr.b	r0h
     3fd:	00 0c       	.word	H'0,H'c
     3ff:	21 00       	mov.b	@0x0:8,r1h
     401:	49 13       	.word	H'49,H'13
     403:	2f 0b       	mov.b	@0xb:8,r7l
     405:	00 00       	nop	
     407:	0d 34       	mov.w	r3,r4
     409:	00 03       	.word	H'0,H'3
     40b:	0e 3a       	addx	r3h,r2l
     40d:	0b 3b       	.word	H'b,H'3b
     40f:	0b 49       	.word	H'b,H'49
     411:	13 02       	rotxr.b	r2h
     413:	18 00       	sub.b	r0h,r0h
     415:	00 0e       	.word	H'0,H'e
     417:	2e 01       	mov.b	@0x1:8,r6l
     419:	3f 19       	mov.b	r7l,@0x19:8
     41b:	03 0e       	ldc	r6l,ccr
     41d:	3a 0b       	mov.b	r2l,@0xb:8
     41f:	3b 0b       	mov.b	r3l,@0xb:8
     421:	27 19       	mov.b	@0x19:8,r7h
     423:	49 13       	.word	H'49,H'13
     425:	11 01       	shlr.b	r1h
     427:	12 06       	rotxl.b	r6h
     429:	40 18       	bra	.+24 (0x443)
     42b:	96 42       	addx	#0x42,r6h
     42d:	19 01       	sub.w	r0,r1
     42f:	13 00       	rotxr.b	r0h
     431:	00 0f       	.word	H'0,H'f
     433:	05 00       	xorc	#0x0,ccr
     435:	03 0e       	ldc	r6l,ccr
     437:	3a 0b       	mov.b	r2l,@0xb:8
     439:	3b 0b       	mov.b	r3l,@0xb:8
     43b:	49 13       	.word	H'49,H'13
     43d:	02 18       	stc	exr,r0l
     43f:	00 00       	nop	
     441:	10 34       	shll.l	er4
     443:	00 03       	.word	H'0,H'3
     445:	08 3a       	add.b	r3h,r2l
     447:	0b 3b       	.word	H'b,H'3b
     449:	0b 49       	.word	H'b,H'49
     44b:	13 02       	rotxr.b	r2h
     44d:	18 00       	sub.b	r0h,r0h
     44f:	00 11       	.word	H'0,H'11
     451:	2e 01       	mov.b	@0x1:8,r6l
     453:	3f 19       	mov.b	r7l,@0x19:8
     455:	03 0e       	ldc	r6l,ccr
     457:	3a 0b       	mov.b	r2l,@0xb:8
     459:	3b 0b       	mov.b	r3l,@0xb:8
     45b:	27 19       	mov.b	@0x19:8,r7h
     45d:	49 13       	.word	H'49,H'13
     45f:	11 01       	shlr.b	r1h
     461:	12 06       	rotxl.b	r6h
     463:	40 18       	bra	.+24 (0x47d)
     465:	97 42       	addx	#0x42,r7h
     467:	19 01       	sub.w	r0,r1
     469:	13 00       	rotxr.b	r0h
     46b:	00 12       	.word	H'0,H'12
     46d:	2e 01       	mov.b	@0x1:8,r6l
     46f:	3f 19       	mov.b	r7l,@0x19:8
     471:	03 0e       	ldc	r6l,ccr
     473:	3a 0b       	mov.b	r2l,@0xb:8
     475:	3b 0b       	mov.b	r3l,@0xb:8
     477:	27 19       	mov.b	@0x19:8,r7h
     479:	49 13       	.word	H'49,H'13
     47b:	11 01       	shlr.b	r1h
     47d:	12 06       	rotxl.b	r6h
     47f:	40 18       	bra	.+24 (0x499)
     481:	97 42       	addx	#0x42,r7h
     483:	19 00       	sub.w	r0,r0
	...

00000487 <.Ldebug_abbrev0>:
     487:	01 11       	.word	H'1,H'11
     489:	01 25       	.word	H'1,H'25
     48b:	0e 13       	addx	r1h,r3h
     48d:	0b 03       	adds	#1,er3
     48f:	0e 1b       	addx	r1h,r3l
     491:	0e 11       	addx	r1h,r1h
     493:	01 12       	.word	H'1,H'12
     495:	06 10       	andc	#0x10,ccr
     497:	17 00       	not.b	r0h
     499:	00 02       	.word	H'0,H'2
     49b:	16 00       	and.b	r0h,r0h
     49d:	03 0e       	ldc	r6l,ccr
     49f:	3a 0b       	mov.b	r2l,@0xb:8
     4a1:	3b 0b       	mov.b	r3l,@0xb:8
     4a3:	49 13       	.word	H'49,H'13
     4a5:	00 00       	nop	
     4a7:	03 24       	ldmac	er4,mach
     4a9:	00 0b       	.word	H'0,H'b
     4ab:	0b 3e       	.word	H'b,H'3e
     4ad:	0b 03       	adds	#1,er3
     4af:	0e 00       	addx	r0h,r0h
     4b1:	00 04       	.word	H'0,H'4
     4b3:	24 00       	mov.b	@0x0:8,r4h
     4b5:	0b 0b       	adds	#1,er3
     4b7:	3e 0b       	mov.b	r6l,@0xb:8
     4b9:	03 08       	ldc	r0l,ccr
     4bb:	00 00       	nop	
     4bd:	05 35       	xorc	#0x35,ccr
     4bf:	00 49       	.word	H'0,H'49
     4c1:	13 00       	rotxr.b	r0h
     4c3:	00 06       	.word	H'0,H'6
     4c5:	0f 00       	daa	r0h
     4c7:	0b 0b       	adds	#1,er3
     4c9:	49 13       	.word	H'49,H'13
     4cb:	00 00       	nop	
     4cd:	07 2e       	ldc	#0x2e,ccr
     4cf:	01 3f       	.word	H'1,H'3f
     4d1:	19 03       	sub.w	r0,r3
     4d3:	0e 3a       	addx	r3h,r2l
     4d5:	0b 3b       	.word	H'b,H'3b
     4d7:	05 27       	xorc	#0x27,ccr
     4d9:	19 49       	sub.w	r4,e1
     4db:	13 11       	rotxr.w	r1
     4dd:	01 12       	.word	H'1,H'12
     4df:	06 40       	andc	#0x40,ccr
     4e1:	18 96       	sub.b	r1l,r6h
     4e3:	42 19       	.word	H'42,H'19
     4e5:	01 13       	.word	H'1,H'13
     4e7:	00 00       	nop	
     4e9:	08 05       	add.b	r0h,r5h
     4eb:	00 03       	.word	H'0,H'3
     4ed:	0e 3a       	addx	r3h,r2l
     4ef:	0b 3b       	.word	H'b,H'3b
     4f1:	05 49       	xorc	#0x49,ccr
     4f3:	13 02       	rotxr.b	r2h
     4f5:	18 00       	sub.b	r0h,r0h
     4f7:	00 09       	.word	H'0,H'9
     4f9:	05 00       	xorc	#0x0,ccr
     4fb:	03 08       	ldc	r0l,ccr
     4fd:	3a 0b       	mov.b	r2l,@0xb:8
     4ff:	3b 05       	mov.b	r3l,@0x5:8
     501:	49 13       	.word	H'49,H'13
     503:	02 18       	stc	exr,r0l
     505:	00 00       	nop	
     507:	0a 34       	add.w	#0x3,r4
     509:	00 03       	.word	H'0,H'3
     50b:	0e 3a       	addx	r3h,r2l
     50d:	0b 3b       	.word	H'b,H'3b
     50f:	05 49       	xorc	#0x49,ccr
     511:	13 02       	rotxr.b	r2h
     513:	18 00       	sub.b	r0h,r0h
     515:	00 0b       	.word	H'0,H'b
     517:	01 01       	.word	H'1,H'1
     519:	49 13       	.word	H'49,H'13
     51b:	01 13       	.word	H'1,H'13
     51d:	00 00       	nop	
     51f:	0c 21       	mov.b	r2h,r1h
     521:	00 49       	.word	H'0,H'49
     523:	13 2f       	.word	H'13,H'2f
     525:	0b 00       	adds	#1,er0
     527:	00 0d       	.word	H'0,H'd
     529:	2e 01       	mov.b	@0x1:8,r6l
     52b:	03 0e       	ldc	r6l,ccr
     52d:	3a 0b       	mov.b	r2l,@0xb:8
     52f:	3b 05       	mov.b	r3l,@0x5:8
     531:	27 19       	mov.b	@0x19:8,r7h
     533:	49 13       	.word	H'49,H'13
     535:	11 01       	shlr.b	r1h
     537:	12 06       	rotxl.b	r6h
     539:	40 18       	bra	.+24 (0x553)
     53b:	96 42       	addx	#0x42,r6h
     53d:	19 01       	sub.w	r0,r1
     53f:	13 00       	rotxr.b	r0h
     541:	00 0e       	.word	H'0,H'e
     543:	2e 01       	mov.b	@0x1:8,r6l
     545:	3f 19       	mov.b	r7l,@0x19:8
     547:	03 0e       	ldc	r6l,ccr
     549:	3a 0b       	mov.b	r2l,@0xb:8
     54b:	3b 05       	mov.b	r3l,@0x5:8
     54d:	27 19       	mov.b	@0x19:8,r7h
     54f:	49 13       	.word	H'49,H'13
     551:	11 01       	shlr.b	r1h
     553:	12 06       	rotxl.b	r6h
     555:	40 18       	bra	.+24 (0x56f)
     557:	97 42       	addx	#0x42,r7h
     559:	19 01       	sub.w	r0,r1
     55b:	13 00       	rotxr.b	r0h
     55d:	00 0f       	.word	H'0,H'f
     55f:	2e 01       	mov.b	@0x1:8,r6l
     561:	3f 19       	mov.b	r7l,@0x19:8
     563:	03 0e       	ldc	r6l,ccr
     565:	3a 0b       	mov.b	r2l,@0xb:8
     567:	3b 05       	mov.b	r3l,@0x5:8
     569:	27 19       	mov.b	@0x19:8,r7h
     56b:	11 01       	shlr.b	r1h
     56d:	12 06       	rotxl.b	r6h
     56f:	40 18       	bra	.+24 (0x589)
     571:	97 42       	addx	#0x42,r7h
     573:	19 01       	sub.w	r0,r1
     575:	13 00       	rotxr.b	r0h
     577:	00 10       	.word	H'0,H'10
     579:	2e 01       	mov.b	@0x1:8,r6l
     57b:	3f 19       	mov.b	r7l,@0x19:8
     57d:	03 0e       	ldc	r6l,ccr
     57f:	3a 0b       	mov.b	r2l,@0xb:8
     581:	3b 0b       	mov.b	r3l,@0xb:8
     583:	27 19       	mov.b	@0x19:8,r7h
     585:	49 13       	.word	H'49,H'13
     587:	11 01       	shlr.b	r1h
     589:	12 06       	rotxl.b	r6h
     58b:	40 18       	bra	.+24 (0x5a5)
     58d:	96 42       	addx	#0x42,r6h
     58f:	19 01       	sub.w	r0,r1
     591:	13 00       	rotxr.b	r0h
     593:	00 11       	.word	H'0,H'11
     595:	05 00       	xorc	#0x0,ccr
     597:	03 0e       	ldc	r6l,ccr
     599:	3a 0b       	mov.b	r2l,@0xb:8
     59b:	3b 0b       	mov.b	r3l,@0xb:8
     59d:	49 13       	.word	H'49,H'13
     59f:	02 18       	stc	exr,r0l
     5a1:	00 00       	nop	
     5a3:	12 34       	rotxl.l	er4
     5a5:	00 03       	.word	H'0,H'3
     5a7:	08 3a       	add.b	r3h,r2l
     5a9:	0b 3b       	.word	H'b,H'3b
     5ab:	0b 49       	.word	H'b,H'49
     5ad:	13 02       	rotxr.b	r2h
     5af:	18 00       	sub.b	r0h,r0h
     5b1:	00 13       	.word	H'0,H'13
     5b3:	34 00       	mov.b	r4h,@0x0:8
     5b5:	03 0e       	ldc	r6l,ccr
     5b7:	3a 0b       	mov.b	r2l,@0xb:8
     5b9:	3b 0b       	mov.b	r3l,@0xb:8
     5bb:	49 13       	.word	H'49,H'13
     5bd:	02 18       	stc	exr,r0l
     5bf:	00 00       	nop	
     5c1:	14 2e       	or.b	r2h,r6l
     5c3:	00 03       	.word	H'0,H'3
     5c5:	0e 3a       	addx	r3h,r2l
     5c7:	0b 3b       	.word	H'b,H'3b
     5c9:	0b 49       	.word	H'b,H'49
     5cb:	13 11       	rotxr.w	r1
     5cd:	01 12       	.word	H'1,H'12
     5cf:	06 40       	andc	#0x40,ccr
     5d1:	18 97       	sub.b	r1l,r7h
     5d3:	42 19       	.word	H'42,H'19
     5d5:	00 00       	nop	
     5d7:	15 2e       	xor.b	r2h,r6l
     5d9:	01 03       	.word	H'1,H'3
     5db:	0e 3a       	addx	r3h,r2l
     5dd:	0b 3b       	.word	H'b,H'3b
     5df:	0b 27       	.word	H'b,H'27
     5e1:	19 49       	sub.w	r4,e1
     5e3:	13 11       	rotxr.w	r1
     5e5:	01 12       	.word	H'1,H'12
     5e7:	06 40       	andc	#0x40,ccr
     5e9:	18 97       	sub.b	r1l,r7h
     5eb:	42 19       	.word	H'42,H'19
     5ed:	01 13       	.word	H'1,H'13
     5ef:	00 00       	nop	
     5f1:	16 05       	and.b	r0h,r5h
     5f3:	00 03       	.word	H'0,H'3
     5f5:	08 3a       	add.b	r3h,r2l
     5f7:	0b 3b       	.word	H'b,H'3b
     5f9:	0b 49       	.word	H'b,H'49
     5fb:	13 02       	rotxr.b	r2h
     5fd:	18 00       	sub.b	r0h,r0h
     5ff:	00 17       	.word	H'0,H'17
     601:	2e 01       	mov.b	@0x1:8,r6l
     603:	03 0e       	ldc	r6l,ccr
     605:	3a 0b       	mov.b	r2l,@0xb:8
     607:	3b 0b       	mov.b	r3l,@0xb:8
     609:	27 19       	mov.b	@0x19:8,r7h
     60b:	11 01       	shlr.b	r1h
     60d:	12 06       	rotxl.b	r6h
     60f:	40 18       	bra	.+24 (0x629)
     611:	96 42       	addx	#0x42,r6h
     613:	19 01       	sub.w	r0,r1
     615:	13 00       	rotxr.b	r0h
     617:	00 18       	.word	H'0,H'18
     619:	2e 01       	mov.b	@0x1:8,r6l
     61b:	03 0e       	ldc	r6l,ccr
     61d:	3a 0b       	mov.b	r2l,@0xb:8
     61f:	3b 0b       	mov.b	r3l,@0xb:8
     621:	27 19       	mov.b	@0x19:8,r7h
     623:	11 01       	shlr.b	r1h
     625:	12 06       	rotxl.b	r6h
     627:	40 18       	bra	.+24 (0x641)
     629:	97 42       	addx	#0x42,r7h
     62b:	19 00       	sub.w	r0,r0
	...

0000062f <.Ldebug_abbrev0>:
     62f:	01 11       	.word	H'1,H'11
     631:	01 25       	.word	H'1,H'25
     633:	0e 13       	addx	r1h,r3h
     635:	0b 03       	adds	#1,er3
     637:	0e 1b       	addx	r1h,r3l
     639:	0e 11       	addx	r1h,r1h
     63b:	01 12       	.word	H'1,H'12
     63d:	06 10       	andc	#0x10,ccr
     63f:	17 00       	not.b	r0h
     641:	00 02       	.word	H'0,H'2
     643:	24 00       	mov.b	@0x0:8,r4h
     645:	0b 0b       	adds	#1,er3
     647:	3e 0b       	mov.b	r6l,@0xb:8
     649:	03 0e       	ldc	r6l,ccr
     64b:	00 00       	nop	
     64d:	03 16       	ldc	r6h,exr
     64f:	00 03       	.word	H'0,H'3
     651:	0e 3a       	addx	r3h,r2l
     653:	0b 3b       	.word	H'b,H'3b
     655:	0b 49       	.word	H'b,H'49
     657:	13 00       	rotxr.b	r0h
     659:	00 04       	.word	H'0,H'4
     65b:	0f 00       	daa	r0h
     65d:	0b 0b       	adds	#1,er3
     65f:	49 13       	.word	H'49,H'13
     661:	00 00       	nop	
     663:	05 15       	xorc	#0x15,ccr
     665:	01 27       	.word	H'1,H'27
     667:	19 49       	sub.w	r4,e1
     669:	13 01       	rotxr.b	r1h
     66b:	13 00       	rotxr.b	r0h
     66d:	00 06       	.word	H'0,H'6
     66f:	05 00       	xorc	#0x0,ccr
     671:	49 13       	.word	H'49,H'13
     673:	00 00       	nop	
     675:	07 24       	ldc	#0x24,ccr
     677:	00 0b       	.word	H'0,H'b
     679:	0b 3e       	.word	H'b,H'3e
     67b:	0b 03       	adds	#1,er3
     67d:	08 00       	add.b	r0h,r0h
     67f:	00 08       	.word	H'0,H'8
     681:	15 00       	xor.b	r0h,r0h
     683:	27 19       	mov.b	@0x19:8,r7h
     685:	00 00       	nop	
     687:	09 04       	add.w	r0,r4
     689:	01 3e       	.word	H'1,H'3e
     68b:	0b 0b       	adds	#1,er3
     68d:	0b 49       	.word	H'b,H'49
     68f:	13 3a       	.word	H'13,H'3a
     691:	0b 3b       	.word	H'b,H'3b
     693:	0b 01       	adds	#1,er1
     695:	13 00       	rotxr.b	r0h
     697:	00 0a       	.word	H'0,H'a
     699:	28 00       	mov.b	@0x0:8,r0l
     69b:	03 0e       	ldc	r6l,ccr
     69d:	1c 0b       	cmp.b	r0h,r3l
     69f:	00 00       	nop	
     6a1:	0b 34       	.word	H'b,H'34
     6a3:	00 03       	.word	H'0,H'3
     6a5:	0e 3a       	addx	r3h,r2l
     6a7:	0b 3b       	.word	H'b,H'3b
     6a9:	0b 49       	.word	H'b,H'49
     6ab:	13 3f       	.word	H'13,H'3f
     6ad:	19 3c       	sub.w	r3,e4
     6af:	19 00       	sub.w	r0,r0
     6b1:	00 0c       	.word	H'0,H'c
     6b3:	13 01       	rotxr.b	r1h
     6b5:	0b 0b       	adds	#1,er3
     6b7:	3a 0b       	mov.b	r2l,@0xb:8
     6b9:	3b 0b       	mov.b	r3l,@0xb:8
     6bb:	01 13       	.word	H'1,H'13
     6bd:	00 00       	nop	
     6bf:	0d 0d       	mov.w	r0,e5
     6c1:	00 03       	.word	H'0,H'3
     6c3:	0e 3a       	addx	r3h,r2l
     6c5:	0b 3b       	.word	H'b,H'3b
     6c7:	0b 49       	.word	H'b,H'49
     6c9:	13 38       	.word	H'13,H'38
     6cb:	0b 00       	adds	#1,er0
     6cd:	00 0e       	.word	H'0,H'e
     6cf:	0d 00       	mov.w	r0,r0
     6d1:	03 08       	ldc	r0l,ccr
     6d3:	3a 0b       	mov.b	r2l,@0xb:8
     6d5:	3b 0b       	mov.b	r3l,@0xb:8
     6d7:	49 13       	.word	H'49,H'13
     6d9:	38 0b       	mov.b	r0l,@0xb:8
     6db:	00 00       	nop	
     6dd:	0f 0f       	daa	r7l
     6df:	00 0b       	.word	H'0,H'b
     6e1:	0b 00       	adds	#1,er0
     6e3:	00 10       	.word	H'0,H'10
     6e5:	17 01       	not.b	r1h
     6e7:	0b 0b       	adds	#1,er3
     6e9:	3a 0b       	mov.b	r2l,@0xb:8
     6eb:	3b 0b       	mov.b	r3l,@0xb:8
     6ed:	01 13       	.word	H'1,H'13
     6ef:	00 00       	nop	
     6f1:	11 0d       	shlr.b	r5l
     6f3:	00 03       	.word	H'0,H'3
     6f5:	08 3a       	add.b	r3h,r2l
     6f7:	0b 3b       	.word	H'b,H'3b
     6f9:	0b 49       	.word	H'b,H'49
     6fb:	13 00       	rotxr.b	r0h
     6fd:	00 12       	.word	H'0,H'12
     6ff:	0d 00       	mov.w	r0,r0
     701:	03 0e       	ldc	r6l,ccr
     703:	3a 0b       	mov.b	r2l,@0xb:8
     705:	3b 0b       	mov.b	r3l,@0xb:8
     707:	49 13       	.word	H'49,H'13
     709:	00 00       	nop	
     70b:	13 13       	rotxr.w	r3
     70d:	01 03       	.word	H'1,H'3
     70f:	0e 0b       	addx	r0h,r3l
     711:	0b 3a       	.word	H'b,H'3a
     713:	0b 3b       	.word	H'b,H'3b
     715:	0b 01       	adds	#1,er1
     717:	13 00       	rotxr.b	r0h
     719:	00 14       	.word	H'0,H'14
     71b:	01 01       	.word	H'1,H'1
     71d:	49 13       	.word	H'49,H'13
     71f:	01 13       	.word	H'1,H'13
     721:	00 00       	nop	
     723:	15 21       	xor.b	r2h,r1h
     725:	00 49       	.word	H'0,H'49
     727:	13 2f       	.word	H'13,H'2f
     729:	0b 00       	adds	#1,er0
     72b:	00 16       	.word	H'0,H'16
     72d:	34 00       	mov.b	r4h,@0x0:8
     72f:	03 0e       	ldc	r6l,ccr
     731:	3a 0b       	mov.b	r2l,@0xb:8
     733:	3b 0b       	mov.b	r3l,@0xb:8
     735:	49 13       	.word	H'49,H'13
     737:	02 18       	stc	exr,r0l
     739:	00 00       	nop	
     73b:	17 2e       	.word	H'17,H'2e
     73d:	01 3f       	.word	H'1,H'3f
     73f:	19 03       	sub.w	r0,r3
     741:	0e 3a       	addx	r3h,r2l
     743:	0b 3b       	.word	H'b,H'3b
     745:	05 27       	xorc	#0x27,ccr
     747:	19 11       	sub.w	r1,r1
     749:	01 12       	.word	H'1,H'12
     74b:	06 40       	andc	#0x40,ccr
     74d:	18 96       	sub.b	r1l,r6h
     74f:	42 19       	.word	H'42,H'19
     751:	01 13       	.word	H'1,H'13
     753:	00 00       	nop	
     755:	18 05       	sub.b	r0h,r5h
     757:	00 03       	.word	H'0,H'3
     759:	0e 3a       	addx	r3h,r2l
     75b:	0b 3b       	.word	H'b,H'3b
     75d:	05 49       	xorc	#0x49,ccr
     75f:	13 02       	rotxr.b	r2h
     761:	18 00       	sub.b	r0h,r0h
     763:	00 19       	.word	H'0,H'19
     765:	2e 01       	mov.b	@0x1:8,r6l
     767:	3f 19       	mov.b	r7l,@0x19:8
     769:	03 0e       	ldc	r6l,ccr
     76b:	3a 0b       	mov.b	r2l,@0xb:8
     76d:	3b 05       	mov.b	r3l,@0x5:8
     76f:	27 19       	mov.b	@0x19:8,r7h
     771:	11 01       	shlr.b	r1h
     773:	12 06       	rotxl.b	r6h
     775:	40 18       	bra	.+24 (0x78f)
     777:	97 42       	addx	#0x42,r7h
     779:	19 01       	sub.w	r0,r1
     77b:	13 00       	rotxr.b	r0h
     77d:	00 1a       	.word	H'0,H'1a
     77f:	2e 00       	mov.b	@0x0:8,r6l
     781:	3f 19       	mov.b	r7l,@0x19:8
     783:	03 0e       	ldc	r6l,ccr
     785:	3a 0b       	mov.b	r2l,@0xb:8
     787:	3b 05       	mov.b	r3l,@0x5:8
     789:	27 19       	mov.b	@0x19:8,r7h
     78b:	11 01       	shlr.b	r1h
     78d:	12 06       	rotxl.b	r6h
     78f:	40 18       	bra	.+24 (0x7a9)
     791:	96 42       	addx	#0x42,r6h
     793:	19 00       	sub.w	r0,r0
     795:	00 1b       	.word	H'0,H'1b
     797:	2e 01       	mov.b	@0x1:8,r6l
     799:	03 0e       	ldc	r6l,ccr
     79b:	3a 0b       	mov.b	r2l,@0xb:8
     79d:	3b 05       	mov.b	r3l,@0x5:8
     79f:	27 19       	mov.b	@0x19:8,r7h
     7a1:	11 01       	shlr.b	r1h
     7a3:	12 06       	rotxl.b	r6h
     7a5:	40 18       	bra	.+24 (0x7bf)
     7a7:	96 42       	addx	#0x42,r6h
     7a9:	19 01       	sub.w	r0,r1
     7ab:	13 00       	rotxr.b	r0h
     7ad:	00 1c       	.word	H'0,H'1c
     7af:	05 00       	xorc	#0x0,ccr
     7b1:	03 08       	ldc	r0l,ccr
     7b3:	3a 0b       	mov.b	r2l,@0xb:8
     7b5:	3b 05       	mov.b	r3l,@0x5:8
     7b7:	49 13       	.word	H'49,H'13
     7b9:	02 18       	stc	exr,r0l
     7bb:	00 00       	nop	
     7bd:	1d 2e       	cmp.w	r2,e6
     7bf:	00 03       	.word	H'0,H'3
     7c1:	0e 3a       	addx	r3h,r2l
     7c3:	0b 3b       	.word	H'b,H'3b
     7c5:	05 27       	xorc	#0x27,ccr
     7c7:	19 11       	sub.w	r1,r1
     7c9:	01 12       	.word	H'1,H'12
     7cb:	06 40       	andc	#0x40,ccr
     7cd:	18 96       	sub.b	r1l,r6h
     7cf:	42 19       	.word	H'42,H'19
     7d1:	00 00       	nop	
     7d3:	1e 34       	subx	r3h,r4h
     7d5:	00 03       	.word	H'0,H'3
     7d7:	08 3a       	add.b	r3h,r2l
     7d9:	0b 3b       	.word	H'b,H'3b
     7db:	05 49       	xorc	#0x49,ccr
     7dd:	13 02       	rotxr.b	r2h
     7df:	18 00       	sub.b	r0h,r0h
     7e1:	00 1f       	.word	H'0,H'1f
     7e3:	2e 01       	mov.b	@0x1:8,r6l
     7e5:	03 0e       	ldc	r6l,ccr
     7e7:	3a 0b       	mov.b	r2l,@0xb:8
     7e9:	3b 05       	mov.b	r3l,@0x5:8
     7eb:	27 19       	mov.b	@0x19:8,r7h
     7ed:	49 13       	.word	H'49,H'13
     7ef:	11 01       	shlr.b	r1h
     7f1:	12 06       	rotxl.b	r6h
     7f3:	40 18       	bra	.+24 (0x80d)
     7f5:	96 42       	addx	#0x42,r6h
     7f7:	19 01       	sub.w	r0,r1
     7f9:	13 00       	rotxr.b	r0h
     7fb:	00 20       	.word	H'0,H'20
     7fd:	34 00       	mov.b	r4h,@0x0:8
     7ff:	03 0e       	ldc	r6l,ccr
     801:	3a 0b       	mov.b	r2l,@0xb:8
     803:	3b 05       	mov.b	r3l,@0x5:8
     805:	49 13       	.word	H'49,H'13
     807:	02 18       	stc	exr,r0l
     809:	00 00       	nop	
     80b:	21 2e       	mov.b	@0x2e:8,r1h
     80d:	00 03       	.word	H'0,H'3
     80f:	0e 3a       	addx	r3h,r2l
     811:	0b 3b       	.word	H'b,H'3b
     813:	0b 27       	.word	H'b,H'27
     815:	19 49       	sub.w	r4,e1
     817:	13 11       	rotxr.w	r1
     819:	01 12       	.word	H'1,H'12
     81b:	06 40       	andc	#0x40,ccr
     81d:	18 96       	sub.b	r1l,r6h
     81f:	42 19       	.word	H'42,H'19
     821:	00 00       	nop	
     823:	22 2e       	mov.b	@0x2e:8,r2h
     825:	01 03       	.word	H'1,H'3
     827:	0e 3a       	addx	r3h,r2l
     829:	0b 3b       	.word	H'b,H'3b
     82b:	0b 27       	.word	H'b,H'27
     82d:	19 49       	sub.w	r4,e1
     82f:	13 11       	rotxr.w	r1
     831:	01 12       	.word	H'1,H'12
     833:	06 40       	andc	#0x40,ccr
     835:	18 96       	sub.b	r1l,r6h
     837:	42 19       	.word	H'42,H'19
     839:	01 13       	.word	H'1,H'13
     83b:	00 00       	nop	
     83d:	23 05       	mov.b	@0x5:8,r3h
     83f:	00 03       	.word	H'0,H'3
     841:	08 3a       	add.b	r3h,r2l
     843:	0b 3b       	.word	H'b,H'3b
     845:	0b 49       	.word	H'b,H'49
     847:	13 02       	rotxr.b	r2h
     849:	18 00       	sub.b	r0h,r0h
     84b:	00 24       	.word	H'0,H'24
     84d:	2e 00       	mov.b	@0x0:8,r6l
     84f:	03 0e       	ldc	r6l,ccr
     851:	3a 0b       	mov.b	r2l,@0xb:8
     853:	3b 0b       	mov.b	r3l,@0xb:8
     855:	27 19       	mov.b	@0x19:8,r7h
     857:	49 13       	.word	H'49,H'13
     859:	11 01       	shlr.b	r1h
     85b:	12 06       	rotxl.b	r6h
     85d:	40 18       	bra	.+24 (0x877)
     85f:	97 42       	addx	#0x42,r7h
     861:	19 00       	sub.w	r0,r0
     863:	00 25       	.word	H'0,H'25
     865:	05 00       	xorc	#0x0,ccr
     867:	03 0e       	ldc	r6l,ccr
     869:	3a 0b       	mov.b	r2l,@0xb:8
     86b:	3b 0b       	mov.b	r3l,@0xb:8
     86d:	49 13       	.word	H'49,H'13
     86f:	02 18       	stc	exr,r0l
     871:	00 00       	nop	
     873:	26 34       	mov.b	@0x34:8,r6h
     875:	00 03       	.word	H'0,H'3
     877:	08 3a       	add.b	r3h,r2l
     879:	0b 3b       	.word	H'b,H'3b
     87b:	0b 49       	.word	H'b,H'49
     87d:	13 02       	rotxr.b	r2h
     87f:	18 00       	sub.b	r0h,r0h
     881:	00 27       	.word	H'0,H'27
     883:	2e 01       	mov.b	@0x1:8,r6l
     885:	03 0e       	ldc	r6l,ccr
     887:	3a 0b       	mov.b	r2l,@0xb:8
     889:	3b 0b       	mov.b	r3l,@0xb:8
     88b:	27 19       	mov.b	@0x19:8,r7h
     88d:	11 01       	shlr.b	r1h
     88f:	12 06       	rotxl.b	r6h
     891:	40 18       	bra	.+24 (0x8ab)
     893:	96 42       	addx	#0x42,r6h
     895:	19 01       	sub.w	r0,r1
     897:	13 00       	rotxr.b	r0h
     899:	00 28       	.word	H'0,H'28
     89b:	2e 00       	mov.b	@0x0:8,r6l
     89d:	03 0e       	ldc	r6l,ccr
     89f:	3a 0b       	mov.b	r2l,@0xb:8
     8a1:	3b 0b       	mov.b	r3l,@0xb:8
     8a3:	27 19       	mov.b	@0x19:8,r7h
     8a5:	11 01       	shlr.b	r1h
     8a7:	12 06       	rotxl.b	r6h
     8a9:	40 18       	bra	.+24 (0x8c3)
     8ab:	96 42       	addx	#0x42,r6h
     8ad:	19 00       	sub.w	r0,r0
	...

000008b1 <.Ldebug_abbrev0>:
     8b1:	01 11       	.word	H'1,H'11
     8b3:	01 25       	.word	H'1,H'25
     8b5:	0e 13       	addx	r1h,r3h
     8b7:	0b 03       	adds	#1,er3
     8b9:	0e 1b       	addx	r1h,r3l
     8bb:	0e 11       	addx	r1h,r1h
     8bd:	01 12       	.word	H'1,H'12
     8bf:	06 10       	andc	#0x10,ccr
     8c1:	17 00       	not.b	r0h
     8c3:	00 02       	.word	H'0,H'2
     8c5:	24 00       	mov.b	@0x0:8,r4h
     8c7:	0b 0b       	adds	#1,er3
     8c9:	3e 0b       	mov.b	r6l,@0xb:8
     8cb:	03 0e       	ldc	r6l,ccr
     8cd:	00 00       	nop	
     8cf:	03 16       	ldc	r6h,exr
     8d1:	00 03       	.word	H'0,H'3
     8d3:	0e 3a       	addx	r3h,r2l
     8d5:	0b 3b       	.word	H'b,H'3b
     8d7:	0b 49       	.word	H'b,H'49
     8d9:	13 00       	rotxr.b	r0h
     8db:	00 04       	.word	H'0,H'4
     8dd:	0f 00       	daa	r0h
     8df:	0b 0b       	adds	#1,er3
     8e1:	49 13       	.word	H'49,H'13
     8e3:	00 00       	nop	
     8e5:	05 15       	xorc	#0x15,ccr
     8e7:	01 27       	.word	H'1,H'27
     8e9:	19 49       	sub.w	r4,e1
     8eb:	13 01       	rotxr.b	r1h
     8ed:	13 00       	rotxr.b	r0h
     8ef:	00 06       	.word	H'0,H'6
     8f1:	05 00       	xorc	#0x0,ccr
     8f3:	49 13       	.word	H'49,H'13
     8f5:	00 00       	nop	
     8f7:	07 24       	ldc	#0x24,ccr
     8f9:	00 0b       	.word	H'0,H'b
     8fb:	0b 3e       	.word	H'b,H'3e
     8fd:	0b 03       	adds	#1,er3
     8ff:	08 00       	add.b	r0h,r0h
     901:	00 08       	.word	H'0,H'8
     903:	15 00       	xor.b	r0h,r0h
     905:	27 19       	mov.b	@0x19:8,r7h
     907:	00 00       	nop	
     909:	09 04       	add.w	r0,r4
     90b:	01 3e       	.word	H'1,H'3e
     90d:	0b 0b       	adds	#1,er3
     90f:	0b 49       	.word	H'b,H'49
     911:	13 3a       	.word	H'13,H'3a
     913:	0b 3b       	.word	H'b,H'3b
     915:	0b 01       	adds	#1,er1
     917:	13 00       	rotxr.b	r0h
     919:	00 0a       	.word	H'0,H'a
     91b:	28 00       	mov.b	@0x0:8,r0l
     91d:	03 0e       	ldc	r6l,ccr
     91f:	1c 0b       	cmp.b	r0h,r3l
     921:	00 00       	nop	
     923:	0b 34       	.word	H'b,H'34
     925:	00 03       	.word	H'0,H'3
     927:	0e 3a       	addx	r3h,r2l
     929:	0b 3b       	.word	H'b,H'3b
     92b:	0b 49       	.word	H'b,H'49
     92d:	13 3f       	.word	H'13,H'3f
     92f:	19 3c       	sub.w	r3,e4
     931:	19 00       	sub.w	r0,r0
     933:	00 0c       	.word	H'0,H'c
     935:	13 01       	rotxr.b	r1h
     937:	0b 0b       	adds	#1,er3
     939:	3a 0b       	mov.b	r2l,@0xb:8
     93b:	3b 0b       	mov.b	r3l,@0xb:8
     93d:	01 13       	.word	H'1,H'13
     93f:	00 00       	nop	
     941:	0d 0d       	mov.w	r0,e5
     943:	00 03       	.word	H'0,H'3
     945:	0e 3a       	addx	r3h,r2l
     947:	0b 3b       	.word	H'b,H'3b
     949:	0b 49       	.word	H'b,H'49
     94b:	13 38       	.word	H'13,H'38
     94d:	0b 00       	adds	#1,er0
     94f:	00 0e       	.word	H'0,H'e
     951:	0d 00       	mov.w	r0,r0
     953:	03 08       	ldc	r0l,ccr
     955:	3a 0b       	mov.b	r2l,@0xb:8
     957:	3b 0b       	mov.b	r3l,@0xb:8
     959:	49 13       	.word	H'49,H'13
     95b:	38 0b       	mov.b	r0l,@0xb:8
     95d:	00 00       	nop	
     95f:	0f 0f       	daa	r7l
     961:	00 0b       	.word	H'0,H'b
     963:	0b 00       	adds	#1,er0
     965:	00 10       	.word	H'0,H'10
     967:	17 01       	not.b	r1h
     969:	0b 0b       	adds	#1,er3
     96b:	3a 0b       	mov.b	r2l,@0xb:8
     96d:	3b 0b       	mov.b	r3l,@0xb:8
     96f:	01 13       	.word	H'1,H'13
     971:	00 00       	nop	
     973:	11 0d       	shlr.b	r5l
     975:	00 03       	.word	H'0,H'3
     977:	08 3a       	add.b	r3h,r2l
     979:	0b 3b       	.word	H'b,H'3b
     97b:	0b 49       	.word	H'b,H'49
     97d:	13 00       	rotxr.b	r0h
     97f:	00 12       	.word	H'0,H'12
     981:	0d 00       	mov.w	r0,r0
     983:	03 0e       	ldc	r6l,ccr
     985:	3a 0b       	mov.b	r2l,@0xb:8
     987:	3b 0b       	mov.b	r3l,@0xb:8
     989:	49 13       	.word	H'49,H'13
     98b:	00 00       	nop	
     98d:	13 2e       	.word	H'13,H'2e
     98f:	01 3f       	.word	H'1,H'3f
     991:	19 03       	sub.w	r0,r3
     993:	0e 3a       	addx	r3h,r2l
     995:	0b 3b       	.word	H'b,H'3b
     997:	0b 27       	.word	H'b,H'27
     999:	19 49       	sub.w	r4,e1
     99b:	13 11       	rotxr.w	r1
     99d:	01 12       	.word	H'1,H'12
     99f:	06 40       	andc	#0x40,ccr
     9a1:	18 96       	sub.b	r1l,r6h
     9a3:	42 19       	.word	H'42,H'19
     9a5:	01 13       	.word	H'1,H'13
     9a7:	00 00       	nop	
     9a9:	14 05       	or.b	r0h,r5h
     9ab:	00 03       	.word	H'0,H'3
     9ad:	08 3a       	add.b	r3h,r2l
     9af:	0b 3b       	.word	H'b,H'3b
     9b1:	0b 49       	.word	H'b,H'49
     9b3:	13 02       	rotxr.b	r2h
     9b5:	18 00       	sub.b	r0h,r0h
     9b7:	00 15       	.word	H'0,H'15
     9b9:	05 00       	xorc	#0x0,ccr
     9bb:	03 0e       	ldc	r6l,ccr
     9bd:	3a 0b       	mov.b	r2l,@0xb:8
     9bf:	3b 0b       	mov.b	r3l,@0xb:8
     9c1:	49 13       	.word	H'49,H'13
     9c3:	02 18       	stc	exr,r0l
     9c5:	00 00       	nop	
     9c7:	16 34       	and.b	r3h,r4h
     9c9:	00 03       	.word	H'0,H'3
     9cb:	0e 3a       	addx	r3h,r2l
     9cd:	0b 3b       	.word	H'b,H'3b
     9cf:	0b 49       	.word	H'b,H'49
     9d1:	13 02       	rotxr.b	r2h
     9d3:	18 00       	sub.b	r0h,r0h
     9d5:	00 17       	.word	H'0,H'17
     9d7:	2e 00       	mov.b	@0x0:8,r6l
     9d9:	3f 19       	mov.b	r7l,@0x19:8
     9db:	03 0e       	ldc	r6l,ccr
     9dd:	3a 0b       	mov.b	r2l,@0xb:8
     9df:	3b 0b       	mov.b	r3l,@0xb:8
     9e1:	27 19       	mov.b	@0x19:8,r7h
     9e3:	11 01       	shlr.b	r1h
     9e5:	12 06       	rotxl.b	r6h
     9e7:	40 18       	bra	.+24 (0xa01)
     9e9:	96 42       	addx	#0x42,r6h
     9eb:	19 00       	sub.w	r0,r0
     9ed:	00 18       	.word	H'0,H'18
     9ef:	2e 01       	mov.b	@0x1:8,r6l
     9f1:	3f 19       	mov.b	r7l,@0x19:8
     9f3:	03 0e       	ldc	r6l,ccr
     9f5:	3a 0b       	mov.b	r2l,@0xb:8
     9f7:	3b 0b       	mov.b	r3l,@0xb:8
     9f9:	27 19       	mov.b	@0x19:8,r7h
     9fb:	49 13       	.word	H'49,H'13
     9fd:	11 01       	shlr.b	r1h
     9ff:	12 06       	rotxl.b	r6h
     a01:	40 18       	bra	.+24 (0xa1b)
     a03:	96 42       	addx	#0x42,r6h
     a05:	19 00       	sub.w	r0,r0
	...

00000a09 <.Ldebug_abbrev0>:
     a09:	01 11       	.word	H'1,H'11
     a0b:	01 25       	.word	H'1,H'25
     a0d:	0e 13       	addx	r1h,r3h
     a0f:	0b 03       	adds	#1,er3
     a11:	0e 1b       	addx	r1h,r3l
     a13:	0e 11       	addx	r1h,r1h
     a15:	01 12       	.word	H'1,H'12
     a17:	06 10       	andc	#0x10,ccr
     a19:	17 00       	not.b	r0h
     a1b:	00 02       	.word	H'0,H'2
     a1d:	24 00       	mov.b	@0x0:8,r4h
     a1f:	0b 0b       	adds	#1,er3
     a21:	3e 0b       	mov.b	r6l,@0xb:8
     a23:	03 0e       	ldc	r6l,ccr
     a25:	00 00       	nop	
     a27:	03 24       	ldmac	er4,mach
     a29:	00 0b       	.word	H'0,H'b
     a2b:	0b 3e       	.word	H'b,H'3e
     a2d:	0b 03       	adds	#1,er3
     a2f:	08 00       	add.b	r0h,r0h
     a31:	00 04       	.word	H'0,H'4
     a33:	0f 00       	daa	r0h
     a35:	0b 0b       	adds	#1,er3
     a37:	49 13       	.word	H'49,H'13
     a39:	00 00       	nop	
     a3b:	05 34       	xorc	#0x34,ccr
     a3d:	00 03       	.word	H'0,H'3
     a3f:	0e 3a       	addx	r3h,r2l
     a41:	0b 3b       	.word	H'b,H'3b
     a43:	0b 49       	.word	H'b,H'49
     a45:	13 3f       	.word	H'13,H'3f
     a47:	19 3c       	sub.w	r3,e4
     a49:	19 00       	sub.w	r0,r0
     a4b:	00 06       	.word	H'0,H'6
     a4d:	0f 00       	daa	r0h
     a4f:	0b 0b       	adds	#1,er3
     a51:	00 00       	nop	
     a53:	07 13       	ldc	#0x13,ccr
     a55:	01 03       	.word	H'1,H'3
     a57:	0e 0b       	addx	r0h,r3l
     a59:	0b 3a       	.word	H'b,H'3a
     a5b:	0b 3b       	.word	H'b,H'3b
     a5d:	0b 01       	adds	#1,er1
     a5f:	13 00       	rotxr.b	r0h
     a61:	00 08       	.word	H'0,H'8
     a63:	0d 00       	mov.w	r0,r0
     a65:	03 0e       	ldc	r6l,ccr
     a67:	3a 0b       	mov.b	r2l,@0xb:8
     a69:	3b 0b       	mov.b	r3l,@0xb:8
     a6b:	49 13       	.word	H'49,H'13
     a6d:	38 0b       	mov.b	r0l,@0xb:8
     a6f:	00 00       	nop	
     a71:	09 16       	add.w	r1,r6
     a73:	00 03       	.word	H'0,H'3
     a75:	0e 3a       	addx	r3h,r2l
     a77:	0b 3b       	.word	H'b,H'3b
     a79:	0b 49       	.word	H'b,H'49
     a7b:	13 00       	rotxr.b	r0h
     a7d:	00 0a       	.word	H'0,H'a
     a7f:	0d 00       	mov.w	r0,r0
     a81:	03 08       	ldc	r0l,ccr
     a83:	3a 0b       	mov.b	r2l,@0xb:8
     a85:	3b 0b       	mov.b	r3l,@0xb:8
     a87:	49 13       	.word	H'49,H'13
     a89:	38 0b       	mov.b	r0l,@0xb:8
     a8b:	00 00       	nop	
     a8d:	0b 01       	adds	#1,er1
     a8f:	01 49       	.word	H'1,H'49
     a91:	13 01       	rotxr.b	r1h
     a93:	13 00       	rotxr.b	r0h
     a95:	00 0c       	.word	H'0,H'c
     a97:	21 00       	mov.b	@0x0:8,r1h
     a99:	49 13       	.word	H'49,H'13
     a9b:	2f 0b       	mov.b	@0xb:8,r7l
     a9d:	00 00       	nop	
     a9f:	0d 34       	mov.w	r3,r4
     aa1:	00 03       	.word	H'0,H'3
     aa3:	0e 3a       	addx	r3h,r2l
     aa5:	0b 3b       	.word	H'b,H'3b
     aa7:	0b 49       	.word	H'b,H'49
     aa9:	13 02       	rotxr.b	r2h
     aab:	18 00       	sub.b	r0h,r0h
     aad:	00 0e       	.word	H'0,H'e
     aaf:	2e 01       	mov.b	@0x1:8,r6l
     ab1:	3f 19       	mov.b	r7l,@0x19:8
     ab3:	03 0e       	ldc	r6l,ccr
     ab5:	3a 0b       	mov.b	r2l,@0xb:8
     ab7:	3b 0b       	mov.b	r3l,@0xb:8
     ab9:	27 19       	mov.b	@0x19:8,r7h
     abb:	11 01       	shlr.b	r1h
     abd:	12 06       	rotxl.b	r6h
     abf:	40 18       	bra	.+24 (0xad9)
     ac1:	96 42       	addx	#0x42,r6h
     ac3:	19 01       	sub.w	r0,r1
     ac5:	13 00       	rotxr.b	r0h
     ac7:	00 0f       	.word	H'0,H'f
     ac9:	05 00       	xorc	#0x0,ccr
     acb:	03 08       	ldc	r0l,ccr
     acd:	3a 0b       	mov.b	r2l,@0xb:8
     acf:	3b 0b       	mov.b	r3l,@0xb:8
     ad1:	49 13       	.word	H'49,H'13
     ad3:	02 18       	stc	exr,r0l
     ad5:	00 00       	nop	
     ad7:	10 34       	shll.l	er4
     ad9:	00 03       	.word	H'0,H'3
     adb:	08 3a       	add.b	r3h,r2l
     add:	0b 3b       	.word	H'b,H'3b
     adf:	0b 49       	.word	H'b,H'49
     ae1:	13 02       	rotxr.b	r2h
     ae3:	18 00       	sub.b	r0h,r0h
     ae5:	00 11       	.word	H'0,H'11
     ae7:	2e 01       	mov.b	@0x1:8,r6l
     ae9:	3f 19       	mov.b	r7l,@0x19:8
     aeb:	03 0e       	ldc	r6l,ccr
     aed:	3a 0b       	mov.b	r2l,@0xb:8
     aef:	3b 0b       	mov.b	r3l,@0xb:8
     af1:	27 19       	mov.b	@0x19:8,r7h
     af3:	49 13       	.word	H'49,H'13
     af5:	11 01       	shlr.b	r1h
     af7:	12 06       	rotxl.b	r6h
     af9:	40 18       	bra	.+24 (0xb13)
     afb:	96 42       	addx	#0x42,r6h
     afd:	19 01       	sub.w	r0,r1
     aff:	13 00       	rotxr.b	r0h
     b01:	00 12       	.word	H'0,H'12
     b03:	05 00       	xorc	#0x0,ccr
     b05:	03 0e       	ldc	r6l,ccr
     b07:	3a 0b       	mov.b	r2l,@0xb:8
     b09:	3b 0b       	mov.b	r3l,@0xb:8
     b0b:	49 13       	.word	H'49,H'13
     b0d:	02 18       	stc	exr,r0l
     b0f:	00 00       	nop	
     b11:	13 2e       	.word	H'13,H'2e
     b13:	01 03       	.word	H'1,H'3
     b15:	0e 3a       	addx	r3h,r2l
     b17:	0b 3b       	.word	H'b,H'3b
     b19:	0b 27       	.word	H'b,H'27
     b1b:	19 49       	sub.w	r4,e1
     b1d:	13 11       	rotxr.w	r1
     b1f:	01 12       	.word	H'1,H'12
     b21:	06 40       	andc	#0x40,ccr
     b23:	18 96       	sub.b	r1l,r6h
     b25:	42 19       	.word	H'42,H'19
     b27:	01 13       	.word	H'1,H'13
     b29:	00 00       	nop	
	...

00000b2c <.Ldebug_abbrev0>:
     b2c:	01 11       	.word	H'1,H'11
     b2e:	01 25       	.word	H'1,H'25
     b30:	0e 13       	addx	r1h,r3h
     b32:	0b 03       	adds	#1,er3
     b34:	0e 1b       	addx	r1h,r3l
     b36:	0e 11       	addx	r1h,r1h
     b38:	01 12       	.word	H'1,H'12
     b3a:	06 10       	andc	#0x10,ccr
     b3c:	17 00       	not.b	r0h
     b3e:	00 02       	.word	H'0,H'2
     b40:	24 00       	mov.b	@0x0:8,r4h
     b42:	0b 0b       	adds	#1,er3
     b44:	3e 0b       	mov.b	r6l,@0xb:8
     b46:	03 0e       	ldc	r6l,ccr
     b48:	00 00       	nop	
     b4a:	03 24       	ldmac	er4,mach
     b4c:	00 0b       	.word	H'0,H'b
     b4e:	0b 3e       	.word	H'b,H'3e
     b50:	0b 03       	adds	#1,er3
     b52:	08 00       	add.b	r0h,r0h
     b54:	00 04       	.word	H'0,H'4
     b56:	0f 00       	daa	r0h
     b58:	0b 0b       	adds	#1,er3
     b5a:	49 13       	.word	H'49,H'13
     b5c:	00 00       	nop	
     b5e:	05 04       	xorc	#0x4,ccr
     b60:	01 3e       	.word	H'1,H'3e
     b62:	0b 0b       	adds	#1,er3
     b64:	0b 49       	.word	H'b,H'49
     b66:	13 3a       	.word	H'13,H'3a
     b68:	0b 3b       	.word	H'b,H'3b
     b6a:	0b 01       	adds	#1,er1
     b6c:	13 00       	rotxr.b	r0h
     b6e:	00 06       	.word	H'0,H'6
     b70:	28 00       	mov.b	@0x0:8,r0l
     b72:	03 0e       	ldc	r6l,ccr
     b74:	1c 0b       	cmp.b	r0h,r3l
     b76:	00 00       	nop	
     b78:	07 16       	ldc	#0x16,ccr
     b7a:	00 03       	.word	H'0,H'3
     b7c:	0e 3a       	addx	r3h,r2l
     b7e:	0b 3b       	.word	H'b,H'3b
     b80:	0b 49       	.word	H'b,H'49
     b82:	13 00       	rotxr.b	r0h
     b84:	00 08       	.word	H'0,H'8
     b86:	34 00       	mov.b	r4h,@0x0:8
     b88:	03 0e       	ldc	r6l,ccr
     b8a:	3a 0b       	mov.b	r2l,@0xb:8
     b8c:	3b 0b       	mov.b	r3l,@0xb:8
     b8e:	49 13       	.word	H'49,H'13
     b90:	3f 19       	mov.b	r7l,@0x19:8
     b92:	3c 19       	mov.b	r4l,@0x19:8
     b94:	00 00       	nop	
     b96:	09 13       	add.w	r1,r3
     b98:	01 03       	.word	H'1,H'3
     b9a:	0e 0b       	addx	r0h,r3l
     b9c:	0b 3a       	.word	H'b,H'3a
     b9e:	0b 3b       	.word	H'b,H'3b
     ba0:	0b 01       	adds	#1,er1
     ba2:	13 00       	rotxr.b	r0h
     ba4:	00 0a       	.word	H'0,H'a
     ba6:	0d 00       	mov.w	r0,r0
     ba8:	03 08       	ldc	r0l,ccr
     baa:	3a 0b       	mov.b	r2l,@0xb:8
     bac:	3b 0b       	mov.b	r3l,@0xb:8
     bae:	49 13       	.word	H'49,H'13
     bb0:	38 0b       	mov.b	r0l,@0xb:8
     bb2:	00 00       	nop	
     bb4:	0b 0d       	adds	#1,er5
     bb6:	00 03       	.word	H'0,H'3
     bb8:	0e 3a       	addx	r3h,r2l
     bba:	0b 3b       	.word	H'b,H'3b
     bbc:	0b 49       	.word	H'b,H'49
     bbe:	13 38       	.word	H'13,H'38
     bc0:	0b 00       	adds	#1,er0
     bc2:	00 0c       	.word	H'0,H'c
     bc4:	2e 01       	mov.b	@0x1:8,r6l
     bc6:	3f 19       	mov.b	r7l,@0x19:8
     bc8:	03 0e       	ldc	r6l,ccr
     bca:	3a 0b       	mov.b	r2l,@0xb:8
     bcc:	3b 0b       	mov.b	r3l,@0xb:8
     bce:	27 19       	mov.b	@0x19:8,r7h
     bd0:	49 13       	.word	H'49,H'13
     bd2:	11 01       	shlr.b	r1h
     bd4:	12 06       	rotxl.b	r6h
     bd6:	40 18       	bra	.+24 (0xbf0)
     bd8:	96 42       	addx	#0x42,r6h
     bda:	19 01       	sub.w	r0,r1
     bdc:	13 00       	rotxr.b	r0h
     bde:	00 0d       	.word	H'0,H'd
     be0:	05 00       	xorc	#0x0,ccr
     be2:	03 0e       	ldc	r6l,ccr
     be4:	3a 0b       	mov.b	r2l,@0xb:8
     be6:	3b 0b       	mov.b	r3l,@0xb:8
     be8:	49 13       	.word	H'49,H'13
     bea:	02 18       	stc	exr,r0l
     bec:	00 00       	nop	
     bee:	0e 34       	addx	r3h,r4h
     bf0:	00 03       	.word	H'0,H'3
     bf2:	08 3a       	add.b	r3h,r2l
     bf4:	0b 3b       	.word	H'b,H'3b
     bf6:	0b 49       	.word	H'b,H'49
     bf8:	13 02       	rotxr.b	r2h
     bfa:	18 00       	sub.b	r0h,r0h
     bfc:	00 0f       	.word	H'0,H'f
     bfe:	34 00       	mov.b	r4h,@0x0:8
     c00:	03 0e       	ldc	r6l,ccr
     c02:	3a 0b       	mov.b	r2l,@0xb:8
     c04:	3b 0b       	mov.b	r3l,@0xb:8
     c06:	49 13       	.word	H'49,H'13
     c08:	02 18       	stc	exr,r0l
     c0a:	00 00       	nop	
     c0c:	10 2e       	shll.w	#4,e6
     c0e:	01 03       	.word	H'1,H'3
     c10:	0e 3a       	addx	r3h,r2l
     c12:	0b 3b       	.word	H'b,H'3b
     c14:	0b 27       	.word	H'b,H'27
     c16:	19 11       	sub.w	r1,r1
     c18:	01 12       	.word	H'1,H'12
     c1a:	06 40       	andc	#0x40,ccr
     c1c:	18 96       	sub.b	r1l,r6h
     c1e:	42 19       	.word	H'42,H'19
     c20:	01 13       	.word	H'1,H'13
     c22:	00 00       	nop	
     c24:	11 05       	shlr.b	r5h
     c26:	00 03       	.word	H'0,H'3
     c28:	08 3a       	add.b	r3h,r2l
     c2a:	0b 3b       	.word	H'b,H'3b
     c2c:	0b 49       	.word	H'b,H'49
     c2e:	13 02       	rotxr.b	r2h
     c30:	18 00       	sub.b	r0h,r0h
     c32:	00 12       	.word	H'0,H'12
     c34:	2e 01       	mov.b	@0x1:8,r6l
     c36:	03 0e       	ldc	r6l,ccr
     c38:	3a 0b       	mov.b	r2l,@0xb:8
     c3a:	3b 0b       	mov.b	r3l,@0xb:8
     c3c:	27 19       	mov.b	@0x19:8,r7h
     c3e:	11 01       	shlr.b	r1h
     c40:	12 06       	rotxl.b	r6h
     c42:	40 18       	bra	.+24 (0xc5c)
     c44:	96 42       	addx	#0x42,r6h
     c46:	19 00       	sub.w	r0,r0
	...

00000c4a <.Ldebug_abbrev0>:
     c4a:	01 11       	.word	H'1,H'11
     c4c:	01 25       	.word	H'1,H'25
     c4e:	0e 13       	addx	r1h,r3h
     c50:	0b 03       	adds	#1,er3
     c52:	0e 1b       	addx	r1h,r3l
     c54:	0e 11       	addx	r1h,r1h
     c56:	01 12       	.word	H'1,H'12
     c58:	06 10       	andc	#0x10,ccr
     c5a:	17 00       	not.b	r0h
     c5c:	00 02       	.word	H'0,H'2
     c5e:	24 00       	mov.b	@0x0:8,r4h
     c60:	0b 0b       	adds	#1,er3
     c62:	3e 0b       	mov.b	r6l,@0xb:8
     c64:	03 0e       	ldc	r6l,ccr
     c66:	00 00       	nop	
     c68:	03 24       	ldmac	er4,mach
     c6a:	00 0b       	.word	H'0,H'b
     c6c:	0b 3e       	.word	H'b,H'3e
     c6e:	0b 03       	adds	#1,er3
     c70:	08 00       	add.b	r0h,r0h
     c72:	00 04       	.word	H'0,H'4
     c74:	0f 00       	daa	r0h
     c76:	0b 0b       	adds	#1,er3
     c78:	49 13       	.word	H'49,H'13
     c7a:	00 00       	nop	
     c7c:	05 04       	xorc	#0x4,ccr
     c7e:	01 3e       	.word	H'1,H'3e
     c80:	0b 0b       	adds	#1,er3
     c82:	0b 49       	.word	H'b,H'49
     c84:	13 3a       	.word	H'13,H'3a
     c86:	0b 3b       	.word	H'b,H'3b
     c88:	0b 01       	adds	#1,er1
     c8a:	13 00       	rotxr.b	r0h
     c8c:	00 06       	.word	H'0,H'6
     c8e:	28 00       	mov.b	@0x0:8,r0l
     c90:	03 0e       	ldc	r6l,ccr
     c92:	1c 0b       	cmp.b	r0h,r3l
     c94:	00 00       	nop	
     c96:	07 16       	ldc	#0x16,ccr
     c98:	00 03       	.word	H'0,H'3
     c9a:	0e 3a       	addx	r3h,r2l
     c9c:	0b 3b       	.word	H'b,H'3b
     c9e:	0b 49       	.word	H'b,H'49
     ca0:	13 00       	rotxr.b	r0h
     ca2:	00 08       	.word	H'0,H'8
     ca4:	34 00       	mov.b	r4h,@0x0:8
     ca6:	03 0e       	ldc	r6l,ccr
     ca8:	3a 0b       	mov.b	r2l,@0xb:8
     caa:	3b 0b       	mov.b	r3l,@0xb:8
     cac:	49 13       	.word	H'49,H'13
     cae:	3f 19       	mov.b	r7l,@0x19:8
     cb0:	3c 19       	mov.b	r4l,@0x19:8
     cb2:	00 00       	nop	
     cb4:	09 13       	add.w	r1,r3
     cb6:	01 03       	.word	H'1,H'3
     cb8:	0e 0b       	addx	r0h,r3l
     cba:	0b 3a       	.word	H'b,H'3a
     cbc:	0b 3b       	.word	H'b,H'3b
     cbe:	0b 01       	adds	#1,er1
     cc0:	13 00       	rotxr.b	r0h
     cc2:	00 0a       	.word	H'0,H'a
     cc4:	0d 00       	mov.w	r0,r0
     cc6:	03 08       	ldc	r0l,ccr
     cc8:	3a 0b       	mov.b	r2l,@0xb:8
     cca:	3b 0b       	mov.b	r3l,@0xb:8
     ccc:	49 13       	.word	H'49,H'13
     cce:	38 0b       	mov.b	r0l,@0xb:8
     cd0:	00 00       	nop	
     cd2:	0b 0d       	adds	#1,er5
     cd4:	00 03       	.word	H'0,H'3
     cd6:	0e 3a       	addx	r3h,r2l
     cd8:	0b 3b       	.word	H'b,H'3b
     cda:	0b 49       	.word	H'b,H'49
     cdc:	13 38       	.word	H'13,H'38
     cde:	0b 00       	adds	#1,er0
     ce0:	00 0c       	.word	H'0,H'c
     ce2:	2e 01       	mov.b	@0x1:8,r6l
     ce4:	3f 19       	mov.b	r7l,@0x19:8
     ce6:	03 0e       	ldc	r6l,ccr
     ce8:	3a 0b       	mov.b	r2l,@0xb:8
     cea:	3b 0b       	mov.b	r3l,@0xb:8
     cec:	27 19       	mov.b	@0x19:8,r7h
     cee:	49 13       	.word	H'49,H'13
     cf0:	11 01       	shlr.b	r1h
     cf2:	12 06       	rotxl.b	r6h
     cf4:	40 18       	bra	.+24 (0xd0e)
     cf6:	96 42       	addx	#0x42,r6h
     cf8:	19 01       	sub.w	r0,r1
     cfa:	13 00       	rotxr.b	r0h
     cfc:	00 0d       	.word	H'0,H'd
     cfe:	05 00       	xorc	#0x0,ccr
     d00:	03 0e       	ldc	r6l,ccr
     d02:	3a 0b       	mov.b	r2l,@0xb:8
     d04:	3b 0b       	mov.b	r3l,@0xb:8
     d06:	49 13       	.word	H'49,H'13
     d08:	02 18       	stc	exr,r0l
     d0a:	00 00       	nop	
     d0c:	0e 2e       	addx	r2h,r6l
     d0e:	01 03       	.word	H'1,H'3
     d10:	0e 3a       	addx	r3h,r2l
     d12:	0b 3b       	.word	H'b,H'3b
     d14:	0b 27       	.word	H'b,H'27
     d16:	19 11       	sub.w	r1,r1
     d18:	01 12       	.word	H'1,H'12
     d1a:	06 40       	andc	#0x40,ccr
     d1c:	18 96       	sub.b	r1l,r6h
     d1e:	42 19       	.word	H'42,H'19
     d20:	01 13       	.word	H'1,H'13
     d22:	00 00       	nop	
     d24:	0f 05       	daa	r5h
     d26:	00 03       	.word	H'0,H'3
     d28:	08 3a       	add.b	r3h,r2l
     d2a:	0b 3b       	.word	H'b,H'3b
     d2c:	0b 49       	.word	H'b,H'49
     d2e:	13 02       	rotxr.b	r2h
     d30:	18 00       	sub.b	r0h,r0h
     d32:	00 10       	.word	H'0,H'10
     d34:	34 00       	mov.b	r4h,@0x0:8
     d36:	03 08       	ldc	r0l,ccr
     d38:	3a 0b       	mov.b	r2l,@0xb:8
     d3a:	3b 0b       	mov.b	r3l,@0xb:8
     d3c:	49 13       	.word	H'49,H'13
     d3e:	02 18       	stc	exr,r0l
     d40:	00 00       	nop	
	...

00000d43 <.Ldebug_abbrev0>:
     d43:	01 11       	.word	H'1,H'11
     d45:	01 25       	.word	H'1,H'25
     d47:	0e 13       	addx	r1h,r3h
     d49:	0b 03       	adds	#1,er3
     d4b:	0e 1b       	addx	r1h,r3l
     d4d:	0e 11       	addx	r1h,r1h
     d4f:	01 12       	.word	H'1,H'12
     d51:	06 10       	andc	#0x10,ccr
     d53:	17 00       	not.b	r0h
     d55:	00 02       	.word	H'0,H'2
     d57:	16 00       	and.b	r0h,r0h
     d59:	03 0e       	ldc	r6l,ccr
     d5b:	3a 0b       	mov.b	r2l,@0xb:8
     d5d:	3b 0b       	mov.b	r3l,@0xb:8
     d5f:	49 13       	.word	H'49,H'13
     d61:	00 00       	nop	
     d63:	03 24       	ldmac	er4,mach
     d65:	00 0b       	.word	H'0,H'b
     d67:	0b 3e       	.word	H'b,H'3e
     d69:	0b 03       	adds	#1,er3
     d6b:	0e 00       	addx	r0h,r0h
     d6d:	00 04       	.word	H'0,H'4
     d6f:	24 00       	mov.b	@0x0:8,r4h
     d71:	0b 0b       	adds	#1,er3
     d73:	3e 0b       	mov.b	r6l,@0xb:8
     d75:	03 08       	ldc	r0l,ccr
     d77:	00 00       	nop	
     d79:	05 0f       	xorc	#0xf,ccr
     d7b:	00 0b       	.word	H'0,H'b
     d7d:	0b 49       	.word	H'b,H'49
     d7f:	13 00       	rotxr.b	r0h
     d81:	00 06       	.word	H'0,H'6
     d83:	04 01       	orc	#0x1,ccr
     d85:	3e 0b       	mov.b	r6l,@0xb:8
     d87:	0b 0b       	adds	#1,er3
     d89:	49 13       	.word	H'49,H'13
     d8b:	3a 0b       	mov.b	r2l,@0xb:8
     d8d:	3b 0b       	mov.b	r3l,@0xb:8
     d8f:	01 13       	.word	H'1,H'13
     d91:	00 00       	nop	
     d93:	07 28       	ldc	#0x28,ccr
     d95:	00 03       	.word	H'0,H'3
     d97:	0e 1c       	addx	r1h,r4l
     d99:	0b 00       	adds	#1,er0
     d9b:	00 08       	.word	H'0,H'8
     d9d:	34 00       	mov.b	r4h,@0x0:8
     d9f:	03 0e       	ldc	r6l,ccr
     da1:	3a 0b       	mov.b	r2l,@0xb:8
     da3:	3b 0b       	mov.b	r3l,@0xb:8
     da5:	49 13       	.word	H'49,H'13
     da7:	3f 19       	mov.b	r7l,@0x19:8
     da9:	3c 19       	mov.b	r4l,@0x19:8
     dab:	00 00       	nop	
     dad:	09 0f       	add.w	r0,e7
     daf:	00 0b       	.word	H'0,H'b
     db1:	0b 00       	adds	#1,er0
     db3:	00 0a       	.word	H'0,H'a
     db5:	34 00       	mov.b	r4h,@0x0:8
     db7:	03 0e       	ldc	r6l,ccr
     db9:	3a 0b       	mov.b	r2l,@0xb:8
     dbb:	3b 0b       	mov.b	r3l,@0xb:8
     dbd:	49 13       	.word	H'49,H'13
     dbf:	3f 19       	mov.b	r7l,@0x19:8
     dc1:	02 18       	stc	exr,r0l
     dc3:	00 00       	nop	
     dc5:	0b 34       	.word	H'b,H'34
     dc7:	00 03       	.word	H'0,H'3
     dc9:	0e 3a       	addx	r3h,r2l
     dcb:	0b 3b       	.word	H'b,H'3b
     dcd:	0b 49       	.word	H'b,H'49
     dcf:	13 02       	rotxr.b	r2h
     dd1:	18 00       	sub.b	r0h,r0h
     dd3:	00 0c       	.word	H'0,H'c
     dd5:	13 01       	rotxr.b	r1h
     dd7:	03 0e       	ldc	r6l,ccr
     dd9:	0b 0b       	adds	#1,er3
     ddb:	3a 0b       	mov.b	r2l,@0xb:8
     ddd:	3b 0b       	mov.b	r3l,@0xb:8
     ddf:	01 13       	.word	H'1,H'13
     de1:	00 00       	nop	
     de3:	0d 0d       	mov.w	r0,e5
     de5:	00 03       	.word	H'0,H'3
     de7:	0e 3a       	addx	r3h,r2l
     de9:	0b 3b       	.word	H'b,H'3b
     deb:	0b 49       	.word	H'b,H'49
     ded:	13 38       	.word	H'13,H'38
     def:	0b 00       	adds	#1,er0
     df1:	00 0e       	.word	H'0,H'e
     df3:	01 01       	.word	H'1,H'1
     df5:	49 13       	.word	H'49,H'13
     df7:	01 13       	.word	H'1,H'13
     df9:	00 00       	nop	
     dfb:	0f 21       	mov.w	#0x2,r1
     dfd:	00 49       	.word	H'0,H'49
     dff:	13 2f       	.word	H'13,H'2f
     e01:	0b 00       	adds	#1,er0
     e03:	00 10       	.word	H'0,H'10
     e05:	0d 00       	mov.w	r0,r0
     e07:	03 08       	ldc	r0l,ccr
     e09:	3a 0b       	mov.b	r2l,@0xb:8
     e0b:	3b 0b       	mov.b	r3l,@0xb:8
     e0d:	49 13       	.word	H'49,H'13
     e0f:	38 0b       	mov.b	r0l,@0xb:8
     e11:	00 00       	nop	
     e13:	11 2e       	shlr.w	#4,e6
     e15:	01 3f       	.word	H'1,H'3f
     e17:	19 03       	sub.w	r0,r3
     e19:	0e 3a       	addx	r3h,r2l
     e1b:	0b 3b       	.word	H'b,H'3b
     e1d:	05 27       	xorc	#0x27,ccr
     e1f:	19 49       	sub.w	r4,e1
     e21:	13 11       	rotxr.w	r1
     e23:	01 12       	.word	H'1,H'12
     e25:	06 40       	andc	#0x40,ccr
     e27:	18 96       	sub.b	r1l,r6h
     e29:	42 19       	.word	H'42,H'19
     e2b:	01 13       	.word	H'1,H'13
     e2d:	00 00       	nop	
     e2f:	12 05       	rotxl.b	r5h
     e31:	00 03       	.word	H'0,H'3
     e33:	0e 3a       	addx	r3h,r2l
     e35:	0b 3b       	.word	H'b,H'3b
     e37:	05 49       	xorc	#0x49,ccr
     e39:	13 02       	rotxr.b	r2h
     e3b:	18 00       	sub.b	r0h,r0h
     e3d:	00 13       	.word	H'0,H'13
     e3f:	34 00       	mov.b	r4h,@0x0:8
     e41:	03 08       	ldc	r0l,ccr
     e43:	3a 0b       	mov.b	r2l,@0xb:8
     e45:	3b 05       	mov.b	r3l,@0x5:8
     e47:	49 13       	.word	H'49,H'13
     e49:	02 18       	stc	exr,r0l
     e4b:	00 00       	nop	
     e4d:	14 34       	or.b	r3h,r4h
     e4f:	00 03       	.word	H'0,H'3
     e51:	0e 3a       	addx	r3h,r2l
     e53:	0b 3b       	.word	H'b,H'3b
     e55:	05 49       	xorc	#0x49,ccr
     e57:	13 02       	rotxr.b	r2h
     e59:	18 00       	sub.b	r0h,r0h
     e5b:	00 15       	.word	H'0,H'15
     e5d:	2e 01       	mov.b	@0x1:8,r6l
     e5f:	03 0e       	ldc	r6l,ccr
     e61:	3a 0b       	mov.b	r2l,@0xb:8
     e63:	3b 05       	mov.b	r3l,@0x5:8
     e65:	27 19       	mov.b	@0x19:8,r7h
     e67:	11 01       	shlr.b	r1h
     e69:	12 06       	rotxl.b	r6h
     e6b:	40 18       	bra	.+24 (0xe85)
     e6d:	96 42       	addx	#0x42,r6h
     e6f:	19 01       	sub.w	r0,r1
     e71:	13 00       	rotxr.b	r0h
     e73:	00 16       	.word	H'0,H'16
     e75:	05 00       	xorc	#0x0,ccr
     e77:	03 08       	ldc	r0l,ccr
     e79:	3a 0b       	mov.b	r2l,@0xb:8
     e7b:	3b 05       	mov.b	r3l,@0x5:8
     e7d:	49 13       	.word	H'49,H'13
     e7f:	02 18       	stc	exr,r0l
     e81:	00 00       	nop	
     e83:	17 2e       	.word	H'17,H'2e
     e85:	01 03       	.word	H'1,H'3
     e87:	0e 3a       	addx	r3h,r2l
     e89:	0b 3b       	.word	H'b,H'3b
     e8b:	0b 27       	.word	H'b,H'27
     e8d:	19 49       	sub.w	r4,e1
     e8f:	13 11       	rotxr.w	r1
     e91:	01 12       	.word	H'1,H'12
     e93:	06 40       	andc	#0x40,ccr
     e95:	18 96       	sub.b	r1l,r6h
     e97:	42 19       	.word	H'42,H'19
     e99:	01 13       	.word	H'1,H'13
     e9b:	00 00       	nop	
     e9d:	18 05       	sub.b	r0h,r5h
     e9f:	00 03       	.word	H'0,H'3
     ea1:	0e 3a       	addx	r3h,r2l
     ea3:	0b 3b       	.word	H'b,H'3b
     ea5:	0b 49       	.word	H'b,H'49
     ea7:	13 02       	rotxr.b	r2h
     ea9:	18 00       	sub.b	r0h,r0h
     eab:	00 19       	.word	H'0,H'19
     ead:	05 00       	xorc	#0x0,ccr
     eaf:	03 08       	ldc	r0l,ccr
     eb1:	3a 0b       	mov.b	r2l,@0xb:8
     eb3:	3b 0b       	mov.b	r3l,@0xb:8
     eb5:	49 13       	.word	H'49,H'13
     eb7:	02 18       	stc	exr,r0l
     eb9:	00 00       	nop	
     ebb:	1a 34       	sub.w	#0x3,r4
     ebd:	00 03       	.word	H'0,H'3
     ebf:	08 3a       	add.b	r3h,r2l
     ec1:	0b 3b       	.word	H'b,H'3b
     ec3:	0b 49       	.word	H'b,H'49
     ec5:	13 02       	rotxr.b	r2h
     ec7:	18 00       	sub.b	r0h,r0h
     ec9:	00 1b       	.word	H'0,H'1b
     ecb:	2e 01       	mov.b	@0x1:8,r6l
     ecd:	03 0e       	ldc	r6l,ccr
     ecf:	3a 0b       	mov.b	r2l,@0xb:8
     ed1:	3b 0b       	mov.b	r3l,@0xb:8
     ed3:	27 19       	mov.b	@0x19:8,r7h
     ed5:	49 13       	.word	H'49,H'13
     ed7:	11 01       	shlr.b	r1h
     ed9:	12 06       	rotxl.b	r6h
     edb:	40 18       	bra	.+24 (0xef5)
     edd:	97 42       	addx	#0x42,r7h
     edf:	19 01       	sub.w	r0,r1
     ee1:	13 00       	rotxr.b	r0h
	...

00000ee5 <.Ldebug_abbrev0>:
     ee5:	01 11       	.word	H'1,H'11
     ee7:	01 25       	.word	H'1,H'25
     ee9:	0e 13       	addx	r1h,r3h
     eeb:	0b 03       	adds	#1,er3
     eed:	0e 1b       	addx	r1h,r3l
     eef:	0e 11       	addx	r1h,r1h
     ef1:	01 12       	.word	H'1,H'12
     ef3:	06 10       	andc	#0x10,ccr
     ef5:	17 00       	not.b	r0h
     ef7:	00 02       	.word	H'0,H'2
     ef9:	24 00       	mov.b	@0x0:8,r4h
     efb:	0b 0b       	adds	#1,er3
     efd:	3e 0b       	mov.b	r6l,@0xb:8
     eff:	03 0e       	ldc	r6l,ccr
     f01:	00 00       	nop	
     f03:	03 16       	ldc	r6h,exr
     f05:	00 03       	.word	H'0,H'3
     f07:	0e 3a       	addx	r3h,r2l
     f09:	0b 3b       	.word	H'b,H'3b
     f0b:	0b 49       	.word	H'b,H'49
     f0d:	13 00       	rotxr.b	r0h
     f0f:	00 04       	.word	H'0,H'4
     f11:	24 00       	mov.b	@0x0:8,r4h
     f13:	0b 0b       	adds	#1,er3
     f15:	3e 0b       	mov.b	r6l,@0xb:8
     f17:	03 08       	ldc	r0l,ccr
     f19:	00 00       	nop	
     f1b:	05 0f       	xorc	#0xf,ccr
     f1d:	00 0b       	.word	H'0,H'b
     f1f:	0b 49       	.word	H'b,H'49
     f21:	13 00       	rotxr.b	r0h
     f23:	00 06       	.word	H'0,H'6
     f25:	04 01       	orc	#0x1,ccr
     f27:	3e 0b       	mov.b	r6l,@0xb:8
     f29:	0b 0b       	adds	#1,er3
     f2b:	49 13       	.word	H'49,H'13
     f2d:	3a 0b       	mov.b	r2l,@0xb:8
     f2f:	3b 0b       	mov.b	r3l,@0xb:8
     f31:	01 13       	.word	H'1,H'13
     f33:	00 00       	nop	
     f35:	07 28       	ldc	#0x28,ccr
     f37:	00 03       	.word	H'0,H'3
     f39:	0e 1c       	addx	r1h,r4l
     f3b:	0b 00       	adds	#1,er0
     f3d:	00 08       	.word	H'0,H'8
     f3f:	34 00       	mov.b	r4h,@0x0:8
     f41:	03 0e       	ldc	r6l,ccr
     f43:	3a 0b       	mov.b	r2l,@0xb:8
     f45:	3b 0b       	mov.b	r3l,@0xb:8
     f47:	49 13       	.word	H'49,H'13
     f49:	3f 19       	mov.b	r7l,@0x19:8
     f4b:	3c 19       	mov.b	r4l,@0x19:8
     f4d:	00 00       	nop	
     f4f:	09 13       	add.w	r1,r3
     f51:	01 03       	.word	H'1,H'3
     f53:	0e 0b       	addx	r0h,r3l
     f55:	0b 3a       	.word	H'b,H'3a
     f57:	0b 3b       	.word	H'b,H'3b
     f59:	0b 01       	adds	#1,er1
     f5b:	13 00       	rotxr.b	r0h
     f5d:	00 0a       	.word	H'0,H'a
     f5f:	0d 00       	mov.w	r0,r0
     f61:	03 08       	ldc	r0l,ccr
     f63:	3a 0b       	mov.b	r2l,@0xb:8
     f65:	3b 0b       	mov.b	r3l,@0xb:8
     f67:	49 13       	.word	H'49,H'13
     f69:	38 0b       	mov.b	r0l,@0xb:8
     f6b:	00 00       	nop	
     f6d:	0b 0d       	adds	#1,er5
     f6f:	00 03       	.word	H'0,H'3
     f71:	0e 3a       	addx	r3h,r2l
     f73:	0b 3b       	.word	H'b,H'3b
     f75:	0b 49       	.word	H'b,H'49
     f77:	13 38       	.word	H'13,H'38
     f79:	0b 00       	adds	#1,er0
     f7b:	00 0c       	.word	H'0,H'c
     f7d:	01 01       	.word	H'1,H'1
     f7f:	49 13       	.word	H'49,H'13
     f81:	01 13       	.word	H'1,H'13
     f83:	00 00       	nop	
     f85:	0d 21       	mov.w	r2,r1
     f87:	00 49       	.word	H'0,H'49
     f89:	13 2f       	.word	H'13,H'2f
     f8b:	0b 00       	adds	#1,er0
     f8d:	00 0e       	.word	H'0,H'e
     f8f:	34 00       	mov.b	r4h,@0x0:8
     f91:	03 0e       	ldc	r6l,ccr
     f93:	3a 0b       	mov.b	r2l,@0xb:8
     f95:	3b 0b       	mov.b	r3l,@0xb:8
     f97:	49 13       	.word	H'49,H'13
     f99:	02 18       	stc	exr,r0l
     f9b:	00 00       	nop	
     f9d:	0f 2e       	mov.w	#0x2,e6
     f9f:	01 3f       	.word	H'1,H'3f
     fa1:	19 03       	sub.w	r0,r3
     fa3:	0e 3a       	addx	r3h,r2l
     fa5:	0b 3b       	.word	H'b,H'3b
     fa7:	0b 27       	.word	H'b,H'27
     fa9:	19 49       	sub.w	r4,e1
     fab:	13 11       	rotxr.w	r1
     fad:	01 12       	.word	H'1,H'12
     faf:	06 40       	andc	#0x40,ccr
     fb1:	18 96       	sub.b	r1l,r6h
     fb3:	42 19       	.word	H'42,H'19
     fb5:	01 13       	.word	H'1,H'13
     fb7:	00 00       	nop	
     fb9:	10 05       	shll.b	r5h
     fbb:	00 03       	.word	H'0,H'3
     fbd:	0e 3a       	addx	r3h,r2l
     fbf:	0b 3b       	.word	H'b,H'3b
     fc1:	0b 49       	.word	H'b,H'49
     fc3:	13 02       	rotxr.b	r2h
     fc5:	18 00       	sub.b	r0h,r0h
     fc7:	00 11       	.word	H'0,H'11
     fc9:	34 00       	mov.b	r4h,@0x0:8
     fcb:	03 08       	ldc	r0l,ccr
     fcd:	3a 0b       	mov.b	r2l,@0xb:8
     fcf:	3b 0b       	mov.b	r3l,@0xb:8
     fd1:	49 13       	.word	H'49,H'13
     fd3:	02 18       	stc	exr,r0l
     fd5:	00 00       	nop	
     fd7:	12 2e       	.word	H'12,H'2e
     fd9:	01 03       	.word	H'1,H'3
     fdb:	0e 3a       	addx	r3h,r2l
     fdd:	0b 3b       	.word	H'b,H'3b
     fdf:	0b 27       	.word	H'b,H'27
     fe1:	19 49       	sub.w	r4,e1
     fe3:	13 11       	rotxr.w	r1
     fe5:	01 12       	.word	H'1,H'12
     fe7:	06 40       	andc	#0x40,ccr
     fe9:	18 96       	sub.b	r1l,r6h
     feb:	42 19       	.word	H'42,H'19
     fed:	01 13       	.word	H'1,H'13
     fef:	00 00       	nop	
     ff1:	13 05       	rotxr.b	r5h
     ff3:	00 03       	.word	H'0,H'3
     ff5:	08 3a       	add.b	r3h,r2l
     ff7:	0b 3b       	.word	H'b,H'3b
     ff9:	0b 49       	.word	H'b,H'49
     ffb:	13 02       	rotxr.b	r2h
     ffd:	18 00       	sub.b	r0h,r0h
     fff:	00 14       	.word	H'0,H'14
    1001:	2e 00       	mov.b	@0x0:8,r6l
    1003:	03 0e       	ldc	r6l,ccr
    1005:	3a 0b       	mov.b	r2l,@0xb:8
    1007:	3b 0b       	mov.b	r3l,@0xb:8
    1009:	27 19       	mov.b	@0x19:8,r7h
    100b:	49 13       	.word	H'49,H'13
    100d:	11 01       	shlr.b	r1h
    100f:	12 06       	rotxl.b	r6h
    1011:	40 18       	bra	.+24 (0x102b)
    1013:	96 42       	addx	#0x42,r6h
    1015:	19 00       	sub.w	r0,r0
    1017:	00 15       	.word	H'0,H'15
    1019:	2e 01       	mov.b	@0x1:8,r6l
    101b:	03 0e       	ldc	r6l,ccr
    101d:	3a 0b       	mov.b	r2l,@0xb:8
    101f:	3b 0b       	mov.b	r3l,@0xb:8
    1021:	27 19       	mov.b	@0x19:8,r7h
    1023:	11 01       	shlr.b	r1h
    1025:	12 06       	rotxl.b	r6h
    1027:	40 18       	bra	.+24 (0x1041)
    1029:	96 42       	addx	#0x42,r6h
    102b:	19 01       	sub.w	r0,r1
    102d:	13 00       	rotxr.b	r0h
    102f:	00 16       	.word	H'0,H'16
    1031:	2e 01       	mov.b	@0x1:8,r6l
    1033:	03 0e       	ldc	r6l,ccr
    1035:	3a 0b       	mov.b	r2l,@0xb:8
    1037:	3b 0b       	mov.b	r3l,@0xb:8
    1039:	27 19       	mov.b	@0x19:8,r7h
    103b:	11 01       	shlr.b	r1h
    103d:	12 06       	rotxl.b	r6h
    103f:	40 18       	bra	.+24 (0x1059)
    1041:	96 42       	addx	#0x42,r6h
    1043:	19 00       	sub.w	r0,r0
	...

00001047 <.Ldebug_abbrev0>:
    1047:	01 11       	.word	H'1,H'11
    1049:	01 25       	.word	H'1,H'25
    104b:	0e 13       	addx	r1h,r3h
    104d:	0b 03       	adds	#1,er3
    104f:	0e 1b       	addx	r1h,r3l
    1051:	0e 11       	addx	r1h,r1h
    1053:	01 12       	.word	H'1,H'12
    1055:	06 10       	andc	#0x10,ccr
    1057:	17 00       	not.b	r0h
    1059:	00 02       	.word	H'0,H'2
    105b:	24 00       	mov.b	@0x0:8,r4h
    105d:	0b 0b       	adds	#1,er3
    105f:	3e 0b       	mov.b	r6l,@0xb:8
    1061:	03 0e       	ldc	r6l,ccr
    1063:	00 00       	nop	
    1065:	03 24       	ldmac	er4,mach
    1067:	00 0b       	.word	H'0,H'b
    1069:	0b 3e       	.word	H'b,H'3e
    106b:	0b 03       	adds	#1,er3
    106d:	08 00       	add.b	r0h,r0h
    106f:	00 04       	.word	H'0,H'4
    1071:	0f 00       	daa	r0h
    1073:	0b 0b       	adds	#1,er3
    1075:	49 13       	.word	H'49,H'13
    1077:	00 00       	nop	
    1079:	05 04       	xorc	#0x4,ccr
    107b:	01 3e       	.word	H'1,H'3e
    107d:	0b 0b       	adds	#1,er3
    107f:	0b 49       	.word	H'b,H'49
    1081:	13 3a       	.word	H'13,H'3a
    1083:	0b 3b       	.word	H'b,H'3b
    1085:	0b 01       	adds	#1,er1
    1087:	13 00       	rotxr.b	r0h
    1089:	00 06       	.word	H'0,H'6
    108b:	28 00       	mov.b	@0x0:8,r0l
    108d:	03 0e       	ldc	r6l,ccr
    108f:	1c 0b       	cmp.b	r0h,r3l
    1091:	00 00       	nop	
    1093:	07 16       	ldc	#0x16,ccr
    1095:	00 03       	.word	H'0,H'3
    1097:	0e 3a       	addx	r3h,r2l
    1099:	0b 3b       	.word	H'b,H'3b
    109b:	0b 49       	.word	H'b,H'49
    109d:	13 00       	rotxr.b	r0h
    109f:	00 08       	.word	H'0,H'8
    10a1:	34 00       	mov.b	r4h,@0x0:8
    10a3:	03 0e       	ldc	r6l,ccr
    10a5:	3a 0b       	mov.b	r2l,@0xb:8
    10a7:	3b 0b       	mov.b	r3l,@0xb:8
    10a9:	49 13       	.word	H'49,H'13
    10ab:	3f 19       	mov.b	r7l,@0x19:8
    10ad:	3c 19       	mov.b	r4l,@0x19:8
    10af:	00 00       	nop	
    10b1:	09 13       	add.w	r1,r3
    10b3:	01 03       	.word	H'1,H'3
    10b5:	0e 0b       	addx	r0h,r3l
    10b7:	0b 3a       	.word	H'b,H'3a
    10b9:	0b 3b       	.word	H'b,H'3b
    10bb:	0b 01       	adds	#1,er1
    10bd:	13 00       	rotxr.b	r0h
    10bf:	00 0a       	.word	H'0,H'a
    10c1:	0d 00       	mov.w	r0,r0
    10c3:	03 08       	ldc	r0l,ccr
    10c5:	3a 0b       	mov.b	r2l,@0xb:8
    10c7:	3b 0b       	mov.b	r3l,@0xb:8
    10c9:	49 13       	.word	H'49,H'13
    10cb:	38 0b       	mov.b	r0l,@0xb:8
    10cd:	00 00       	nop	
    10cf:	0b 0d       	adds	#1,er5
    10d1:	00 03       	.word	H'0,H'3
    10d3:	0e 3a       	addx	r3h,r2l
    10d5:	0b 3b       	.word	H'b,H'3b
    10d7:	0b 49       	.word	H'b,H'49
    10d9:	13 38       	.word	H'13,H'38
    10db:	0b 00       	adds	#1,er0
    10dd:	00 0c       	.word	H'0,H'c
    10df:	34 00       	mov.b	r4h,@0x0:8
    10e1:	03 0e       	ldc	r6l,ccr
    10e3:	3a 0b       	mov.b	r2l,@0xb:8
    10e5:	3b 0b       	mov.b	r3l,@0xb:8
    10e7:	49 13       	.word	H'49,H'13
    10e9:	02 18       	stc	exr,r0l
    10eb:	00 00       	nop	
    10ed:	0d 2e       	mov.w	r2,e6
    10ef:	01 3f       	.word	H'1,H'3f
    10f1:	19 03       	sub.w	r0,r3
    10f3:	0e 3a       	addx	r3h,r2l
    10f5:	0b 3b       	.word	H'b,H'3b
    10f7:	0b 27       	.word	H'b,H'27
    10f9:	19 49       	sub.w	r4,e1
    10fb:	13 11       	rotxr.w	r1
    10fd:	01 12       	.word	H'1,H'12
    10ff:	06 40       	andc	#0x40,ccr
    1101:	18 96       	sub.b	r1l,r6h
    1103:	42 19       	.word	H'42,H'19
    1105:	01 13       	.word	H'1,H'13
    1107:	00 00       	nop	
    1109:	0e 05       	addx	r0h,r5h
    110b:	00 03       	.word	H'0,H'3
    110d:	0e 3a       	addx	r3h,r2l
    110f:	0b 3b       	.word	H'b,H'3b
    1111:	0b 49       	.word	H'b,H'49
    1113:	13 02       	rotxr.b	r2h
    1115:	18 00       	sub.b	r0h,r0h
    1117:	00 0f       	.word	H'0,H'f
    1119:	34 00       	mov.b	r4h,@0x0:8
    111b:	03 08       	ldc	r0l,ccr
    111d:	3a 0b       	mov.b	r2l,@0xb:8
    111f:	3b 0b       	mov.b	r3l,@0xb:8
    1121:	49 13       	.word	H'49,H'13
    1123:	02 18       	stc	exr,r0l
    1125:	00 00       	nop	
    1127:	10 2e       	shll.w	#4,e6
    1129:	01 03       	.word	H'1,H'3
    112b:	0e 3a       	addx	r3h,r2l
    112d:	0b 3b       	.word	H'b,H'3b
    112f:	0b 27       	.word	H'b,H'27
    1131:	19 49       	sub.w	r4,e1
    1133:	13 11       	rotxr.w	r1
    1135:	01 12       	.word	H'1,H'12
    1137:	06 40       	andc	#0x40,ccr
    1139:	18 96       	sub.b	r1l,r6h
    113b:	42 19       	.word	H'42,H'19
    113d:	01 13       	.word	H'1,H'13
    113f:	00 00       	nop	
    1141:	11 05       	shlr.b	r5h
    1143:	00 03       	.word	H'0,H'3
    1145:	08 3a       	add.b	r3h,r2l
    1147:	0b 3b       	.word	H'b,H'3b
    1149:	0b 49       	.word	H'b,H'49
    114b:	13 02       	rotxr.b	r2h
    114d:	18 00       	sub.b	r0h,r0h
    114f:	00 12       	.word	H'0,H'12
    1151:	2e 00       	mov.b	@0x0:8,r6l
    1153:	03 0e       	ldc	r6l,ccr
    1155:	3a 0b       	mov.b	r2l,@0xb:8
    1157:	3b 0b       	mov.b	r3l,@0xb:8
    1159:	27 19       	mov.b	@0x19:8,r7h
    115b:	49 13       	.word	H'49,H'13
    115d:	11 01       	shlr.b	r1h
    115f:	12 06       	rotxl.b	r6h
    1161:	40 18       	bra	.+24 (0x117b)
    1163:	96 42       	addx	#0x42,r6h
    1165:	19 00       	sub.w	r0,r0
    1167:	00 13       	.word	H'0,H'13
    1169:	2e 01       	mov.b	@0x1:8,r6l
    116b:	03 0e       	ldc	r6l,ccr
    116d:	3a 0b       	mov.b	r2l,@0xb:8
    116f:	3b 0b       	mov.b	r3l,@0xb:8
    1171:	27 19       	mov.b	@0x19:8,r7h
    1173:	11 01       	shlr.b	r1h
    1175:	12 06       	rotxl.b	r6h
    1177:	40 18       	bra	.+24 (0x1191)
    1179:	96 42       	addx	#0x42,r6h
    117b:	19 00       	sub.w	r0,r0
	...

0000117f <.Ldebug_abbrev0>:
    117f:	01 11       	.word	H'1,H'11
    1181:	01 25       	.word	H'1,H'25
    1183:	0e 13       	addx	r1h,r3h
    1185:	0b 03       	adds	#1,er3
    1187:	0e 1b       	addx	r1h,r3l
    1189:	0e 11       	addx	r1h,r1h
    118b:	01 12       	.word	H'1,H'12
    118d:	06 10       	andc	#0x10,ccr
    118f:	17 00       	not.b	r0h
    1191:	00 02       	.word	H'0,H'2
    1193:	24 00       	mov.b	@0x0:8,r4h
    1195:	0b 0b       	adds	#1,er3
    1197:	3e 0b       	mov.b	r6l,@0xb:8
    1199:	03 0e       	ldc	r6l,ccr
    119b:	00 00       	nop	
    119d:	03 24       	ldmac	er4,mach
    119f:	00 0b       	.word	H'0,H'b
    11a1:	0b 3e       	.word	H'b,H'3e
    11a3:	0b 03       	adds	#1,er3
    11a5:	08 00       	add.b	r0h,r0h
    11a7:	00 04       	.word	H'0,H'4
    11a9:	0f 00       	daa	r0h
    11ab:	0b 0b       	adds	#1,er3
    11ad:	49 13       	.word	H'49,H'13
    11af:	00 00       	nop	
    11b1:	05 04       	xorc	#0x4,ccr
    11b3:	01 3e       	.word	H'1,H'3e
    11b5:	0b 0b       	adds	#1,er3
    11b7:	0b 49       	.word	H'b,H'49
    11b9:	13 3a       	.word	H'13,H'3a
    11bb:	0b 3b       	.word	H'b,H'3b
    11bd:	0b 01       	adds	#1,er1
    11bf:	13 00       	rotxr.b	r0h
    11c1:	00 06       	.word	H'0,H'6
    11c3:	28 00       	mov.b	@0x0:8,r0l
    11c5:	03 0e       	ldc	r6l,ccr
    11c7:	1c 0b       	cmp.b	r0h,r3l
    11c9:	00 00       	nop	
    11cb:	07 34       	ldc	#0x34,ccr
    11cd:	00 03       	.word	H'0,H'3
    11cf:	0e 3a       	addx	r3h,r2l
    11d1:	0b 3b       	.word	H'b,H'3b
    11d3:	0b 49       	.word	H'b,H'49
    11d5:	13 3f       	.word	H'13,H'3f
    11d7:	19 3c       	sub.w	r3,e4
    11d9:	19 00       	sub.w	r0,r0
    11db:	00 08       	.word	H'0,H'8
    11dd:	2e 01       	mov.b	@0x1:8,r6l
    11df:	3f 19       	mov.b	r7l,@0x19:8
    11e1:	03 0e       	ldc	r6l,ccr
    11e3:	3a 0b       	mov.b	r2l,@0xb:8
    11e5:	3b 0b       	mov.b	r3l,@0xb:8
    11e7:	27 19       	mov.b	@0x19:8,r7h
    11e9:	49 13       	.word	H'49,H'13
    11eb:	11 01       	shlr.b	r1h
    11ed:	12 06       	rotxl.b	r6h
    11ef:	40 18       	bra	.+24 (0x1209)
    11f1:	96 42       	addx	#0x42,r6h
    11f3:	19 01       	sub.w	r0,r1
    11f5:	13 00       	rotxr.b	r0h
    11f7:	00 09       	.word	H'0,H'9
    11f9:	05 00       	xorc	#0x0,ccr
    11fb:	03 0e       	ldc	r6l,ccr
    11fd:	3a 0b       	mov.b	r2l,@0xb:8
    11ff:	3b 0b       	mov.b	r3l,@0xb:8
    1201:	49 13       	.word	H'49,H'13
    1203:	02 18       	stc	exr,r0l
    1205:	00 00       	nop	
    1207:	0a 34       	add.w	#0x3,r4
    1209:	00 03       	.word	H'0,H'3
    120b:	0e 3a       	addx	r3h,r2l
    120d:	0b 3b       	.word	H'b,H'3b
    120f:	0b 49       	.word	H'b,H'49
    1211:	13 02       	rotxr.b	r2h
    1213:	18 00       	sub.b	r0h,r0h
    1215:	00 0b       	.word	H'0,H'b
    1217:	34 00       	mov.b	r4h,@0x0:8
    1219:	03 08       	ldc	r0l,ccr
    121b:	3a 0b       	mov.b	r2l,@0xb:8
    121d:	3b 0b       	mov.b	r3l,@0xb:8
    121f:	49 13       	.word	H'49,H'13
    1221:	02 18       	stc	exr,r0l
    1223:	00 00       	nop	
    1225:	0c 2e       	mov.b	r2h,r6l
    1227:	01 03       	.word	H'1,H'3
    1229:	0e 3a       	addx	r3h,r2l
    122b:	0b 3b       	.word	H'b,H'3b
    122d:	0b 27       	.word	H'b,H'27
    122f:	19 49       	sub.w	r4,e1
    1231:	13 11       	rotxr.w	r1
    1233:	01 12       	.word	H'1,H'12
    1235:	06 40       	andc	#0x40,ccr
    1237:	18 96       	sub.b	r1l,r6h
    1239:	42 19       	.word	H'42,H'19
    123b:	01 13       	.word	H'1,H'13
    123d:	00 00       	nop	
    123f:	0d 2e       	mov.w	r2,e6
    1241:	00 03       	.word	H'0,H'3
    1243:	0e 3a       	addx	r3h,r2l
    1245:	0b 3b       	.word	H'b,H'3b
    1247:	0b 27       	.word	H'b,H'27
    1249:	19 49       	sub.w	r4,e1
    124b:	13 11       	rotxr.w	r1
    124d:	01 12       	.word	H'1,H'12
    124f:	06 40       	andc	#0x40,ccr
    1251:	18 97       	sub.b	r1l,r7h
    1253:	42 19       	.word	H'42,H'19
    1255:	00 00       	nop	
    1257:	0e 2e       	addx	r2h,r6l
    1259:	01 03       	.word	H'1,H'3
    125b:	0e 3a       	addx	r3h,r2l
    125d:	0b 3b       	.word	H'b,H'3b
    125f:	0b 27       	.word	H'b,H'27
    1261:	19 11       	sub.w	r1,r1
    1263:	01 12       	.word	H'1,H'12
    1265:	06 40       	andc	#0x40,ccr
    1267:	18 96       	sub.b	r1l,r6h
    1269:	42 19       	.word	H'42,H'19
    126b:	00 00       	nop	
	...

Disassembly of section .debug_aranges:

00000000 <.debug_aranges>:
   0:	00 00       	nop	
   2:	00 1c       	.word	H'0,H'1c
   4:	00 02       	.word	H'0,H'2
   6:	00 00       	nop	
   8:	00 00       	nop	
   a:	04 00       	orc	#0x0,ccr
   c:	00 00       	nop	
   e:	00 00       	nop	
  10:	00 40       	.word	H'0,H'40
  12:	01 2e       	.word	H'1,H'2e
  14:	00 00       	nop	
  16:	01 9a       	.word	H'1,H'9a
	...
  20:	00 00       	nop	
  22:	00 1c       	.word	H'0,H'1c
  24:	00 02       	.word	H'0,H'2
  26:	00 00       	nop	
  28:	00 b5       	.word	H'0,H'b5
  2a:	04 00       	orc	#0x0,ccr
  2c:	00 00       	nop	
  2e:	00 00       	nop	
  30:	00 40       	.word	H'0,H'40
  32:	02 c8       	.word	H'2,H'c8
  34:	00 00       	nop	
  36:	00 d8       	.word	H'0,H'd8
	...
  40:	00 00       	nop	
  42:	00 1c       	.word	H'0,H'1c
  44:	00 02       	.word	H'0,H'2
  46:	00 00       	nop	
  48:	01 dc       	.word	H'1,H'dc
  4a:	04 00       	orc	#0x0,ccr
  4c:	00 00       	nop	
  4e:	00 00       	nop	
  50:	00 40       	.word	H'0,H'40
  52:	03 a0       	ldmac	er0,mach
  54:	00 00       	nop	
  56:	05 92       	xorc	#0x92,ccr
	...
  60:	00 00       	nop	
  62:	00 1c       	.word	H'0,H'1c
  64:	00 02       	.word	H'0,H'2
  66:	00 00       	nop	
  68:	05 53       	xorc	#0x53,ccr
  6a:	04 00       	orc	#0x0,ccr
  6c:	00 00       	nop	
  6e:	00 00       	nop	
  70:	00 40       	.word	H'0,H'40
  72:	09 32       	add.w	r3,r2
  74:	00 00       	nop	
  76:	03 b6       	ldmac	er6,macl
	...
  80:	00 00       	nop	
  82:	00 1c       	.word	H'0,H'1c
  84:	00 02       	.word	H'0,H'2
  86:	00 00       	nop	
  88:	08 ab       	add.b	r2l,r3l
  8a:	04 00       	orc	#0x0,ccr
  8c:	00 00       	nop	
  8e:	00 00       	nop	
  90:	00 40       	.word	H'0,H'40
  92:	0c e8       	mov.b	r6l,r0l
  94:	00 00       	nop	
  96:	02 ba       	stmac	macl,er2
	...
  a0:	00 00       	nop	
  a2:	00 1c       	.word	H'0,H'1c
  a4:	00 02       	.word	H'0,H'2
  a6:	00 00       	nop	
  a8:	0b 6e       	.word	H'b,H'6e
  aa:	04 00       	orc	#0x0,ccr
  ac:	00 00       	nop	
  ae:	00 00       	nop	
  b0:	00 40       	.word	H'0,H'40
  b2:	0f a2       	mov.l	er2,er2
  b4:	00 00       	nop	
  b6:	06 d8       	andc	#0xd8,ccr
	...
  c0:	00 00       	nop	
  c2:	00 1c       	.word	H'0,H'1c
  c4:	00 02       	.word	H'0,H'2
  c6:	00 00       	nop	
  c8:	0e dd       	addx	r5l,r5l
  ca:	04 00       	orc	#0x0,ccr
  cc:	00 00       	nop	
  ce:	00 00       	nop	
  d0:	00 40       	.word	H'0,H'40
  d2:	16 7a       	and.b	r7h,r2l
  d4:	00 00       	nop	
  d6:	0e fe       	addx	r7l,r6l
	...
  e0:	00 00       	nop	
  e2:	00 1c       	.word	H'0,H'1c
  e4:	00 02       	.word	H'0,H'2
  e6:	00 00       	nop	
  e8:	1b 10       	.word	H'1b,H'10
  ea:	04 00       	orc	#0x0,ccr
  ec:	00 00       	nop	
  ee:	00 00       	nop	
  f0:	00 40       	.word	H'0,H'40
  f2:	25 78       	mov.b	@0x78:8,r5h
  f4:	00 00       	nop	
  f6:	04 4a       	orc	#0x4a,ccr
	...
 100:	00 00       	nop	
 102:	00 1c       	.word	H'0,H'1c
 104:	00 02       	.word	H'0,H'2
 106:	00 00       	nop	
 108:	22 96       	mov.b	@0x96:8,r2h
 10a:	04 00       	orc	#0x0,ccr
 10c:	00 00       	nop	
 10e:	00 00       	nop	
 110:	00 40       	.word	H'0,H'40
 112:	29 c2       	mov.b	@0xc2:8,r1l
 114:	00 00       	nop	
 116:	02 9c       	.word	H'2,H'9c
	...
 120:	00 00       	nop	
 122:	00 1c       	.word	H'0,H'1c
 124:	00 02       	.word	H'0,H'2
 126:	00 00       	nop	
 128:	24 ca       	mov.b	@0xca:8,r4h
 12a:	04 00       	orc	#0x0,ccr
 12c:	00 00       	nop	
 12e:	00 00       	nop	
 130:	00 40       	.word	H'0,H'40
 132:	2c 5e       	mov.b	@0x5e:8,r4l
 134:	00 00       	nop	
 136:	02 2e       	stmac	mach,er6
	...
 140:	00 00       	nop	
 142:	00 1c       	.word	H'0,H'1c
 144:	00 02       	.word	H'0,H'2
 146:	00 00       	nop	
 148:	26 91       	mov.b	@0x91:8,r6h
 14a:	04 00       	orc	#0x0,ccr
 14c:	00 00       	nop	
 14e:	00 00       	nop	
 150:	00 40       	.word	H'0,H'40
 152:	2e 8c       	mov.b	@0x8c:8,r6l
 154:	00 00       	nop	
 156:	01 26       	.word	H'1,H'26
	...
 160:	00 00       	nop	
 162:	00 1c       	.word	H'0,H'1c
 164:	00 02       	.word	H'0,H'2
 166:	00 00       	nop	
 168:	28 12       	mov.b	@0x12:8,r0l
 16a:	04 00       	orc	#0x0,ccr
 16c:	00 00       	nop	
 16e:	00 00       	nop	
 170:	00 40       	.word	H'0,H'40
 172:	2f b2       	mov.b	@0xb2:8,r7l
 174:	00 00       	nop	
 176:	06 dc       	andc	#0xdc,ccr
	...
 180:	00 00       	nop	
 182:	00 1c       	.word	H'0,H'1c
 184:	00 02       	.word	H'0,H'2
 186:	00 00       	nop	
 188:	2d 15       	mov.b	@0x15:8,r5l
 18a:	04 00       	orc	#0x0,ccr
 18c:	00 00       	nop	
 18e:	00 00       	nop	
 190:	00 40       	.word	H'0,H'40
 192:	36 8e       	mov.b	r6h,@0x8e:8
 194:	00 00       	nop	
 196:	05 8c       	xorc	#0x8c,ccr
	...
 1a0:	00 00       	nop	
 1a2:	00 1c       	.word	H'0,H'1c
 1a4:	00 02       	.word	H'0,H'2
 1a6:	00 00       	nop	
 1a8:	30 36       	mov.b	r0h,@0x36:8
 1aa:	04 00       	orc	#0x0,ccr
 1ac:	00 00       	nop	
 1ae:	00 00       	nop	
 1b0:	00 40       	.word	H'0,H'40
 1b2:	3c 1a       	mov.b	r4l,@0x1a:8
 1b4:	00 00       	nop	
 1b6:	03 5a       	.word	H'3,H'5a
	...
 1c0:	00 00       	nop	
 1c2:	00 1c       	.word	H'0,H'1c
 1c4:	00 02       	.word	H'0,H'2
 1c6:	00 00       	nop	
 1c8:	32 94       	mov.b	r2h,@0x94:8
 1ca:	04 00       	orc	#0x0,ccr
 1cc:	00 00       	nop	
 1ce:	00 00       	nop	
 1d0:	00 40       	.word	H'0,H'40
 1d2:	3f 74       	mov.b	r7l,@0x74:8
 1d4:	00 00       	nop	
 1d6:	01 42       	.word	H'1,H'42
	...

Disassembly of section .debug_line:

00000000 <.Ldebug_line0>:
.Ldebug_line0():
       0:	00 00       	nop	
       2:	00 bd       	.word	H'0,H'bd
       4:	00 04       	.word	H'0,H'4
       6:	00 00       	nop	
       8:	00 2d       	.word	H'0,H'2d
       a:	01 01       	.word	H'1,H'1
       c:	01 f6       	.word	H'1,H'f6
       e:	f2 0d       	mov.b	#0xd,r2h
      10:	00 01       	.word	H'0,H'1
      12:	01 01       	.word	H'1,H'1
      14:	01 00       	.word	H'1,H'0
      16:	00 00       	nop	
      18:	01 00       	.word	H'1,H'0
      1a:	00 01       	.word	H'0,H'1
      1c:	00 6d       	.word	H'0,H'6d
      1e:	61 69       	bnot	r6h,r1l
      20:	6e 2e 63 00 	mov.b	@(0x6300:16,er2),r6l
      24:	00 00       	nop	
      26:	00 69       	.word	H'0,H'69
      28:	6e 74 65 72 	mov.b	@(0x6572:16,er7),r4h
      2c:	72 75       	bclr	#0x7,r5h
      2e:	70 74       	bset	#0x7,r4h
      30:	2e 68       	mov.b	@0x68:8,r6l
      32:	00 00       	nop	
      34:	00 00       	nop	
      36:	00 00       	nop	
      38:	05 02       	xorc	#0x2,ccr
      3a:	00 40       	.word	H'0,H'40
      3c:	01 2e       	.word	H'1,H'2e
      3e:	1e 00       	subx	r0h,r0h
      40:	05 02       	xorc	#0x2,ccr
      42:	00 40       	.word	H'0,H'40
      44:	01 44       	.word	H'1,H'44
      46:	18 00       	sub.b	r0h,r0h
      48:	05 02       	xorc	#0x2,ccr
      4a:	00 40       	.word	H'0,H'40
      4c:	01 7e       	.word	H'1,H'7e
      4e:	18 00       	sub.b	r0h,r0h
      50:	05 02       	xorc	#0x2,ccr
      52:	00 40       	.word	H'0,H'40
      54:	01 b8       	.word	H'1,H'b8
      56:	18 00       	sub.b	r0h,r0h
      58:	05 02       	xorc	#0x2,ccr
      5a:	00 40       	.word	H'0,H'40
      5c:	01 f2       	.word	H'1,H'f2
      5e:	18 00       	sub.b	r0h,r0h
      60:	05 02       	xorc	#0x2,ccr
      62:	00 40       	.word	H'0,H'40
      64:	02 2c       	stmac	mach,er4
      66:	1b 00       	subs	#1,er0
      68:	05 02       	xorc	#0x2,ccr
      6a:	00 40       	.word	H'0,H'40
      6c:	02 66       	stc	vbr,er6
      6e:	19 00       	sub.w	r0,r0
      70:	05 02       	xorc	#0x2,ccr
      72:	00 40       	.word	H'0,H'40
      74:	02 6e       	stc	vbr,er6
      76:	18 00       	sub.b	r0h,r0h
      78:	05 02       	xorc	#0x2,ccr
      7a:	00 40       	.word	H'0,H'40
      7c:	02 70       	stc	sbr,er0
      7e:	00 02       	.word	H'0,H'2
      80:	04 01       	orc	#0x1,ccr
      82:	19 00       	sub.w	r0,r0
      84:	05 02       	xorc	#0x2,ccr
      86:	00 40       	.word	H'0,H'40
      88:	02 74       	stc	sbr,er4
      8a:	00 02       	.word	H'0,H'2
      8c:	04 00       	orc	#0x0,ccr
      8e:	1e 00       	subx	r0h,r0h
      90:	05 02       	xorc	#0x2,ccr
      92:	00 40       	.word	H'0,H'40
      94:	02 7a       	stc	sbr,er2
      96:	18 00       	sub.b	r0h,r0h
      98:	05 02       	xorc	#0x2,ccr
      9a:	00 40       	.word	H'0,H'40
      9c:	02 7c       	stc	sbr,er4
      9e:	19 00       	sub.w	r0,r0
      a0:	05 02       	xorc	#0x2,ccr
      a2:	00 40       	.word	H'0,H'40
      a4:	02 86       	.word	H'2,H'86
      a6:	1a 00       	dec.b	r0h
      a8:	05 02       	xorc	#0x2,ccr
      aa:	00 40       	.word	H'0,H'40
      ac:	02 be       	stmac	macl,er6
      ae:	1a 00       	dec.b	r0h
      b0:	05 02       	xorc	#0x2,ccr
      b2:	00 40       	.word	H'0,H'40
      b4:	02 c0       	.word	H'2,H'c0
      b6:	18 00       	sub.b	r0h,r0h
      b8:	05 02       	xorc	#0x2,ccr
      ba:	00 40       	.word	H'0,H'40
      bc:	02 c8       	.word	H'2,H'c8
      be:	00 01       	.word	H'0,H'1
      c0:	01        	.word	H'1,H'0

000000c1 <.Ldebug_line0>:
      c1:	00 00       	nop	
      c3:	00 d0       	.word	H'0,H'd0
      c5:	00 04       	.word	H'0,H'4
      c7:	00 00       	nop	
      c9:	00 32       	.word	H'0,H'32
      cb:	01 01       	.word	H'1,H'1
      cd:	01 f6       	.word	H'1,H'f6
      cf:	f2 0d       	mov.b	#0xd,r2h
      d1:	00 01       	.word	H'0,H'1
      d3:	01 01       	.word	H'1,H'1
      d5:	01 00       	.word	H'1,H'0
      d7:	00 00       	nop	
      d9:	01 00       	.word	H'1,H'0
      db:	00 01       	.word	H'0,H'1
      dd:	00 69       	.word	H'0,H'69
      df:	6e 74 65 72 	mov.b	@(0x6572:16,er7),r4h
      e3:	72 75       	bclr	#0x7,r5h
      e5:	70 74       	bset	#0x7,r4h
      e7:	2e 63       	mov.b	@0x63:8,r6l
      e9:	00 00       	nop	
      eb:	00 00       	nop	
      ed:	69 6e       	mov.w	@er6,e6
      ef:	74 65       	bor	#0x6,r5h
      f1:	72 72       	bclr	#0x7,r2h
      f3:	75 70       	bxor	#0x7,r0h
      f5:	74 2e       	bor	#0x2,r6l
      f7:	68 00       	mov.b	@er0,r0h
      f9:	00 00       	nop	
      fb:	00 00       	nop	
      fd:	00 05       	.word	H'0,H'5
      ff:	02 00       	stc	ccr,r0h
     101:	40 02       	bra	.+2 (0x105)
     103:	c8 1d       	or.b	#0x1d,r0l
     105:	00 05       	.word	H'0,H'5
     107:	02 00       	stc	ccr,r0h
     109:	40 02       	bra	.+2 (0x10d)
     10b:	d0 19       	xor.b	#0x19,r0h
     10d:	00 05       	.word	H'0,H'5
     10f:	02 00       	stc	ccr,r0h
     111:	40 02       	bra	.+2 (0x115)
     113:	d8 00       	xor.b	#0x0,r0l
     115:	02 04       	stc	ccr,r4h
     117:	03 18       	ldc	r0l,exr
     119:	00 05       	.word	H'0,H'5
     11b:	02 00       	stc	ccr,r0h
     11d:	40 02       	bra	.+2 (0x121)
     11f:	e4 16       	and.b	#0x16,r4h
     121:	00 05       	.word	H'0,H'5
     123:	02 00       	stc	ccr,r0h
     125:	40 02       	bra	.+2 (0x129)
     127:	ee 00       	and.b	#0x0,r6l
     129:	02 04       	stc	ccr,r4h
     12b:	01 06       	.word	H'1,H'6
     12d:	01 00       	.word	H'1,H'0
     12f:	05 02       	xorc	#0x2,ccr
     131:	00 40       	.word	H'0,H'40
     133:	02 f8       	.word	H'2,H'f8
     135:	00 02       	.word	H'0,H'2
     137:	04 00       	orc	#0x0,ccr
     139:	06 19       	andc	#0x19,ccr
     13b:	00 05       	.word	H'0,H'5
     13d:	02 00       	stc	ccr,r0h
     13f:	40 02       	bra	.+2 (0x143)
     141:	fa 18       	mov.b	#0x18,r2l
     143:	00 05       	.word	H'0,H'5
     145:	02 00       	stc	ccr,r0h
     147:	40 03       	bra/s	.+2 (0x14b)
     149:	04 1b       	orc	#0x1b,ccr
     14b:	00 05       	.word	H'0,H'5
     14d:	02 00       	stc	ccr,r0h
     14f:	40 03       	bra/s	.+2 (0x153)
     151:	1a 18       	sub.w	#0x1,e0
     153:	00 05       	.word	H'0,H'5
     155:	02 00       	stc	ccr,r0h
     157:	40 03       	bra/s	.+2 (0x15b)
     159:	34 18       	mov.b	r4h,@0x18:8
     15b:	00 05       	.word	H'0,H'5
     15d:	02 00       	stc	ccr,r0h
     15f:	40 03       	bra/s	.+2 (0x163)
     161:	36 18       	mov.b	r6h,@0x18:8
     163:	00 05       	.word	H'0,H'5
     165:	02 00       	stc	ccr,r0h
     167:	40 03       	bra/s	.+2 (0x16b)
     169:	42 1e       	bhi	.+30 (0x189)
     16b:	00 05       	.word	H'0,H'5
     16d:	02 00       	stc	ccr,r0h
     16f:	40 03       	bra/s	.+2 (0x173)
     171:	58 18       	.word	H'58,H'18
     173:	00 05       	.word	H'0,H'5
     175:	02 00       	stc	ccr,r0h
     177:	40 03       	bra/s	.+2 (0x17b)
     179:	72 18       	bclr	#0x1,r0l
     17b:	00 05       	.word	H'0,H'5
     17d:	02 00       	stc	ccr,r0h
     17f:	40 03       	bra/s	.+2 (0x183)
     181:	7c 18       	.word	H'7c,H'18
     183:	00 05       	.word	H'0,H'5
     185:	02 00       	stc	ccr,r0h
     187:	40 03       	bra/s	.+2 (0x18b)
     189:	92 18       	addx	#0x18,r2h
     18b:	00 05       	.word	H'0,H'5
     18d:	02 00       	stc	ccr,r0h
     18f:	40 03       	bra/s	.+2 (0x193)
     191:	a0 00       	cmp.b	#0x0,r0h
     193:	01 01       	.word	H'1,H'1

00000195 <.Ldebug_line0>:
     195:	00 00       	nop	
     197:	04 6b       	orc	#0x6b,ccr
     199:	00 04       	.word	H'0,H'4
     19b:	00 00       	nop	
     19d:	00 1d       	.word	H'0,H'1d
     19f:	01 01       	.word	H'1,H'1
     1a1:	01 f6       	.word	H'1,H'f6
     1a3:	f2 0d       	mov.b	#0xd,r2h
     1a5:	00 01       	.word	H'0,H'1
     1a7:	01 01       	.word	H'1,H'1
     1a9:	01 00       	.word	H'1,H'0
     1ab:	00 00       	nop	
     1ad:	01 00       	.word	H'1,H'0
     1af:	00 01       	.word	H'0,H'1
     1b1:	00 6c       	.word	H'0,H'6c
     1b3:	69 62       	mov.w	@er6,r2
     1b5:	2e 63       	mov.b	@0x63:8,r6l
     1b7:	00 00       	nop	
     1b9:	00 00       	nop	
     1bb:	00 00       	nop	
     1bd:	05 02       	xorc	#0x2,ccr
     1bf:	00 40       	.word	H'0,H'40
     1c1:	03 a0       	ldmac	er0,mach
     1c3:	1c 00       	cmp.b	r0h,r0h
     1c5:	05 02       	xorc	#0x2,ccr
     1c7:	00 40       	.word	H'0,H'40
     1c9:	03 bc       	ldmac	er4,macl
     1cb:	19 00       	sub.w	r0,r0
     1cd:	05 02       	xorc	#0x2,ccr
     1cf:	00 40       	.word	H'0,H'40
     1d1:	03 ca       	.word	H'3,H'ca
     1d3:	00 02       	.word	H'0,H'2
     1d5:	04 03       	orc	#0x3,ccr
     1d7:	18 00       	sub.b	r0h,r0h
     1d9:	05 02       	xorc	#0x2,ccr
     1db:	00 40       	.word	H'0,H'40
     1dd:	03 e0       	.word	H'3,H'e0
     1df:	16 00       	and.b	r0h,r0h
     1e1:	05 02       	xorc	#0x2,ccr
     1e3:	00 40       	.word	H'0,H'40
     1e5:	03 ee       	.word	H'3,H'ee
     1e7:	00 02       	.word	H'0,H'2
     1e9:	04 01       	orc	#0x1,ccr
     1eb:	06 01       	andc	#0x1,ccr
     1ed:	00 05       	.word	H'0,H'5
     1ef:	02 00       	stc	ccr,r0h
     1f1:	40 03       	bra/s	.+2 (0x1f5)
     1f3:	f8 00       	mov.b	#0x0,r0l
     1f5:	02 04       	stc	ccr,r4h
     1f7:	00 06       	.word	H'0,H'6
     1f9:	19 00       	sub.w	r0,r0
     1fb:	05 02       	xorc	#0x2,ccr
     1fd:	00 40       	.word	H'0,H'40
     1ff:	03 fe       	.word	H'3,H'fe
     201:	18 00       	sub.b	r0h,r0h
     203:	05 02       	xorc	#0x2,ccr
     205:	00 40       	.word	H'0,H'40
     207:	04 0c       	orc	#0xc,ccr
     209:	1a 00       	dec.b	r0h
     20b:	05 02       	xorc	#0x2,ccr
     20d:	00 40       	.word	H'0,H'40
     20f:	04 2a       	orc	#0x2a,ccr
     211:	18 00       	sub.b	r0h,r0h
     213:	05 02       	xorc	#0x2,ccr
     215:	00 40       	.word	H'0,H'40
     217:	04 36       	orc	#0x36,ccr
     219:	18 00       	sub.b	r0h,r0h
     21b:	05 02       	xorc	#0x2,ccr
     21d:	00 40       	.word	H'0,H'40
     21f:	04 42       	orc	#0x42,ccr
     221:	18 00       	sub.b	r0h,r0h
     223:	05 02       	xorc	#0x2,ccr
     225:	00 40       	.word	H'0,H'40
     227:	04 44       	orc	#0x44,ccr
     229:	00 02       	.word	H'0,H'2
     22b:	04 02       	orc	#0x2,ccr
     22d:	18 00       	sub.b	r0h,r0h
     22f:	05 02       	xorc	#0x2,ccr
     231:	00 40       	.word	H'0,H'40
     233:	04 68       	orc	#0x68,ccr
     235:	16 00       	and.b	r0h,r0h
     237:	05 02       	xorc	#0x2,ccr
     239:	00 40       	.word	H'0,H'40
     23b:	04 76       	orc	#0x76,ccr
     23d:	00 02       	.word	H'0,H'2
     23f:	04 01       	orc	#0x1,ccr
     241:	06 01       	andc	#0x1,ccr
     243:	00 05       	.word	H'0,H'5
     245:	02 00       	stc	ccr,r0h
     247:	40 04       	bra	.+4 (0x24d)
     249:	80 00       	add.b	#0x0,r0h
     24b:	02 04       	stc	ccr,r4h
     24d:	00 06       	.word	H'0,H'6
     24f:	19 00       	sub.w	r0,r0
     251:	05 02       	xorc	#0x2,ccr
     253:	00 40       	.word	H'0,H'40
     255:	04 86       	orc	#0x86,ccr
     257:	18 00       	sub.b	r0h,r0h
     259:	05 02       	xorc	#0x2,ccr
     25b:	00 40       	.word	H'0,H'40
     25d:	04 94       	orc	#0x94,ccr
     25f:	1a 00       	dec.b	r0h
     261:	05 02       	xorc	#0x2,ccr
     263:	00 40       	.word	H'0,H'40
     265:	04 b2       	orc	#0xb2,ccr
     267:	18 00       	sub.b	r0h,r0h
     269:	05 02       	xorc	#0x2,ccr
     26b:	00 40       	.word	H'0,H'40
     26d:	04 ca       	orc	#0xca,ccr
     26f:	18 00       	sub.b	r0h,r0h
     271:	05 02       	xorc	#0x2,ccr
     273:	00 40       	.word	H'0,H'40
     275:	04 cc       	orc	#0xcc,ccr
     277:	18 00       	sub.b	r0h,r0h
     279:	05 02       	xorc	#0x2,ccr
     27b:	00 40       	.word	H'0,H'40
     27d:	04 e0       	orc	#0xe0,ccr
     27f:	18 00       	sub.b	r0h,r0h
     281:	05 02       	xorc	#0x2,ccr
     283:	00 40       	.word	H'0,H'40
     285:	04 f4       	orc	#0xf4,ccr
     287:	00 02       	.word	H'0,H'2
     289:	04 01       	orc	#0x1,ccr
     28b:	06 01       	andc	#0x1,ccr
     28d:	00 05       	.word	H'0,H'5
     28f:	02 00       	stc	ccr,r0h
     291:	40 04       	bra	.+4 (0x297)
     293:	fa 00       	mov.b	#0x0,r2l
     295:	02 04       	stc	ccr,r4h
     297:	02 01       	stc	ccr,r1h
     299:	00 05       	.word	H'0,H'5
     29b:	02 00       	stc	ccr,r0h
     29d:	40 05       	bra/s	.+4 (0x2a3)
     29f:	00 00       	nop	
     2a1:	02 04       	stc	ccr,r4h
     2a3:	00 06       	.word	H'0,H'6
     2a5:	18 00       	sub.b	r0h,r0h
     2a7:	05 02       	xorc	#0x2,ccr
     2a9:	00 40       	.word	H'0,H'40
     2ab:	05 0e       	xorc	#0xe,ccr
     2ad:	18 00       	sub.b	r0h,r0h
     2af:	05 02       	xorc	#0x2,ccr
     2b1:	00 40       	.word	H'0,H'40
     2b3:	05 1c       	xorc	#0x1c,ccr
     2b5:	13 00       	rotxr.b	r0h
     2b7:	05 02       	xorc	#0x2,ccr
     2b9:	00 40       	.word	H'0,H'40
     2bb:	05 2a       	xorc	#0x2a,ccr
     2bd:	00 02       	.word	H'0,H'2
     2bf:	04 01       	orc	#0x1,ccr
     2c1:	06 01       	andc	#0x1,ccr
     2c3:	00 05       	.word	H'0,H'5
     2c5:	02 00       	stc	ccr,r0h
     2c7:	40 05       	bra/s	.+4 (0x2cd)
     2c9:	34 00       	mov.b	r4h,@0x0:8
     2cb:	02 04       	stc	ccr,r4h
     2cd:	00 06       	.word	H'0,H'6
     2cf:	1d 00       	cmp.w	r0,r0
     2d1:	05 02       	xorc	#0x2,ccr
     2d3:	00 40       	.word	H'0,H'40
     2d5:	05 36       	xorc	#0x36,ccr
     2d7:	18 00       	sub.b	r0h,r0h
     2d9:	05 02       	xorc	#0x2,ccr
     2db:	00 40       	.word	H'0,H'40
     2dd:	05 44       	xorc	#0x44,ccr
     2df:	1a 00       	dec.b	r0h
     2e1:	05 02       	xorc	#0x2,ccr
     2e3:	00 40       	.word	H'0,H'40
     2e5:	05 56       	xorc	#0x56,ccr
     2e7:	19 00       	sub.w	r0,r0
     2e9:	05 02       	xorc	#0x2,ccr
     2eb:	00 40       	.word	H'0,H'40
     2ed:	05 5e       	xorc	#0x5e,ccr
     2ef:	00 02       	.word	H'0,H'2
     2f1:	04 03       	orc	#0x3,ccr
     2f3:	06 01       	andc	#0x1,ccr
     2f5:	00 05       	.word	H'0,H'5
     2f7:	02 00       	stc	ccr,r0h
     2f9:	40 05       	bra/s	.+4 (0x2ff)
     2fb:	76 00       	band	#0x0,r0h
     2fd:	02 04       	stc	ccr,r4h
     2ff:	01 01       	.word	H'1,H'1
     301:	00 05       	.word	H'0,H'5
     303:	02 00       	stc	ccr,r0h
     305:	40 05       	bra/s	.+4 (0x30b)
     307:	82 00       	add.b	#0x0,r2h
     309:	02 04       	stc	ccr,r4h
     30b:	00 06       	.word	H'0,H'6
     30d:	19 00       	sub.w	r0,r0
     30f:	05 02       	xorc	#0x2,ccr
     311:	00 40       	.word	H'0,H'40
     313:	05 86       	xorc	#0x86,ccr
     315:	18 00       	sub.b	r0h,r0h
     317:	05 02       	xorc	#0x2,ccr
     319:	00 40       	.word	H'0,H'40
     31b:	05 92       	xorc	#0x92,ccr
     31d:	1a 00       	dec.b	r0h
     31f:	05 02       	xorc	#0x2,ccr
     321:	00 40       	.word	H'0,H'40
     323:	05 aa       	xorc	#0xaa,ccr
     325:	18 00       	sub.b	r0h,r0h
     327:	05 02       	xorc	#0x2,ccr
     329:	00 40       	.word	H'0,H'40
     32b:	05 b6       	xorc	#0xb6,ccr
     32d:	19 00       	sub.w	r0,r0
     32f:	05 02       	xorc	#0x2,ccr
     331:	00 40       	.word	H'0,H'40
     333:	05 c6       	xorc	#0xc6,ccr
     335:	18 00       	sub.b	r0h,r0h
     337:	05 02       	xorc	#0x2,ccr
     339:	00 40       	.word	H'0,H'40
     33b:	05 d2       	xorc	#0xd2,ccr
     33d:	15 00       	xor.b	r0h,r0h
     33f:	05 02       	xorc	#0x2,ccr
     341:	00 40       	.word	H'0,H'40
     343:	05 ee       	xorc	#0xee,ccr
     345:	18 00       	sub.b	r0h,r0h
     347:	05 02       	xorc	#0x2,ccr
     349:	00 40       	.word	H'0,H'40
     34b:	05 f0       	xorc	#0xf0,ccr
     34d:	18 00       	sub.b	r0h,r0h
     34f:	05 02       	xorc	#0x2,ccr
     351:	00 40       	.word	H'0,H'40
     353:	05 f2       	xorc	#0xf2,ccr
     355:	19 00       	sub.w	r0,r0
     357:	05 02       	xorc	#0x2,ccr
     359:	00 40       	.word	H'0,H'40
     35b:	05 f8       	xorc	#0xf8,ccr
     35d:	18 00       	sub.b	r0h,r0h
     35f:	05 02       	xorc	#0x2,ccr
     361:	00 40       	.word	H'0,H'40
     363:	06 06       	andc	#0x6,ccr
     365:	1a 00       	dec.b	r0h
     367:	05 02       	xorc	#0x2,ccr
     369:	00 40       	.word	H'0,H'40
     36b:	06 1e       	andc	#0x1e,ccr
     36d:	18 00       	sub.b	r0h,r0h
     36f:	05 02       	xorc	#0x2,ccr
     371:	00 40       	.word	H'0,H'40
     373:	06 20       	andc	#0x20,ccr
     375:	18 00       	sub.b	r0h,r0h
     377:	05 02       	xorc	#0x2,ccr
     379:	00 40       	.word	H'0,H'40
     37b:	06 34       	andc	#0x34,ccr
     37d:	18 00       	sub.b	r0h,r0h
     37f:	05 02       	xorc	#0x2,ccr
     381:	00 40       	.word	H'0,H'40
     383:	06 48       	andc	#0x48,ccr
     385:	00 02       	.word	H'0,H'2
     387:	04 01       	orc	#0x1,ccr
     389:	06 01       	andc	#0x1,ccr
     38b:	00 05       	.word	H'0,H'5
     38d:	02 00       	stc	ccr,r0h
     38f:	40 06       	bra	.+6 (0x397)
     391:	4e 00       	bgt	.0 (0x393)
     393:	02 04       	stc	ccr,r4h
     395:	02 01       	stc	ccr,r1h
     397:	00 05       	.word	H'0,H'5
     399:	02 00       	stc	ccr,r0h
     39b:	40 06       	bra	.+6 (0x3a3)
     39d:	54 00       	rts/l	er0
     39f:	02 04       	stc	ccr,r4h
     3a1:	00 06       	.word	H'0,H'6
     3a3:	18 00       	sub.b	r0h,r0h
     3a5:	05 02       	xorc	#0x2,ccr
     3a7:	00 40       	.word	H'0,H'40
     3a9:	06 62       	andc	#0x62,ccr
     3ab:	18 00       	sub.b	r0h,r0h
     3ad:	05 02       	xorc	#0x2,ccr
     3af:	00 40       	.word	H'0,H'40
     3b1:	06 70       	andc	#0x70,ccr
     3b3:	13 00       	rotxr.b	r0h
     3b5:	05 02       	xorc	#0x2,ccr
     3b7:	00 40       	.word	H'0,H'40
     3b9:	06 7c       	andc	#0x7c,ccr
     3bb:	00 02       	.word	H'0,H'2
     3bd:	04 01       	orc	#0x1,ccr
     3bf:	06 01       	andc	#0x1,ccr
     3c1:	00 05       	.word	H'0,H'5
     3c3:	02 00       	stc	ccr,r0h
     3c5:	40 06       	bra	.+6 (0x3cd)
     3c7:	88 00       	add.b	#0x0,r0l
     3c9:	02 04       	stc	ccr,r4h
     3cb:	00 06       	.word	H'0,H'6
     3cd:	1d 00       	cmp.w	r0,r0
     3cf:	05 02       	xorc	#0x2,ccr
     3d1:	00 40       	.word	H'0,H'40
     3d3:	06 8a       	andc	#0x8a,ccr
     3d5:	18 00       	sub.b	r0h,r0h
     3d7:	05 02       	xorc	#0x2,ccr
     3d9:	00 40       	.word	H'0,H'40
     3db:	06 96       	andc	#0x96,ccr
     3dd:	1a 00       	dec.b	r0h
     3df:	05 02       	xorc	#0x2,ccr
     3e1:	00 40       	.word	H'0,H'40
     3e3:	06 b2       	andc	#0xb2,ccr
     3e5:	18 00       	sub.b	r0h,r0h
     3e7:	05 02       	xorc	#0x2,ccr
     3e9:	00 40       	.word	H'0,H'40
     3eb:	06 b4       	andc	#0xb4,ccr
     3ed:	18 00       	sub.b	r0h,r0h
     3ef:	05 02       	xorc	#0x2,ccr
     3f1:	00 40       	.word	H'0,H'40
     3f3:	06 c8       	andc	#0xc8,ccr
     3f5:	18 00       	sub.b	r0h,r0h
     3f7:	05 02       	xorc	#0x2,ccr
     3f9:	00 40       	.word	H'0,H'40
     3fb:	06 dc       	andc	#0xdc,ccr
     3fd:	00 02       	.word	H'0,H'2
     3ff:	04 01       	orc	#0x1,ccr
     401:	06 01       	andc	#0x1,ccr
     403:	00 05       	.word	H'0,H'5
     405:	02 00       	stc	ccr,r0h
     407:	40 06       	bra	.+6 (0x40f)
     409:	e2 00       	and.b	#0x0,r2h
     40b:	02 04       	stc	ccr,r4h
     40d:	02 01       	stc	ccr,r1h
     40f:	00 05       	.word	H'0,H'5
     411:	02 00       	stc	ccr,r0h
     413:	40 06       	bra	.+6 (0x41b)
     415:	e8 00       	and.b	#0x0,r0l
     417:	02 04       	stc	ccr,r4h
     419:	00 06       	.word	H'0,H'6
     41b:	18 00       	sub.b	r0h,r0h
     41d:	05 02       	xorc	#0x2,ccr
     41f:	00 40       	.word	H'0,H'40
     421:	06 f6       	andc	#0xf6,ccr
     423:	18 00       	sub.b	r0h,r0h
     425:	05 02       	xorc	#0x2,ccr
     427:	00 40       	.word	H'0,H'40
     429:	07 04       	ldc	#0x4,ccr
     42b:	18 00       	sub.b	r0h,r0h
     42d:	05 02       	xorc	#0x2,ccr
     42f:	00 40       	.word	H'0,H'40
     431:	07 0e       	ldc	#0xe,ccr
     433:	12 00       	rotxl.b	r0h
     435:	05 02       	xorc	#0x2,ccr
     437:	00 40       	.word	H'0,H'40
     439:	07 1a       	ldc	#0x1a,ccr
     43b:	00 02       	.word	H'0,H'2
     43d:	04 02       	orc	#0x2,ccr
     43f:	06 01       	andc	#0x1,ccr
     441:	00 05       	.word	H'0,H'5
     443:	02 00       	stc	ccr,r0h
     445:	40 07       	bra/s	.+6 (0x44d)
     447:	26 00       	mov.b	@0x0:8,r6h
     449:	02 04       	stc	ccr,r4h
     44b:	03 01       	ldc	r1h,ccr
     44d:	00 05       	.word	H'0,H'5
     44f:	02 00       	stc	ccr,r0h
     451:	40 07       	bra/s	.+6 (0x459)
     453:	2e 00       	mov.b	@0x0:8,r6l
     455:	02 04       	stc	ccr,r4h
     457:	00 06       	.word	H'0,H'6
     459:	1e 00       	subx	r0h,r0h
     45b:	05 02       	xorc	#0x2,ccr
     45d:	00 40       	.word	H'0,H'40
     45f:	07 30       	ldc	#0x30,ccr
     461:	18 00       	sub.b	r0h,r0h
     463:	05 02       	xorc	#0x2,ccr
     465:	00 40       	.word	H'0,H'40
     467:	07 3e       	ldc	#0x3e,ccr
     469:	1b 00       	subs	#1,er0
     46b:	05 02       	xorc	#0x2,ccr
     46d:	00 40       	.word	H'0,H'40
     46f:	07 4a       	ldc	#0x4a,ccr
     471:	18 00       	sub.b	r0h,r0h
     473:	05 02       	xorc	#0x2,ccr
     475:	00 40       	.word	H'0,H'40
     477:	07 52       	ldc	#0x52,ccr
     479:	18 00       	sub.b	r0h,r0h
     47b:	05 02       	xorc	#0x2,ccr
     47d:	00 40       	.word	H'0,H'40
     47f:	07 5c       	ldc	#0x5c,ccr
     481:	18 00       	sub.b	r0h,r0h
     483:	05 02       	xorc	#0x2,ccr
     485:	00 40       	.word	H'0,H'40
     487:	07 6c       	ldc	#0x6c,ccr
     489:	18 00       	sub.b	r0h,r0h
     48b:	05 02       	xorc	#0x2,ccr
     48d:	00 40       	.word	H'0,H'40
     48f:	07 76       	ldc	#0x76,ccr
     491:	1b 00       	subs	#1,er0
     493:	05 02       	xorc	#0x2,ccr
     495:	00 40       	.word	H'0,H'40
     497:	07 7e       	ldc	#0x7e,ccr
     499:	18 00       	sub.b	r0h,r0h
     49b:	05 02       	xorc	#0x2,ccr
     49d:	00 40       	.word	H'0,H'40
     49f:	07 8a       	ldc	#0x8a,ccr
     4a1:	18 00       	sub.b	r0h,r0h
     4a3:	05 02       	xorc	#0x2,ccr
     4a5:	00 40       	.word	H'0,H'40
     4a7:	07 92       	ldc	#0x92,ccr
     4a9:	00 02       	.word	H'0,H'2
     4ab:	04 01       	orc	#0x1,ccr
     4ad:	06 01       	andc	#0x1,ccr
     4af:	00 05       	.word	H'0,H'5
     4b1:	02 00       	stc	ccr,r0h
     4b3:	40 07       	bra/s	.+6 (0x4bb)
     4b5:	98 00       	addx	#0x0,r0l
     4b7:	02 04       	stc	ccr,r4h
     4b9:	02 01       	stc	ccr,r1h
     4bb:	00 05       	.word	H'0,H'5
     4bd:	02 00       	stc	ccr,r0h
     4bf:	40 07       	bra/s	.+6 (0x4c7)
     4c1:	9a 00       	addx	#0x0,r2l
     4c3:	02 04       	stc	ccr,r4h
     4c5:	04 01       	orc	#0x1,ccr
     4c7:	00 05       	.word	H'0,H'5
     4c9:	02 00       	stc	ccr,r0h
     4cb:	40 07       	bra/s	.+6 (0x4d3)
     4cd:	9e 06       	addx	#0x6,r6l
     4cf:	18 00       	sub.b	r0h,r0h
     4d1:	05 02       	xorc	#0x2,ccr
     4d3:	00 40       	.word	H'0,H'40
     4d5:	07 a8       	ldc	#0xa8,ccr
     4d7:	18 00       	sub.b	r0h,r0h
     4d9:	05 02       	xorc	#0x2,ccr
     4db:	00 40       	.word	H'0,H'40
     4dd:	07 ac       	ldc	#0xac,ccr
     4df:	18 00       	sub.b	r0h,r0h
     4e1:	05 02       	xorc	#0x2,ccr
     4e3:	00 40       	.word	H'0,H'40
     4e5:	07 b6       	ldc	#0xb6,ccr
     4e7:	00 02       	.word	H'0,H'2
     4e9:	04 00       	orc	#0x0,ccr
     4eb:	1b 00       	subs	#1,er0
     4ed:	05 02       	xorc	#0x2,ccr
     4ef:	00 40       	.word	H'0,H'40
     4f1:	07 c4       	ldc	#0xc4,ccr
     4f3:	18 00       	sub.b	r0h,r0h
     4f5:	05 02       	xorc	#0x2,ccr
     4f7:	00 40       	.word	H'0,H'40
     4f9:	07 c6       	ldc	#0xc6,ccr
     4fb:	18 00       	sub.b	r0h,r0h
     4fd:	05 02       	xorc	#0x2,ccr
     4ff:	00 40       	.word	H'0,H'40
     501:	07 de       	ldc	#0xde,ccr
     503:	16 00       	and.b	r0h,r0h
     505:	05 02       	xorc	#0x2,ccr
     507:	00 40       	.word	H'0,H'40
     509:	07 ea       	ldc	#0xea,ccr
     50b:	19 00       	sub.w	r0,r0
     50d:	05 02       	xorc	#0x2,ccr
     50f:	00 40       	.word	H'0,H'40
     511:	07 ec       	ldc	#0xec,ccr
     513:	18 00       	sub.b	r0h,r0h
     515:	05 02       	xorc	#0x2,ccr
     517:	00 40       	.word	H'0,H'40
     519:	07 f6       	ldc	#0xf6,ccr
     51b:	1b 00       	subs	#1,er0
     51d:	05 02       	xorc	#0x2,ccr
     51f:	00 40       	.word	H'0,H'40
     521:	08 08       	add.b	r0h,r0l
     523:	18 00       	sub.b	r0h,r0h
     525:	05 02       	xorc	#0x2,ccr
     527:	00 40       	.word	H'0,H'40
     529:	08 0e       	add.b	r0h,r6l
     52b:	1a 00       	dec.b	r0h
     52d:	05 02       	xorc	#0x2,ccr
     52f:	00 40       	.word	H'0,H'40
     531:	08 16       	add.b	r1h,r6h
     533:	18 00       	sub.b	r0h,r0h
     535:	05 02       	xorc	#0x2,ccr
     537:	00 40       	.word	H'0,H'40
     539:	08 1e       	add.b	r1h,r6l
     53b:	18 00       	sub.b	r0h,r0h
     53d:	05 02       	xorc	#0x2,ccr
     53f:	00 40       	.word	H'0,H'40
     541:	08 24       	add.b	r2h,r4h
     543:	18 00       	sub.b	r0h,r0h
     545:	05 02       	xorc	#0x2,ccr
     547:	00 40       	.word	H'0,H'40
     549:	08 40       	add.b	r4h,r0h
     54b:	18 00       	sub.b	r0h,r0h
     54d:	05 02       	xorc	#0x2,ccr
     54f:	00 40       	.word	H'0,H'40
     551:	08 48       	add.b	r4h,r0l
     553:	18 00       	sub.b	r0h,r0h
     555:	05 02       	xorc	#0x2,ccr
     557:	00 40       	.word	H'0,H'40
     559:	08 4e       	add.b	r4h,r6l
     55b:	18 00       	sub.b	r0h,r0h
     55d:	05 02       	xorc	#0x2,ccr
     55f:	00 40       	.word	H'0,H'40
     561:	08 5a       	add.b	r5h,r2l
     563:	1b 00       	subs	#1,er0
     565:	05 02       	xorc	#0x2,ccr
     567:	00 40       	.word	H'0,H'40
     569:	08 70       	add.b	r7h,r0h
     56b:	1b 00       	subs	#1,er0
     56d:	05 02       	xorc	#0x2,ccr
     56f:	00 40       	.word	H'0,H'40
     571:	08 82       	add.b	r0l,r2h
     573:	18 00       	sub.b	r0h,r0h
     575:	05 02       	xorc	#0x2,ccr
     577:	00 40       	.word	H'0,H'40
     579:	08 96       	add.b	r1l,r6h
     57b:	19 00       	sub.w	r0,r0
     57d:	05 02       	xorc	#0x2,ccr
     57f:	00 40       	.word	H'0,H'40
     581:	08 a0       	add.b	r2l,r0h
     583:	00 02       	.word	H'0,H'2
     585:	04 01       	orc	#0x1,ccr
     587:	06 01       	andc	#0x1,ccr
     589:	00 05       	.word	H'0,H'5
     58b:	02 00       	stc	ccr,r0h
     58d:	40 08       	bra	.+8 (0x597)
     58f:	a8 00       	cmp.b	#0x0,r0l
     591:	02 04       	stc	ccr,r4h
     593:	00 06       	.word	H'0,H'6
     595:	18 00       	sub.b	r0h,r0h
     597:	05 02       	xorc	#0x2,ccr
     599:	00 40       	.word	H'0,H'40
     59b:	08 b2       	add.b	r3l,r2h
     59d:	19 00       	sub.w	r0,r0
     59f:	05 02       	xorc	#0x2,ccr
     5a1:	00 40       	.word	H'0,H'40
     5a3:	08 b4       	add.b	r3l,r4h
     5a5:	18 00       	sub.b	r0h,r0h
     5a7:	05 02       	xorc	#0x2,ccr
     5a9:	00 40       	.word	H'0,H'40
     5ab:	08 dc       	add.b	r5l,r4l
     5ad:	18 00       	sub.b	r0h,r0h
     5af:	05 02       	xorc	#0x2,ccr
     5b1:	00 40       	.word	H'0,H'40
     5b3:	08 f0       	add.b	r7l,r0h
     5b5:	18 00       	sub.b	r0h,r0h
     5b7:	05 02       	xorc	#0x2,ccr
     5b9:	00 40       	.word	H'0,H'40
     5bb:	08 f8       	add.b	r7l,r0l
     5bd:	00 02       	.word	H'0,H'2
     5bf:	04 01       	orc	#0x1,ccr
     5c1:	06 01       	andc	#0x1,ccr
     5c3:	00 05       	.word	H'0,H'5
     5c5:	02 00       	stc	ccr,r0h
     5c7:	40 09       	bra/s	.+8 (0x5d1)
     5c9:	02 00       	stc	ccr,r0h
     5cb:	02 04       	stc	ccr,r4h
     5cd:	00 06       	.word	H'0,H'6
     5cf:	14 00       	or.b	r0h,r0h
     5d1:	05 02       	xorc	#0x2,ccr
     5d3:	00 40       	.word	H'0,H'40
     5d5:	09 0c       	add.w	r0,e4
     5d7:	00 02       	.word	H'0,H'2
     5d9:	04 01       	orc	#0x1,ccr
     5db:	06 01       	andc	#0x1,ccr
     5dd:	00 05       	.word	H'0,H'5
     5df:	02 00       	stc	ccr,r0h
     5e1:	40 09       	bra/s	.+8 (0x5eb)
     5e3:	14 00       	or.b	r0h,r0h
     5e5:	02 04       	stc	ccr,r4h
     5e7:	00 06       	.word	H'0,H'6
     5e9:	1d 00       	cmp.w	r0,r0
     5eb:	05 02       	xorc	#0x2,ccr
     5ed:	00 40       	.word	H'0,H'40
     5ef:	09 22       	add.w	r2,r2
     5f1:	19 00       	sub.w	r0,r0
     5f3:	05 02       	xorc	#0x2,ccr
     5f5:	00 40       	.word	H'0,H'40
     5f7:	09 24       	add.w	r2,r4
     5f9:	18 00       	sub.b	r0h,r0h
     5fb:	05 02       	xorc	#0x2,ccr
     5fd:	00 40       	.word	H'0,H'40
     5ff:	09 32       	add.w	r3,r2
     601:	00 01       	.word	H'0,H'1
     603:	01        	.word	H'1,H'0

00000604 <.Ldebug_line0>:
     604:	00 00       	nop	
     606:	02 19       	stc	exr,r1l
     608:	00 04       	.word	H'0,H'4
     60a:	00 00       	nop	
     60c:	00 2d       	.word	H'0,H'2d
     60e:	01 01       	.word	H'1,H'1
     610:	01 f6       	.word	H'1,H'f6
     612:	f2 0d       	mov.b	#0xd,r2h
     614:	00 01       	.word	H'0,H'1
     616:	01 01       	.word	H'1,H'1
     618:	01 00       	.word	H'1,H'0
     61a:	00 00       	nop	
     61c:	01 00       	.word	H'1,H'0
     61e:	00 01       	.word	H'0,H'1
     620:	00 73       	.word	H'0,H'73
     622:	65 72       	xor.w	r7,r2
     624:	69 61       	mov.w	@er6,r1
     626:	6c 2e       	mov.b	@er2+,r6l
     628:	63 00       	btst	r0h,r0h
     62a:	00 00       	nop	
     62c:	00 64       	.word	H'0,H'64
     62e:	65 66       	xor.w	r6,r6
     630:	69 6e       	mov.w	@er6,e6
     632:	65 73       	xor.w	r7,r3
     634:	2e 68       	mov.b	@0x68:8,r6l
     636:	00 00       	nop	
     638:	00 00       	nop	
     63a:	00 00       	nop	
     63c:	05 02       	xorc	#0x2,ccr
     63e:	00 40       	.word	H'0,H'40
     640:	09 32       	add.w	r3,r2
     642:	51 00       	divxu.b	r0h,r0
     644:	05 02       	xorc	#0x2,ccr
     646:	00 40       	.word	H'0,H'40
     648:	09 42       	add.w	r4,r2
     64a:	18 00       	sub.b	r0h,r0h
     64c:	05 02       	xorc	#0x2,ccr
     64e:	00 40       	.word	H'0,H'40
     650:	09 5c       	add.w	r5,e4
     652:	19 00       	sub.w	r0,r0
     654:	05 02       	xorc	#0x2,ccr
     656:	00 40       	.word	H'0,H'40
     658:	09 68       	add.w	r6,e0
     65a:	18 00       	sub.b	r0h,r0h
     65c:	05 02       	xorc	#0x2,ccr
     65e:	00 40       	.word	H'0,H'40
     660:	09 72       	add.w	r7,r2
     662:	18 00       	sub.b	r0h,r0h
     664:	05 02       	xorc	#0x2,ccr
     666:	00 40       	.word	H'0,H'40
     668:	09 7e       	add.w	r7,e6
     66a:	18 00       	sub.b	r0h,r0h
     66c:	05 02       	xorc	#0x2,ccr
     66e:	00 40       	.word	H'0,H'40
     670:	09 8a       	add.w	e0,e2
     672:	18 00       	sub.b	r0h,r0h
     674:	05 02       	xorc	#0x2,ccr
     676:	00 40       	.word	H'0,H'40
     678:	09 96       	add.w	e1,r6
     67a:	19 00       	sub.w	r0,r0
     67c:	05 02       	xorc	#0x2,ccr
     67e:	00 40       	.word	H'0,H'40
     680:	09 98       	add.w	e1,e0
     682:	18 00       	sub.b	r0h,r0h
     684:	05 02       	xorc	#0x2,ccr
     686:	00 40       	.word	H'0,H'40
     688:	09 a4       	add.w	e2,r4
     68a:	1b 00       	subs	#1,er0
     68c:	05 02       	xorc	#0x2,ccr
     68e:	00 40       	.word	H'0,H'40
     690:	09 b4       	add.w	e3,r4
     692:	18 00       	sub.b	r0h,r0h
     694:	05 02       	xorc	#0x2,ccr
     696:	00 40       	.word	H'0,H'40
     698:	09 ce       	add.w	e4,e6
     69a:	18 00       	sub.b	r0h,r0h
     69c:	05 02       	xorc	#0x2,ccr
     69e:	00 40       	.word	H'0,H'40
     6a0:	09 de       	add.w	e5,e6
     6a2:	18 00       	sub.b	r0h,r0h
     6a4:	05 02       	xorc	#0x2,ccr
     6a6:	00 40       	.word	H'0,H'40
     6a8:	09 ea       	add.w	e6,e2
     6aa:	1b 00       	subs	#1,er0
     6ac:	05 02       	xorc	#0x2,ccr
     6ae:	00 40       	.word	H'0,H'40
     6b0:	09 fe       	add.w	e7,e6
     6b2:	18 00       	sub.b	r0h,r0h
     6b4:	05 02       	xorc	#0x2,ccr
     6b6:	00 40       	.word	H'0,H'40
     6b8:	0a 18       	add.w	#0x1,e0
     6ba:	1a 00       	dec.b	r0h
     6bc:	05 02       	xorc	#0x2,ccr
     6be:	00 40       	.word	H'0,H'40
     6c0:	0a 1a       	add.w	#0x1,e2
     6c2:	00 02       	.word	H'0,H'2
     6c4:	04 01       	orc	#0x1,ccr
     6c6:	06 01       	andc	#0x1,ccr
     6c8:	00 05       	.word	H'0,H'5
     6ca:	02 00       	stc	ccr,r0h
     6cc:	40 0a       	bra	.+10 (0x6d8)
     6ce:	2a 00       	mov.b	@0x0:8,r2l
     6d0:	02 04       	stc	ccr,r4h
     6d2:	00 06       	.word	H'0,H'6
     6d4:	19 00       	sub.w	r0,r0
     6d6:	05 02       	xorc	#0x2,ccr
     6d8:	00 40       	.word	H'0,H'40
     6da:	0a 38       	add.w	#0x3,e0
     6dc:	18 00       	sub.b	r0h,r0h
     6de:	05 02       	xorc	#0x2,ccr
     6e0:	00 40       	.word	H'0,H'40
     6e2:	0a 50       	add.w	#0x5,r0
     6e4:	19 00       	sub.w	r0,r0
     6e6:	05 02       	xorc	#0x2,ccr
     6e8:	00 40       	.word	H'0,H'40
     6ea:	0a 52       	add.w	#0x5,r2
     6ec:	18 00       	sub.b	r0h,r0h
     6ee:	05 02       	xorc	#0x2,ccr
     6f0:	00 40       	.word	H'0,H'40
     6f2:	0a 5e       	add.w	#0x5,e6
     6f4:	1b 00       	subs	#1,er0
     6f6:	05 02       	xorc	#0x2,ccr
     6f8:	00 40       	.word	H'0,H'40
     6fa:	0a 6e       	add.w	#0x6,e6
     6fc:	18 00       	sub.b	r0h,r0h
     6fe:	05 02       	xorc	#0x2,ccr
     700:	00 40       	.word	H'0,H'40
     702:	0a 88       	.word	H'a,H'88
     704:	18 00       	sub.b	r0h,r0h
     706:	05 02       	xorc	#0x2,ccr
     708:	00 40       	.word	H'0,H'40
     70a:	0a 98       	add.l	#0x1,er0
     70c:	18 00       	sub.b	r0h,r0h
     70e:	05 02       	xorc	#0x2,ccr
     710:	00 40       	.word	H'0,H'40
     712:	0a a4       	add.l	er2,er4
     714:	1b 00       	subs	#1,er0
     716:	05 02       	xorc	#0x2,ccr
     718:	00 40       	.word	H'0,H'40
     71a:	0a b4       	add.l	er3,er4
     71c:	18 00       	sub.b	r0h,r0h
     71e:	05 02       	xorc	#0x2,ccr
     720:	00 40       	.word	H'0,H'40
     722:	0a ce       	add.l	#0x4,er6
     724:	1b 00       	subs	#1,er0
     726:	05 02       	xorc	#0x2,ccr
     728:	00 40       	.word	H'0,H'40
     72a:	0a d0       	add.l	er5,er0
     72c:	00 02       	.word	H'0,H'2
     72e:	04 01       	orc	#0x1,ccr
     730:	06 01       	andc	#0x1,ccr
     732:	00 05       	.word	H'0,H'5
     734:	02 00       	stc	ccr,r0h
     736:	40 0a       	bra	.+10 (0x742)
     738:	e0 00       	and.b	#0x0,r0h
     73a:	02 04       	stc	ccr,r4h
     73c:	00 06       	.word	H'0,H'6
     73e:	19 00       	sub.w	r0,r0
     740:	05 02       	xorc	#0x2,ccr
     742:	00 40       	.word	H'0,H'40
     744:	0a ee       	add.l	#0x6,er6
     746:	18 00       	sub.b	r0h,r0h
     748:	05 02       	xorc	#0x2,ccr
     74a:	00 40       	.word	H'0,H'40
     74c:	0b 06       	adds	#1,er6
     74e:	19 00       	sub.w	r0,r0
     750:	05 02       	xorc	#0x2,ccr
     752:	00 40       	.word	H'0,H'40
     754:	0b 0a       	adds	#1,er2
     756:	18 00       	sub.b	r0h,r0h
     758:	05 02       	xorc	#0x2,ccr
     75a:	00 40       	.word	H'0,H'40
     75c:	0b 18       	.word	H'b,H'18
     75e:	1b 00       	subs	#1,er0
     760:	05 02       	xorc	#0x2,ccr
     762:	00 40       	.word	H'0,H'40
     764:	0b 28       	.word	H'b,H'28
     766:	18 00       	sub.b	r0h,r0h
     768:	05 02       	xorc	#0x2,ccr
     76a:	00 40       	.word	H'0,H'40
     76c:	0b 42       	.word	H'b,H'42
     76e:	18 00       	sub.b	r0h,r0h
     770:	05 02       	xorc	#0x2,ccr
     772:	00 40       	.word	H'0,H'40
     774:	0b 52       	inc.w	#1,r2
     776:	18 00       	sub.b	r0h,r0h
     778:	05 02       	xorc	#0x2,ccr
     77a:	00 40       	.word	H'0,H'40
     77c:	0b 5e       	inc.w	#1,e6
     77e:	1b 00       	subs	#1,er0
     780:	05 02       	xorc	#0x2,ccr
     782:	00 40       	.word	H'0,H'40
     784:	0b 6e       	.word	H'b,H'6e
     786:	18 00       	sub.b	r0h,r0h
     788:	05 02       	xorc	#0x2,ccr
     78a:	00 40       	.word	H'0,H'40
     78c:	0b 88       	adds	#2,er0
     78e:	18 00       	sub.b	r0h,r0h
     790:	05 02       	xorc	#0x2,ccr
     792:	00 40       	.word	H'0,H'40
     794:	0b a0       	.word	H'b,H'a0
     796:	18 00       	sub.b	r0h,r0h
     798:	05 02       	xorc	#0x2,ccr
     79a:	00 40       	.word	H'0,H'40
     79c:	0b ac       	.word	H'b,H'ac
     79e:	1b 00       	subs	#1,er0
     7a0:	05 02       	xorc	#0x2,ccr
     7a2:	00 40       	.word	H'0,H'40
     7a4:	0b bc       	.word	H'b,H'bc
     7a6:	18 00       	sub.b	r0h,r0h
     7a8:	05 02       	xorc	#0x2,ccr
     7aa:	00 40       	.word	H'0,H'40
     7ac:	0b d6       	inc.w	#2,r6
     7ae:	18 00       	sub.b	r0h,r0h
     7b0:	05 02       	xorc	#0x2,ccr
     7b2:	00 40       	.word	H'0,H'40
     7b4:	0b ee       	.word	H'b,H'ee
     7b6:	18 00       	sub.b	r0h,r0h
     7b8:	05 02       	xorc	#0x2,ccr
     7ba:	00 40       	.word	H'0,H'40
     7bc:	0b fa       	.word	H'b,H'fa
     7be:	1b 00       	subs	#1,er0
     7c0:	05 02       	xorc	#0x2,ccr
     7c2:	00 40       	.word	H'0,H'40
     7c4:	0c 0a       	mov.b	r0h,r2l
     7c6:	18 00       	sub.b	r0h,r0h
     7c8:	05 02       	xorc	#0x2,ccr
     7ca:	00 40       	.word	H'0,H'40
     7cc:	0c 24       	mov.b	r2h,r4h
     7ce:	18 00       	sub.b	r0h,r0h
     7d0:	05 02       	xorc	#0x2,ccr
     7d2:	00 40       	.word	H'0,H'40
     7d4:	0c 40       	mov.b	r4h,r0h
     7d6:	18 00       	sub.b	r0h,r0h
     7d8:	05 02       	xorc	#0x2,ccr
     7da:	00 40       	.word	H'0,H'40
     7dc:	0c 4c       	mov.b	r4h,r4l
     7de:	1b 00       	subs	#1,er0
     7e0:	05 02       	xorc	#0x2,ccr
     7e2:	00 40       	.word	H'0,H'40
     7e4:	0c 5c       	mov.b	r5h,r4l
     7e6:	18 00       	sub.b	r0h,r0h
     7e8:	05 02       	xorc	#0x2,ccr
     7ea:	00 40       	.word	H'0,H'40
     7ec:	0c 76       	mov.b	r7h,r6h
     7ee:	18 00       	sub.b	r0h,r0h
     7f0:	05 02       	xorc	#0x2,ccr
     7f2:	00 40       	.word	H'0,H'40
     7f4:	0c 8e       	mov.b	r0l,r6l
     7f6:	18 00       	sub.b	r0h,r0h
     7f8:	05 02       	xorc	#0x2,ccr
     7fa:	00 40       	.word	H'0,H'40
     7fc:	0c 9a       	mov.b	r1l,r2l
     7fe:	1b 00       	subs	#1,er0
     800:	05 02       	xorc	#0x2,ccr
     802:	00 40       	.word	H'0,H'40
     804:	0c aa       	mov.b	r2l,r2l
     806:	18 00       	sub.b	r0h,r0h
     808:	05 02       	xorc	#0x2,ccr
     80a:	00 40       	.word	H'0,H'40
     80c:	0c c4       	mov.b	r4l,r4h
     80e:	18 00       	sub.b	r0h,r0h
     810:	05 02       	xorc	#0x2,ccr
     812:	00 40       	.word	H'0,H'40
     814:	0c dc       	mov.b	r5l,r4l
     816:	18 00       	sub.b	r0h,r0h
     818:	05 02       	xorc	#0x2,ccr
     81a:	00 40       	.word	H'0,H'40
     81c:	0c e8       	mov.b	r6l,r0l
     81e:	00 01       	.word	H'0,H'1
     820:	01        	.word	H'1,H'0

00000821 <.Ldebug_line0>:
     821:	00 00       	nop	
     823:	01 aa       	.word	H'1,H'aa
     825:	00 04       	.word	H'0,H'4
     827:	00 00       	nop	
     829:	00 2c       	.word	H'0,H'2c
     82b:	01 01       	.word	H'1,H'1
     82d:	01 f6       	.word	H'1,H'f6
     82f:	f2 0d       	mov.b	#0xd,r2h
     831:	00 01       	.word	H'0,H'1
     833:	01 01       	.word	H'1,H'1
     835:	01 00       	.word	H'1,H'0
     837:	00 00       	nop	
     839:	01 00       	.word	H'1,H'0
     83b:	00 01       	.word	H'0,H'1
     83d:	00 74       	.word	H'0,H'74
     83f:	69 6d       	mov.w	@er6,e5
     841:	65 72       	xor.w	r7,r2
     843:	2e 63       	mov.b	@0x63:8,r6l
     845:	00 00       	nop	
     847:	00 00       	nop	
     849:	64 65       	or.w	r6,r5
     84b:	66 69       	and.w	r6,e1
     84d:	6e 65 73 2e 	mov.b	@(0x732e:16,er6),r5h
     851:	68 00       	mov.b	@er0,r0h
     853:	00 00       	nop	
     855:	00 00       	nop	
     857:	00 05       	.word	H'0,H'5
     859:	02 00       	stc	ccr,r0h
     85b:	40 0c       	bra	.+12 (0x869)
     85d:	e8 4f       	and.b	#0x4f,r0l
     85f:	00 05       	.word	H'0,H'5
     861:	02 00       	stc	ccr,r0h
     863:	40 0d       	bra/s	.+12 (0x871)
     865:	00 18       	.word	H'0,H'18
     867:	00 05       	.word	H'0,H'5
     869:	02 00       	stc	ccr,r0h
     86b:	40 0d       	bra/s	.+12 (0x879)
     86d:	1a 1b       	sub.w	#0x1,e3
     86f:	00 05       	.word	H'0,H'5
     871:	02 00       	stc	ccr,r0h
     873:	40 0d       	bra/s	.+12 (0x881)
     875:	20 18       	mov.b	@0x18:8,r0h
     877:	00 05       	.word	H'0,H'5
     879:	02 00       	stc	ccr,r0h
     87b:	40 0d       	bra/s	.+12 (0x889)
     87d:	2c 18       	mov.b	@0x18:8,r4l
     87f:	00 05       	.word	H'0,H'5
     881:	02 00       	stc	ccr,r0h
     883:	40 0d       	bra/s	.+12 (0x891)
     885:	36 1a       	mov.b	r6h,@0x1a:8
     887:	00 05       	.word	H'0,H'5
     889:	02 00       	stc	ccr,r0h
     88b:	40 0d       	bra/s	.+12 (0x899)
     88d:	42 18       	bhi	.+24 (0x8a7)
     88f:	00 05       	.word	H'0,H'5
     891:	02 00       	stc	ccr,r0h
     893:	40 0d       	bra/s	.+12 (0x8a1)
     895:	4e 19       	.word	H'4e,H'19
     897:	00 05       	.word	H'0,H'5
     899:	02 00       	stc	ccr,r0h
     89b:	40 0d       	bra/s	.+12 (0x8a9)
     89d:	5a 18 00 05 	jmp	@0x180005:24
     8a1:	02 00       	stc	ccr,r0h
     8a3:	40 0d       	bra/s	.+12 (0x8b1)
     8a5:	66 19       	and.w	r1,e1
     8a7:	00 05       	.word	H'0,H'5
     8a9:	02 00       	stc	ccr,r0h
     8ab:	40 0d       	bra/s	.+12 (0x8b9)
     8ad:	80 19       	add.b	#0x19,r0h
     8af:	00 05       	.word	H'0,H'5
     8b1:	02 00       	stc	ccr,r0h
     8b3:	40 0d       	bra/s	.+12 (0x8c1)
     8b5:	8c 18       	add.b	#0x18,r4l
     8b7:	00 05       	.word	H'0,H'5
     8b9:	02 00       	stc	ccr,r0h
     8bb:	40 0d       	bra/s	.+12 (0x8c9)
     8bd:	9c 18       	addx	#0x18,r4l
     8bf:	00 05       	.word	H'0,H'5
     8c1:	02 00       	stc	ccr,r0h
     8c3:	40 0d       	bra/s	.+12 (0x8d1)
     8c5:	b0 19       	subx	#0x19,r0h
     8c7:	00 05       	.word	H'0,H'5
     8c9:	02 00       	stc	ccr,r0h
     8cb:	40 0d       	bra/s	.+12 (0x8d9)
     8cd:	b2 18       	subx	#0x18,r2h
     8cf:	00 05       	.word	H'0,H'5
     8d1:	02 00       	stc	ccr,r0h
     8d3:	40 0d       	bra/s	.+12 (0x8e1)
     8d5:	c0 1b       	or.b	#0x1b,r0h
     8d7:	00 05       	.word	H'0,H'5
     8d9:	02 00       	stc	ccr,r0h
     8db:	40 0d       	bra/s	.+12 (0x8e9)
     8dd:	d0 18       	xor.b	#0x18,r0h
     8df:	00 05       	.word	H'0,H'5
     8e1:	02 00       	stc	ccr,r0h
     8e3:	40 0d       	bra/s	.+12 (0x8f1)
     8e5:	ea 18       	and.b	#0x18,r2l
     8e7:	00 05       	.word	H'0,H'5
     8e9:	02 00       	stc	ccr,r0h
     8eb:	40 0e       	bra	.+14 (0x8fb)
     8ed:	06 18       	andc	#0x18,ccr
     8ef:	00 05       	.word	H'0,H'5
     8f1:	02 00       	stc	ccr,r0h
     8f3:	40 0e       	bra	.+14 (0x903)
     8f5:	12 1b       	rotxl.w	e3
     8f7:	00 05       	.word	H'0,H'5
     8f9:	02 00       	stc	ccr,r0h
     8fb:	40 0e       	bra	.+14 (0x90b)
     8fd:	22 18       	mov.b	@0x18:8,r2h
     8ff:	00 05       	.word	H'0,H'5
     901:	02 00       	stc	ccr,r0h
     903:	40 0e       	bra	.+14 (0x913)
     905:	3c 19       	mov.b	r4l,@0x19:8
     907:	00 05       	.word	H'0,H'5
     909:	02 00       	stc	ccr,r0h
     90b:	40 0e       	bra	.+14 (0x91b)
     90d:	54 19       	.word	H'54,H'19
     90f:	00 05       	.word	H'0,H'5
     911:	02 00       	stc	ccr,r0h
     913:	40 0e       	bra	.+14 (0x923)
     915:	56 18       	.word	H'56,H'18
     917:	00 05       	.word	H'0,H'5
     919:	02 00       	stc	ccr,r0h
     91b:	40 0e       	bra	.+14 (0x92b)
     91d:	62 1b       	bclr	r1h,r3l
     91f:	00 05       	.word	H'0,H'5
     921:	02 00       	stc	ccr,r0h
     923:	40 0e       	bra	.+14 (0x933)
     925:	72 18       	bclr	#0x1,r0l
     927:	00 05       	.word	H'0,H'5
     929:	02 00       	stc	ccr,r0h
     92b:	40 0e       	bra	.+14 (0x93b)
     92d:	8c 19       	add.b	#0x19,r4l
     92f:	00 05       	.word	H'0,H'5
     931:	02 00       	stc	ccr,r0h
     933:	40 0e       	bra	.+14 (0x943)
     935:	96 19       	addx	#0x19,r6h
     937:	00 05       	.word	H'0,H'5
     939:	02 00       	stc	ccr,r0h
     93b:	40 0e       	bra	.+14 (0x94b)
     93d:	a0 18       	cmp.b	#0x18,r0h
     93f:	00 05       	.word	H'0,H'5
     941:	02 00       	stc	ccr,r0h
     943:	40 0e       	bra	.+14 (0x953)
     945:	ac 19       	cmp.b	#0x19,r4l
     947:	00 05       	.word	H'0,H'5
     949:	02 00       	stc	ccr,r0h
     94b:	40 0e       	bra	.+14 (0x95b)
     94d:	c0 19       	or.b	#0x19,r0h
     94f:	00 05       	.word	H'0,H'5
     951:	02 00       	stc	ccr,r0h
     953:	40 0e       	bra	.+14 (0x963)
     955:	c2 18       	or.b	#0x18,r2h
     957:	00 05       	.word	H'0,H'5
     959:	02 00       	stc	ccr,r0h
     95b:	40 0e       	bra	.+14 (0x96b)
     95d:	ce 1b       	or.b	#0x1b,r6l
     95f:	00 05       	.word	H'0,H'5
     961:	02 00       	stc	ccr,r0h
     963:	40 0e       	bra	.+14 (0x973)
     965:	de 18       	xor.b	#0x18,r6l
     967:	00 05       	.word	H'0,H'5
     969:	02 00       	stc	ccr,r0h
     96b:	40 0e       	bra	.+14 (0x97b)
     96d:	f8 18       	mov.b	#0x18,r0l
     96f:	00 05       	.word	H'0,H'5
     971:	02 00       	stc	ccr,r0h
     973:	40 0f       	bra/s	.+14 (0x983)
     975:	12 18       	rotxl.w	e0
     977:	00 05       	.word	H'0,H'5
     979:	02 00       	stc	ccr,r0h
     97b:	40 0f       	bra/s	.+14 (0x98b)
     97d:	1e 1b       	subx	r1h,r3l
     97f:	00 05       	.word	H'0,H'5
     981:	02 00       	stc	ccr,r0h
     983:	40 0f       	bra/s	.+14 (0x993)
     985:	2e 18       	mov.b	@0x18:8,r6l
     987:	00 05       	.word	H'0,H'5
     989:	02 00       	stc	ccr,r0h
     98b:	40 0f       	bra/s	.+14 (0x99b)
     98d:	48 1f       	.word	H'48,H'1f
     98f:	00 05       	.word	H'0,H'5
     991:	02 00       	stc	ccr,r0h
     993:	40 0f       	bra/s	.+14 (0x9a3)
     995:	56 18       	.word	H'56,H'18
     997:	00 05       	.word	H'0,H'5
     999:	02 00       	stc	ccr,r0h
     99b:	40 0f       	bra/s	.+14 (0x9ab)
     99d:	7a 19 00 05 	add.l	#0x5,er1
     9a1:	02 00       	stc	ccr,r0h
     9a3:	40 0f       	bra/s	.+14 (0x9b3)
     9a5:	8a 00       	add.b	#0x0,r2l
     9a7:	02 04       	stc	ccr,r4h
     9a9:	01 06       	.word	H'1,H'6
     9ab:	01 00       	.word	H'1,H'0
     9ad:	05 02       	xorc	#0x2,ccr
     9af:	00 40       	.word	H'0,H'40
     9b1:	0f 90       	mov.l	er1,er0
     9b3:	00 02       	.word	H'0,H'2
     9b5:	04 02       	orc	#0x2,ccr
     9b7:	01 00       	.word	H'1,H'0
     9b9:	05 02       	xorc	#0x2,ccr
     9bb:	00 40       	.word	H'0,H'40
     9bd:	0f 94       	mov.l	er1,er4
     9bf:	00 02       	.word	H'0,H'2
     9c1:	04 05       	orc	#0x5,ccr
     9c3:	06 18       	andc	#0x18,ccr
     9c5:	00 05       	.word	H'0,H'5
     9c7:	02 00       	stc	ccr,r0h
     9c9:	40 0f       	bra/s	.+14 (0x9d9)
     9cb:	a2 00       	cmp.b	#0x0,r2h
     9cd:	01 01       	.word	H'1,H'1

000009cf <.Ldebug_line0>:
     9cf:	00 00       	nop	
     9d1:	05 50       	xorc	#0x50,ccr
     9d3:	00 04       	.word	H'0,H'4
     9d5:	00 00       	nop	
     9d7:	00 2c       	.word	H'0,H'2c
     9d9:	01 01       	.word	H'1,H'1
     9db:	01 f6       	.word	H'1,H'f6
     9dd:	f2 0d       	mov.b	#0xd,r2h
     9df:	00 01       	.word	H'0,H'1
     9e1:	01 01       	.word	H'1,H'1
     9e3:	01 00       	.word	H'1,H'0
     9e5:	00 00       	nop	
     9e7:	01 00       	.word	H'1,H'0
     9e9:	00 01       	.word	H'0,H'1
     9eb:	00 65       	.word	H'0,H'65
     9ed:	74 68       	bor	#0x6,r0l
     9ef:	65 72       	xor.w	r7,r2
     9f1:	2e 63       	mov.b	@0x63:8,r6l
     9f3:	00 00       	nop	
     9f5:	00 00       	nop	
     9f7:	64 65       	or.w	r6,r5
     9f9:	66 69       	and.w	r6,e1
     9fb:	6e 65 73 2e 	mov.b	@(0x732e:16,er6),r5h
     9ff:	68 00       	mov.b	@er0,r0h
     a01:	00 00       	nop	
     a03:	00 00       	nop	
     a05:	00 05       	.word	H'0,H'5
     a07:	02 00       	stc	ccr,r0h
     a09:	40 0f       	bra/s	.+14 (0xa19)
     a0b:	a2 88       	cmp.b	#0x88,r2h
     a0d:	00 05       	.word	H'0,H'5
     a0f:	02 00       	stc	ccr,r0h
     a11:	40 0f       	bra/s	.+14 (0xa21)
     a13:	b2 19       	subx	#0x19,r2h
     a15:	00 05       	.word	H'0,H'5
     a17:	02 00       	stc	ccr,r0h
     a19:	40 0f       	bra/s	.+14 (0xa29)
     a1b:	ba 00       	subx	#0x0,r2l
     a1d:	02 04       	stc	ccr,r4h
     a1f:	03 06       	ldc	r6h,ccr
     a21:	01 00       	.word	H'1,H'0
     a23:	05 02       	xorc	#0x2,ccr
     a25:	00 40       	.word	H'0,H'40
     a27:	0f c4       	mov.l	er4,er4
     a29:	00 02       	.word	H'0,H'2
     a2b:	04 01       	orc	#0x1,ccr
     a2d:	01 00       	.word	H'1,H'0
     a2f:	05 02       	xorc	#0x2,ccr
     a31:	00 40       	.word	H'0,H'40
     a33:	0f ce       	mov.l	#0x4,er6
     a35:	00 02       	.word	H'0,H'2
     a37:	04 00       	orc	#0x0,ccr
     a39:	06 19       	andc	#0x19,ccr
     a3b:	00 05       	.word	H'0,H'5
     a3d:	02 00       	stc	ccr,r0h
     a3f:	40 0f       	bra/s	.+14 (0xa4f)
     a41:	da 1a       	xor.b	#0x1a,r2l
     a43:	00 05       	.word	H'0,H'5
     a45:	02 00       	stc	ccr,r0h
     a47:	40 0f       	bra/s	.+14 (0xa57)
     a49:	ea 19       	and.b	#0x19,r2l
     a4b:	00 05       	.word	H'0,H'5
     a4d:	02 00       	stc	ccr,r0h
     a4f:	40 0f       	bra/s	.+14 (0xa5f)
     a51:	f2 00       	mov.b	#0x0,r2h
     a53:	02 04       	stc	ccr,r4h
     a55:	03 18       	ldc	r0l,exr
     a57:	00 05       	.word	H'0,H'5
     a59:	02 00       	stc	ccr,r0h
     a5b:	40 0f       	bra/s	.+14 (0xa6b)
     a5d:	fa 16       	mov.b	#0x16,r2l
     a5f:	00 05       	.word	H'0,H'5
     a61:	02 00       	stc	ccr,r0h
     a63:	40 10       	bra	.+16 (0xa75)
     a65:	04 00       	orc	#0x0,ccr
     a67:	02 04       	stc	ccr,r4h
     a69:	01 06       	.word	H'1,H'6
     a6b:	01 00       	.word	H'1,H'0
     a6d:	05 02       	xorc	#0x2,ccr
     a6f:	00 40       	.word	H'0,H'40
     a71:	10 10       	shll.w	r0
     a73:	00 02       	.word	H'0,H'2
     a75:	04 00       	orc	#0x0,ccr
     a77:	06 1a       	andc	#0x1a,ccr
     a79:	00 05       	.word	H'0,H'5
     a7b:	02 00       	stc	ccr,r0h
     a7d:	40 10       	bra	.+16 (0xa8f)
     a7f:	1c 1b       	cmp.b	r1h,r3l
     a81:	00 05       	.word	H'0,H'5
     a83:	02 00       	stc	ccr,r0h
     a85:	40 10       	bra	.+16 (0xa97)
     a87:	36 1e       	mov.b	r6h,@0x1e:8
     a89:	00 05       	.word	H'0,H'5
     a8b:	02 00       	stc	ccr,r0h
     a8d:	40 10       	bra	.+16 (0xa9f)
     a8f:	40 1c       	bra	.+28 (0xaad)
     a91:	00 05       	.word	H'0,H'5
     a93:	02 00       	stc	ccr,r0h
     a95:	40 10       	bra	.+16 (0xaa7)
     a97:	4c 18       	bge	.+24 (0xab1)
     a99:	00 05       	.word	H'0,H'5
     a9b:	02 00       	stc	ccr,r0h
     a9d:	40 10       	bra	.+16 (0xaaf)
     a9f:	5c 1b       	.word	H'5c,H'1b
     aa1:	00 05       	.word	H'0,H'5
     aa3:	02 00       	stc	ccr,r0h
     aa5:	40 10       	bra	.+16 (0xab7)
     aa7:	68 18       	mov.b	@er1,r0l
     aa9:	00 05       	.word	H'0,H'5
     aab:	02 00       	stc	ccr,r0h
     aad:	40 10       	bra	.+16 (0xabf)
     aaf:	78 1a       	.word	H'78,H'1a
     ab1:	00 05       	.word	H'0,H'5
     ab3:	02 00       	stc	ccr,r0h
     ab5:	40 10       	bra	.+16 (0xac7)
     ab7:	82 18       	add.b	#0x18,r2h
     ab9:	00 05       	.word	H'0,H'5
     abb:	02 00       	stc	ccr,r0h
     abd:	40 10       	bra	.+16 (0xacf)
     abf:	8a 00       	add.b	#0x0,r2l
     ac1:	02 04       	stc	ccr,r4h
     ac3:	03 1a       	ldc	r2l,exr
     ac5:	00 05       	.word	H'0,H'5
     ac7:	02 00       	stc	ccr,r0h
     ac9:	40 10       	bra	.+16 (0xadb)
     acb:	a2 14       	cmp.b	#0x14,r2h
     acd:	00 05       	.word	H'0,H'5
     acf:	02 00       	stc	ccr,r0h
     ad1:	40 10       	bra	.+16 (0xae3)
     ad3:	ac 00       	cmp.b	#0x0,r4l
     ad5:	02 04       	stc	ccr,r4h
     ad7:	01 06       	.word	H'1,H'6
     ad9:	01 00       	.word	H'1,H'0
     adb:	05 02       	xorc	#0x2,ccr
     add:	00 40       	.word	H'0,H'40
     adf:	10 b8       	.word	H'10,H'b8
     ae1:	00 02       	.word	H'0,H'2
     ae3:	04 00       	orc	#0x0,ccr
     ae5:	06 1d       	andc	#0x1d,ccr
     ae7:	00 05       	.word	H'0,H'5
     ae9:	02 00       	stc	ccr,r0h
     aeb:	40 10       	bra	.+16 (0xafd)
     aed:	ba 00       	subx	#0x0,r2l
     aef:	02 04       	stc	ccr,r4h
     af1:	01 06       	.word	H'1,H'6
     af3:	01 00       	.word	H'1,H'0
     af5:	05 02       	xorc	#0x2,ccr
     af7:	00 40       	.word	H'0,H'40
     af9:	10 cc       	shal.b	#2,r4l
     afb:	00 02       	.word	H'0,H'2
     afd:	04 00       	orc	#0x0,ccr
     aff:	06 1a       	andc	#0x1a,ccr
     b01:	00 05       	.word	H'0,H'5
     b03:	02 00       	stc	ccr,r0h
     b05:	40 10       	bra	.+16 (0xb17)
     b07:	ce 18       	or.b	#0x18,r6l
     b09:	00 05       	.word	H'0,H'5
     b0b:	02 00       	stc	ccr,r0h
     b0d:	40 10       	bra	.+16 (0xb1f)
     b0f:	dc 1b       	xor.b	#0x1b,r4l
     b11:	00 05       	.word	H'0,H'5
     b13:	02 00       	stc	ccr,r0h
     b15:	40 10       	bra	.+16 (0xb27)
     b17:	f6 1b       	mov.b	#0x1b,r6h
     b19:	00 05       	.word	H'0,H'5
     b1b:	02 00       	stc	ccr,r0h
     b1d:	40 11       	bra/s	.+16 (0xb2f)
     b1f:	00 1a       	.word	H'0,H'1a
     b21:	00 05       	.word	H'0,H'5
     b23:	02 00       	stc	ccr,r0h
     b25:	40 11       	bra/s	.+16 (0xb37)
     b27:	0c 18       	mov.b	r1h,r0l
     b29:	00 05       	.word	H'0,H'5
     b2b:	02 00       	stc	ccr,r0h
     b2d:	40 11       	bra/s	.+16 (0xb3f)
     b2f:	1c 1a       	cmp.b	r1h,r2l
     b31:	00 05       	.word	H'0,H'5
     b33:	02 00       	stc	ccr,r0h
     b35:	40 11       	bra/s	.+16 (0xb47)
     b37:	28 18       	mov.b	@0x18:8,r0l
     b39:	00 05       	.word	H'0,H'5
     b3b:	02 00       	stc	ccr,r0h
     b3d:	40 11       	bra/s	.+16 (0xb4f)
     b3f:	38 1b       	mov.b	r0l,@0x1b:8
     b41:	00 05       	.word	H'0,H'5
     b43:	02 00       	stc	ccr,r0h
     b45:	40 11       	bra/s	.+16 (0xb57)
     b47:	42 18       	bhi	.+24 (0xb61)
     b49:	00 05       	.word	H'0,H'5
     b4b:	02 00       	stc	ccr,r0h
     b4d:	40 11       	bra/s	.+16 (0xb5f)
     b4f:	4a 00       	bpl	.0 (0xb51)
     b51:	02 04       	stc	ccr,r4h
     b53:	03 20       	ldmac	er0,mach
     b55:	00 05       	.word	H'0,H'5
     b57:	02 00       	stc	ccr,r0h
     b59:	40 11       	bra/s	.+16 (0xb6b)
     b5b:	62 0e       	bclr	r0h,r6l
     b5d:	00 05       	.word	H'0,H'5
     b5f:	02 00       	stc	ccr,r0h
     b61:	40 11       	bra/s	.+16 (0xb73)
     b63:	6c 00       	mov.b	@er0+,r0h
     b65:	02 04       	stc	ccr,r4h
     b67:	01 06       	.word	H'1,H'6
     b69:	01 00       	.word	H'1,H'0
     b6b:	05 02       	xorc	#0x2,ccr
     b6d:	00 40       	.word	H'0,H'40
     b6f:	11 78       	shlr.l	#8,er0
     b71:	00 02       	.word	H'0,H'2
     b73:	04 00       	orc	#0x0,ccr
     b75:	06 25       	andc	#0x25,ccr
     b77:	00 05       	.word	H'0,H'5
     b79:	02 00       	stc	ccr,r0h
     b7b:	40 11       	bra/s	.+16 (0xb8d)
     b7d:	7a 00 02 04 	mov.l	#0x2040106,er0
     b81:	01 06 
     b83:	01 00       	.word	H'1,H'0
     b85:	05 02       	xorc	#0x2,ccr
     b87:	00 40       	.word	H'0,H'40
     b89:	11 8c       	shar.b	r4l
     b8b:	00 02       	.word	H'0,H'2
     b8d:	04 00       	orc	#0x0,ccr
     b8f:	06 19       	andc	#0x19,ccr
     b91:	00 05       	.word	H'0,H'5
     b93:	02 00       	stc	ccr,r0h
     b95:	40 11       	bra/s	.+16 (0xba7)
     b97:	9c 1a       	addx	#0x1a,r4l
     b99:	00 05       	.word	H'0,H'5
     b9b:	02 00       	stc	ccr,r0h
     b9d:	40 11       	bra/s	.+16 (0xbaf)
     b9f:	a2 21       	cmp.b	#0x21,r2h
     ba1:	00 05       	.word	H'0,H'5
     ba3:	02 00       	stc	ccr,r0h
     ba5:	40 11       	bra/s	.+16 (0xbb7)
     ba7:	ac 1e       	cmp.b	#0x1e,r4l
     ba9:	00 05       	.word	H'0,H'5
     bab:	02 00       	stc	ccr,r0h
     bad:	40 11       	bra/s	.+16 (0xbbf)
     baf:	b6 18       	subx	#0x18,r6h
     bb1:	00 05       	.word	H'0,H'5
     bb3:	02 00       	stc	ccr,r0h
     bb5:	40 11       	bra/s	.+16 (0xbc7)
     bb7:	c0 18       	or.b	#0x18,r0h
     bb9:	00 05       	.word	H'0,H'5
     bbb:	02 00       	stc	ccr,r0h
     bbd:	40 11       	bra/s	.+16 (0xbcf)
     bbf:	ca 19       	or.b	#0x19,r2l
     bc1:	00 05       	.word	H'0,H'5
     bc3:	02 00       	stc	ccr,r0h
     bc5:	40 11       	bra/s	.+16 (0xbd7)
     bc7:	cc 18       	or.b	#0x18,r4l
     bc9:	00 05       	.word	H'0,H'5
     bcb:	02 00       	stc	ccr,r0h
     bcd:	40 11       	bra/s	.+16 (0xbdf)
     bcf:	d4 1a       	xor.b	#0x1a,r4h
     bd1:	00 05       	.word	H'0,H'5
     bd3:	02 00       	stc	ccr,r0h
     bd5:	40 11       	bra/s	.+16 (0xbe7)
     bd7:	e4 1e       	and.b	#0x1e,r4h
     bd9:	00 05       	.word	H'0,H'5
     bdb:	02 00       	stc	ccr,r0h
     bdd:	40 11       	bra/s	.+16 (0xbef)
     bdf:	e8 1b       	and.b	#0x1b,r0l
     be1:	00 05       	.word	H'0,H'5
     be3:	02 00       	stc	ccr,r0h
     be5:	40 11       	bra/s	.+16 (0xbf7)
     be7:	f4 18       	mov.b	#0x18,r4h
     be9:	00 05       	.word	H'0,H'5
     beb:	02 00       	stc	ccr,r0h
     bed:	40 12       	bra	.+18 (0xc01)
     bef:	00 1a       	.word	H'0,H'1a
     bf1:	00 05       	.word	H'0,H'5
     bf3:	02 00       	stc	ccr,r0h
     bf5:	40 12       	bra	.+18 (0xc09)
     bf7:	08 1a       	add.b	r1h,r2l
     bf9:	00 05       	.word	H'0,H'5
     bfb:	02 00       	stc	ccr,r0h
     bfd:	40 12       	bra	.+18 (0xc11)
     bff:	12 1d       	rotxl.w	e5
     c01:	00 05       	.word	H'0,H'5
     c03:	02 00       	stc	ccr,r0h
     c05:	40 12       	bra	.+18 (0xc19)
     c07:	1c 1a       	cmp.b	r1h,r2l
     c09:	00 05       	.word	H'0,H'5
     c0b:	02 00       	stc	ccr,r0h
     c0d:	40 12       	bra	.+18 (0xc21)
     c0f:	26 18       	mov.b	@0x18:8,r6h
     c11:	00 05       	.word	H'0,H'5
     c13:	02 00       	stc	ccr,r0h
     c15:	40 12       	bra	.+18 (0xc29)
     c17:	30 1b       	mov.b	r0h,@0x1b:8
     c19:	00 05       	.word	H'0,H'5
     c1b:	02 00       	stc	ccr,r0h
     c1d:	40 12       	bra	.+18 (0xc31)
     c1f:	3a 1b       	mov.b	r2l,@0x1b:8
     c21:	00 05       	.word	H'0,H'5
     c23:	02 00       	stc	ccr,r0h
     c25:	40 12       	bra	.+18 (0xc39)
     c27:	44 1f       	.word	H'44,H'1f
     c29:	00 05       	.word	H'0,H'5
     c2b:	02 00       	stc	ccr,r0h
     c2d:	40 12       	bra	.+18 (0xc41)
     c2f:	4e 1b       	.word	H'4e,H'1b
     c31:	00 05       	.word	H'0,H'5
     c33:	02 00       	stc	ccr,r0h
     c35:	40 12       	bra	.+18 (0xc49)
     c37:	58 1b       	.word	H'58,H'1b
     c39:	00 05       	.word	H'0,H'5
     c3b:	02 00       	stc	ccr,r0h
     c3d:	40 12       	bra	.+18 (0xc51)
     c3f:	62 1b       	bclr	r1h,r3l
     c41:	00 05       	.word	H'0,H'5
     c43:	02 00       	stc	ccr,r0h
     c45:	40 12       	bra	.+18 (0xc59)
     c47:	6c 1b       	mov.b	@er1+,r3l
     c49:	00 05       	.word	H'0,H'5
     c4b:	02 00       	stc	ccr,r0h
     c4d:	40 12       	bra	.+18 (0xc61)
     c4f:	76 1b       	band	#0x1,r3l
     c51:	00 05       	.word	H'0,H'5
     c53:	02 00       	stc	ccr,r0h
     c55:	40 12       	bra	.+18 (0xc69)
     c57:	80 1a       	add.b	#0x1a,r0h
     c59:	00 05       	.word	H'0,H'5
     c5b:	02 00       	stc	ccr,r0h
     c5d:	40 12       	bra	.+18 (0xc71)
     c5f:	92 18       	addx	#0x18,r2h
     c61:	00 05       	.word	H'0,H'5
     c63:	02 00       	stc	ccr,r0h
     c65:	40 12       	bra	.+18 (0xc79)
     c67:	9c 18       	addx	#0x18,r4l
     c69:	00 05       	.word	H'0,H'5
     c6b:	02 00       	stc	ccr,r0h
     c6d:	40 12       	bra	.+18 (0xc81)
     c6f:	a4 00       	cmp.b	#0x0,r4h
     c71:	02 04       	stc	ccr,r4h
     c73:	03 18       	ldc	r0l,exr
     c75:	00 05       	.word	H'0,H'5
     c77:	02 00       	stc	ccr,r0h
     c79:	40 12       	bra	.+18 (0xc8d)
     c7b:	ca 18       	or.b	#0x18,r2l
     c7d:	00 05       	.word	H'0,H'5
     c7f:	02 00       	stc	ccr,r0h
     c81:	40 12       	bra	.+18 (0xc95)
     c83:	ec 15       	and.b	#0x15,r4l
     c85:	00 05       	.word	H'0,H'5
     c87:	02 00       	stc	ccr,r0h
     c89:	40 12       	bra	.+18 (0xc9d)
     c8b:	f6 00       	mov.b	#0x0,r6h
     c8d:	02 04       	stc	ccr,r4h
     c8f:	01 06       	.word	H'1,H'6
     c91:	01 00       	.word	H'1,H'0
     c93:	05 02       	xorc	#0x2,ccr
     c95:	00 40       	.word	H'0,H'40
     c97:	13 00       	rotxr.b	r0h
     c99:	00 02       	.word	H'0,H'2
     c9b:	04 00       	orc	#0x0,ccr
     c9d:	06 1b       	andc	#0x1b,ccr
     c9f:	00 05       	.word	H'0,H'5
     ca1:	02 00       	stc	ccr,r0h
     ca3:	40 13       	bra/s	.+18 (0xcb7)
     ca5:	0a 19       	add.w	#0x1,e1
     ca7:	00 05       	.word	H'0,H'5
     ca9:	02 00       	stc	ccr,r0h
     cab:	40 13       	bra/s	.+18 (0xcbf)
     cad:	14 1a       	or.b	r1h,r2l
     caf:	00 05       	.word	H'0,H'5
     cb1:	02 00       	stc	ccr,r0h
     cb3:	40 13       	bra/s	.+18 (0xcc7)
     cb5:	20 18       	mov.b	@0x18:8,r0h
     cb7:	00 05       	.word	H'0,H'5
     cb9:	02 00       	stc	ccr,r0h
     cbb:	40 13       	bra/s	.+18 (0xccf)
     cbd:	2c 18       	mov.b	@0x18:8,r4l
     cbf:	00 05       	.word	H'0,H'5
     cc1:	02 00       	stc	ccr,r0h
     cc3:	40 13       	bra/s	.+18 (0xcd7)
     cc5:	38 18       	mov.b	r0l,@0x18:8
     cc7:	00 05       	.word	H'0,H'5
     cc9:	02 00       	stc	ccr,r0h
     ccb:	40 13       	bra/s	.+18 (0xcdf)
     ccd:	44 18       	bcc	.+24 (0xce7)
     ccf:	00 05       	.word	H'0,H'5
     cd1:	02 00       	stc	ccr,r0h
     cd3:	40 13       	bra/s	.+18 (0xce7)
     cd5:	50 18       	mulxu.b	r1h,e0
     cd7:	00 05       	.word	H'0,H'5
     cd9:	02 00       	stc	ccr,r0h
     cdb:	40 13       	bra/s	.+18 (0xcef)
     cdd:	5c 19       	.word	H'5c,H'19
     cdf:	00 05       	.word	H'0,H'5
     ce1:	02 00       	stc	ccr,r0h
     ce3:	40 13       	bra/s	.+18 (0xcf7)
     ce5:	66 18       	and.w	r1,e0
     ce7:	00 05       	.word	H'0,H'5
     ce9:	02 00       	stc	ccr,r0h
     ceb:	40 13       	bra/s	.+18 (0xcff)
     ced:	70 18       	bset	#0x1,r0l
     cef:	00 05       	.word	H'0,H'5
     cf1:	02 00       	stc	ccr,r0h
     cf3:	40 13       	bra/s	.+18 (0xd07)
     cf5:	7a 18 00 05 	add.l	#0x5,er0
     cf9:	02 00       	stc	ccr,r0h
     cfb:	40 13       	bra/s	.+18 (0xd0f)
     cfd:	84 18       	add.b	#0x18,r4h
     cff:	00 05       	.word	H'0,H'5
     d01:	02 00       	stc	ccr,r0h
     d03:	40 13       	bra/s	.+18 (0xd17)
     d05:	8e 18       	add.b	#0x18,r6l
     d07:	00 05       	.word	H'0,H'5
     d09:	02 00       	stc	ccr,r0h
     d0b:	40 13       	bra/s	.+18 (0xd1f)
     d0d:	98 18       	addx	#0x18,r0l
     d0f:	00 05       	.word	H'0,H'5
     d11:	02 00       	stc	ccr,r0h
     d13:	40 13       	bra/s	.+18 (0xd27)
     d15:	a2 18       	cmp.b	#0x18,r2h
     d17:	00 05       	.word	H'0,H'5
     d19:	02 00       	stc	ccr,r0h
     d1b:	40 13       	bra/s	.+18 (0xd2f)
     d1d:	ac 18       	cmp.b	#0x18,r4l
     d1f:	00 05       	.word	H'0,H'5
     d21:	02 00       	stc	ccr,r0h
     d23:	40 13       	bra/s	.+18 (0xd37)
     d25:	b6 21       	subx	#0x21,r6h
     d27:	00 05       	.word	H'0,H'5
     d29:	02 00       	stc	ccr,r0h
     d2b:	40 13       	bra/s	.+18 (0xd3f)
     d2d:	c0 18       	or.b	#0x18,r0h
     d2f:	00 05       	.word	H'0,H'5
     d31:	02 00       	stc	ccr,r0h
     d33:	40 13       	bra/s	.+18 (0xd47)
     d35:	ca 18       	or.b	#0x18,r2l
     d37:	00 05       	.word	H'0,H'5
     d39:	02 00       	stc	ccr,r0h
     d3b:	40 13       	bra/s	.+18 (0xd4f)
     d3d:	d4 18       	xor.b	#0x18,r4h
     d3f:	00 05       	.word	H'0,H'5
     d41:	02 00       	stc	ccr,r0h
     d43:	40 13       	bra/s	.+18 (0xd57)
     d45:	de 18       	xor.b	#0x18,r6l
     d47:	00 05       	.word	H'0,H'5
     d49:	02 00       	stc	ccr,r0h
     d4b:	40 13       	bra/s	.+18 (0xd5f)
     d4d:	e8 19       	and.b	#0x19,r0l
     d4f:	00 05       	.word	H'0,H'5
     d51:	02 00       	stc	ccr,r0h
     d53:	40 13       	bra/s	.+18 (0xd67)
     d55:	ea 18       	and.b	#0x18,r2l
     d57:	00 05       	.word	H'0,H'5
     d59:	02 00       	stc	ccr,r0h
     d5b:	40 13       	bra/s	.+18 (0xd6f)
     d5d:	f8 1b       	mov.b	#0x1b,r0l
     d5f:	00 05       	.word	H'0,H'5
     d61:	02 00       	stc	ccr,r0h
     d63:	40 14       	bra	.+20 (0xd79)
     d65:	04 18       	orc	#0x18,ccr
     d67:	00 05       	.word	H'0,H'5
     d69:	02 00       	stc	ccr,r0h
     d6b:	40 14       	bra	.+20 (0xd81)
     d6d:	0e 18       	addx	r1h,r0l
     d6f:	00 05       	.word	H'0,H'5
     d71:	02 00       	stc	ccr,r0h
     d73:	40 14       	bra	.+20 (0xd89)
     d75:	18 18       	sub.b	r1h,r0l
     d77:	00 05       	.word	H'0,H'5
     d79:	02 00       	stc	ccr,r0h
     d7b:	40 14       	bra	.+20 (0xd91)
     d7d:	22 1b       	mov.b	@0x1b:8,r2h
     d7f:	00 05       	.word	H'0,H'5
     d81:	02 00       	stc	ccr,r0h
     d83:	40 14       	bra	.+20 (0xd99)
     d85:	2e 18       	mov.b	@0x18:8,r6l
     d87:	00 05       	.word	H'0,H'5
     d89:	02 00       	stc	ccr,r0h
     d8b:	40 14       	bra	.+20 (0xda1)
     d8d:	38 18       	mov.b	r0l,@0x18:8
     d8f:	00 05       	.word	H'0,H'5
     d91:	02 00       	stc	ccr,r0h
     d93:	40 14       	bra	.+20 (0xda9)
     d95:	42 18       	bhi	.+24 (0xdaf)
     d97:	00 05       	.word	H'0,H'5
     d99:	02 00       	stc	ccr,r0h
     d9b:	40 14       	bra	.+20 (0xdb1)
     d9d:	4c 1a       	bge	.+26 (0xdb9)
     d9f:	00 05       	.word	H'0,H'5
     da1:	02 00       	stc	ccr,r0h
     da3:	40 14       	bra	.+20 (0xdb9)
     da5:	5c 1d       	.word	H'5c,H'1d
     da7:	00 05       	.word	H'0,H'5
     da9:	02 00       	stc	ccr,r0h
     dab:	40 14       	bra	.+20 (0xdc1)
     dad:	66 18       	and.w	r1,e0
     daf:	00 05       	.word	H'0,H'5
     db1:	02 00       	stc	ccr,r0h
     db3:	40 14       	bra	.+20 (0xdc9)
     db5:	72 18       	bclr	#0x1,r0l
     db7:	00 05       	.word	H'0,H'5
     db9:	02 00       	stc	ccr,r0h
     dbb:	40 14       	bra	.+20 (0xdd1)
     dbd:	7c 19       	.word	H'7c,H'19
     dbf:	00 05       	.word	H'0,H'5
     dc1:	02 00       	stc	ccr,r0h
     dc3:	40 14       	bra	.+20 (0xdd9)
     dc5:	88 1b       	add.b	#0x1b,r0l
     dc7:	00 05       	.word	H'0,H'5
     dc9:	02 00       	stc	ccr,r0h
     dcb:	40 14       	bra	.+20 (0xde1)
     dcd:	94 18       	addx	#0x18,r4h
     dcf:	00 05       	.word	H'0,H'5
     dd1:	02 00       	stc	ccr,r0h
     dd3:	40 14       	bra	.+20 (0xde9)
     dd5:	a4 19       	cmp.b	#0x19,r4h
     dd7:	00 05       	.word	H'0,H'5
     dd9:	02 00       	stc	ccr,r0h
     ddb:	40 14       	bra	.+20 (0xdf1)
     ddd:	ae 19       	cmp.b	#0x19,r6l
     ddf:	00 05       	.word	H'0,H'5
     de1:	02 00       	stc	ccr,r0h
     de3:	40 14       	bra	.+20 (0xdf9)
     de5:	b8 19       	subx	#0x19,r0l
     de7:	00 05       	.word	H'0,H'5
     de9:	02 00       	stc	ccr,r0h
     deb:	40 14       	bra	.+20 (0xe01)
     ded:	c2 19       	or.b	#0x19,r2h
     def:	00 05       	.word	H'0,H'5
     df1:	02 00       	stc	ccr,r0h
     df3:	40 14       	bra	.+20 (0xe09)
     df5:	c4 18       	or.b	#0x18,r4h
     df7:	00 05       	.word	H'0,H'5
     df9:	02 00       	stc	ccr,r0h
     dfb:	40 14       	bra	.+20 (0xe11)
     dfd:	ce 1b       	or.b	#0x1b,r6l
     dff:	00 05       	.word	H'0,H'5
     e01:	02 00       	stc	ccr,r0h
     e03:	40 14       	bra	.+20 (0xe19)
     e05:	e4 20       	and.b	#0x20,r4h
     e07:	00 05       	.word	H'0,H'5
     e09:	02 00       	stc	ccr,r0h
     e0b:	40 14       	bra	.+20 (0xe21)
     e0d:	ee 19       	and.b	#0x19,r6l
     e0f:	00 05       	.word	H'0,H'5
     e11:	02 00       	stc	ccr,r0h
     e13:	40 14       	bra	.+20 (0xe29)
     e15:	fc 1a       	mov.b	#0x1a,r4l
     e17:	00 05       	.word	H'0,H'5
     e19:	02 00       	stc	ccr,r0h
     e1b:	40 15       	bra/s	.+20 (0xe31)
     e1d:	06 19       	andc	#0x19,ccr
     e1f:	00 05       	.word	H'0,H'5
     e21:	02 00       	stc	ccr,r0h
     e23:	40 15       	bra/s	.+20 (0xe39)
     e25:	12 19       	rotxl.w	e1
     e27:	00 05       	.word	H'0,H'5
     e29:	02 00       	stc	ccr,r0h
     e2b:	40 15       	bra/s	.+20 (0xe41)
     e2d:	1e 19       	subx	r1h,r1l
     e2f:	00 05       	.word	H'0,H'5
     e31:	02 00       	stc	ccr,r0h
     e33:	40 15       	bra/s	.+20 (0xe49)
     e35:	28 18       	mov.b	@0x18:8,r0l
     e37:	00 05       	.word	H'0,H'5
     e39:	02 00       	stc	ccr,r0h
     e3b:	40 15       	bra/s	.+20 (0xe51)
     e3d:	34 19       	mov.b	r4h,@0x19:8
     e3f:	00 05       	.word	H'0,H'5
     e41:	02 00       	stc	ccr,r0h
     e43:	40 15       	bra/s	.+20 (0xe59)
     e45:	3a 18       	mov.b	r2l,@0x18:8
     e47:	00 05       	.word	H'0,H'5
     e49:	02 00       	stc	ccr,r0h
     e4b:	40 15       	bra/s	.+20 (0xe61)
     e4d:	42 19       	.word	H'42,H'19
     e4f:	00 05       	.word	H'0,H'5
     e51:	02 00       	stc	ccr,r0h
     e53:	40 15       	bra/s	.+20 (0xe69)
     e55:	48 1a       	bvc	.+26 (0xe71)
     e57:	00 05       	.word	H'0,H'5
     e59:	02 00       	stc	ccr,r0h
     e5b:	40 15       	bra/s	.+20 (0xe71)
     e5d:	64 19       	or.w	r1,e1
     e5f:	00 05       	.word	H'0,H'5
     e61:	02 00       	stc	ccr,r0h
     e63:	40 15       	bra/s	.+20 (0xe79)
     e65:	7c 1b       	.word	H'7c,H'1b
     e67:	00 05       	.word	H'0,H'5
     e69:	02 00       	stc	ccr,r0h
     e6b:	40 15       	bra/s	.+20 (0xe81)
     e6d:	9c 1a       	addx	#0x1a,r4l
     e6f:	00 05       	.word	H'0,H'5
     e71:	02 00       	stc	ccr,r0h
     e73:	40 15       	bra/s	.+20 (0xe89)
     e75:	a6 18       	cmp.b	#0x18,r6h
     e77:	00 05       	.word	H'0,H'5
     e79:	02 00       	stc	ccr,r0h
     e7b:	40 15       	bra/s	.+20 (0xe91)
     e7d:	ae 18       	cmp.b	#0x18,r6l
     e7f:	00 05       	.word	H'0,H'5
     e81:	02 00       	stc	ccr,r0h
     e83:	40 15       	bra/s	.+20 (0xe99)
     e85:	b4 19       	subx	#0x19,r4h
     e87:	00 05       	.word	H'0,H'5
     e89:	02 00       	stc	ccr,r0h
     e8b:	40 15       	bra/s	.+20 (0xea1)
     e8d:	c2 19       	or.b	#0x19,r2h
     e8f:	00 05       	.word	H'0,H'5
     e91:	02 00       	stc	ccr,r0h
     e93:	40 15       	bra/s	.+20 (0xea9)
     e95:	cc 19       	or.b	#0x19,r4l
     e97:	00 05       	.word	H'0,H'5
     e99:	02 00       	stc	ccr,r0h
     e9b:	40 15       	bra/s	.+20 (0xeb1)
     e9d:	d0 00       	xor.b	#0x0,r0h
     e9f:	02 04       	stc	ccr,r4h
     ea1:	01 18       	.word	H'1,H'18
     ea3:	00 05       	.word	H'0,H'5
     ea5:	02 00       	stc	ccr,r0h
     ea7:	40 15       	bra/s	.+20 (0xebd)
     ea9:	de 00       	xor.b	#0x0,r6l
     eab:	02 04       	stc	ccr,r4h
     ead:	00 1b       	.word	H'0,H'1b
     eaf:	00 05       	.word	H'0,H'5
     eb1:	02 00       	stc	ccr,r0h
     eb3:	40 15       	bra/s	.+20 (0xec9)
     eb5:	f8 1a       	mov.b	#0x1a,r0l
     eb7:	00 05       	.word	H'0,H'5
     eb9:	02 00       	stc	ccr,r0h
     ebb:	40 16       	bra	.+22 (0xed3)
     ebd:	0c 19       	mov.b	r1h,r1l
     ebf:	00 05       	.word	H'0,H'5
     ec1:	02 00       	stc	ccr,r0h
     ec3:	40 16       	bra	.+22 (0xedb)
     ec5:	16 18       	and.b	r1h,r0l
     ec7:	00 05       	.word	H'0,H'5
     ec9:	02 00       	stc	ccr,r0h
     ecb:	40 16       	bra	.+22 (0xee3)
     ecd:	1e 1a       	subx	r1h,r2l
     ecf:	00 05       	.word	H'0,H'5
     ed1:	02 00       	stc	ccr,r0h
     ed3:	40 16       	bra	.+22 (0xeeb)
     ed5:	28 19       	mov.b	@0x19:8,r0l
     ed7:	00 05       	.word	H'0,H'5
     ed9:	02 00       	stc	ccr,r0h
     edb:	40 16       	bra	.+22 (0xef3)
     edd:	34 18       	mov.b	r4h,@0x18:8
     edf:	00 05       	.word	H'0,H'5
     ee1:	02 00       	stc	ccr,r0h
     ee3:	40 16       	bra	.+22 (0xefb)
     ee5:	44 1a       	bcc	.+26 (0xf01)
     ee7:	00 05       	.word	H'0,H'5
     ee9:	02 00       	stc	ccr,r0h
     eeb:	40 16       	bra	.+22 (0xf03)
     eed:	4e 1a       	bgt	.+26 (0xf09)
     eef:	00 05       	.word	H'0,H'5
     ef1:	02 00       	stc	ccr,r0h
     ef3:	40 16       	bra	.+22 (0xf0b)
     ef5:	58 1a       	.word	H'58,H'1a
     ef7:	00 05       	.word	H'0,H'5
     ef9:	02 00       	stc	ccr,r0h
     efb:	40 16       	bra	.+22 (0xf13)
     efd:	5a 00 02 04 	jmp	@0x204:24
     f01:	01 06       	.word	H'1,H'6
     f03:	01 00       	.word	H'1,H'0
     f05:	05 02       	xorc	#0x2,ccr
     f07:	00 40       	.word	H'0,H'40
     f09:	16 6c       	and.b	r6h,r4l
     f0b:	00 02       	.word	H'0,H'2
     f0d:	04 00       	orc	#0x0,ccr
     f0f:	06 1a       	andc	#0x1a,ccr
     f11:	00 05       	.word	H'0,H'5
     f13:	02 00       	stc	ccr,r0h
     f15:	40 16       	bra	.+22 (0xf2d)
     f17:	6e 18 00 05 	mov.b	@(0x5:16,er1),r0l
     f1b:	02 00       	stc	ccr,r0h
     f1d:	40 16       	bra	.+22 (0xf35)
     f1f:	7a 00 01 01 	mov.l	#0x1010000,er0
     f23:	  

00000f23 <.Ldebug_line0>:
     f23:	00 00       	nop	
     f25:	08 56       	add.b	r5h,r6h
     f27:	00 04       	.word	H'0,H'4
     f29:	00 00       	nop	
     f2b:	00 48       	.word	H'0,H'48
     f2d:	01 01       	.word	H'1,H'1
     f2f:	01 f6       	.word	H'1,H'f6
     f31:	f2 0d       	mov.b	#0xd,r2h
     f33:	00 01       	.word	H'0,H'1
     f35:	01 01       	.word	H'1,H'1
     f37:	01 00       	.word	H'1,H'0
     f39:	00 00       	nop	
     f3b:	01 00       	.word	H'1,H'0
     f3d:	00 01       	.word	H'0,H'1
     f3f:	00 6b       	.word	H'0,H'6b
     f41:	6f 7a 6f 73 	mov.w	@(0x6f73:16,er7),e2
     f45:	2e 63       	mov.b	@0x63:8,r6l
     f47:	00 00       	nop	
     f49:	00 00       	nop	
     f4b:	64 65       	or.w	r6,r5
     f4d:	66 69       	and.w	r6,e1
     f4f:	6e 65 73 2e 	mov.b	@(0x732e:16,er6),r5h
     f53:	68 00       	mov.b	@er0,r0h
     f55:	00 00       	nop	
     f57:	00 69       	.word	H'0,H'69
     f59:	6e 74 65 72 	mov.b	@(0x6572:16,er7),r4h
     f5d:	72 75       	bclr	#0x7,r5h
     f5f:	70 74       	bset	#0x7,r4h
     f61:	2e 68       	mov.b	@0x68:8,r6l
     f63:	00 00       	nop	
     f65:	00 00       	nop	
     f67:	73 79       	btst	#0x7,r1l
     f69:	73 63       	btst	#0x6,r3h
     f6b:	61 6c       	bnot	r6h,r4l
     f6d:	6c 2e       	mov.b	@er2+,r6l
     f6f:	68 00       	mov.b	@er0,r0h
     f71:	00 00       	nop	
     f73:	00 00       	nop	
     f75:	00 05       	.word	H'0,H'5
     f77:	02 00       	stc	ccr,r0h
     f79:	40 16       	bra	.+22 (0xf91)
     f7b:	7a 6a 00 05 	and.l	#0x5,er2
     f7f:	02 00       	stc	ccr,r0h
     f81:	40 16       	bra	.+22 (0xf99)
     f83:	80 18       	add.b	#0x18,r0h
     f85:	00 05       	.word	H'0,H'5
     f87:	02 00       	stc	ccr,r0h
     f89:	40 16       	bra	.+22 (0xfa1)
     f8b:	8c 18       	add.b	#0x18,r4l
     f8d:	00 05       	.word	H'0,H'5
     f8f:	02 00       	stc	ccr,r0h
     f91:	40 16       	bra	.+22 (0xfa9)
     f93:	94 19       	addx	#0x19,r4h
     f95:	00 05       	.word	H'0,H'5
     f97:	02 00       	stc	ccr,r0h
     f99:	40 16       	bra	.+22 (0xfb1)
     f9b:	ac 19       	cmp.b	#0x19,r4l
     f9d:	00 05       	.word	H'0,H'5
     f9f:	02 00       	stc	ccr,r0h
     fa1:	40 16       	bra	.+22 (0xfb9)
     fa3:	b4 1b       	subx	#0x1b,r4h
     fa5:	00 05       	.word	H'0,H'5
     fa7:	02 00       	stc	ccr,r0h
     fa9:	40 16       	bra	.+22 (0xfc1)
     fab:	de 18       	xor.b	#0x18,r6l
     fad:	00 05       	.word	H'0,H'5
     faf:	02 00       	stc	ccr,r0h
     fb1:	40 17       	bra/s	.+22 (0xfc9)
     fb3:	00 18       	.word	H'0,H'18
     fb5:	00 05       	.word	H'0,H'5
     fb7:	02 00       	stc	ccr,r0h
     fb9:	40 17       	bra/s	.+22 (0xfd1)
     fbb:	20 19       	mov.b	@0x19:8,r0h
     fbd:	00 05       	.word	H'0,H'5
     fbf:	02 00       	stc	ccr,r0h
     fc1:	40 17       	bra/s	.+22 (0xfd9)
     fc3:	3e 18       	mov.b	r6l,@0x18:8
     fc5:	00 05       	.word	H'0,H'5
     fc7:	02 00       	stc	ccr,r0h
     fc9:	40 17       	bra/s	.+22 (0xfe1)
     fcb:	4c 19       	.word	H'4c,H'19
     fcd:	00 05       	.word	H'0,H'5
     fcf:	02 00       	stc	ccr,r0h
     fd1:	40 17       	bra/s	.+22 (0xfe9)
     fd3:	4e 18       	bgt	.+24 (0xfed)
     fd5:	00 05       	.word	H'0,H'5
     fd7:	02 00       	stc	ccr,r0h
     fd9:	40 17       	bra/s	.+22 (0xff1)
     fdb:	56 1b       	.word	H'56,H'1b
     fdd:	00 05       	.word	H'0,H'5
     fdf:	02 00       	stc	ccr,r0h
     fe1:	40 17       	bra/s	.+22 (0xff9)
     fe3:	5c 18       	.word	H'5c,H'18
     fe5:	00 05       	.word	H'0,H'5
     fe7:	02 00       	stc	ccr,r0h
     fe9:	40 17       	bra/s	.+22 (0x1001)
     feb:	68 18       	mov.b	@er1,r0l
     fed:	00 05       	.word	H'0,H'5
     fef:	02 00       	stc	ccr,r0h
     ff1:	40 17       	bra/s	.+22 (0x1009)
     ff3:	70 19       	bset	#0x1,r1l
     ff5:	00 05       	.word	H'0,H'5
     ff7:	02 00       	stc	ccr,r0h
     ff9:	40 17       	bra/s	.+22 (0x1011)
     ffb:	88 19       	add.b	#0x19,r0l
     ffd:	00 05       	.word	H'0,H'5
     fff:	02 00       	stc	ccr,r0h
    1001:	40 17       	bra/s	.+22 (0x1019)
    1003:	90 1b       	addx	#0x1b,r0h
    1005:	00 05       	.word	H'0,H'5
    1007:	02 00       	stc	ccr,r0h
    1009:	40 17       	bra/s	.+22 (0x1021)
    100b:	b2 18       	subx	#0x18,r2h
    100d:	00 05       	.word	H'0,H'5
    100f:	02 00       	stc	ccr,r0h
    1011:	40 17       	bra/s	.+22 (0x1029)
    1013:	de 19       	xor.b	#0x19,r6l
    1015:	00 05       	.word	H'0,H'5
    1017:	02 00       	stc	ccr,r0h
    1019:	40 18       	bra	.+24 (0x1033)
    101b:	04 19       	orc	#0x19,ccr
    101d:	00 05       	.word	H'0,H'5
    101f:	02 00       	stc	ccr,r0h
    1021:	40 18       	bra	.+24 (0x103b)
    1023:	2a 18       	mov.b	@0x18:8,r2l
    1025:	00 05       	.word	H'0,H'5
    1027:	02 00       	stc	ccr,r0h
    1029:	40 18       	bra	.+24 (0x1043)
    102b:	48 19       	.word	H'48,H'19
    102d:	00 05       	.word	H'0,H'5
    102f:	02 00       	stc	ccr,r0h
    1031:	40 18       	bra	.+24 (0x104b)
    1033:	4a 18       	bpl	.+24 (0x104d)
    1035:	00 05       	.word	H'0,H'5
    1037:	02 00       	stc	ccr,r0h
    1039:	40 18       	bra	.+24 (0x1053)
    103b:	52 1a       	.word	H'52,H'1a
    103d:	00 05       	.word	H'0,H'5
    103f:	02 00       	stc	ccr,r0h
    1041:	40 18       	bra	.+24 (0x105b)
    1043:	58 18       	.word	H'58,H'18
    1045:	00 05       	.word	H'0,H'5
    1047:	02 00       	stc	ccr,r0h
    1049:	40 18       	bra	.+24 (0x1063)
    104b:	5c 18       	.word	H'5c,H'18
    104d:	00 05       	.word	H'0,H'5
    104f:	02 00       	stc	ccr,r0h
    1051:	40 18       	bra	.+24 (0x106b)
    1053:	64 1b       	or.w	r1,e3
    1055:	00 05       	.word	H'0,H'5
    1057:	02 00       	stc	ccr,r0h
    1059:	40 18       	bra	.+24 (0x1073)
    105b:	72 19       	bclr	#0x1,r1l
    105d:	00 05       	.word	H'0,H'5
    105f:	02 00       	stc	ccr,r0h
    1061:	40 18       	bra	.+24 (0x107b)
    1063:	9a 18       	addx	#0x18,r2l
    1065:	00 05       	.word	H'0,H'5
    1067:	02 00       	stc	ccr,r0h
    1069:	40 18       	bra	.+24 (0x1083)
    106b:	9e 18       	addx	#0x18,r6l
    106d:	00 05       	.word	H'0,H'5
    106f:	02 00       	stc	ccr,r0h
    1071:	40 18       	bra	.+24 (0x108b)
    1073:	a8 1c       	cmp.b	#0x1c,r0l
    1075:	00 05       	.word	H'0,H'5
    1077:	02 00       	stc	ccr,r0h
    1079:	40 18       	bra	.+24 (0x1093)
    107b:	c4 1f       	or.b	#0x1f,r4h
    107d:	00 05       	.word	H'0,H'5
    107f:	02 00       	stc	ccr,r0h
    1081:	40 18       	bra	.+24 (0x109b)
    1083:	cc 18       	or.b	#0x18,r4l
    1085:	00 05       	.word	H'0,H'5
    1087:	02 00       	stc	ccr,r0h
    1089:	40 18       	bra	.+24 (0x10a3)
    108b:	e6 18       	and.b	#0x18,r6h
    108d:	00 05       	.word	H'0,H'5
    108f:	02 00       	stc	ccr,r0h
    1091:	40 18       	bra	.+24 (0x10ab)
    1093:	f6 00       	mov.b	#0x0,r6h
    1095:	02 04       	stc	ccr,r4h
    1097:	02 15       	stc	exr,r5h
    1099:	00 05       	.word	H'0,H'5
    109b:	02 00       	stc	ccr,r0h
    109d:	40 19       	bra/s	.+24 (0x10b7)
    109f:	00 00       	nop	
    10a1:	02 04       	stc	ccr,r4h
    10a3:	01 06       	.word	H'1,H'6
    10a5:	01 00       	.word	H'1,H'0
    10a7:	05 02       	xorc	#0x2,ccr
    10a9:	00 40       	.word	H'0,H'40
    10ab:	19 0c       	sub.w	r0,e4
    10ad:	00 02       	.word	H'0,H'2
    10af:	04 00       	orc	#0x0,ccr
    10b1:	06 1a       	andc	#0x1a,ccr
    10b3:	00 05       	.word	H'0,H'5
    10b5:	02 00       	stc	ccr,r0h
    10b7:	40 19       	bra/s	.+24 (0x10d1)
    10b9:	0e 19       	addx	r1h,r1l
    10bb:	00 05       	.word	H'0,H'5
    10bd:	02 00       	stc	ccr,r0h
    10bf:	40 19       	bra/s	.+24 (0x10d9)
    10c1:	18 18       	sub.b	r1h,r0l
    10c3:	00 05       	.word	H'0,H'5
    10c5:	02 00       	stc	ccr,r0h
    10c7:	40 19       	bra/s	.+24 (0x10e1)
    10c9:	20 19       	mov.b	@0x19:8,r0h
    10cb:	00 05       	.word	H'0,H'5
    10cd:	02 00       	stc	ccr,r0h
    10cf:	40 19       	bra/s	.+24 (0x10e9)
    10d1:	32 1a       	mov.b	r2h,@0x1a:8
    10d3:	00 05       	.word	H'0,H'5
    10d5:	02 00       	stc	ccr,r0h
    10d7:	40 19       	bra/s	.+24 (0x10f1)
    10d9:	48 18       	bvc	.+24 (0x10f3)
    10db:	00 05       	.word	H'0,H'5
    10dd:	02 00       	stc	ccr,r0h
    10df:	40 19       	bra/s	.+24 (0x10f9)
    10e1:	54 18       	.word	H'54,H'18
    10e3:	00 05       	.word	H'0,H'5
    10e5:	02 00       	stc	ccr,r0h
    10e7:	40 19       	bra/s	.+24 (0x1101)
    10e9:	62 18       	bclr	r1h,r0l
    10eb:	00 05       	.word	H'0,H'5
    10ed:	02 00       	stc	ccr,r0h
    10ef:	40 19       	bra/s	.+24 (0x1109)
    10f1:	70 19       	bset	#0x1,r1l
    10f3:	00 05       	.word	H'0,H'5
    10f5:	02 00       	stc	ccr,r0h
    10f7:	40 19       	bra/s	.+24 (0x1111)
    10f9:	82 18       	add.b	#0x18,r2h
    10fb:	00 05       	.word	H'0,H'5
    10fd:	02 00       	stc	ccr,r0h
    10ff:	40 19       	bra/s	.+24 (0x1119)
    1101:	90 18       	addx	#0x18,r0h
    1103:	00 05       	.word	H'0,H'5
    1105:	02 00       	stc	ccr,r0h
    1107:	40 19       	bra/s	.+24 (0x1121)
    1109:	a2 1a       	cmp.b	#0x1a,r2h
    110b:	00 05       	.word	H'0,H'5
    110d:	02 00       	stc	ccr,r0h
    110f:	40 19       	bra/s	.+24 (0x1129)
    1111:	b8 18       	subx	#0x18,r0l
    1113:	00 05       	.word	H'0,H'5
    1115:	02 00       	stc	ccr,r0h
    1117:	40 19       	bra/s	.+24 (0x1131)
    1119:	d0 19       	xor.b	#0x19,r0h
    111b:	00 05       	.word	H'0,H'5
    111d:	02 00       	stc	ccr,r0h
    111f:	40 19       	bra/s	.+24 (0x1139)
    1121:	e4 1a       	and.b	#0x1a,r4h
    1123:	00 05       	.word	H'0,H'5
    1125:	02 00       	stc	ccr,r0h
    1127:	40 19       	bra/s	.+24 (0x1141)
    1129:	f6 18       	mov.b	#0x18,r6h
    112b:	00 05       	.word	H'0,H'5
    112d:	02 00       	stc	ccr,r0h
    112f:	40 1a       	bra	.+26 (0x114b)
    1131:	14 1d       	or.b	r1h,r5l
    1133:	00 05       	.word	H'0,H'5
    1135:	02 00       	stc	ccr,r0h
    1137:	40 1a       	bra	.+26 (0x1153)
    1139:	1c 00       	cmp.b	r0h,r0h
    113b:	02 04       	stc	ccr,r4h
    113d:	01 06       	.word	H'1,H'6
    113f:	01 00       	.word	H'1,H'0
    1141:	05 02       	xorc	#0x2,ccr
    1143:	00 40       	.word	H'0,H'40
    1145:	1a 24       	sub.w	#0x2,r4
    1147:	00 02       	.word	H'0,H'2
    1149:	04 02       	orc	#0x2,ccr
    114b:	01 00       	.word	H'1,H'0
    114d:	05 02       	xorc	#0x2,ccr
    114f:	00 40       	.word	H'0,H'40
    1151:	1a 2e       	sub.w	#0x2,e6
    1153:	00 02       	.word	H'0,H'2
    1155:	04 04       	orc	#0x4,ccr
    1157:	01 00       	.word	H'1,H'0
    1159:	05 02       	xorc	#0x2,ccr
    115b:	00 40       	.word	H'0,H'40
    115d:	1a 46       	sub.w	#0x4,r6
    115f:	06 19       	andc	#0x19,ccr
    1161:	00 05       	.word	H'0,H'5
    1163:	02 00       	stc	ccr,r0h
    1165:	40 1a       	bra	.+26 (0x1181)
    1167:	60 18       	bset	r1h,r0l
    1169:	00 05       	.word	H'0,H'5
    116b:	02 00       	stc	ccr,r0h
    116d:	40 1a       	bra	.+26 (0x1189)
    116f:	7a 18 00 05 	add.l	#0x5,er0
    1173:	02 00       	stc	ccr,r0h
    1175:	40 1a       	bra	.+26 (0x1191)
    1177:	94 18       	addx	#0x18,r4h
    1179:	00 05       	.word	H'0,H'5
    117b:	02 00       	stc	ccr,r0h
    117d:	40 1a       	bra	.+26 (0x1199)
    117f:	ae 18       	cmp.b	#0x18,r6l
    1181:	00 05       	.word	H'0,H'5
    1183:	02 00       	stc	ccr,r0h
    1185:	40 1a       	bra	.+26 (0x11a1)
    1187:	c8 18       	or.b	#0x18,r0l
    1189:	00 05       	.word	H'0,H'5
    118b:	02 00       	stc	ccr,r0h
    118d:	40 1a       	bra	.+26 (0x11a9)
    118f:	e2 1a       	and.b	#0x1a,r2h
    1191:	00 05       	.word	H'0,H'5
    1193:	02 00       	stc	ccr,r0h
    1195:	40 1b       	bra/s	.+26 (0x11b1)
    1197:	00 1a       	.word	H'0,H'1a
    1199:	00 05       	.word	H'0,H'5
    119b:	02 00       	stc	ccr,r0h
    119d:	40 1b       	bra/s	.+26 (0x11b9)
    119f:	12 1a       	rotxl.w	e2
    11a1:	00 05       	.word	H'0,H'5
    11a3:	02 00       	stc	ccr,r0h
    11a5:	40 1b       	bra/s	.+26 (0x11c1)
    11a7:	16 1a       	and.b	r1h,r2l
    11a9:	00 05       	.word	H'0,H'5
    11ab:	02 00       	stc	ccr,r0h
    11ad:	40 1b       	bra/s	.+26 (0x11c9)
    11af:	24 18       	mov.b	@0x18:8,r4h
    11b1:	00 05       	.word	H'0,H'5
    11b3:	02 00       	stc	ccr,r0h
    11b5:	40 1b       	bra/s	.+26 (0x11d1)
    11b7:	28 19       	mov.b	@0x19:8,r0l
    11b9:	00 05       	.word	H'0,H'5
    11bb:	02 00       	stc	ccr,r0h
    11bd:	40 1b       	bra/s	.+26 (0x11d9)
    11bf:	30 00       	mov.b	r0h,@0x0:8
    11c1:	02 04       	stc	ccr,r4h
    11c3:	00 18       	.word	H'0,H'18
    11c5:	00 05       	.word	H'0,H'5
    11c7:	02 00       	stc	ccr,r0h
    11c9:	40 1b       	bra/s	.+26 (0x11e5)
    11cb:	3e 1b       	mov.b	r6l,@0x1b:8
    11cd:	00 05       	.word	H'0,H'5
    11cf:	02 00       	stc	ccr,r0h
    11d1:	40 1b       	bra/s	.+26 (0x11ed)
    11d3:	44 1c       	bcc	.+28 (0x11f1)
    11d5:	00 05       	.word	H'0,H'5
    11d7:	02 00       	stc	ccr,r0h
    11d9:	40 1b       	bra/s	.+26 (0x11f5)
    11db:	54 18       	.word	H'54,H'18
    11dd:	00 05       	.word	H'0,H'5
    11df:	02 00       	stc	ccr,r0h
    11e1:	40 1b       	bra/s	.+26 (0x11fd)
    11e3:	5e 18 00 05 	jsr	@0x180005:24
    11e7:	02 00       	stc	ccr,r0h
    11e9:	40 1b       	bra/s	.+26 (0x1205)
    11eb:	72 18       	bclr	#0x1,r0l
    11ed:	00 05       	.word	H'0,H'5
    11ef:	02 00       	stc	ccr,r0h
    11f1:	40 1b       	bra/s	.+26 (0x120d)
    11f3:	74 18       	bor	#0x1,r0l
    11f5:	00 05       	.word	H'0,H'5
    11f7:	02 00       	stc	ccr,r0h
    11f9:	40 1b       	bra/s	.+26 (0x1215)
    11fb:	7c 1b       	.word	H'7c,H'1b
    11fd:	00 05       	.word	H'0,H'5
    11ff:	02 00       	stc	ccr,r0h
    1201:	40 1b       	bra/s	.+26 (0x121d)
    1203:	82 18       	add.b	#0x18,r2h
    1205:	00 05       	.word	H'0,H'5
    1207:	02 00       	stc	ccr,r0h
    1209:	40 1b       	bra/s	.+26 (0x1225)
    120b:	86 18       	add.b	#0x18,r6h
    120d:	00 05       	.word	H'0,H'5
    120f:	02 00       	stc	ccr,r0h
    1211:	40 1b       	bra/s	.+26 (0x122d)
    1213:	88 18       	add.b	#0x18,r0l
    1215:	00 05       	.word	H'0,H'5
    1217:	02 00       	stc	ccr,r0h
    1219:	40 1b       	bra/s	.+26 (0x1235)
    121b:	90 1b       	addx	#0x1b,r0h
    121d:	00 05       	.word	H'0,H'5
    121f:	02 00       	stc	ccr,r0h
    1221:	40 1b       	bra/s	.+26 (0x123d)
    1223:	96 18       	addx	#0x18,r6h
    1225:	00 05       	.word	H'0,H'5
    1227:	02 00       	stc	ccr,r0h
    1229:	40 1b       	bra/s	.+26 (0x1245)
    122b:	98 18       	addx	#0x18,r0l
    122d:	00 05       	.word	H'0,H'5
    122f:	02 00       	stc	ccr,r0h
    1231:	40 1b       	bra/s	.+26 (0x124d)
    1233:	a0 1b       	cmp.b	#0x1b,r0h
    1235:	00 05       	.word	H'0,H'5
    1237:	02 00       	stc	ccr,r0h
    1239:	40 1b       	bra/s	.+26 (0x1255)
    123b:	ae 19       	cmp.b	#0x19,r6l
    123d:	00 05       	.word	H'0,H'5
    123f:	02 00       	stc	ccr,r0h
    1241:	40 1b       	bra/s	.+26 (0x125d)
    1243:	b2 1a       	subx	#0x1a,r2h
    1245:	00 05       	.word	H'0,H'5
    1247:	02 00       	stc	ccr,r0h
    1249:	40 1b       	bra/s	.+26 (0x1265)
    124b:	c0 18       	or.b	#0x18,r0h
    124d:	00 05       	.word	H'0,H'5
    124f:	02 00       	stc	ccr,r0h
    1251:	40 1b       	bra/s	.+26 (0x126d)
    1253:	c4 19       	or.b	#0x19,r4h
    1255:	00 05       	.word	H'0,H'5
    1257:	02 00       	stc	ccr,r0h
    1259:	40 1b       	bra/s	.+26 (0x1275)
    125b:	c6 18       	or.b	#0x18,r6h
    125d:	00 05       	.word	H'0,H'5
    125f:	02 00       	stc	ccr,r0h
    1261:	40 1b       	bra/s	.+26 (0x127d)
    1263:	d0 1b       	xor.b	#0x1b,r0h
    1265:	00 05       	.word	H'0,H'5
    1267:	02 00       	stc	ccr,r0h
    1269:	40 1b       	bra/s	.+26 (0x1285)
    126b:	d6 18       	xor.b	#0x18,r6h
    126d:	00 05       	.word	H'0,H'5
    126f:	02 00       	stc	ccr,r0h
    1271:	40 1b       	bra/s	.+26 (0x128d)
    1273:	da 18       	xor.b	#0x18,r2l
    1275:	00 05       	.word	H'0,H'5
    1277:	02 00       	stc	ccr,r0h
    1279:	40 1b       	bra/s	.+26 (0x1295)
    127b:	e2 18       	and.b	#0x18,r2h
    127d:	00 05       	.word	H'0,H'5
    127f:	02 00       	stc	ccr,r0h
    1281:	40 1b       	bra/s	.+26 (0x129d)
    1283:	ea 1b       	and.b	#0x1b,r2l
    1285:	00 05       	.word	H'0,H'5
    1287:	02 00       	stc	ccr,r0h
    1289:	40 1b       	bra/s	.+26 (0x12a5)
    128b:	fa 18       	mov.b	#0x18,r2l
    128d:	00 05       	.word	H'0,H'5
    128f:	02 00       	stc	ccr,r0h
    1291:	40 1c       	bra	.+28 (0x12af)
    1293:	0a 18       	add.w	#0x1,e0
    1295:	00 05       	.word	H'0,H'5
    1297:	02 00       	stc	ccr,r0h
    1299:	40 1c       	bra	.+28 (0x12b7)
    129b:	12 18       	rotxl.w	e0
    129d:	00 05       	.word	H'0,H'5
    129f:	02 00       	stc	ccr,r0h
    12a1:	40 1c       	bra	.+28 (0x12bf)
    12a3:	22 18       	mov.b	@0x18:8,r2h
    12a5:	00 05       	.word	H'0,H'5
    12a7:	02 00       	stc	ccr,r0h
    12a9:	40 1c       	bra	.+28 (0x12c7)
    12ab:	26 18       	mov.b	@0x18:8,r6h
    12ad:	00 05       	.word	H'0,H'5
    12af:	02 00       	stc	ccr,r0h
    12b1:	40 1c       	bra	.+28 (0x12cf)
    12b3:	2a 18       	mov.b	@0x18:8,r2l
    12b5:	00 05       	.word	H'0,H'5
    12b7:	02 00       	stc	ccr,r0h
    12b9:	40 1c       	bra	.+28 (0x12d7)
    12bb:	36 1b       	mov.b	r6h,@0x1b:8
    12bd:	00 05       	.word	H'0,H'5
    12bf:	02 00       	stc	ccr,r0h
    12c1:	40 1c       	bra	.+28 (0x12df)
    12c3:	42 18       	bhi	.+24 (0x12dd)
    12c5:	00 05       	.word	H'0,H'5
    12c7:	02 00       	stc	ccr,r0h
    12c9:	40 1c       	bra	.+28 (0x12e7)
    12cb:	46 18       	bne	.+24 (0x12e5)
    12cd:	00 05       	.word	H'0,H'5
    12cf:	02 00       	stc	ccr,r0h
    12d1:	40 1c       	bra	.+28 (0x12ef)
    12d3:	52 18       	.word	H'52,H'18
    12d5:	00 05       	.word	H'0,H'5
    12d7:	02 00       	stc	ccr,r0h
    12d9:	40 1c       	bra	.+28 (0x12f7)
    12db:	5c 1b       	.word	H'5c,H'1b
    12dd:	00 05       	.word	H'0,H'5
    12df:	02 00       	stc	ccr,r0h
    12e1:	40 1c       	bra	.+28 (0x12ff)
    12e3:	6a 18       	.word	H'6a,H'18
    12e5:	00 05       	.word	H'0,H'5
    12e7:	02 00       	stc	ccr,r0h
    12e9:	40 1c       	bra	.+28 (0x1307)
    12eb:	76 18       	band	#0x1,r0l
    12ed:	00 05       	.word	H'0,H'5
    12ef:	02 00       	stc	ccr,r0h
    12f1:	40 1c       	bra	.+28 (0x130f)
    12f3:	7a 18 00 05 	add.l	#0x5,er0
    12f7:	02 00       	stc	ccr,r0h
    12f9:	40 1c       	bra	.+28 (0x1317)
    12fb:	7c 18       	.word	H'7c,H'18
    12fd:	00 05       	.word	H'0,H'5
    12ff:	02 00       	stc	ccr,r0h
    1301:	40 1c       	bra	.+28 (0x131f)
    1303:	86 1b       	add.b	#0x1b,r6h
    1305:	00 05       	.word	H'0,H'5
    1307:	02 00       	stc	ccr,r0h
    1309:	40 1c       	bra	.+28 (0x1327)
    130b:	a2 1b       	cmp.b	#0x1b,r2h
    130d:	00 05       	.word	H'0,H'5
    130f:	02 00       	stc	ccr,r0h
    1311:	40 1c       	bra	.+28 (0x132f)
    1313:	b0 18       	subx	#0x18,r0h
    1315:	00 05       	.word	H'0,H'5
    1317:	02 00       	stc	ccr,r0h
    1319:	40 1c       	bra	.+28 (0x1337)
    131b:	ba 18       	subx	#0x18,r2l
    131d:	00 05       	.word	H'0,H'5
    131f:	02 00       	stc	ccr,r0h
    1321:	40 1c       	bra	.+28 (0x133f)
    1323:	be 18       	subx	#0x18,r6l
    1325:	00 05       	.word	H'0,H'5
    1327:	02 00       	stc	ccr,r0h
    1329:	40 1c       	bra	.+28 (0x1347)
    132b:	ca 18       	or.b	#0x18,r2l
    132d:	00 05       	.word	H'0,H'5
    132f:	02 00       	stc	ccr,r0h
    1331:	40 1c       	bra	.+28 (0x134f)
    1333:	dc 18       	xor.b	#0x18,r4l
    1335:	00 05       	.word	H'0,H'5
    1337:	02 00       	stc	ccr,r0h
    1339:	40 1c       	bra	.+28 (0x1357)
    133b:	ea 18       	and.b	#0x18,r2l
    133d:	00 05       	.word	H'0,H'5
    133f:	02 00       	stc	ccr,r0h
    1341:	40 1c       	bra	.+28 (0x135f)
    1343:	fc 1a       	mov.b	#0x1a,r4l
    1345:	00 05       	.word	H'0,H'5
    1347:	02 00       	stc	ccr,r0h
    1349:	40 1d       	bra/s	.+28 (0x1367)
    134b:	0c 18       	mov.b	r1h,r0l
    134d:	00 05       	.word	H'0,H'5
    134f:	02 00       	stc	ccr,r0h
    1351:	40 1d       	bra/s	.+28 (0x136f)
    1353:	24 19       	mov.b	@0x19:8,r4h
    1355:	00 05       	.word	H'0,H'5
    1357:	02 00       	stc	ccr,r0h
    1359:	40 1d       	bra/s	.+28 (0x1377)
    135b:	36 19       	mov.b	r6h,@0x19:8
    135d:	00 05       	.word	H'0,H'5
    135f:	02 00       	stc	ccr,r0h
    1361:	40 1d       	bra/s	.+28 (0x137f)
    1363:	48 18       	bvc	.+24 (0x137d)
    1365:	00 05       	.word	H'0,H'5
    1367:	02 00       	stc	ccr,r0h
    1369:	40 1d       	bra/s	.+28 (0x1387)
    136b:	56 1b       	.word	H'56,H'1b
    136d:	00 05       	.word	H'0,H'5
    136f:	02 00       	stc	ccr,r0h
    1371:	40 1d       	bra/s	.+28 (0x138f)
    1373:	68 1c       	mov.b	@er1,r4l
    1375:	00 05       	.word	H'0,H'5
    1377:	02 00       	stc	ccr,r0h
    1379:	40 1d       	bra/s	.+28 (0x1397)
    137b:	7a 18 00 05 	add.l	#0x5,er0
    137f:	02 00       	stc	ccr,r0h
    1381:	40 1d       	bra/s	.+28 (0x139f)
    1383:	90 18       	addx	#0x18,r0h
    1385:	00 05       	.word	H'0,H'5
    1387:	02 00       	stc	ccr,r0h
    1389:	40 1d       	bra/s	.+28 (0x13a7)
    138b:	a0 18       	cmp.b	#0x18,r0h
    138d:	00 05       	.word	H'0,H'5
    138f:	02 00       	stc	ccr,r0h
    1391:	40 1d       	bra/s	.+28 (0x13af)
    1393:	ae 18       	cmp.b	#0x18,r6l
    1395:	00 05       	.word	H'0,H'5
    1397:	02 00       	stc	ccr,r0h
    1399:	40 1d       	bra/s	.+28 (0x13b7)
    139b:	ba 1a       	subx	#0x1a,r2l
    139d:	00 05       	.word	H'0,H'5
    139f:	02 00       	stc	ccr,r0h
    13a1:	40 1d       	bra/s	.+28 (0x13bf)
    13a3:	d0 18       	xor.b	#0x18,r0h
    13a5:	00 05       	.word	H'0,H'5
    13a7:	02 00       	stc	ccr,r0h
    13a9:	40 1d       	bra/s	.+28 (0x13c7)
    13ab:	ea 18       	and.b	#0x18,r2l
    13ad:	00 05       	.word	H'0,H'5
    13af:	02 00       	stc	ccr,r0h
    13b1:	40 1d       	bra/s	.+28 (0x13cf)
    13b3:	fa 18       	mov.b	#0x18,r2l
    13b5:	00 05       	.word	H'0,H'5
    13b7:	02 00       	stc	ccr,r0h
    13b9:	40 1e       	bra	.+30 (0x13d9)
    13bb:	12 18       	rotxl.w	e0
    13bd:	00 05       	.word	H'0,H'5
    13bf:	02 00       	stc	ccr,r0h
    13c1:	40 1e       	bra	.+30 (0x13e1)
    13c3:	22 18       	mov.b	@0x18:8,r2h
    13c5:	00 05       	.word	H'0,H'5
    13c7:	02 00       	stc	ccr,r0h
    13c9:	40 1e       	bra	.+30 (0x13e9)
    13cb:	3e 1a       	mov.b	r6l,@0x1a:8
    13cd:	00 05       	.word	H'0,H'5
    13cf:	02 00       	stc	ccr,r0h
    13d1:	40 1e       	bra	.+30 (0x13f1)
    13d3:	4a 1a       	bpl	.+26 (0x13ef)
    13d5:	00 05       	.word	H'0,H'5
    13d7:	02 00       	stc	ccr,r0h
    13d9:	40 1e       	bra	.+30 (0x13f9)
    13db:	56 18       	.word	H'56,H'18
    13dd:	00 05       	.word	H'0,H'5
    13df:	02 00       	stc	ccr,r0h
    13e1:	40 1e       	bra	.+30 (0x1401)
    13e3:	64 1b       	or.w	r1,e3
    13e5:	00 05       	.word	H'0,H'5
    13e7:	02 00       	stc	ccr,r0h
    13e9:	40 1e       	bra	.+30 (0x1409)
    13eb:	7e 18       	.word	H'7e,H'18
    13ed:	00 05       	.word	H'0,H'5
    13ef:	02 00       	stc	ccr,r0h
    13f1:	40 1e       	bra	.+30 (0x1411)
    13f3:	98 19       	addx	#0x19,r0l
    13f5:	00 05       	.word	H'0,H'5
    13f7:	02 00       	stc	ccr,r0h
    13f9:	40 1e       	bra	.+30 (0x1419)
    13fb:	9c 18       	addx	#0x18,r4l
    13fd:	00 05       	.word	H'0,H'5
    13ff:	02 00       	stc	ccr,r0h
    1401:	40 1e       	bra	.+30 (0x1421)
    1403:	c4 1a       	or.b	#0x1a,r4h
    1405:	00 05       	.word	H'0,H'5
    1407:	02 00       	stc	ccr,r0h
    1409:	40 1e       	bra	.+30 (0x1429)
    140b:	d2 18       	xor.b	#0x18,r2h
    140d:	00 05       	.word	H'0,H'5
    140f:	02 00       	stc	ccr,r0h
    1411:	40 1e       	bra	.+30 (0x1431)
    1413:	e4 18       	and.b	#0x18,r4h
    1415:	00 05       	.word	H'0,H'5
    1417:	02 00       	stc	ccr,r0h
    1419:	40 1e       	bra	.+30 (0x1439)
    141b:	f0 18       	mov.b	#0x18,r0h
    141d:	00 05       	.word	H'0,H'5
    141f:	02 00       	stc	ccr,r0h
    1421:	40 1e       	bra	.+30 (0x1441)
    1423:	f4 1a       	mov.b	#0x1a,r4h
    1425:	00 05       	.word	H'0,H'5
    1427:	02 00       	stc	ccr,r0h
    1429:	40 1e       	bra	.+30 (0x1449)
    142b:	f8 18       	mov.b	#0x18,r0l
    142d:	00 05       	.word	H'0,H'5
    142f:	02 00       	stc	ccr,r0h
    1431:	40 1f       	bra/s	.+30 (0x1451)
    1433:	06 1b       	andc	#0x1b,ccr
    1435:	00 05       	.word	H'0,H'5
    1437:	02 00       	stc	ccr,r0h
    1439:	40 1f       	bra/s	.+30 (0x1459)
    143b:	22 18       	mov.b	@0x18:8,r2h
    143d:	00 05       	.word	H'0,H'5
    143f:	02 00       	stc	ccr,r0h
    1441:	40 1f       	bra/s	.+30 (0x1461)
    1443:	3c 19       	mov.b	r4l,@0x19:8
    1445:	00 05       	.word	H'0,H'5
    1447:	02 00       	stc	ccr,r0h
    1449:	40 1f       	bra/s	.+30 (0x1469)
    144b:	4a 18       	bpl	.+24 (0x1465)
    144d:	00 05       	.word	H'0,H'5
    144f:	02 00       	stc	ccr,r0h
    1451:	40 1f       	bra/s	.+30 (0x1471)
    1453:	4e 19       	.word	H'4e,H'19
    1455:	00 05       	.word	H'0,H'5
    1457:	02 00       	stc	ccr,r0h
    1459:	40 1f       	bra/s	.+30 (0x1479)
    145b:	60 19       	bset	r1h,r1l
    145d:	00 05       	.word	H'0,H'5
    145f:	02 00       	stc	ccr,r0h
    1461:	40 1f       	bra/s	.+30 (0x1481)
    1463:	70 1c       	bset	#0x1,r4l
    1465:	00 05       	.word	H'0,H'5
    1467:	02 00       	stc	ccr,r0h
    1469:	40 1f       	bra/s	.+30 (0x1489)
    146b:	76 1a       	band	#0x1,r2l
    146d:	00 05       	.word	H'0,H'5
    146f:	02 00       	stc	ccr,r0h
    1471:	40 1f       	bra/s	.+30 (0x1491)
    1473:	82 18       	add.b	#0x18,r2h
    1475:	00 05       	.word	H'0,H'5
    1477:	02 00       	stc	ccr,r0h
    1479:	40 1f       	bra/s	.+30 (0x1499)
    147b:	86 19       	add.b	#0x19,r6h
    147d:	00 05       	.word	H'0,H'5
    147f:	02 00       	stc	ccr,r0h
    1481:	40 1f       	bra/s	.+30 (0x14a1)
    1483:	9a 18       	addx	#0x18,r2l
    1485:	00 05       	.word	H'0,H'5
    1487:	02 00       	stc	ccr,r0h
    1489:	40 1f       	bra/s	.+30 (0x14a9)
    148b:	a8 1c       	cmp.b	#0x1c,r0l
    148d:	00 05       	.word	H'0,H'5
    148f:	02 00       	stc	ccr,r0h
    1491:	40 1f       	bra/s	.+30 (0x14b1)
    1493:	be 1d       	subx	#0x1d,r6l
    1495:	00 05       	.word	H'0,H'5
    1497:	02 00       	stc	ccr,r0h
    1499:	40 1f       	bra/s	.+30 (0x14b9)
    149b:	ce 19       	or.b	#0x19,r6l
    149d:	00 05       	.word	H'0,H'5
    149f:	02 00       	stc	ccr,r0h
    14a1:	40 1f       	bra/s	.+30 (0x14c1)
    14a3:	e8 18       	and.b	#0x18,r0l
    14a5:	00 05       	.word	H'0,H'5
    14a7:	02 00       	stc	ccr,r0h
    14a9:	40 1f       	bra/s	.+30 (0x14c9)
    14ab:	ec 19       	and.b	#0x19,r4l
    14ad:	00 05       	.word	H'0,H'5
    14af:	02 00       	stc	ccr,r0h
    14b1:	40 1f       	bra/s	.+30 (0x14d1)
    14b3:	ee 18       	and.b	#0x18,r6l
    14b5:	00 05       	.word	H'0,H'5
    14b7:	02 00       	stc	ccr,r0h
    14b9:	40 1f       	bra/s	.+30 (0x14d9)
    14bb:	fa 1a       	mov.b	#0x1a,r2l
    14bd:	00 05       	.word	H'0,H'5
    14bf:	02 00       	stc	ccr,r0h
    14c1:	40 20       	bra	.+32 (0x14e3)
    14c3:	18 19       	sub.b	r1h,r1l
    14c5:	00 05       	.word	H'0,H'5
    14c7:	02 00       	stc	ccr,r0h
    14c9:	40 20       	bra	.+32 (0x14eb)
    14cb:	3a 19       	mov.b	r2l,@0x19:8
    14cd:	00 05       	.word	H'0,H'5
    14cf:	02 00       	stc	ccr,r0h
    14d1:	40 20       	bra	.+32 (0x14f3)
    14d3:	b6 1a       	subx	#0x1a,r6h
    14d5:	00 05       	.word	H'0,H'5
    14d7:	02 00       	stc	ccr,r0h
    14d9:	40 20       	bra	.+32 (0x14fb)
    14db:	ba 1a       	subx	#0x1a,r2l
    14dd:	00 05       	.word	H'0,H'5
    14df:	02 00       	stc	ccr,r0h
    14e1:	40 20       	bra	.+32 (0x1503)
    14e3:	be 18       	subx	#0x18,r6l
    14e5:	00 05       	.word	H'0,H'5
    14e7:	02 00       	stc	ccr,r0h
    14e9:	40 20       	bra	.+32 (0x150b)
    14eb:	c2 19       	or.b	#0x19,r2h
    14ed:	00 05       	.word	H'0,H'5
    14ef:	02 00       	stc	ccr,r0h
    14f1:	40 20       	bra	.+32 (0x1513)
    14f3:	d0 18       	xor.b	#0x18,r0h
    14f5:	00 05       	.word	H'0,H'5
    14f7:	02 00       	stc	ccr,r0h
    14f9:	40 20       	bra	.+32 (0x151b)
    14fb:	d4 19       	xor.b	#0x19,r4h
    14fd:	00 05       	.word	H'0,H'5
    14ff:	02 00       	stc	ccr,r0h
    1501:	40 20       	bra	.+32 (0x1523)
    1503:	e2 18       	and.b	#0x18,r2h
    1505:	00 05       	.word	H'0,H'5
    1507:	02 00       	stc	ccr,r0h
    1509:	40 20       	bra	.+32 (0x152b)
    150b:	e6 19       	and.b	#0x19,r6h
    150d:	00 05       	.word	H'0,H'5
    150f:	02 00       	stc	ccr,r0h
    1511:	40 21       	bra/s	.+32 (0x1533)
    1513:	02 18       	stc	exr,r0l
    1515:	00 05       	.word	H'0,H'5
    1517:	02 00       	stc	ccr,r0h
    1519:	40 21       	bra/s	.+32 (0x153b)
    151b:	06 19       	andc	#0x19,ccr
    151d:	00 05       	.word	H'0,H'5
    151f:	02 00       	stc	ccr,r0h
    1521:	40 21       	bra/s	.+32 (0x1543)
    1523:	16 18       	and.b	r1h,r0l
    1525:	00 05       	.word	H'0,H'5
    1527:	02 00       	stc	ccr,r0h
    1529:	40 21       	bra/s	.+32 (0x154b)
    152b:	1a 19       	sub.w	#0x1,e1
    152d:	00 05       	.word	H'0,H'5
    152f:	02 00       	stc	ccr,r0h
    1531:	40 21       	bra/s	.+32 (0x1553)
    1533:	34 18       	mov.b	r4h,@0x18:8
    1535:	00 05       	.word	H'0,H'5
    1537:	02 00       	stc	ccr,r0h
    1539:	40 21       	bra/s	.+32 (0x155b)
    153b:	38 19       	mov.b	r0l,@0x19:8
    153d:	00 05       	.word	H'0,H'5
    153f:	02 00       	stc	ccr,r0h
    1541:	40 21       	bra/s	.+32 (0x1563)
    1543:	54 18       	.word	H'54,H'18
    1545:	00 05       	.word	H'0,H'5
    1547:	02 00       	stc	ccr,r0h
    1549:	40 21       	bra/s	.+32 (0x156b)
    154b:	58 19       	.word	H'58,H'19
    154d:	00 05       	.word	H'0,H'5
    154f:	02 00       	stc	ccr,r0h
    1551:	40 21       	bra/s	.+32 (0x1573)
    1553:	74 18       	bor	#0x1,r0l
    1555:	00 05       	.word	H'0,H'5
    1557:	02 00       	stc	ccr,r0h
    1559:	40 21       	bra/s	.+32 (0x157b)
    155b:	78 19       	.word	H'78,H'19
    155d:	00 05       	.word	H'0,H'5
    155f:	02 00       	stc	ccr,r0h
    1561:	40 21       	bra/s	.+32 (0x1583)
    1563:	ac 19       	cmp.b	#0x19,r4l
    1565:	00 05       	.word	H'0,H'5
    1567:	02 00       	stc	ccr,r0h
    1569:	40 21       	bra/s	.+32 (0x158b)
    156b:	ae 19       	cmp.b	#0x19,r6l
    156d:	00 05       	.word	H'0,H'5
    156f:	02 00       	stc	ccr,r0h
    1571:	40 21       	bra/s	.+32 (0x1593)
    1573:	e6 19       	and.b	#0x19,r6h
    1575:	00 05       	.word	H'0,H'5
    1577:	02 00       	stc	ccr,r0h
    1579:	40 21       	bra/s	.+32 (0x159b)
    157b:	e8 19       	and.b	#0x19,r0l
    157d:	00 05       	.word	H'0,H'5
    157f:	02 00       	stc	ccr,r0h
    1581:	40 22       	bra	.+34 (0x15a5)
    1583:	10 19       	shll.w	e1
    1585:	00 05       	.word	H'0,H'5
    1587:	02 00       	stc	ccr,r0h
    1589:	40 22       	bra	.+34 (0x15ad)
    158b:	12 19       	rotxl.w	e1
    158d:	00 05       	.word	H'0,H'5
    158f:	02 00       	stc	ccr,r0h
    1591:	40 22       	bra	.+34 (0x15b5)
    1593:	14 19       	or.b	r1h,r1l
    1595:	00 05       	.word	H'0,H'5
    1597:	02 00       	stc	ccr,r0h
    1599:	40 22       	bra	.+34 (0x15bd)
    159b:	28 1b       	mov.b	@0x1b:8,r0l
    159d:	00 05       	.word	H'0,H'5
    159f:	02 00       	stc	ccr,r0h
    15a1:	40 22       	bra	.+34 (0x15c5)
    15a3:	3e 1e       	mov.b	r6l,@0x1e:8
    15a5:	00 05       	.word	H'0,H'5
    15a7:	02 00       	stc	ccr,r0h
    15a9:	40 22       	bra	.+34 (0x15cd)
    15ab:	42 18       	bhi	.+24 (0x15c5)
    15ad:	00 05       	.word	H'0,H'5
    15af:	02 00       	stc	ccr,r0h
    15b1:	40 22       	bra	.+34 (0x15d5)
    15b3:	54 18       	.word	H'54,H'18
    15b5:	00 05       	.word	H'0,H'5
    15b7:	02 00       	stc	ccr,r0h
    15b9:	40 22       	bra	.+34 (0x15dd)
    15bb:	60 1b       	bset	r1h,r3l
    15bd:	00 05       	.word	H'0,H'5
    15bf:	02 00       	stc	ccr,r0h
    15c1:	40 22       	bra	.+34 (0x15e5)
    15c3:	76 21       	band	#0x2,r1h
    15c5:	00 05       	.word	H'0,H'5
    15c7:	02 00       	stc	ccr,r0h
    15c9:	40 22       	bra	.+34 (0x15ed)
    15cb:	80 18       	add.b	#0x18,r0h
    15cd:	00 05       	.word	H'0,H'5
    15cf:	02 00       	stc	ccr,r0h
    15d1:	40 22       	bra	.+34 (0x15f5)
    15d3:	92 18       	addx	#0x18,r2h
    15d5:	00 05       	.word	H'0,H'5
    15d7:	02 00       	stc	ccr,r0h
    15d9:	40 22       	bra	.+34 (0x15fd)
    15db:	9e 1b       	addx	#0x1b,r6l
    15dd:	00 05       	.word	H'0,H'5
    15df:	02 00       	stc	ccr,r0h
    15e1:	40 22       	bra	.+34 (0x1605)
    15e3:	a6 1e       	cmp.b	#0x1e,r6h
    15e5:	00 05       	.word	H'0,H'5
    15e7:	02 00       	stc	ccr,r0h
    15e9:	40 22       	bra	.+34 (0x160d)
    15eb:	ae 18       	cmp.b	#0x18,r6l
    15ed:	00 05       	.word	H'0,H'5
    15ef:	02 00       	stc	ccr,r0h
    15f1:	40 22       	bra	.+34 (0x1615)
    15f3:	c8 00       	or.b	#0x0,r0l
    15f5:	02 04       	stc	ccr,r4h
    15f7:	02 16       	stc	exr,r6h
    15f9:	00 05       	.word	H'0,H'5
    15fb:	02 00       	stc	ccr,r0h
    15fd:	40 22       	bra	.+34 (0x1621)
    15ff:	d2 00       	xor.b	#0x0,r2h
    1601:	02 04       	stc	ccr,r4h
    1603:	01 06       	.word	H'1,H'6
    1605:	01 00       	.word	H'1,H'0
    1607:	05 02       	xorc	#0x2,ccr
    1609:	00 40       	.word	H'0,H'40
    160b:	22 de       	mov.b	@0xde:8,r2h
    160d:	00 02       	.word	H'0,H'2
    160f:	04 00       	orc	#0x0,ccr
    1611:	06 19       	andc	#0x19,ccr
    1613:	00 05       	.word	H'0,H'5
    1615:	02 00       	stc	ccr,r0h
    1617:	40 22       	bra	.+34 (0x163b)
    1619:	e0 19       	and.b	#0x19,r0h
    161b:	00 05       	.word	H'0,H'5
    161d:	02 00       	stc	ccr,r0h
    161f:	40 22       	bra	.+34 (0x1643)
    1621:	ea 18       	and.b	#0x18,r2l
    1623:	00 05       	.word	H'0,H'5
    1625:	02 00       	stc	ccr,r0h
    1627:	40 22       	bra	.+34 (0x164b)
    1629:	ee 19       	and.b	#0x19,r6l
    162b:	00 05       	.word	H'0,H'5
    162d:	02 00       	stc	ccr,r0h
    162f:	40 23       	bra/s	.+34 (0x1653)
    1631:	0c 18       	mov.b	r1h,r0l
    1633:	00 05       	.word	H'0,H'5
    1635:	02 00       	stc	ccr,r0h
    1637:	40 23       	bra/s	.+34 (0x165b)
    1639:	16 1a       	and.b	r1h,r2l
    163b:	00 05       	.word	H'0,H'5
    163d:	02 00       	stc	ccr,r0h
    163f:	40 23       	bra/s	.+34 (0x1663)
    1641:	1c 18       	cmp.b	r1h,r0l
    1643:	00 05       	.word	H'0,H'5
    1645:	02 00       	stc	ccr,r0h
    1647:	40 23       	bra/s	.+34 (0x166b)
    1649:	3e 18       	mov.b	r6l,@0x18:8
    164b:	00 05       	.word	H'0,H'5
    164d:	02 00       	stc	ccr,r0h
    164f:	40 23       	bra/s	.+34 (0x1673)
    1651:	46 1a       	bne	.+26 (0x166d)
    1653:	00 05       	.word	H'0,H'5
    1655:	02 00       	stc	ccr,r0h
    1657:	40 23       	bra/s	.+34 (0x167b)
    1659:	4c 18       	bge	.+24 (0x1673)
    165b:	00 05       	.word	H'0,H'5
    165d:	02 00       	stc	ccr,r0h
    165f:	40 23       	bra/s	.+34 (0x1683)
    1661:	5c 18       	.word	H'5c,H'18
    1663:	00 05       	.word	H'0,H'5
    1665:	02 00       	stc	ccr,r0h
    1667:	40 23       	bra/s	.+34 (0x168b)
    1669:	66 18       	and.w	r1,e0
    166b:	00 05       	.word	H'0,H'5
    166d:	02 00       	stc	ccr,r0h
    166f:	40 23       	bra/s	.+34 (0x1693)
    1671:	6a 18       	.word	H'6a,H'18
    1673:	00 05       	.word	H'0,H'5
    1675:	02 00       	stc	ccr,r0h
    1677:	40 23       	bra/s	.+34 (0x169b)
    1679:	6e 18 00 05 	mov.b	@(0x5:16,er1),r0l
    167d:	02 00       	stc	ccr,r0h
    167f:	40 23       	bra/s	.+34 (0x16a3)
    1681:	76 1b       	band	#0x1,r3l
    1683:	00 05       	.word	H'0,H'5
    1685:	02 00       	stc	ccr,r0h
    1687:	40 23       	bra/s	.+34 (0x16ab)
    1689:	8c 19       	add.b	#0x19,r4l
    168b:	00 05       	.word	H'0,H'5
    168d:	02 00       	stc	ccr,r0h
    168f:	40 23       	bra/s	.+34 (0x16b3)
    1691:	a0 21       	cmp.b	#0x21,r0h
    1693:	00 05       	.word	H'0,H'5
    1695:	02 00       	stc	ccr,r0h
    1697:	40 23       	bra/s	.+34 (0x16bb)
    1699:	b8 18       	subx	#0x18,r0l
    169b:	00 05       	.word	H'0,H'5
    169d:	02 00       	stc	ccr,r0h
    169f:	40 23       	bra/s	.+34 (0x16c3)
    16a1:	ce 19       	or.b	#0x19,r6l
    16a3:	00 05       	.word	H'0,H'5
    16a5:	02 00       	stc	ccr,r0h
    16a7:	40 23       	bra/s	.+34 (0x16cb)
    16a9:	d2 1d       	xor.b	#0x1d,r2h
    16ab:	00 05       	.word	H'0,H'5
    16ad:	02 00       	stc	ccr,r0h
    16af:	40 23       	bra/s	.+34 (0x16d3)
    16b1:	e6 19       	and.b	#0x19,r6h
    16b3:	00 05       	.word	H'0,H'5
    16b5:	02 00       	stc	ccr,r0h
    16b7:	40 23       	bra/s	.+34 (0x16db)
    16b9:	f2 1b       	mov.b	#0x1b,r2h
    16bb:	00 05       	.word	H'0,H'5
    16bd:	02 00       	stc	ccr,r0h
    16bf:	40 24       	bra	.+36 (0x16e5)
    16c1:	0e 18       	addx	r1h,r0l
    16c3:	00 05       	.word	H'0,H'5
    16c5:	02 00       	stc	ccr,r0h
    16c7:	40 24       	bra	.+36 (0x16ed)
    16c9:	12 1d       	rotxl.w	e5
    16cb:	00 05       	.word	H'0,H'5
    16cd:	02 00       	stc	ccr,r0h
    16cf:	40 24       	bra	.+36 (0x16f5)
    16d1:	1c 19       	cmp.b	r1h,r1l
    16d3:	00 05       	.word	H'0,H'5
    16d5:	02 00       	stc	ccr,r0h
    16d7:	40 24       	bra	.+36 (0x16fd)
    16d9:	2c 18       	mov.b	@0x18:8,r4l
    16db:	00 05       	.word	H'0,H'5
    16dd:	02 00       	stc	ccr,r0h
    16df:	40 24       	bra	.+36 (0x1705)
    16e1:	3e 18       	mov.b	r6l,@0x18:8
    16e3:	00 05       	.word	H'0,H'5
    16e5:	02 00       	stc	ccr,r0h
    16e7:	40 24       	bra	.+36 (0x170d)
    16e9:	4e 18       	bgt	.+24 (0x1703)
    16eb:	00 05       	.word	H'0,H'5
    16ed:	02 00       	stc	ccr,r0h
    16ef:	40 24       	bra	.+36 (0x1715)
    16f1:	5e 1a 00 05 	jsr	@0x1a0005:24
    16f5:	02 00       	stc	ccr,r0h
    16f7:	40 24       	bra	.+36 (0x171d)
    16f9:	6c 18       	mov.b	@er1+,r0l
    16fb:	00 05       	.word	H'0,H'5
    16fd:	02 00       	stc	ccr,r0h
    16ff:	40 24       	bra	.+36 (0x1725)
    1701:	78 1a       	.word	H'78,H'1a
    1703:	00 05       	.word	H'0,H'5
    1705:	02 00       	stc	ccr,r0h
    1707:	40 24       	bra	.+36 (0x172d)
    1709:	c8 1b       	or.b	#0x1b,r0l
    170b:	00 05       	.word	H'0,H'5
    170d:	02 00       	stc	ccr,r0h
    170f:	40 24       	bra	.+36 (0x1735)
    1711:	dc 1a       	xor.b	#0x1a,r4l
    1713:	00 05       	.word	H'0,H'5
    1715:	02 00       	stc	ccr,r0h
    1717:	40 24       	bra	.+36 (0x173d)
    1719:	ea 1a       	and.b	#0x1a,r2l
    171b:	00 05       	.word	H'0,H'5
    171d:	02 00       	stc	ccr,r0h
    171f:	40 24       	bra	.+36 (0x1745)
    1721:	f0 18       	mov.b	#0x18,r0h
    1723:	00 05       	.word	H'0,H'5
    1725:	02 00       	stc	ccr,r0h
    1727:	40 24       	bra	.+36 (0x174d)
    1729:	fa 00       	mov.b	#0x0,r2l
    172b:	02 04       	stc	ccr,r4h
    172d:	01 18       	.word	H'1,H'18
    172f:	00 05       	.word	H'0,H'5
    1731:	02 00       	stc	ccr,r0h
    1733:	40 24       	bra	.+36 (0x1759)
    1735:	fc 00       	mov.b	#0x0,r4l
    1737:	02 04       	stc	ccr,r4h
    1739:	00 1d       	.word	H'0,H'1d
    173b:	00 05       	.word	H'0,H'5
    173d:	02 00       	stc	ccr,r0h
    173f:	40 25       	bra/s	.+36 (0x1765)
    1741:	12 18       	rotxl.w	e0
    1743:	00 05       	.word	H'0,H'5
    1745:	02 00       	stc	ccr,r0h
    1747:	40 25       	bra/s	.+36 (0x176d)
    1749:	22 18       	mov.b	@0x18:8,r2h
    174b:	00 05       	.word	H'0,H'5
    174d:	02 00       	stc	ccr,r0h
    174f:	40 25       	bra/s	.+36 (0x1775)
    1751:	36 18       	mov.b	r6h,@0x18:8
    1753:	00 05       	.word	H'0,H'5
    1755:	02 00       	stc	ccr,r0h
    1757:	40 25       	bra/s	.+36 (0x177d)
    1759:	38 18       	mov.b	r0l,@0x18:8
    175b:	00 05       	.word	H'0,H'5
    175d:	02 00       	stc	ccr,r0h
    175f:	40 25       	bra/s	.+36 (0x1785)
    1761:	44 1b       	.word	H'44,H'1b
    1763:	00 05       	.word	H'0,H'5
    1765:	02 00       	stc	ccr,r0h
    1767:	40 25       	bra/s	.+36 (0x178d)
    1769:	5a 18 00 05 	jmp	@0x180005:24
    176d:	02 00       	stc	ccr,r0h
    176f:	40 25       	bra/s	.+36 (0x1795)
    1771:	6c 18       	mov.b	@er1+,r0l
    1773:	00 05       	.word	H'0,H'5
    1775:	02 00       	stc	ccr,r0h
    1777:	40 25       	bra/s	.+36 (0x179d)
    1779:	78 00       	.word	H'78,H'0
    177b:	01 01       	.word	H'1,H'1

0000177d <.Ldebug_line0>:
    177d:	00 00       	nop	
    177f:	03 12       	ldc	r2h,exr
    1781:	00 04       	.word	H'0,H'4
    1783:	00 00       	nop	
    1785:	00 4a       	.word	H'0,H'4a
    1787:	01 01       	.word	H'1,H'1
    1789:	01 f6       	.word	H'1,H'f6
    178b:	f2 0d       	mov.b	#0xd,r2h
    178d:	00 01       	.word	H'0,H'1
    178f:	01 01       	.word	H'1,H'1
    1791:	01 00       	.word	H'1,H'0
    1793:	00 00       	nop	
    1795:	01 00       	.word	H'1,H'0
    1797:	00 01       	.word	H'0,H'1
    1799:	00 73       	.word	H'0,H'73
    179b:	79 73       	.word	H'79,H'73
    179d:	63 61       	btst	r6h,r1h
    179f:	6c 6c       	mov.b	@er6+,r4l
    17a1:	2e 63       	mov.b	@0x63:8,r6l
    17a3:	00 00       	nop	
    17a5:	00 00       	nop	
    17a7:	64 65       	or.w	r6,r5
    17a9:	66 69       	and.w	r6,e1
    17ab:	6e 65 73 2e 	mov.b	@(0x732e:16,er6),r5h
    17af:	68 00       	mov.b	@er0,r0h
    17b1:	00 00       	nop	
    17b3:	00 69       	.word	H'0,H'69
    17b5:	6e 74 65 72 	mov.b	@(0x6572:16,er7),r4h
    17b9:	72 75       	bclr	#0x7,r5h
    17bb:	70 74       	bset	#0x7,r4h
    17bd:	2e 68       	mov.b	@0x68:8,r6l
    17bf:	00 00       	nop	
    17c1:	00 00       	nop	
    17c3:	73 79       	btst	#0x7,r1l
    17c5:	73 63       	btst	#0x6,r3h
    17c7:	61 6c       	bnot	r6h,r4l
    17c9:	6c 2e       	mov.b	@er2+,r6l
    17cb:	68 00       	mov.b	@er0,r0h
    17cd:	00 00       	nop	
    17cf:	00 00       	nop	
    17d1:	00 05       	.word	H'0,H'5
    17d3:	02 00       	stc	ccr,r0h
    17d5:	40 25       	bra/s	.+36 (0x17fb)
    17d7:	78 20       	.word	H'78,H'20
    17d9:	00 05       	.word	H'0,H'5
    17db:	02 00       	stc	ccr,r0h
    17dd:	40 25       	bra/s	.+36 (0x1803)
    17df:	94 19       	addx	#0x19,r4h
    17e1:	00 05       	.word	H'0,H'5
    17e3:	02 00       	stc	ccr,r0h
    17e5:	40 25       	bra/s	.+36 (0x180b)
    17e7:	a0 18       	cmp.b	#0x18,r0h
    17e9:	00 05       	.word	H'0,H'5
    17eb:	02 00       	stc	ccr,r0h
    17ed:	40 25       	bra/s	.+36 (0x1813)
    17ef:	ac 18       	cmp.b	#0x18,r4l
    17f1:	00 05       	.word	H'0,H'5
    17f3:	02 00       	stc	ccr,r0h
    17f5:	40 25       	bra/s	.+36 (0x181b)
    17f7:	b4 18       	subx	#0x18,r4h
    17f9:	00 05       	.word	H'0,H'5
    17fb:	02 00       	stc	ccr,r0h
    17fd:	40 25       	bra/s	.+36 (0x1823)
    17ff:	bc 18       	subx	#0x18,r4l
    1801:	00 05       	.word	H'0,H'5
    1803:	02 00       	stc	ccr,r0h
    1805:	40 25       	bra/s	.+36 (0x182b)
    1807:	c4 18       	or.b	#0x18,r4h
    1809:	00 05       	.word	H'0,H'5
    180b:	02 00       	stc	ccr,r0h
    180d:	40 25       	bra/s	.+36 (0x1833)
    180f:	d0 18       	xor.b	#0x18,r0h
    1811:	00 05       	.word	H'0,H'5
    1813:	02 00       	stc	ccr,r0h
    1815:	40 25       	bra/s	.+36 (0x183b)
    1817:	e0 18       	and.b	#0x18,r0h
    1819:	00 05       	.word	H'0,H'5
    181b:	02 00       	stc	ccr,r0h
    181d:	40 25       	bra/s	.+36 (0x1843)
    181f:	e6 18       	and.b	#0x18,r6h
    1821:	00 05       	.word	H'0,H'5
    1823:	02 00       	stc	ccr,r0h
    1825:	40 25       	bra/s	.+36 (0x184b)
    1827:	f4 1a       	mov.b	#0x1a,r4h
    1829:	00 05       	.word	H'0,H'5
    182b:	02 00       	stc	ccr,r0h
    182d:	40 25       	bra/s	.+36 (0x1853)
    182f:	fa 18       	mov.b	#0x18,r2l
    1831:	00 05       	.word	H'0,H'5
    1833:	02 00       	stc	ccr,r0h
    1835:	40 26       	bra	.+38 (0x185d)
    1837:	04 18       	orc	#0x18,ccr
    1839:	00 05       	.word	H'0,H'5
    183b:	02 00       	stc	ccr,r0h
    183d:	40 26       	bra	.+38 (0x1865)
    183f:	0c 1a       	mov.b	r1h,r2l
    1841:	00 05       	.word	H'0,H'5
    1843:	02 00       	stc	ccr,r0h
    1845:	40 26       	bra	.+38 (0x186d)
    1847:	18 19       	sub.b	r1h,r1l
    1849:	00 05       	.word	H'0,H'5
    184b:	02 00       	stc	ccr,r0h
    184d:	40 26       	bra	.+38 (0x1875)
    184f:	2a 18       	mov.b	@0x18:8,r2l
    1851:	00 05       	.word	H'0,H'5
    1853:	02 00       	stc	ccr,r0h
    1855:	40 26       	bra	.+38 (0x187d)
    1857:	2e 18       	mov.b	@0x18:8,r6l
    1859:	00 05       	.word	H'0,H'5
    185b:	02 00       	stc	ccr,r0h
    185d:	40 26       	bra	.+38 (0x1885)
    185f:	3c 1a       	mov.b	r4l,@0x1a:8
    1861:	00 05       	.word	H'0,H'5
    1863:	02 00       	stc	ccr,r0h
    1865:	40 26       	bra	.+38 (0x188d)
    1867:	48 19       	.word	H'48,H'19
    1869:	00 05       	.word	H'0,H'5
    186b:	02 00       	stc	ccr,r0h
    186d:	40 26       	bra	.+38 (0x1895)
    186f:	5a 18 00 05 	jmp	@0x180005:24
    1873:	02 00       	stc	ccr,r0h
    1875:	40 26       	bra	.+38 (0x189d)
    1877:	5e 18 00 05 	jsr	@0x180005:24
    187b:	02 00       	stc	ccr,r0h
    187d:	40 26       	bra	.+38 (0x18a5)
    187f:	6c 1a       	mov.b	@er1+,r2l
    1881:	00 05       	.word	H'0,H'5
    1883:	02 00       	stc	ccr,r0h
    1885:	40 26       	bra	.+38 (0x18ad)
    1887:	7e 19       	.word	H'7e,H'19
    1889:	00 05       	.word	H'0,H'5
    188b:	02 00       	stc	ccr,r0h
    188d:	40 26       	bra	.+38 (0x18b5)
    188f:	8a 18       	add.b	#0x18,r2l
    1891:	00 05       	.word	H'0,H'5
    1893:	02 00       	stc	ccr,r0h
    1895:	40 26       	bra	.+38 (0x18bd)
    1897:	9c 18       	addx	#0x18,r4l
    1899:	00 05       	.word	H'0,H'5
    189b:	02 00       	stc	ccr,r0h
    189d:	40 26       	bra	.+38 (0x18c5)
    189f:	a0 18       	cmp.b	#0x18,r0h
    18a1:	00 05       	.word	H'0,H'5
    18a3:	02 00       	stc	ccr,r0h
    18a5:	40 26       	bra	.+38 (0x18cd)
    18a7:	ae 1a       	cmp.b	#0x1a,r6l
    18a9:	00 05       	.word	H'0,H'5
    18ab:	02 00       	stc	ccr,r0h
    18ad:	40 26       	bra	.+38 (0x18d5)
    18af:	ba 19       	subx	#0x19,r2l
    18b1:	00 05       	.word	H'0,H'5
    18b3:	02 00       	stc	ccr,r0h
    18b5:	40 26       	bra	.+38 (0x18dd)
    18b7:	cc 18       	or.b	#0x18,r4l
    18b9:	00 05       	.word	H'0,H'5
    18bb:	02 00       	stc	ccr,r0h
    18bd:	40 26       	bra	.+38 (0x18e5)
    18bf:	d2 18       	xor.b	#0x18,r2h
    18c1:	00 05       	.word	H'0,H'5
    18c3:	02 00       	stc	ccr,r0h
    18c5:	40 26       	bra	.+38 (0x18ed)
    18c7:	e0 1a       	and.b	#0x1a,r0h
    18c9:	00 05       	.word	H'0,H'5
    18cb:	02 00       	stc	ccr,r0h
    18cd:	40 26       	bra	.+38 (0x18f5)
    18cf:	f0 19       	mov.b	#0x19,r0h
    18d1:	00 05       	.word	H'0,H'5
    18d3:	02 00       	stc	ccr,r0h
    18d5:	40 26       	bra	.+38 (0x18fd)
    18d7:	f8 18       	mov.b	#0x18,r0l
    18d9:	00 05       	.word	H'0,H'5
    18db:	02 00       	stc	ccr,r0h
    18dd:	40 27       	bra/s	.+38 (0x1905)
    18df:	0a 18       	add.w	#0x1,e0
    18e1:	00 05       	.word	H'0,H'5
    18e3:	02 00       	stc	ccr,r0h
    18e5:	40 27       	bra/s	.+38 (0x190d)
    18e7:	0e 18       	addx	r1h,r0l
    18e9:	00 05       	.word	H'0,H'5
    18eb:	02 00       	stc	ccr,r0h
    18ed:	40 27       	bra/s	.+38 (0x1915)
    18ef:	1c 1a       	cmp.b	r1h,r2l
    18f1:	00 05       	.word	H'0,H'5
    18f3:	02 00       	stc	ccr,r0h
    18f5:	40 27       	bra/s	.+38 (0x191d)
    18f7:	2c 19       	mov.b	@0x19:8,r4l
    18f9:	00 05       	.word	H'0,H'5
    18fb:	02 00       	stc	ccr,r0h
    18fd:	40 27       	bra/s	.+38 (0x1925)
    18ff:	34 18       	mov.b	r4h,@0x18:8
    1901:	00 05       	.word	H'0,H'5
    1903:	02 00       	stc	ccr,r0h
    1905:	40 27       	bra/s	.+38 (0x192d)
    1907:	46 18       	bne	.+24 (0x1921)
    1909:	00 05       	.word	H'0,H'5
    190b:	02 00       	stc	ccr,r0h
    190d:	40 27       	bra/s	.+38 (0x1935)
    190f:	4c 18       	bge	.+24 (0x1929)
    1911:	00 05       	.word	H'0,H'5
    1913:	02 00       	stc	ccr,r0h
    1915:	40 27       	bra/s	.+38 (0x193d)
    1917:	5a 1a 00 05 	jmp	@0x1a0005:24
    191b:	02 00       	stc	ccr,r0h
    191d:	40 27       	bra/s	.+38 (0x1945)
    191f:	6c 19       	mov.b	@er1+,r1l
    1921:	00 05       	.word	H'0,H'5
    1923:	02 00       	stc	ccr,r0h
    1925:	40 27       	bra/s	.+38 (0x194d)
    1927:	78 18       	.word	H'78,H'18
    1929:	00 05       	.word	H'0,H'5
    192b:	02 00       	stc	ccr,r0h
    192d:	40 27       	bra/s	.+38 (0x1955)
    192f:	8a 18       	add.b	#0x18,r2l
    1931:	00 05       	.word	H'0,H'5
    1933:	02 00       	stc	ccr,r0h
    1935:	40 27       	bra/s	.+38 (0x195d)
    1937:	8e 18       	add.b	#0x18,r6l
    1939:	00 05       	.word	H'0,H'5
    193b:	02 00       	stc	ccr,r0h
    193d:	40 27       	bra/s	.+38 (0x1965)
    193f:	9c 1a       	addx	#0x1a,r4l
    1941:	00 05       	.word	H'0,H'5
    1943:	02 00       	stc	ccr,r0h
    1945:	40 27       	bra/s	.+38 (0x196d)
    1947:	b6 19       	subx	#0x19,r6h
    1949:	00 05       	.word	H'0,H'5
    194b:	02 00       	stc	ccr,r0h
    194d:	40 27       	bra/s	.+38 (0x1975)
    194f:	be 18       	subx	#0x18,r6l
    1951:	00 05       	.word	H'0,H'5
    1953:	02 00       	stc	ccr,r0h
    1955:	40 27       	bra/s	.+38 (0x197d)
    1957:	c6 18       	or.b	#0x18,r6h
    1959:	00 05       	.word	H'0,H'5
    195b:	02 00       	stc	ccr,r0h
    195d:	40 27       	bra/s	.+38 (0x1985)
    195f:	d2 18       	xor.b	#0x18,r2h
    1961:	00 05       	.word	H'0,H'5
    1963:	02 00       	stc	ccr,r0h
    1965:	40 27       	bra/s	.+38 (0x198d)
    1967:	e4 18       	and.b	#0x18,r4h
    1969:	00 05       	.word	H'0,H'5
    196b:	02 00       	stc	ccr,r0h
    196d:	40 27       	bra/s	.+38 (0x1995)
    196f:	e8 18       	and.b	#0x18,r0l
    1971:	00 05       	.word	H'0,H'5
    1973:	02 00       	stc	ccr,r0h
    1975:	40 27       	bra/s	.+38 (0x199d)
    1977:	f6 1a       	mov.b	#0x1a,r6h
    1979:	00 05       	.word	H'0,H'5
    197b:	02 00       	stc	ccr,r0h
    197d:	40 28       	bra	.+40 (0x19a7)
    197f:	12 19       	rotxl.w	e1
    1981:	00 05       	.word	H'0,H'5
    1983:	02 00       	stc	ccr,r0h
    1985:	40 28       	bra	.+40 (0x19af)
    1987:	1a 18       	sub.w	#0x1,e0
    1989:	00 05       	.word	H'0,H'5
    198b:	02 00       	stc	ccr,r0h
    198d:	40 28       	bra	.+40 (0x19b7)
    198f:	26 18       	mov.b	@0x18:8,r6h
    1991:	00 05       	.word	H'0,H'5
    1993:	02 00       	stc	ccr,r0h
    1995:	40 28       	bra	.+40 (0x19bf)
    1997:	32 18       	mov.b	r2h,@0x18:8
    1999:	00 05       	.word	H'0,H'5
    199b:	02 00       	stc	ccr,r0h
    199d:	40 28       	bra	.+40 (0x19c7)
    199f:	44 18       	bcc	.+24 (0x19b9)
    19a1:	00 05       	.word	H'0,H'5
    19a3:	02 00       	stc	ccr,r0h
    19a5:	40 28       	bra	.+40 (0x19cf)
    19a7:	4a 18       	bpl	.+24 (0x19c1)
    19a9:	00 05       	.word	H'0,H'5
    19ab:	02 00       	stc	ccr,r0h
    19ad:	40 28       	bra	.+40 (0x19d7)
    19af:	58 1a       	.word	H'58,H'1a
    19b1:	00 05       	.word	H'0,H'5
    19b3:	02 00       	stc	ccr,r0h
    19b5:	40 28       	bra	.+40 (0x19df)
    19b7:	6e 19 00 05 	mov.b	@(0x5:16,er1),r1l
    19bb:	02 00       	stc	ccr,r0h
    19bd:	40 28       	bra	.+40 (0x19e7)
    19bf:	76 18       	band	#0x1,r0l
    19c1:	00 05       	.word	H'0,H'5
    19c3:	02 00       	stc	ccr,r0h
    19c5:	40 28       	bra	.+40 (0x19ef)
    19c7:	82 18       	add.b	#0x18,r2h
    19c9:	00 05       	.word	H'0,H'5
    19cb:	02 00       	stc	ccr,r0h
    19cd:	40 28       	bra	.+40 (0x19f7)
    19cf:	94 18       	addx	#0x18,r4h
    19d1:	00 05       	.word	H'0,H'5
    19d3:	02 00       	stc	ccr,r0h
    19d5:	40 28       	bra	.+40 (0x19ff)
    19d7:	98 18       	addx	#0x18,r0l
    19d9:	00 05       	.word	H'0,H'5
    19db:	02 00       	stc	ccr,r0h
    19dd:	40 28       	bra	.+40 (0x1a07)
    19df:	a6 1c       	cmp.b	#0x1c,r6h
    19e1:	00 05       	.word	H'0,H'5
    19e3:	02 00       	stc	ccr,r0h
    19e5:	40 28       	bra	.+40 (0x1a0f)
    19e7:	b8 19       	subx	#0x19,r0l
    19e9:	00 05       	.word	H'0,H'5
    19eb:	02 00       	stc	ccr,r0h
    19ed:	40 28       	bra	.+40 (0x1a17)
    19ef:	c4 18       	or.b	#0x18,r4h
    19f1:	00 05       	.word	H'0,H'5
    19f3:	02 00       	stc	ccr,r0h
    19f5:	40 28       	bra	.+40 (0x1a1f)
    19f7:	d6 18       	xor.b	#0x18,r6h
    19f9:	00 05       	.word	H'0,H'5
    19fb:	02 00       	stc	ccr,r0h
    19fd:	40 28       	bra	.+40 (0x1a27)
    19ff:	da 18       	xor.b	#0x18,r2l
    1a01:	00 05       	.word	H'0,H'5
    1a03:	02 00       	stc	ccr,r0h
    1a05:	40 28       	bra	.+40 (0x1a2f)
    1a07:	e8 1a       	and.b	#0x1a,r0l
    1a09:	00 05       	.word	H'0,H'5
    1a0b:	02 00       	stc	ccr,r0h
    1a0d:	40 28       	bra	.+40 (0x1a37)
    1a0f:	f8 19       	mov.b	#0x19,r0l
    1a11:	00 05       	.word	H'0,H'5
    1a13:	02 00       	stc	ccr,r0h
    1a15:	40 29       	bra/s	.+40 (0x1a3f)
    1a17:	00 18       	.word	H'0,H'18
    1a19:	00 05       	.word	H'0,H'5
    1a1b:	02 00       	stc	ccr,r0h
    1a1d:	40 29       	bra/s	.+40 (0x1a47)
    1a1f:	12 18       	rotxl.w	e0
    1a21:	00 05       	.word	H'0,H'5
    1a23:	02 00       	stc	ccr,r0h
    1a25:	40 29       	bra/s	.+40 (0x1a4f)
    1a27:	18 18       	sub.b	r1h,r0l
    1a29:	00 05       	.word	H'0,H'5
    1a2b:	02 00       	stc	ccr,r0h
    1a2d:	40 29       	bra/s	.+40 (0x1a57)
    1a2f:	26 1a       	mov.b	@0x1a:8,r6h
    1a31:	00 05       	.word	H'0,H'5
    1a33:	02 00       	stc	ccr,r0h
    1a35:	40 29       	bra/s	.+40 (0x1a5f)
    1a37:	38 19       	mov.b	r0l,@0x19:8
    1a39:	00 05       	.word	H'0,H'5
    1a3b:	02 00       	stc	ccr,r0h
    1a3d:	40 29       	bra/s	.+40 (0x1a67)
    1a3f:	44 18       	bcc	.+24 (0x1a59)
    1a41:	00 05       	.word	H'0,H'5
    1a43:	02 00       	stc	ccr,r0h
    1a45:	40 29       	bra/s	.+40 (0x1a6f)
    1a47:	56 18       	.word	H'56,H'18
    1a49:	00 05       	.word	H'0,H'5
    1a4b:	02 00       	stc	ccr,r0h
    1a4d:	40 29       	bra/s	.+40 (0x1a77)
    1a4f:	5a 18 00 05 	jmp	@0x180005:24
    1a53:	02 00       	stc	ccr,r0h
    1a55:	40 29       	bra/s	.+40 (0x1a7f)
    1a57:	68 1a       	mov.b	@er1,r2l
    1a59:	00 05       	.word	H'0,H'5
    1a5b:	02 00       	stc	ccr,r0h
    1a5d:	40 29       	bra/s	.+40 (0x1a87)
    1a5f:	82 19       	add.b	#0x19,r2h
    1a61:	00 05       	.word	H'0,H'5
    1a63:	02 00       	stc	ccr,r0h
    1a65:	40 29       	bra/s	.+40 (0x1a8f)
    1a67:	8a 18       	add.b	#0x18,r2l
    1a69:	00 05       	.word	H'0,H'5
    1a6b:	02 00       	stc	ccr,r0h
    1a6d:	40 29       	bra/s	.+40 (0x1a97)
    1a6f:	92 18       	addx	#0x18,r2h
    1a71:	00 05       	.word	H'0,H'5
    1a73:	02 00       	stc	ccr,r0h
    1a75:	40 29       	bra/s	.+40 (0x1a9f)
    1a77:	9e 18       	addx	#0x18,r6l
    1a79:	00 05       	.word	H'0,H'5
    1a7b:	02 00       	stc	ccr,r0h
    1a7d:	40 29       	bra/s	.+40 (0x1aa7)
    1a7f:	b0 18       	subx	#0x18,r0h
    1a81:	00 05       	.word	H'0,H'5
    1a83:	02 00       	stc	ccr,r0h
    1a85:	40 29       	bra/s	.+40 (0x1aaf)
    1a87:	b4 18       	subx	#0x18,r4h
    1a89:	00 05       	.word	H'0,H'5
    1a8b:	02 00       	stc	ccr,r0h
    1a8d:	40 29       	bra/s	.+40 (0x1ab7)
    1a8f:	c2 00       	or.b	#0x0,r2h
    1a91:	01 01       	.word	H'1,H'1

00001a93 <.Ldebug_line0>:
    1a93:	00 00       	nop	
    1a95:	02 01       	stc	ccr,r1h
    1a97:	00 04       	.word	H'0,H'4
    1a99:	00 00       	nop	
    1a9b:	00 2f       	.word	H'0,H'2f
    1a9d:	01 01       	.word	H'1,H'1
    1a9f:	01 f6       	.word	H'1,H'f6
    1aa1:	f2 0d       	mov.b	#0xd,r2h
    1aa3:	00 01       	.word	H'0,H'1
    1aa5:	01 01       	.word	H'1,H'1
    1aa7:	01 00       	.word	H'1,H'0
    1aa9:	00 00       	nop	
    1aab:	01 00       	.word	H'1,H'0
    1aad:	00 01       	.word	H'0,H'1
    1aaf:	00 6d       	.word	H'0,H'6d
    1ab1:	65 6d       	xor.w	r6,e5
    1ab3:	6f 72 79 2e 	mov.w	@(0x792e:16,er7),r2
    1ab7:	63 00       	btst	r0h,r0h
    1ab9:	00 00       	nop	
    1abb:	00 69       	.word	H'0,H'69
    1abd:	6e 74 65 72 	mov.b	@(0x6572:16,er7),r4h
    1ac1:	72 75       	bclr	#0x7,r5h
    1ac3:	70 74       	bset	#0x7,r4h
    1ac5:	2e 68       	mov.b	@0x68:8,r6l
    1ac7:	00 00       	nop	
    1ac9:	00 00       	nop	
    1acb:	00 00       	nop	
    1acd:	05 02       	xorc	#0x2,ccr
    1acf:	00 40       	.word	H'0,H'40
    1ad1:	29 c2       	mov.b	@0xc2:8,r1l
    1ad3:	35 00       	mov.b	r5h,@0x0:8
    1ad5:	05 02       	xorc	#0x2,ccr
    1ad7:	00 40       	.word	H'0,H'40
    1ad9:	29 d4       	mov.b	@0xd4:8,r1l
    1adb:	1e 00       	subx	r0h,r0h
    1add:	05 02       	xorc	#0x2,ccr
    1adf:	00 40       	.word	H'0,H'40
    1ae1:	29 e2       	mov.b	@0xe2:8,r1l
    1ae3:	1a 00       	dec.b	r0h
    1ae5:	05 02       	xorc	#0x2,ccr
    1ae7:	00 40       	.word	H'0,H'40
    1ae9:	29 f0       	mov.b	@0xf0:8,r1l
    1aeb:	18 00       	sub.b	r0h,r0h
    1aed:	05 02       	xorc	#0x2,ccr
    1aef:	00 40       	.word	H'0,H'40
    1af1:	29 fa       	mov.b	@0xfa:8,r1l
    1af3:	00 02       	.word	H'0,H'2
    1af5:	04 03       	orc	#0x3,ccr
    1af7:	18 00       	sub.b	r0h,r0h
    1af9:	05 02       	xorc	#0x2,ccr
    1afb:	00 40       	.word	H'0,H'40
    1afd:	2a 0a       	mov.b	@0xa:8,r2l
    1aff:	18 00       	sub.b	r0h,r0h
    1b01:	05 02       	xorc	#0x2,ccr
    1b03:	00 40       	.word	H'0,H'40
    1b05:	2a 1c       	mov.b	@0x1c:8,r2l
    1b07:	18 00       	sub.b	r0h,r0h
    1b09:	05 02       	xorc	#0x2,ccr
    1b0b:	00 40       	.word	H'0,H'40
    1b0d:	2a 2e       	mov.b	@0x2e:8,r2l
    1b0f:	18 00       	sub.b	r0h,r0h
    1b11:	05 02       	xorc	#0x2,ccr
    1b13:	00 40       	.word	H'0,H'40
    1b15:	2a 3a       	mov.b	@0x3a:8,r2l
    1b17:	18 00       	sub.b	r0h,r0h
    1b19:	05 02       	xorc	#0x2,ccr
    1b1b:	00 40       	.word	H'0,H'40
    1b1d:	2a 52       	mov.b	@0x52:8,r2l
    1b1f:	18 00       	sub.b	r0h,r0h
    1b21:	05 02       	xorc	#0x2,ccr
    1b23:	00 40       	.word	H'0,H'40
    1b25:	2a 6e       	mov.b	@0x6e:8,r2l
    1b27:	11 00       	shlr.b	r0h
    1b29:	05 02       	xorc	#0x2,ccr
    1b2b:	00 40       	.word	H'0,H'40
    1b2d:	2a 78       	mov.b	@0x78:8,r2l
    1b2f:	00 02       	.word	H'0,H'2
    1b31:	04 01       	orc	#0x1,ccr
    1b33:	06 01       	andc	#0x1,ccr
    1b35:	00 05       	.word	H'0,H'5
    1b37:	02 00       	stc	ccr,r0h
    1b39:	40 2a       	bra	.+42 (0x1b65)
    1b3b:	8c 00       	add.b	#0x0,r4l
    1b3d:	02 04       	stc	ccr,r4h
    1b3f:	00 06       	.word	H'0,H'6
    1b41:	20 00       	mov.b	@0x0:8,r0h
    1b43:	05 02       	xorc	#0x2,ccr
    1b45:	00 40       	.word	H'0,H'40
    1b47:	2a 8e       	mov.b	@0x8e:8,r2l
    1b49:	18 00       	sub.b	r0h,r0h
    1b4b:	05 02       	xorc	#0x2,ccr
    1b4d:	00 40       	.word	H'0,H'40
    1b4f:	2a 9c       	mov.b	@0x9c:8,r2l
    1b51:	1b 00       	subs	#1,er0
    1b53:	05 02       	xorc	#0x2,ccr
    1b55:	00 40       	.word	H'0,H'40
    1b57:	2a a4       	mov.b	@0xa4:8,r2l
    1b59:	19 00       	sub.w	r0,r0
    1b5b:	05 02       	xorc	#0x2,ccr
    1b5d:	00 40       	.word	H'0,H'40
    1b5f:	2a ac       	mov.b	@0xac:8,r2l
    1b61:	00 02       	.word	H'0,H'2
    1b63:	04 03       	orc	#0x3,ccr
    1b65:	18 00       	sub.b	r0h,r0h
    1b67:	05 02       	xorc	#0x2,ccr
    1b69:	00 40       	.word	H'0,H'40
    1b6b:	2a c4       	mov.b	@0xc4:8,r2l
    1b6d:	16 00       	and.b	r0h,r0h
    1b6f:	05 02       	xorc	#0x2,ccr
    1b71:	00 40       	.word	H'0,H'40
    1b73:	2a ce       	mov.b	@0xce:8,r2l
    1b75:	00 02       	.word	H'0,H'2
    1b77:	04 01       	orc	#0x1,ccr
    1b79:	06 01       	andc	#0x1,ccr
    1b7b:	00 05       	.word	H'0,H'5
    1b7d:	02 00       	stc	ccr,r0h
    1b7f:	40 2a       	bra	.+42 (0x1bab)
    1b81:	d8 00       	xor.b	#0x0,r0l
    1b83:	02 04       	stc	ccr,r4h
    1b85:	00 06       	.word	H'0,H'6
    1b87:	1a 00       	dec.b	r0h
    1b89:	05 02       	xorc	#0x2,ccr
    1b8b:	00 40       	.word	H'0,H'40
    1b8d:	2a da       	mov.b	@0xda:8,r2l
    1b8f:	18 00       	sub.b	r0h,r0h
    1b91:	05 02       	xorc	#0x2,ccr
    1b93:	00 40       	.word	H'0,H'40
    1b95:	2a e4       	mov.b	@0xe4:8,r2l
    1b97:	1b 00       	subs	#1,er0
    1b99:	05 02       	xorc	#0x2,ccr
    1b9b:	00 40       	.word	H'0,H'40
    1b9d:	2a f4       	mov.b	@0xf4:8,r2l
    1b9f:	1c 00       	cmp.b	r0h,r0h
    1ba1:	05 02       	xorc	#0x2,ccr
    1ba3:	00 40       	.word	H'0,H'40
    1ba5:	2a fe       	mov.b	@0xfe:8,r2l
    1ba7:	18 00       	sub.b	r0h,r0h
    1ba9:	05 02       	xorc	#0x2,ccr
    1bab:	00 40       	.word	H'0,H'40
    1bad:	2b 16       	mov.b	@0x16:8,r3l
    1baf:	18 00       	sub.b	r0h,r0h
    1bb1:	05 02       	xorc	#0x2,ccr
    1bb3:	00 40       	.word	H'0,H'40
    1bb5:	2b 30       	mov.b	@0x30:8,r3l
    1bb7:	18 00       	sub.b	r0h,r0h
    1bb9:	05 02       	xorc	#0x2,ccr
    1bbb:	00 40       	.word	H'0,H'40
    1bbd:	2b 40       	mov.b	@0x40:8,r3l
    1bbf:	18 00       	sub.b	r0h,r0h
    1bc1:	05 02       	xorc	#0x2,ccr
    1bc3:	00 40       	.word	H'0,H'40
    1bc5:	2b 44       	mov.b	@0x44:8,r3l
    1bc7:	18 00       	sub.b	r0h,r0h
    1bc9:	05 02       	xorc	#0x2,ccr
    1bcb:	00 40       	.word	H'0,H'40
    1bcd:	2b 48       	mov.b	@0x48:8,r3l
    1bcf:	1a 00       	dec.b	r0h
    1bd1:	05 02       	xorc	#0x2,ccr
    1bd3:	00 40       	.word	H'0,H'40
    1bd5:	2b 5a       	mov.b	@0x5a:8,r3l
    1bd7:	18 00       	sub.b	r0h,r0h
    1bd9:	05 02       	xorc	#0x2,ccr
    1bdb:	00 40       	.word	H'0,H'40
    1bdd:	2b 76       	mov.b	@0x76:8,r3l
    1bdf:	18 00       	sub.b	r0h,r0h
    1be1:	05 02       	xorc	#0x2,ccr
    1be3:	00 40       	.word	H'0,H'40
    1be5:	2b 82       	mov.b	@0x82:8,r3l
    1be7:	1d 00       	cmp.w	r0,r0
    1be9:	05 02       	xorc	#0x2,ccr
    1beb:	00 40       	.word	H'0,H'40
    1bed:	2b 8e       	mov.b	@0x8e:8,r3l
    1bef:	00 02       	.word	H'0,H'2
    1bf1:	04 02       	orc	#0x2,ccr
    1bf3:	03 70       	ldc	er0,sbr
    1bf5:	01 00       	.word	H'1,H'0
    1bf7:	05 02       	xorc	#0x2,ccr
    1bf9:	00 40       	.word	H'0,H'40
    1bfb:	2b 98       	mov.b	@0x98:8,r3l
    1bfd:	00 02       	.word	H'0,H'2
    1bff:	04 01       	orc	#0x1,ccr
    1c01:	06 01       	andc	#0x1,ccr
    1c03:	00 05       	.word	H'0,H'5
    1c05:	02 00       	stc	ccr,r0h
    1c07:	40 2b       	bra/s	.+42 (0x1c33)
    1c09:	a4 00       	cmp.b	#0x0,r4h
    1c0b:	02 04       	stc	ccr,r4h
    1c0d:	00 06       	.word	H'0,H'6
    1c0f:	2c 00       	mov.b	@0x0:8,r4l
    1c11:	05 02       	xorc	#0x2,ccr
    1c13:	00 40       	.word	H'0,H'40
    1c15:	2b a8       	mov.b	@0xa8:8,r3l
    1c17:	18 00       	sub.b	r0h,r0h
    1c19:	05 02       	xorc	#0x2,ccr
    1c1b:	00 40       	.word	H'0,H'40
    1c1d:	2b aa       	mov.b	@0xaa:8,r3l
    1c1f:	18 00       	sub.b	r0h,r0h
    1c21:	05 02       	xorc	#0x2,ccr
    1c23:	00 40       	.word	H'0,H'40
    1c25:	2b b8       	mov.b	@0xb8:8,r3l
    1c27:	1b 00       	subs	#1,er0
    1c29:	05 02       	xorc	#0x2,ccr
    1c2b:	00 40       	.word	H'0,H'40
    1c2d:	2b ca       	mov.b	@0xca:8,r3l
    1c2f:	1d 00       	cmp.w	r0,r0
    1c31:	05 02       	xorc	#0x2,ccr
    1c33:	00 40       	.word	H'0,H'40
    1c35:	2b da       	mov.b	@0xda:8,r3l
    1c37:	19 00       	sub.w	r0,r0
    1c39:	05 02       	xorc	#0x2,ccr
    1c3b:	00 40       	.word	H'0,H'40
    1c3d:	2b e2       	mov.b	@0xe2:8,r3l
    1c3f:	18 00       	sub.b	r0h,r0h
    1c41:	05 02       	xorc	#0x2,ccr
    1c43:	00 40       	.word	H'0,H'40
    1c45:	2b fa       	mov.b	@0xfa:8,r3l
    1c47:	18 00       	sub.b	r0h,r0h
    1c49:	05 02       	xorc	#0x2,ccr
    1c4b:	00 40       	.word	H'0,H'40
    1c4d:	2c 10       	mov.b	@0x10:8,r4l
    1c4f:	19 00       	sub.w	r0,r0
    1c51:	05 02       	xorc	#0x2,ccr
    1c53:	00 40       	.word	H'0,H'40
    1c55:	2c 26       	mov.b	@0x26:8,r4l
    1c57:	18 00       	sub.b	r0h,r0h
    1c59:	05 02       	xorc	#0x2,ccr
    1c5b:	00 40       	.word	H'0,H'40
    1c5d:	2c 38       	mov.b	@0x38:8,r4l
    1c5f:	18 00       	sub.b	r0h,r0h
    1c61:	05 02       	xorc	#0x2,ccr
    1c63:	00 40       	.word	H'0,H'40
    1c65:	2c 3a       	mov.b	@0x3a:8,r4l
    1c67:	00 02       	.word	H'0,H'2
    1c69:	04 02       	orc	#0x2,ccr
    1c6b:	11 00       	shlr.b	r0h
    1c6d:	05 02       	xorc	#0x2,ccr
    1c6f:	00 40       	.word	H'0,H'40
    1c71:	2c 44       	mov.b	@0x44:8,r4l
    1c73:	00 02       	.word	H'0,H'2
    1c75:	04 01       	orc	#0x1,ccr
    1c77:	06 01       	andc	#0x1,ccr
    1c79:	00 05       	.word	H'0,H'5
    1c7b:	02 00       	stc	ccr,r0h
    1c7d:	40 2c       	bra	.+44 (0x1cab)
    1c7f:	4e 00       	bgt	.0 (0x1c81)
    1c81:	02 04       	stc	ccr,r4h
    1c83:	00 06       	.word	H'0,H'6
    1c85:	21 00       	mov.b	@0x0:8,r1h
    1c87:	05 02       	xorc	#0x2,ccr
    1c89:	00 40       	.word	H'0,H'40
    1c8b:	2c 52       	mov.b	@0x52:8,r4l
    1c8d:	18 00       	sub.b	r0h,r0h
    1c8f:	05 02       	xorc	#0x2,ccr
    1c91:	00 40       	.word	H'0,H'40
    1c93:	2c 5e       	mov.b	@0x5e:8,r4l
    1c95:	00 01       	.word	H'0,H'1
    1c97:	01        	.word	H'1,H'0

00001c98 <.Ldebug_line0>:
    1c98:	00 00       	nop	
    1c9a:	01 8d       	.word	H'1,H'8d
    1c9c:	00 04       	.word	H'0,H'4
    1c9e:	00 00       	nop	
    1ca0:	00 4b       	.word	H'0,H'4b
    1ca2:	01 01       	.word	H'1,H'1
    1ca4:	01 f6       	.word	H'1,H'f6
    1ca6:	f2 0d       	mov.b	#0xd,r2h
    1ca8:	00 01       	.word	H'0,H'1
    1caa:	01 01       	.word	H'1,H'1
    1cac:	01 00       	.word	H'1,H'0
    1cae:	00 00       	nop	
    1cb0:	01 00       	.word	H'1,H'0
    1cb2:	00 01       	.word	H'0,H'1
    1cb4:	00 63       	.word	H'0,H'63
    1cb6:	6f 6d 6d 61 	mov.w	@(0x6d61:16,er6),e5
    1cba:	6e 64 2e 63 	mov.b	@(0x2e63:16,er6),r4h
    1cbe:	00 00       	nop	
    1cc0:	00 00       	nop	
    1cc2:	64 65       	or.w	r6,r5
    1cc4:	66 69       	and.w	r6,e1
    1cc6:	6e 65 73 2e 	mov.b	@(0x732e:16,er6),r5h
    1cca:	68 00       	mov.b	@er0,r0h
    1ccc:	00 00       	nop	
    1cce:	00 69       	.word	H'0,H'69
    1cd0:	6e 74 65 72 	mov.b	@(0x6572:16,er7),r4h
    1cd4:	72 75       	bclr	#0x7,r5h
    1cd6:	70 74       	bset	#0x7,r4h
    1cd8:	2e 68       	mov.b	@0x68:8,r6l
    1cda:	00 00       	nop	
    1cdc:	00 00       	nop	
    1cde:	74 69       	bor	#0x6,r1l
    1ce0:	6d 65       	mov.w	@er6+,r5
    1ce2:	72 64       	bclr	#0x6,r4h
    1ce4:	72 76       	bclr	#0x7,r6h
    1ce6:	2e 68       	mov.b	@0x68:8,r6l
    1ce8:	00 00       	nop	
    1cea:	00 00       	nop	
    1cec:	00 00       	nop	
    1cee:	05 02       	xorc	#0x2,ccr
    1cf0:	00 40       	.word	H'0,H'40
    1cf2:	2c 5e       	mov.b	@0x5e:8,r4l
    1cf4:	1f 00       	das	r0h
    1cf6:	05 02       	xorc	#0x2,ccr
    1cf8:	00 40       	.word	H'0,H'40
    1cfa:	2c 6e       	mov.b	@0x6e:8,r4l
    1cfc:	19 00       	sub.w	r0,r0
    1cfe:	05 02       	xorc	#0x2,ccr
    1d00:	00 40       	.word	H'0,H'40
    1d02:	2c 7c       	mov.b	@0x7c:8,r4l
    1d04:	18 00       	sub.b	r0h,r0h
    1d06:	05 02       	xorc	#0x2,ccr
    1d08:	00 40       	.word	H'0,H'40
    1d0a:	2c 86       	mov.b	@0x86:8,r4l
    1d0c:	18 00       	sub.b	r0h,r0h
    1d0e:	05 02       	xorc	#0x2,ccr
    1d10:	00 40       	.word	H'0,H'40
    1d12:	2c 92       	mov.b	@0x92:8,r4l
    1d14:	18 00       	sub.b	r0h,r0h
    1d16:	05 02       	xorc	#0x2,ccr
    1d18:	00 40       	.word	H'0,H'40
    1d1a:	2c a4       	mov.b	@0xa4:8,r4l
    1d1c:	18 00       	sub.b	r0h,r0h
    1d1e:	05 02       	xorc	#0x2,ccr
    1d20:	00 40       	.word	H'0,H'40
    1d22:	2c b6       	mov.b	@0xb6:8,r4l
    1d24:	18 00       	sub.b	r0h,r0h
    1d26:	05 02       	xorc	#0x2,ccr
    1d28:	00 40       	.word	H'0,H'40
    1d2a:	2c c2       	mov.b	@0xc2:8,r4l
    1d2c:	1b 00       	subs	#1,er0
    1d2e:	05 02       	xorc	#0x2,ccr
    1d30:	00 40       	.word	H'0,H'40
    1d32:	2c d4       	mov.b	@0xd4:8,r4l
    1d34:	1a 00       	dec.b	r0h
    1d36:	05 02       	xorc	#0x2,ccr
    1d38:	00 40       	.word	H'0,H'40
    1d3a:	2c e4       	mov.b	@0xe4:8,r4l
    1d3c:	18 00       	sub.b	r0h,r0h
    1d3e:	05 02       	xorc	#0x2,ccr
    1d40:	00 40       	.word	H'0,H'40
    1d42:	2c f6       	mov.b	@0xf6:8,r4l
    1d44:	18 00       	sub.b	r0h,r0h
    1d46:	05 02       	xorc	#0x2,ccr
    1d48:	00 40       	.word	H'0,H'40
    1d4a:	2d 00       	mov.b	@0x0:8,r5l
    1d4c:	18 00       	sub.b	r0h,r0h
    1d4e:	05 02       	xorc	#0x2,ccr
    1d50:	00 40       	.word	H'0,H'40
    1d52:	2d 0c       	mov.b	@0xc:8,r5l
    1d54:	18 00       	sub.b	r0h,r0h
    1d56:	05 02       	xorc	#0x2,ccr
    1d58:	00 40       	.word	H'0,H'40
    1d5a:	2d 2e       	mov.b	@0x2e:8,r5l
    1d5c:	18 00       	sub.b	r0h,r0h
    1d5e:	05 02       	xorc	#0x2,ccr
    1d60:	00 40       	.word	H'0,H'40
    1d62:	2d 46       	mov.b	@0x46:8,r5l
    1d64:	18 00       	sub.b	r0h,r0h
    1d66:	05 02       	xorc	#0x2,ccr
    1d68:	00 40       	.word	H'0,H'40
    1d6a:	2d 54       	mov.b	@0x54:8,r5l
    1d6c:	1b 00       	subs	#1,er0
    1d6e:	05 02       	xorc	#0x2,ccr
    1d70:	00 40       	.word	H'0,H'40
    1d72:	2d 64       	mov.b	@0x64:8,r5l
    1d74:	19 00       	sub.w	r0,r0
    1d76:	05 02       	xorc	#0x2,ccr
    1d78:	00 40       	.word	H'0,H'40
    1d7a:	2d 72       	mov.b	@0x72:8,r5l
    1d7c:	18 00       	sub.b	r0h,r0h
    1d7e:	05 02       	xorc	#0x2,ccr
    1d80:	00 40       	.word	H'0,H'40
    1d82:	2d 7c       	mov.b	@0x7c:8,r5l
    1d84:	18 00       	sub.b	r0h,r0h
    1d86:	05 02       	xorc	#0x2,ccr
    1d88:	00 40       	.word	H'0,H'40
    1d8a:	2d 8a       	mov.b	@0x8a:8,r5l
    1d8c:	18 00       	sub.b	r0h,r0h
    1d8e:	05 02       	xorc	#0x2,ccr
    1d90:	00 40       	.word	H'0,H'40
    1d92:	2d 9c       	mov.b	@0x9c:8,r5l
    1d94:	18 00       	sub.b	r0h,r0h
    1d96:	05 02       	xorc	#0x2,ccr
    1d98:	00 40       	.word	H'0,H'40
    1d9a:	2d a8       	mov.b	@0xa8:8,r5l
    1d9c:	1a 00       	dec.b	r0h
    1d9e:	05 02       	xorc	#0x2,ccr
    1da0:	00 40       	.word	H'0,H'40
    1da2:	2d be       	mov.b	@0xbe:8,r5l
    1da4:	1b 00       	subs	#1,er0
    1da6:	05 02       	xorc	#0x2,ccr
    1da8:	00 40       	.word	H'0,H'40
    1daa:	2d c6       	mov.b	@0xc6:8,r5l
    1dac:	1a 00       	dec.b	r0h
    1dae:	05 02       	xorc	#0x2,ccr
    1db0:	00 40       	.word	H'0,H'40
    1db2:	2d d0       	mov.b	@0xd0:8,r5l
    1db4:	1a 00       	dec.b	r0h
    1db6:	05 02       	xorc	#0x2,ccr
    1db8:	00 40       	.word	H'0,H'40
    1dba:	2d e2       	mov.b	@0xe2:8,r5l
    1dbc:	18 00       	sub.b	r0h,r0h
    1dbe:	05 02       	xorc	#0x2,ccr
    1dc0:	00 40       	.word	H'0,H'40
    1dc2:	2d ec       	mov.b	@0xec:8,r5l
    1dc4:	18 00       	sub.b	r0h,r0h
    1dc6:	05 02       	xorc	#0x2,ccr
    1dc8:	00 40       	.word	H'0,H'40
    1dca:	2d f6       	mov.b	@0xf6:8,r5l
    1dcc:	18 00       	sub.b	r0h,r0h
    1dce:	05 02       	xorc	#0x2,ccr
    1dd0:	00 40       	.word	H'0,H'40
    1dd2:	2d fa       	mov.b	@0xfa:8,r5l
    1dd4:	19 00       	sub.w	r0,r0
    1dd6:	05 02       	xorc	#0x2,ccr
    1dd8:	00 40       	.word	H'0,H'40
    1dda:	2e 0c       	mov.b	@0xc:8,r6l
    1ddc:	19 00       	sub.w	r0,r0
    1dde:	05 02       	xorc	#0x2,ccr
    1de0:	00 40       	.word	H'0,H'40
    1de2:	2e 28       	mov.b	@0x28:8,r6l
    1de4:	18 00       	sub.b	r0h,r0h
    1de6:	05 02       	xorc	#0x2,ccr
    1de8:	00 40       	.word	H'0,H'40
    1dea:	2e 36       	mov.b	@0x36:8,r6l
    1dec:	18 00       	sub.b	r0h,r0h
    1dee:	05 02       	xorc	#0x2,ccr
    1df0:	00 40       	.word	H'0,H'40
    1df2:	2e 42       	mov.b	@0x42:8,r6l
    1df4:	18 00       	sub.b	r0h,r0h
    1df6:	05 02       	xorc	#0x2,ccr
    1df8:	00 40       	.word	H'0,H'40
    1dfa:	2e 5e       	mov.b	@0x5e:8,r6l
    1dfc:	18 00       	sub.b	r0h,r0h
    1dfe:	05 02       	xorc	#0x2,ccr
    1e00:	00 40       	.word	H'0,H'40
    1e02:	2e 68       	mov.b	@0x68:8,r6l
    1e04:	18 00       	sub.b	r0h,r0h
    1e06:	05 02       	xorc	#0x2,ccr
    1e08:	00 40       	.word	H'0,H'40
    1e0a:	2e 72       	mov.b	@0x72:8,r6l
    1e0c:	19 00       	sub.w	r0,r0
    1e0e:	05 02       	xorc	#0x2,ccr
    1e10:	00 40       	.word	H'0,H'40
    1e12:	2e 7c       	mov.b	@0x7c:8,r6l
    1e14:	1a 00       	dec.b	r0h
    1e16:	05 02       	xorc	#0x2,ccr
    1e18:	00 40       	.word	H'0,H'40
    1e1a:	2e 88       	mov.b	@0x88:8,r6l
    1e1c:	03 6c       	ldc	er4,vbr
    1e1e:	01 00       	.word	H'1,H'0
    1e20:	05 02       	xorc	#0x2,ccr
    1e22:	00 40       	.word	H'0,H'40
    1e24:	2e 8c       	mov.b	@0x8c:8,r6l
    1e26:	00 01       	.word	H'0,H'1
    1e28:	01        	.word	H'1,H'0

00001e29 <.Ldebug_line0>:
    1e29:	00 00       	nop	
    1e2b:	00 fd       	.word	H'0,H'fd
    1e2d:	00 04       	.word	H'0,H'4
    1e2f:	00 00       	nop	
    1e31:	00 49       	.word	H'0,H'49
    1e33:	01 01       	.word	H'1,H'1
    1e35:	01 f6       	.word	H'1,H'f6
    1e37:	f2 0d       	mov.b	#0xd,r2h
    1e39:	00 01       	.word	H'0,H'1
    1e3b:	01 01       	.word	H'1,H'1
    1e3d:	01 00       	.word	H'1,H'0
    1e3f:	00 00       	nop	
    1e41:	01 00       	.word	H'1,H'0
    1e43:	00 01       	.word	H'0,H'1
    1e45:	00 63       	.word	H'0,H'63
    1e47:	6c 6f       	mov.b	@er6+,r7l
    1e49:	63 6b       	btst	r6h,r3l
    1e4b:	2e 63       	mov.b	@0x63:8,r6l
    1e4d:	00 00       	nop	
    1e4f:	00 00       	nop	
    1e51:	64 65       	or.w	r6,r5
    1e53:	66 69       	and.w	r6,e1
    1e55:	6e 65 73 2e 	mov.b	@(0x732e:16,er6),r5h
    1e59:	68 00       	mov.b	@er0,r0h
    1e5b:	00 00       	nop	
    1e5d:	00 69       	.word	H'0,H'69
    1e5f:	6e 74 65 72 	mov.b	@(0x6572:16,er7),r4h
    1e63:	72 75       	bclr	#0x7,r5h
    1e65:	70 74       	bset	#0x7,r4h
    1e67:	2e 68       	mov.b	@0x68:8,r6l
    1e69:	00 00       	nop	
    1e6b:	00 00       	nop	
    1e6d:	74 69       	bor	#0x6,r1l
    1e6f:	6d 65       	mov.w	@er6+,r5
    1e71:	72 64       	bclr	#0x6,r4h
    1e73:	72 76       	bclr	#0x7,r6h
    1e75:	2e 68       	mov.b	@0x68:8,r6l
    1e77:	00 00       	nop	
    1e79:	00 00       	nop	
    1e7b:	00 00       	nop	
    1e7d:	05 02       	xorc	#0x2,ccr
    1e7f:	00 40       	.word	H'0,H'40
    1e81:	2e 8c       	mov.b	@0x8c:8,r6l
    1e83:	1f 00       	das	r0h
    1e85:	05 02       	xorc	#0x2,ccr
    1e87:	00 40       	.word	H'0,H'40
    1e89:	2e 9c       	mov.b	@0x9c:8,r6l
    1e8b:	19 00       	sub.w	r0,r0
    1e8d:	05 02       	xorc	#0x2,ccr
    1e8f:	00 40       	.word	H'0,H'40
    1e91:	2e aa       	mov.b	@0xaa:8,r6l
    1e93:	18 00       	sub.b	r0h,r0h
    1e95:	05 02       	xorc	#0x2,ccr
    1e97:	00 40       	.word	H'0,H'40
    1e99:	2e b6       	mov.b	@0xb6:8,r6l
    1e9b:	18 00       	sub.b	r0h,r0h
    1e9d:	05 02       	xorc	#0x2,ccr
    1e9f:	00 40       	.word	H'0,H'40
    1ea1:	2e c4       	mov.b	@0xc4:8,r6l
    1ea3:	18 00       	sub.b	r0h,r0h
    1ea5:	05 02       	xorc	#0x2,ccr
    1ea7:	00 40       	.word	H'0,H'40
    1ea9:	2e d6       	mov.b	@0xd6:8,r6l
    1eab:	18 00       	sub.b	r0h,r0h
    1ead:	05 02       	xorc	#0x2,ccr
    1eaf:	00 40       	.word	H'0,H'40
    1eb1:	2e e2       	mov.b	@0xe2:8,r6l
    1eb3:	1b 00       	subs	#1,er0
    1eb5:	05 02       	xorc	#0x2,ccr
    1eb7:	00 40       	.word	H'0,H'40
    1eb9:	2e f4       	mov.b	@0xf4:8,r6l
    1ebb:	1a 00       	dec.b	r0h
    1ebd:	05 02       	xorc	#0x2,ccr
    1ebf:	00 40       	.word	H'0,H'40
    1ec1:	2f 04       	mov.b	@0x4:8,r7l
    1ec3:	18 00       	sub.b	r0h,r0h
    1ec5:	05 02       	xorc	#0x2,ccr
    1ec7:	00 40       	.word	H'0,H'40
    1ec9:	2f 16       	mov.b	@0x16:8,r7l
    1ecb:	18 00       	sub.b	r0h,r0h
    1ecd:	05 02       	xorc	#0x2,ccr
    1ecf:	00 40       	.word	H'0,H'40
    1ed1:	2f 20       	mov.b	@0x20:8,r7l
    1ed3:	18 00       	sub.b	r0h,r0h
    1ed5:	05 02       	xorc	#0x2,ccr
    1ed7:	00 40       	.word	H'0,H'40
    1ed9:	2f 2c       	mov.b	@0x2c:8,r7l
    1edb:	18 00       	sub.b	r0h,r0h
    1edd:	05 02       	xorc	#0x2,ccr
    1edf:	00 40       	.word	H'0,H'40
    1ee1:	2f 4e       	mov.b	@0x4e:8,r7l
    1ee3:	18 00       	sub.b	r0h,r0h
    1ee5:	05 02       	xorc	#0x2,ccr
    1ee7:	00 40       	.word	H'0,H'40
    1ee9:	2f 66       	mov.b	@0x66:8,r7l
    1eeb:	18 00       	sub.b	r0h,r0h
    1eed:	05 02       	xorc	#0x2,ccr
    1eef:	00 40       	.word	H'0,H'40
    1ef1:	2f 74       	mov.b	@0x74:8,r7l
    1ef3:	1a 00       	dec.b	r0h
    1ef5:	05 02       	xorc	#0x2,ccr
    1ef7:	00 40       	.word	H'0,H'40
    1ef9:	2f 8a       	mov.b	@0x8a:8,r7l
    1efb:	18 00       	sub.b	r0h,r0h
    1efd:	05 02       	xorc	#0x2,ccr
    1eff:	00 40       	.word	H'0,H'40
    1f01:	2f 92       	mov.b	@0x92:8,r7l
    1f03:	00 02       	.word	H'0,H'2
    1f05:	04 01       	orc	#0x1,ccr
    1f07:	1b 00       	subs	#1,er0
    1f09:	05 02       	xorc	#0x2,ccr
    1f0b:	00 40       	.word	H'0,H'40
    1f0d:	2f 9e       	mov.b	@0x9e:8,r7l
    1f0f:	18 00       	sub.b	r0h,r0h
    1f11:	05 02       	xorc	#0x2,ccr
    1f13:	00 40       	.word	H'0,H'40
    1f15:	2f a8       	mov.b	@0xa8:8,r7l
    1f17:	18 00       	sub.b	r0h,r0h
    1f19:	05 02       	xorc	#0x2,ccr
    1f1b:	00 40       	.word	H'0,H'40
    1f1d:	2f b0       	mov.b	@0xb0:8,r7l
    1f1f:	15 00       	xor.b	r0h,r0h
    1f21:	05 02       	xorc	#0x2,ccr
    1f23:	00 40       	.word	H'0,H'40
    1f25:	2f b2       	mov.b	@0xb2:8,r7l
    1f27:	00 01       	.word	H'0,H'1
    1f29:	01        	.word	H'1,H'0

00001f2a <.Ldebug_line0>:
    1f2a:	00 00       	nop	
    1f2c:	03 f4       	.word	H'3,H'f4
    1f2e:	00 04       	.word	H'0,H'4
    1f30:	00 00       	nop	
    1f32:	00 38       	.word	H'0,H'38
    1f34:	01 01       	.word	H'1,H'1
    1f36:	01 f6       	.word	H'1,H'f6
    1f38:	f2 0d       	mov.b	#0xd,r2h
    1f3a:	00 01       	.word	H'0,H'1
    1f3c:	01 01       	.word	H'1,H'1
    1f3e:	01 00       	.word	H'1,H'0
    1f40:	00 00       	nop	
    1f42:	01 00       	.word	H'1,H'0
    1f44:	00 01       	.word	H'0,H'1
    1f46:	00 69       	.word	H'0,H'69
    1f48:	70 2e       	bset	#0x2,r6l
    1f4a:	63 00       	btst	r0h,r0h
    1f4c:	00 00       	nop	
    1f4e:	00 64       	.word	H'0,H'64
    1f50:	65 66       	xor.w	r6,r6
    1f52:	69 6e       	mov.w	@er6,e6
    1f54:	65 73       	xor.w	r7,r3
    1f56:	2e 68       	mov.b	@0x68:8,r6l
    1f58:	00 00       	nop	
    1f5a:	00 00       	nop	
    1f5c:	69 6e       	mov.w	@er6,e6
    1f5e:	74 65       	bor	#0x6,r5h
    1f60:	72 72       	bclr	#0x7,r2h
    1f62:	75 70       	bxor	#0x7,r0h
    1f64:	74 2e       	bor	#0x2,r6l
    1f66:	68 00       	mov.b	@er0,r0h
    1f68:	00 00       	nop	
    1f6a:	00 00       	nop	
    1f6c:	00 05       	.word	H'0,H'5
    1f6e:	02 00       	stc	ccr,r0h
    1f70:	40 2f       	bra/s	.+46 (0x1fa0)
    1f72:	b2 76       	subx	#0x76,r2h
    1f74:	00 05       	.word	H'0,H'5
    1f76:	02 00       	stc	ccr,r0h
    1f78:	40 2f       	bra/s	.+46 (0x1fa8)
    1f7a:	c8 1a       	or.b	#0x1a,r0l
    1f7c:	00 05       	.word	H'0,H'5
    1f7e:	02 00       	stc	ccr,r0h
    1f80:	40 2f       	bra/s	.+46 (0x1fb0)
    1f82:	d0 18       	xor.b	#0x18,r0h
    1f84:	00 05       	.word	H'0,H'5
    1f86:	02 00       	stc	ccr,r0h
    1f88:	40 2f       	bra/s	.+46 (0x1fb8)
    1f8a:	dc 19       	xor.b	#0x19,r4l
    1f8c:	00 05       	.word	H'0,H'5
    1f8e:	02 00       	stc	ccr,r0h
    1f90:	40 2f       	bra/s	.+46 (0x1fc0)
    1f92:	e4 18       	and.b	#0x18,r4h
    1f94:	00 05       	.word	H'0,H'5
    1f96:	02 00       	stc	ccr,r0h
    1f98:	40 2f       	bra/s	.+46 (0x1fc8)
    1f9a:	f8 18       	mov.b	#0x18,r0l
    1f9c:	00 05       	.word	H'0,H'5
    1f9e:	02 00       	stc	ccr,r0h
    1fa0:	40 30       	bra	.+48 (0x1fd2)
    1fa2:	0c 19       	mov.b	r1h,r1l
    1fa4:	00 05       	.word	H'0,H'5
    1fa6:	02 00       	stc	ccr,r0h
    1fa8:	40 30       	bra	.+48 (0x1fda)
    1faa:	18 00       	sub.b	r0h,r0h
    1fac:	02 04       	stc	ccr,r4h
    1fae:	02 18       	stc	exr,r0l
    1fb0:	00 05       	.word	H'0,H'5
    1fb2:	02 00       	stc	ccr,r0h
    1fb4:	40 30       	bra	.+48 (0x1fe6)
    1fb6:	2c 18       	mov.b	@0x18:8,r4l
    1fb8:	00 05       	.word	H'0,H'5
    1fba:	02 00       	stc	ccr,r0h
    1fbc:	40 30       	bra	.+48 (0x1fee)
    1fbe:	3a 11       	mov.b	r2l,@0x11:8
    1fc0:	00 05       	.word	H'0,H'5
    1fc2:	02 00       	stc	ccr,r0h
    1fc4:	40 30       	bra	.+48 (0x1ff6)
    1fc6:	44 00       	bcc	.0 (0x1fc8)
    1fc8:	02 04       	stc	ccr,r4h
    1fca:	01 06       	.word	H'1,H'6
    1fcc:	01 00       	.word	H'1,H'0
    1fce:	05 02       	xorc	#0x2,ccr
    1fd0:	00 40       	.word	H'0,H'40
    1fd2:	30 50       	mov.b	r0h,@0x50:8
    1fd4:	00 02       	.word	H'0,H'2
    1fd6:	04 00       	orc	#0x0,ccr
    1fd8:	06 20       	andc	#0x20,ccr
    1fda:	00 05       	.word	H'0,H'5
    1fdc:	02 00       	stc	ccr,r0h
    1fde:	40 30       	bra	.+48 (0x2010)
    1fe0:	52 18       	.word	H'52,H'18
    1fe2:	00 05       	.word	H'0,H'5
    1fe4:	02 00       	stc	ccr,r0h
    1fe6:	40 30       	bra	.+48 (0x2018)
    1fe8:	6c 16       	mov.b	@er1+,r6h
    1fea:	00 05       	.word	H'0,H'5
    1fec:	02 00       	stc	ccr,r0h
    1fee:	40 30       	bra	.+48 (0x2020)
    1ff0:	7a 1a 00 05 	add.l	#0x5,er2
    1ff4:	02 00       	stc	ccr,r0h
    1ff6:	40 30       	bra	.+48 (0x2028)
    1ff8:	82 18       	add.b	#0x18,r2h
    1ffa:	00 05       	.word	H'0,H'5
    1ffc:	02 00       	stc	ccr,r0h
    1ffe:	40 30       	bra	.+48 (0x2030)
    2000:	90 1b       	addx	#0x1b,r0h
    2002:	00 05       	.word	H'0,H'5
    2004:	02 00       	stc	ccr,r0h
    2006:	40 30       	bra	.+48 (0x2038)
    2008:	a6 18       	cmp.b	#0x18,r6h
    200a:	00 05       	.word	H'0,H'5
    200c:	02 00       	stc	ccr,r0h
    200e:	40 30       	bra	.+48 (0x2040)
    2010:	ac 19       	cmp.b	#0x19,r4l
    2012:	00 05       	.word	H'0,H'5
    2014:	02 00       	stc	ccr,r0h
    2016:	40 30       	bra	.+48 (0x2048)
    2018:	bc 1f       	subx	#0x1f,r4l
    201a:	00 05       	.word	H'0,H'5
    201c:	02 00       	stc	ccr,r0h
    201e:	40 30       	bra	.+48 (0x2050)
    2020:	be 11       	subx	#0x11,r6l
    2022:	00 05       	.word	H'0,H'5
    2024:	02 00       	stc	ccr,r0h
    2026:	40 30       	bra	.+48 (0x2058)
    2028:	c8 18       	or.b	#0x18,r0l
    202a:	00 05       	.word	H'0,H'5
    202c:	02 00       	stc	ccr,r0h
    202e:	40 30       	bra	.+48 (0x2060)
    2030:	d4 18       	xor.b	#0x18,r4h
    2032:	00 05       	.word	H'0,H'5
    2034:	02 00       	stc	ccr,r0h
    2036:	40 30       	bra	.+48 (0x2068)
    2038:	f2 18       	mov.b	#0x18,r2h
    203a:	00 05       	.word	H'0,H'5
    203c:	02 00       	stc	ccr,r0h
    203e:	40 30       	bra	.+48 (0x2070)
    2040:	fa 18       	mov.b	#0x18,r2l
    2042:	00 05       	.word	H'0,H'5
    2044:	02 00       	stc	ccr,r0h
    2046:	40 30       	bra	.+48 (0x2078)
    2048:	fc 1c       	mov.b	#0x1c,r4l
    204a:	00 05       	.word	H'0,H'5
    204c:	02 00       	stc	ccr,r0h
    204e:	40 31       	bra/s	.+48 (0x2080)
    2050:	00 18       	.word	H'0,H'18
    2052:	00 05       	.word	H'0,H'5
    2054:	02 00       	stc	ccr,r0h
    2056:	40 31       	bra/s	.+48 (0x2088)
    2058:	0e 1b       	addx	r1h,r3l
    205a:	00 05       	.word	H'0,H'5
    205c:	02 00       	stc	ccr,r0h
    205e:	40 31       	bra/s	.+48 (0x2090)
    2060:	24 18       	mov.b	@0x18:8,r4h
    2062:	00 05       	.word	H'0,H'5
    2064:	02 00       	stc	ccr,r0h
    2066:	40 31       	bra/s	.+48 (0x2098)
    2068:	2a 1b       	mov.b	@0x1b:8,r2l
    206a:	00 05       	.word	H'0,H'5
    206c:	02 00       	stc	ccr,r0h
    206e:	40 31       	bra/s	.+48 (0x20a0)
    2070:	46 18       	bne	.+24 (0x208a)
    2072:	00 05       	.word	H'0,H'5
    2074:	02 00       	stc	ccr,r0h
    2076:	40 31       	bra/s	.+48 (0x20a8)
    2078:	4c 19       	.word	H'4c,H'19
    207a:	00 05       	.word	H'0,H'5
    207c:	02 00       	stc	ccr,r0h
    207e:	40 31       	bra/s	.+48 (0x20b0)
    2080:	70 18       	bset	#0x1,r0l
    2082:	00 05       	.word	H'0,H'5
    2084:	02 00       	stc	ccr,r0h
    2086:	40 31       	bra/s	.+48 (0x20b8)
    2088:	76 1b       	band	#0x1,r3l
    208a:	00 05       	.word	H'0,H'5
    208c:	02 00       	stc	ccr,r0h
    208e:	40 31       	bra/s	.+48 (0x20c0)
    2090:	8c 1a       	add.b	#0x1a,r4l
    2092:	00 05       	.word	H'0,H'5
    2094:	02 00       	stc	ccr,r0h
    2096:	40 31       	bra/s	.+48 (0x20c8)
    2098:	9e 18       	addx	#0x18,r6l
    209a:	00 05       	.word	H'0,H'5
    209c:	02 00       	stc	ccr,r0h
    209e:	40 31       	bra/s	.+48 (0x20d0)
    20a0:	ac 1a       	cmp.b	#0x1a,r4l
    20a2:	00 05       	.word	H'0,H'5
    20a4:	02 00       	stc	ccr,r0h
    20a6:	40 31       	bra/s	.+48 (0x20d8)
    20a8:	be 18       	subx	#0x18,r6l
    20aa:	00 05       	.word	H'0,H'5
    20ac:	02 00       	stc	ccr,r0h
    20ae:	40 31       	bra/s	.+48 (0x20e0)
    20b0:	d2 19       	xor.b	#0x19,r2h
    20b2:	00 05       	.word	H'0,H'5
    20b4:	02 00       	stc	ccr,r0h
    20b6:	40 31       	bra/s	.+48 (0x20e8)
    20b8:	e4 1d       	and.b	#0x1d,r4h
    20ba:	00 05       	.word	H'0,H'5
    20bc:	02 00       	stc	ccr,r0h
    20be:	40 31       	bra/s	.+48 (0x20f0)
    20c0:	e6 14       	and.b	#0x14,r6h
    20c2:	00 05       	.word	H'0,H'5
    20c4:	02 00       	stc	ccr,r0h
    20c6:	40 31       	bra/s	.+48 (0x20f8)
    20c8:	fc 18       	mov.b	#0x18,r4l
    20ca:	00 05       	.word	H'0,H'5
    20cc:	02 00       	stc	ccr,r0h
    20ce:	40 31       	bra/s	.+48 (0x2100)
    20d0:	fe 1c       	mov.b	#0x1c,r6l
    20d2:	00 05       	.word	H'0,H'5
    20d4:	02 00       	stc	ccr,r0h
    20d6:	40 32       	bra	.+50 (0x210a)
    20d8:	08 19       	add.b	r1h,r1l
    20da:	00 05       	.word	H'0,H'5
    20dc:	02 00       	stc	ccr,r0h
    20de:	40 32       	bra	.+50 (0x2112)
    20e0:	30 18       	mov.b	r0h,@0x18:8
    20e2:	00 05       	.word	H'0,H'5
    20e4:	02 00       	stc	ccr,r0h
    20e6:	40 32       	bra	.+50 (0x211a)
    20e8:	4e 18       	bgt	.+24 (0x2102)
    20ea:	00 05       	.word	H'0,H'5
    20ec:	02 00       	stc	ccr,r0h
    20ee:	40 32       	bra	.+50 (0x2122)
    20f0:	5a 18 00 05 	jmp	@0x180005:24
    20f4:	02 00       	stc	ccr,r0h
    20f6:	40 32       	bra	.+50 (0x212a)
    20f8:	78 18       	.word	H'78,H'18
    20fa:	00 05       	.word	H'0,H'5
    20fc:	02 00       	stc	ccr,r0h
    20fe:	40 32       	bra	.+50 (0x2132)
    2100:	86 1a       	add.b	#0x1a,r6h
    2102:	00 05       	.word	H'0,H'5
    2104:	02 00       	stc	ccr,r0h
    2106:	40 32       	bra	.+50 (0x213a)
    2108:	8a 18       	add.b	#0x18,r2l
    210a:	00 05       	.word	H'0,H'5
    210c:	02 00       	stc	ccr,r0h
    210e:	40 32       	bra	.+50 (0x2142)
    2110:	98 1b       	addx	#0x1b,r0l
    2112:	00 05       	.word	H'0,H'5
    2114:	02 00       	stc	ccr,r0h
    2116:	40 32       	bra	.+50 (0x214a)
    2118:	ae 18       	cmp.b	#0x18,r6l
    211a:	00 05       	.word	H'0,H'5
    211c:	02 00       	stc	ccr,r0h
    211e:	40 32       	bra	.+50 (0x2152)
    2120:	b4 1a       	subx	#0x1a,r4h
    2122:	00 05       	.word	H'0,H'5
    2124:	02 00       	stc	ccr,r0h
    2126:	40 32       	bra	.+50 (0x215a)
    2128:	c2 18       	or.b	#0x18,r2h
    212a:	00 05       	.word	H'0,H'5
    212c:	02 00       	stc	ccr,r0h
    212e:	40 32       	bra	.+50 (0x2162)
    2130:	c8 19       	or.b	#0x19,r0l
    2132:	00 05       	.word	H'0,H'5
    2134:	02 00       	stc	ccr,r0h
    2136:	40 32       	bra	.+50 (0x216a)
    2138:	d8 18       	xor.b	#0x18,r0l
    213a:	00 05       	.word	H'0,H'5
    213c:	02 00       	stc	ccr,r0h
    213e:	40 32       	bra	.+50 (0x2172)
    2140:	de 19       	xor.b	#0x19,r6l
    2142:	00 05       	.word	H'0,H'5
    2144:	02 00       	stc	ccr,r0h
    2146:	40 32       	bra	.+50 (0x217a)
    2148:	ee 2c       	and.b	#0x2c,r6l
    214a:	00 05       	.word	H'0,H'5
    214c:	02 00       	stc	ccr,r0h
    214e:	40 32       	bra	.+50 (0x2182)
    2150:	f2 03       	mov.b	#0x3,r2h
    2152:	6f 01 00 05 	mov.w	@(0x5:16,er0),r1
    2156:	02 00       	stc	ccr,r0h
    2158:	40 33       	bra/s	.+50 (0x218c)
    215a:	0c 18       	mov.b	r1h,r0l
    215c:	00 05       	.word	H'0,H'5
    215e:	02 00       	stc	ccr,r0h
    2160:	40 33       	bra/s	.+50 (0x2194)
    2162:	26 18       	mov.b	@0x18:8,r6h
    2164:	00 05       	.word	H'0,H'5
    2166:	02 00       	stc	ccr,r0h
    2168:	40 33       	bra/s	.+50 (0x219c)
    216a:	40 18       	bra	.+24 (0x2184)
    216c:	00 05       	.word	H'0,H'5
    216e:	02 00       	stc	ccr,r0h
    2170:	40 33       	bra/s	.+50 (0x21a4)
    2172:	5a 1a 00 05 	jmp	@0x1a0005:24
    2176:	02 00       	stc	ccr,r0h
    2178:	40 33       	bra/s	.+50 (0x21ac)
    217a:	80 1b       	add.b	#0x1b,r0h
    217c:	00 05       	.word	H'0,H'5
    217e:	02 00       	stc	ccr,r0h
    2180:	40 33       	bra/s	.+50 (0x21b4)
    2182:	a6 18       	cmp.b	#0x18,r6h
    2184:	00 05       	.word	H'0,H'5
    2186:	02 00       	stc	ccr,r0h
    2188:	40 33       	bra/s	.+50 (0x21bc)
    218a:	ce 18       	or.b	#0x18,r6l
    218c:	00 05       	.word	H'0,H'5
    218e:	02 00       	stc	ccr,r0h
    2190:	40 33       	bra/s	.+50 (0x21c4)
    2192:	ea 18       	and.b	#0x18,r2l
    2194:	00 05       	.word	H'0,H'5
    2196:	02 00       	stc	ccr,r0h
    2198:	40 34       	bra	.+52 (0x21ce)
    219a:	08 18       	add.b	r1h,r0l
    219c:	00 05       	.word	H'0,H'5
    219e:	02 00       	stc	ccr,r0h
    21a0:	40 34       	bra	.+52 (0x21d6)
    21a2:	16 18       	and.b	r1h,r0l
    21a4:	00 05       	.word	H'0,H'5
    21a6:	02 00       	stc	ccr,r0h
    21a8:	40 34       	bra	.+52 (0x21de)
    21aa:	1e 19       	subx	r1h,r1l
    21ac:	00 05       	.word	H'0,H'5
    21ae:	02 00       	stc	ccr,r0h
    21b0:	40 34       	bra	.+52 (0x21e6)
    21b2:	20 0d       	mov.b	@0xd:8,r0h
    21b4:	00 05       	.word	H'0,H'5
    21b6:	02 00       	stc	ccr,r0h
    21b8:	40 34       	bra	.+52 (0x21ee)
    21ba:	22 24       	mov.b	@0x24:8,r2h
    21bc:	00 05       	.word	H'0,H'5
    21be:	02 00       	stc	ccr,r0h
    21c0:	40 34       	bra	.+52 (0x21f6)
    21c2:	26 18       	mov.b	@0x18:8,r6h
    21c4:	00 05       	.word	H'0,H'5
    21c6:	02 00       	stc	ccr,r0h
    21c8:	40 34       	bra	.+52 (0x21fe)
    21ca:	34 1c       	mov.b	r4h,@0x1c:8
    21cc:	00 05       	.word	H'0,H'5
    21ce:	02 00       	stc	ccr,r0h
    21d0:	40 34       	bra	.+52 (0x2206)
    21d2:	4a 18       	bpl	.+24 (0x21ec)
    21d4:	00 05       	.word	H'0,H'5
    21d6:	02 00       	stc	ccr,r0h
    21d8:	40 34       	bra	.+52 (0x220e)
    21da:	50 1b       	mulxu.b	r1h,e3
    21dc:	00 05       	.word	H'0,H'5
    21de:	02 00       	stc	ccr,r0h
    21e0:	40 34       	bra	.+52 (0x2216)
    21e2:	62 00       	bclr	r0h,r0h
    21e4:	02 04       	stc	ccr,r4h
    21e6:	01 06       	.word	H'1,H'6
    21e8:	01 00       	.word	H'1,H'0
    21ea:	05 02       	xorc	#0x2,ccr
    21ec:	00 40       	.word	H'0,H'40
    21ee:	34 7e       	mov.b	r4h,@0x7e:8
    21f0:	00 02       	.word	H'0,H'2
    21f2:	04 00       	orc	#0x0,ccr
    21f4:	06 18       	andc	#0x18,ccr
    21f6:	00 05       	.word	H'0,H'5
    21f8:	02 00       	stc	ccr,r0h
    21fa:	40 34       	bra	.+52 (0x2230)
    21fc:	84 1a       	add.b	#0x1a,r4h
    21fe:	00 05       	.word	H'0,H'5
    2200:	02 00       	stc	ccr,r0h
    2202:	40 34       	bra	.+52 (0x2238)
    2204:	90 18       	addx	#0x18,r0h
    2206:	00 05       	.word	H'0,H'5
    2208:	02 00       	stc	ccr,r0h
    220a:	40 34       	bra	.+52 (0x2240)
    220c:	a2 1a       	cmp.b	#0x1a,r2h
    220e:	00 05       	.word	H'0,H'5
    2210:	02 00       	stc	ccr,r0h
    2212:	40 34       	bra	.+52 (0x2248)
    2214:	b8 21       	subx	#0x21,r0l
    2216:	00 05       	.word	H'0,H'5
    2218:	02 00       	stc	ccr,r0h
    221a:	40 34       	bra	.+52 (0x2250)
    221c:	ba 10       	subx	#0x10,r2l
    221e:	00 05       	.word	H'0,H'5
    2220:	02 00       	stc	ccr,r0h
    2222:	40 34       	bra	.+52 (0x2258)
    2224:	d0 18       	xor.b	#0x18,r0h
    2226:	00 05       	.word	H'0,H'5
    2228:	02 00       	stc	ccr,r0h
    222a:	40 34       	bra	.+52 (0x2260)
    222c:	d2 1a       	xor.b	#0x1a,r2h
    222e:	00 05       	.word	H'0,H'5
    2230:	02 00       	stc	ccr,r0h
    2232:	40 34       	bra	.+52 (0x2268)
    2234:	e8 18       	and.b	#0x18,r0l
    2236:	00 05       	.word	H'0,H'5
    2238:	02 00       	stc	ccr,r0h
    223a:	40 34       	bra	.+52 (0x2270)
    223c:	ea 1c       	and.b	#0x1c,r2l
    223e:	00 05       	.word	H'0,H'5
    2240:	02 00       	stc	ccr,r0h
    2242:	40 34       	bra	.+52 (0x2278)
    2244:	f2 19       	mov.b	#0x19,r2h
    2246:	00 05       	.word	H'0,H'5
    2248:	02 00       	stc	ccr,r0h
    224a:	40 35       	bra/s	.+52 (0x2280)
    224c:	10 18       	shll.w	e0
    224e:	00 05       	.word	H'0,H'5
    2250:	02 00       	stc	ccr,r0h
    2252:	40 35       	bra/s	.+52 (0x2288)
    2254:	2c 19       	mov.b	@0x19:8,r4l
    2256:	00 05       	.word	H'0,H'5
    2258:	02 00       	stc	ccr,r0h
    225a:	40 35       	bra/s	.+52 (0x2290)
    225c:	38 1a       	mov.b	r0l,@0x1a:8
    225e:	00 05       	.word	H'0,H'5
    2260:	02 00       	stc	ccr,r0h
    2262:	40 35       	bra/s	.+52 (0x2298)
    2264:	3c 18       	mov.b	r4l,@0x18:8
    2266:	00 05       	.word	H'0,H'5
    2268:	02 00       	stc	ccr,r0h
    226a:	40 35       	bra/s	.+52 (0x22a0)
    226c:	4a 1c       	bpl	.+28 (0x228a)
    226e:	00 05       	.word	H'0,H'5
    2270:	02 00       	stc	ccr,r0h
    2272:	40 35       	bra/s	.+52 (0x22a8)
    2274:	52 19       	.word	H'52,H'19
    2276:	00 05       	.word	H'0,H'5
    2278:	02 00       	stc	ccr,r0h
    227a:	40 35       	bra/s	.+52 (0x22b0)
    227c:	60 18       	bset	r1h,r0l
    227e:	00 05       	.word	H'0,H'5
    2280:	02 00       	stc	ccr,r0h
    2282:	40 35       	bra/s	.+52 (0x22b8)
    2284:	6a 18       	.word	H'6a,H'18
    2286:	00 05       	.word	H'0,H'5
    2288:	02 00       	stc	ccr,r0h
    228a:	40 35       	bra/s	.+52 (0x22c0)
    228c:	7c 18       	.word	H'7c,H'18
    228e:	00 05       	.word	H'0,H'5
    2290:	02 00       	stc	ccr,r0h
    2292:	40 35       	bra/s	.+52 (0x22c8)
    2294:	86 1c       	add.b	#0x1c,r6h
    2296:	00 05       	.word	H'0,H'5
    2298:	02 00       	stc	ccr,r0h
    229a:	40 35       	bra/s	.+52 (0x22d0)
    229c:	9c 19       	addx	#0x19,r4l
    229e:	00 05       	.word	H'0,H'5
    22a0:	02 00       	stc	ccr,r0h
    22a2:	40 35       	bra/s	.+52 (0x22d8)
    22a4:	ae 18       	cmp.b	#0x18,r6l
    22a6:	00 05       	.word	H'0,H'5
    22a8:	02 00       	stc	ccr,r0h
    22aa:	40 35       	bra/s	.+52 (0x22e0)
    22ac:	b8 18       	subx	#0x18,r0l
    22ae:	00 05       	.word	H'0,H'5
    22b0:	02 00       	stc	ccr,r0h
    22b2:	40 35       	bra/s	.+52 (0x22e8)
    22b4:	da 18       	xor.b	#0x18,r2l
    22b6:	00 05       	.word	H'0,H'5
    22b8:	02 00       	stc	ccr,r0h
    22ba:	40 35       	bra/s	.+52 (0x22f0)
    22bc:	f2 18       	mov.b	#0x18,r2h
    22be:	00 05       	.word	H'0,H'5
    22c0:	02 00       	stc	ccr,r0h
    22c2:	40 36       	bra	.+54 (0x22fa)
    22c4:	00 1c       	.word	H'0,H'1c
    22c6:	00 05       	.word	H'0,H'5
    22c8:	02 00       	stc	ccr,r0h
    22ca:	40 36       	bra	.+54 (0x2302)
    22cc:	16 1b       	and.b	r1h,r3l
    22ce:	00 05       	.word	H'0,H'5
    22d0:	02 00       	stc	ccr,r0h
    22d2:	40 36       	bra	.+54 (0x230a)
    22d4:	1a 18       	sub.w	#0x1,e0
    22d6:	00 05       	.word	H'0,H'5
    22d8:	02 00       	stc	ccr,r0h
    22da:	40 36       	bra	.+54 (0x2312)
    22dc:	24 1b       	mov.b	@0x1b:8,r4h
    22de:	00 05       	.word	H'0,H'5
    22e0:	02 00       	stc	ccr,r0h
    22e2:	40 36       	bra	.+54 (0x231a)
    22e4:	38 1d       	mov.b	r0l,@0x1d:8
    22e6:	00 05       	.word	H'0,H'5
    22e8:	02 00       	stc	ccr,r0h
    22ea:	40 36       	bra	.+54 (0x2322)
    22ec:	50 19       	mulxu.b	r1h,e1
    22ee:	00 05       	.word	H'0,H'5
    22f0:	02 00       	stc	ccr,r0h
    22f2:	40 36       	bra	.+54 (0x232a)
    22f4:	58 18       	.word	H'58,H'18
    22f6:	00 05       	.word	H'0,H'5
    22f8:	02 00       	stc	ccr,r0h
    22fa:	40 36       	bra	.+54 (0x2332)
    22fc:	6a 18       	.word	H'6a,H'18
    22fe:	00 05       	.word	H'0,H'5
    2300:	02 00       	stc	ccr,r0h
    2302:	40 36       	bra	.+54 (0x233a)
    2304:	76 19       	band	#0x1,r1l
    2306:	00 05       	.word	H'0,H'5
    2308:	02 00       	stc	ccr,r0h
    230a:	40 36       	bra	.+54 (0x2342)
    230c:	80 19       	add.b	#0x19,r0h
    230e:	00 05       	.word	H'0,H'5
    2310:	02 00       	stc	ccr,r0h
    2312:	40 36       	bra	.+54 (0x234a)
    2314:	8c 03       	add.b	#0x3,r4l
    2316:	72 01       	bclr	#0x0,r1h
    2318:	00 05       	.word	H'0,H'5
    231a:	02 00       	stc	ccr,r0h
    231c:	40 36       	bra	.+54 (0x2354)
    231e:	8e 00       	add.b	#0x0,r6l
    2320:	01 01       	.word	H'1,H'1

00002322 <.Ldebug_line0>:
    2322:	00 00       	nop	
    2324:	03 21       	ldmac	er1,mach
    2326:	00 04       	.word	H'0,H'4
    2328:	00 00       	nop	
    232a:	00 3d       	.word	H'0,H'3d
    232c:	01 01       	.word	H'1,H'1
    232e:	01 f6       	.word	H'1,H'f6
    2330:	f2 0d       	mov.b	#0xd,r2h
    2332:	00 01       	.word	H'0,H'1
    2334:	01 01       	.word	H'1,H'1
    2336:	01 00       	.word	H'1,H'0
    2338:	00 00       	nop	
    233a:	01 00       	.word	H'1,H'0
    233c:	00 01       	.word	H'0,H'1
    233e:	00 63       	.word	H'0,H'63
    2340:	6f 6e 73 64 	mov.w	@(0x7364:16,er6),e6
    2344:	72 76       	bclr	#0x7,r6h
    2346:	2e 63       	mov.b	@0x63:8,r6l
    2348:	00 00       	nop	
    234a:	00 00       	nop	
    234c:	64 65       	or.w	r6,r5
    234e:	66 69       	and.w	r6,e1
    2350:	6e 65 73 2e 	mov.b	@(0x732e:16,er6),r5h
    2354:	68 00       	mov.b	@er0,r0h
    2356:	00 00       	nop	
    2358:	00 69       	.word	H'0,H'69
    235a:	6e 74 65 72 	mov.b	@(0x6572:16,er7),r4h
    235e:	72 75       	bclr	#0x7,r5h
    2360:	70 74       	bset	#0x7,r4h
    2362:	2e 68       	mov.b	@0x68:8,r6l
    2364:	00 00       	nop	
    2366:	00 00       	nop	
    2368:	00 00       	nop	
    236a:	05 02       	xorc	#0x2,ccr
    236c:	00 40       	.word	H'0,H'40
    236e:	36 8e       	mov.b	r6h,@0x8e:8
    2370:	36 00       	mov.b	r6h,@0x0:8
    2372:	05 02       	xorc	#0x2,ccr
    2374:	00 40       	.word	H'0,H'40
    2376:	36 a0       	mov.b	r6h,@0xa0:8
    2378:	19 00       	sub.w	r0,r0
    237a:	05 02       	xorc	#0x2,ccr
    237c:	00 40       	.word	H'0,H'40
    237e:	36 c0       	mov.b	r6h,@0xc0:8
    2380:	18 00       	sub.b	r0h,r0h
    2382:	05 02       	xorc	#0x2,ccr
    2384:	00 40       	.word	H'0,H'40
    2386:	36 d8       	mov.b	r6h,@0xd8:8
    2388:	19 00       	sub.w	r0,r0
    238a:	05 02       	xorc	#0x2,ccr
    238c:	00 40       	.word	H'0,H'40
    238e:	36 e0       	mov.b	r6h,@0xe0:8
    2390:	00 02       	.word	H'0,H'2
    2392:	04 03       	orc	#0x3,ccr
    2394:	18 00       	sub.b	r0h,r0h
    2396:	05 02       	xorc	#0x2,ccr
    2398:	00 40       	.word	H'0,H'40
    239a:	37 0e       	mov.b	r7h,@0xe:8
    239c:	16 00       	and.b	r0h,r0h
    239e:	05 02       	xorc	#0x2,ccr
    23a0:	00 40       	.word	H'0,H'40
    23a2:	37 18       	mov.b	r7h,@0x18:8
    23a4:	00 02       	.word	H'0,H'2
    23a6:	04 01       	orc	#0x1,ccr
    23a8:	06 01       	andc	#0x1,ccr
    23aa:	00 05       	.word	H'0,H'5
    23ac:	02 00       	stc	ccr,r0h
    23ae:	40 37       	bra/s	.+54 (0x23e6)
    23b0:	2a 00       	mov.b	@0x0:8,r2l
    23b2:	02 04       	stc	ccr,r4h
    23b4:	00 06       	.word	H'0,H'6
    23b6:	19 00       	sub.w	r0,r0
    23b8:	05 02       	xorc	#0x2,ccr
    23ba:	00 40       	.word	H'0,H'40
    23bc:	37 36       	mov.b	r7h,@0x36:8
    23be:	1b 00       	subs	#1,er0
    23c0:	05 02       	xorc	#0x2,ccr
    23c2:	00 40       	.word	H'0,H'40
    23c4:	37 56       	mov.b	r7h,@0x56:8
    23c6:	19 00       	sub.w	r0,r0
    23c8:	05 02       	xorc	#0x2,ccr
    23ca:	00 40       	.word	H'0,H'40
    23cc:	37 60       	mov.b	r7h,@0x60:8
    23ce:	18 00       	sub.b	r0h,r0h
    23d0:	05 02       	xorc	#0x2,ccr
    23d2:	00 40       	.word	H'0,H'40
    23d4:	37 74       	mov.b	r7h,@0x74:8
    23d6:	18 00       	sub.b	r0h,r0h
    23d8:	05 02       	xorc	#0x2,ccr
    23da:	00 40       	.word	H'0,H'40
    23dc:	37 a0       	mov.b	r7h,@0xa0:8
    23de:	00 02       	.word	H'0,H'2
    23e0:	04 02       	orc	#0x2,ccr
    23e2:	18 00       	sub.b	r0h,r0h
    23e4:	05 02       	xorc	#0x2,ccr
    23e6:	00 40       	.word	H'0,H'40
    23e8:	37 da       	mov.b	r7h,@0xda:8
    23ea:	14 00       	or.b	r0h,r0h
    23ec:	05 02       	xorc	#0x2,ccr
    23ee:	00 40       	.word	H'0,H'40
    23f0:	37 e4       	mov.b	r7h,@0xe4:8
    23f2:	00 02       	.word	H'0,H'2
    23f4:	04 01       	orc	#0x1,ccr
    23f6:	06 01       	andc	#0x1,ccr
    23f8:	00 05       	.word	H'0,H'5
    23fa:	02 00       	stc	ccr,r0h
    23fc:	40 37       	bra/s	.+54 (0x2434)
    23fe:	f2 00       	mov.b	#0x0,r2h
    2400:	02 04       	stc	ccr,r4h
    2402:	00 06       	.word	H'0,H'6
    2404:	21 00       	mov.b	@0x0:8,r1h
    2406:	05 02       	xorc	#0x2,ccr
    2408:	00 40       	.word	H'0,H'40
    240a:	38 00       	mov.b	r0l,@0x0:8
    240c:	00 02       	.word	H'0,H'2
    240e:	04 01       	orc	#0x1,ccr
    2410:	06 01       	andc	#0x1,ccr
    2412:	00 05       	.word	H'0,H'5
    2414:	02 00       	stc	ccr,r0h
    2416:	40 38       	bra	.+56 (0x2450)
    2418:	16 00       	and.b	r0h,r0h
    241a:	02 04       	stc	ccr,r4h
    241c:	00 06       	.word	H'0,H'6
    241e:	18 00       	sub.b	r0h,r0h
    2420:	05 02       	xorc	#0x2,ccr
    2422:	00 40       	.word	H'0,H'40
    2424:	38 26       	mov.b	r0l,@0x26:8
    2426:	18 00       	sub.b	r0h,r0h
    2428:	05 02       	xorc	#0x2,ccr
    242a:	00 40       	.word	H'0,H'40
    242c:	38 32       	mov.b	r0l,@0x32:8
    242e:	19 00       	sub.w	r0,r0
    2430:	05 02       	xorc	#0x2,ccr
    2432:	00 40       	.word	H'0,H'40
    2434:	38 44       	mov.b	r0l,@0x44:8
    2436:	24 00       	mov.b	@0x0:8,r4h
    2438:	05 02       	xorc	#0x2,ccr
    243a:	00 40       	.word	H'0,H'40
    243c:	38 56       	mov.b	r0l,@0x56:8
    243e:	1b 00       	subs	#1,er0
    2440:	05 02       	xorc	#0x2,ccr
    2442:	00 40       	.word	H'0,H'40
    2444:	38 6e       	mov.b	r0l,@0x6e:8
    2446:	18 00       	sub.b	r0h,r0h
    2448:	05 02       	xorc	#0x2,ccr
    244a:	00 40       	.word	H'0,H'40
    244c:	38 84       	mov.b	r0l,@0x84:8
    244e:	18 00       	sub.b	r0h,r0h
    2450:	05 02       	xorc	#0x2,ccr
    2452:	00 40       	.word	H'0,H'40
    2454:	38 8c       	mov.b	r0l,@0x8c:8
    2456:	18 00       	sub.b	r0h,r0h
    2458:	05 02       	xorc	#0x2,ccr
    245a:	00 40       	.word	H'0,H'40
    245c:	38 92       	mov.b	r0l,@0x92:8
    245e:	19 00       	sub.w	r0,r0
    2460:	05 02       	xorc	#0x2,ccr
    2462:	00 40       	.word	H'0,H'40
    2464:	38 aa       	mov.b	r0l,@0xaa:8
    2466:	19 00       	sub.w	r0,r0
    2468:	05 02       	xorc	#0x2,ccr
    246a:	00 40       	.word	H'0,H'40
    246c:	38 ba       	mov.b	r0l,@0xba:8
    246e:	18 00       	sub.b	r0h,r0h
    2470:	05 02       	xorc	#0x2,ccr
    2472:	00 40       	.word	H'0,H'40
    2474:	38 c2       	mov.b	r0l,@0xc2:8
    2476:	19 00       	sub.w	r0,r0
    2478:	05 02       	xorc	#0x2,ccr
    247a:	00 40       	.word	H'0,H'40
    247c:	38 f2       	mov.b	r0l,@0xf2:8
    247e:	1e 00       	subx	r0h,r0h
    2480:	05 02       	xorc	#0x2,ccr
    2482:	00 40       	.word	H'0,H'40
    2484:	39 00       	mov.b	r1l,@0x0:8
    2486:	18 00       	sub.b	r0h,r0h
    2488:	05 02       	xorc	#0x2,ccr
    248a:	00 40       	.word	H'0,H'40
    248c:	39 2a       	mov.b	r1l,@0x2a:8
    248e:	18 00       	sub.b	r0h,r0h
    2490:	05 02       	xorc	#0x2,ccr
    2492:	00 40       	.word	H'0,H'40
    2494:	39 42       	mov.b	r1l,@0x42:8
    2496:	18 00       	sub.b	r0h,r0h
    2498:	05 02       	xorc	#0x2,ccr
    249a:	00 40       	.word	H'0,H'40
    249c:	39 4e       	mov.b	r1l,@0x4e:8
    249e:	1c 00       	cmp.b	r0h,r0h
    24a0:	05 02       	xorc	#0x2,ccr
    24a2:	00 40       	.word	H'0,H'40
    24a4:	39 64       	mov.b	r1l,@0x64:8
    24a6:	18 00       	sub.b	r0h,r0h
    24a8:	05 02       	xorc	#0x2,ccr
    24aa:	00 40       	.word	H'0,H'40
    24ac:	39 72       	mov.b	r1l,@0x72:8
    24ae:	00 02       	.word	H'0,H'2
    24b0:	04 01       	orc	#0x1,ccr
    24b2:	06 01       	andc	#0x1,ccr
    24b4:	00 05       	.word	H'0,H'5
    24b6:	02 00       	stc	ccr,r0h
    24b8:	40 39       	bra/s	.+56 (0x24f2)
    24ba:	80 00       	add.b	#0x0,r0h
    24bc:	02 04       	stc	ccr,r4h
    24be:	00 06       	.word	H'0,H'6
    24c0:	19 00       	sub.w	r0,r0
    24c2:	05 02       	xorc	#0x2,ccr
    24c4:	00 40       	.word	H'0,H'40
    24c6:	39 92       	mov.b	r1l,@0x92:8
    24c8:	1a 00       	dec.b	r0h
    24ca:	05 02       	xorc	#0x2,ccr
    24cc:	00 40       	.word	H'0,H'40
    24ce:	39 9e       	mov.b	r1l,@0x9e:8
    24d0:	1b 00       	subs	#1,er0
    24d2:	05 02       	xorc	#0x2,ccr
    24d4:	00 40       	.word	H'0,H'40
    24d6:	39 a0       	mov.b	r1l,@0xa0:8
    24d8:	18 00       	sub.b	r0h,r0h
    24da:	05 02       	xorc	#0x2,ccr
    24dc:	00 40       	.word	H'0,H'40
    24de:	39 ae       	mov.b	r1l,@0xae:8
    24e0:	1b 00       	subs	#1,er0
    24e2:	05 02       	xorc	#0x2,ccr
    24e4:	00 40       	.word	H'0,H'40
    24e6:	39 ba       	mov.b	r1l,@0xba:8
    24e8:	1b 00       	subs	#1,er0
    24ea:	05 02       	xorc	#0x2,ccr
    24ec:	00 40       	.word	H'0,H'40
    24ee:	39 c2       	mov.b	r1l,@0xc2:8
    24f0:	18 00       	sub.b	r0h,r0h
    24f2:	05 02       	xorc	#0x2,ccr
    24f4:	00 40       	.word	H'0,H'40
    24f6:	39 dc       	mov.b	r1l,@0xdc:8
    24f8:	18 00       	sub.b	r0h,r0h
    24fa:	05 02       	xorc	#0x2,ccr
    24fc:	00 40       	.word	H'0,H'40
    24fe:	39 ea       	mov.b	r1l,@0xea:8
    2500:	18 00       	sub.b	r0h,r0h
    2502:	05 02       	xorc	#0x2,ccr
    2504:	00 40       	.word	H'0,H'40
    2506:	3a 00       	mov.b	r2l,@0x0:8
    2508:	00 02       	.word	H'0,H'2
    250a:	04 01       	orc	#0x1,ccr
    250c:	18 00       	sub.b	r0h,r0h
    250e:	05 02       	xorc	#0x2,ccr
    2510:	00 40       	.word	H'0,H'40
    2512:	3a 12       	mov.b	r2l,@0x12:8
    2514:	16 00       	and.b	r0h,r0h
    2516:	05 02       	xorc	#0x2,ccr
    2518:	00 40       	.word	H'0,H'40
    251a:	3a 16       	mov.b	r2l,@0x16:8
    251c:	00 02       	.word	H'0,H'2
    251e:	04 00       	orc	#0x0,ccr
    2520:	1a 00       	dec.b	r0h
    2522:	05 02       	xorc	#0x2,ccr
    2524:	00 40       	.word	H'0,H'40
    2526:	3a 22       	mov.b	r2l,@0x22:8
    2528:	00 02       	.word	H'0,H'2
    252a:	04 02       	orc	#0x2,ccr
    252c:	11 00       	shlr.b	r0h
    252e:	05 02       	xorc	#0x2,ccr
    2530:	00 40       	.word	H'0,H'40
    2532:	3a 2c       	mov.b	r2l,@0x2c:8
    2534:	00 02       	.word	H'0,H'2
    2536:	04 01       	orc	#0x1,ccr
    2538:	06 01       	andc	#0x1,ccr
    253a:	00 05       	.word	H'0,H'5
    253c:	02 00       	stc	ccr,r0h
    253e:	40 3a       	bra	.+58 (0x257a)
    2540:	34 00       	mov.b	r4h,@0x0:8
    2542:	02 04       	stc	ccr,r4h
    2544:	00 06       	.word	H'0,H'6
    2546:	20 00       	mov.b	@0x0:8,r0h
    2548:	05 02       	xorc	#0x2,ccr
    254a:	00 40       	.word	H'0,H'40
    254c:	3a 40       	mov.b	r2l,@0x40:8
    254e:	1a 00       	dec.b	r0h
    2550:	05 02       	xorc	#0x2,ccr
    2552:	00 40       	.word	H'0,H'40
    2554:	3a 46       	mov.b	r2l,@0x46:8
    2556:	18 00       	sub.b	r0h,r0h
    2558:	05 02       	xorc	#0x2,ccr
    255a:	00 40       	.word	H'0,H'40
    255c:	3a 56       	mov.b	r2l,@0x56:8
    255e:	18 00       	sub.b	r0h,r0h
    2560:	05 02       	xorc	#0x2,ccr
    2562:	00 40       	.word	H'0,H'40
    2564:	3a 58       	mov.b	r2l,@0x58:8
    2566:	18 00       	sub.b	r0h,r0h
    2568:	05 02       	xorc	#0x2,ccr
    256a:	00 40       	.word	H'0,H'40
    256c:	3a 60       	mov.b	r2l,@0x60:8
    256e:	1c 00       	cmp.b	r0h,r0h
    2570:	05 02       	xorc	#0x2,ccr
    2572:	00 40       	.word	H'0,H'40
    2574:	3a 7c       	mov.b	r2l,@0x7c:8
    2576:	18 00       	sub.b	r0h,r0h
    2578:	05 02       	xorc	#0x2,ccr
    257a:	00 40       	.word	H'0,H'40
    257c:	3a 94       	mov.b	r2l,@0x94:8
    257e:	2e 00       	mov.b	@0x0:8,r6l
    2580:	05 02       	xorc	#0x2,ccr
    2582:	00 40       	.word	H'0,H'40
    2584:	3a 98       	mov.b	r2l,@0x98:8
    2586:	03 6b       	ldc	er3,vbr
    2588:	01 00       	.word	H'1,H'0
    258a:	05 02       	xorc	#0x2,ccr
    258c:	00 40       	.word	H'0,H'40
    258e:	3a a8       	mov.b	r2l,@0xa8:8
    2590:	18 00       	sub.b	r0h,r0h
    2592:	05 02       	xorc	#0x2,ccr
    2594:	00 40       	.word	H'0,H'40
    2596:	3a c4       	mov.b	r2l,@0xc4:8
    2598:	18 00       	sub.b	r0h,r0h
    259a:	05 02       	xorc	#0x2,ccr
    259c:	00 40       	.word	H'0,H'40
    259e:	3a da       	mov.b	r2l,@0xda:8
    25a0:	18 00       	sub.b	r0h,r0h
    25a2:	05 02       	xorc	#0x2,ccr
    25a4:	00 40       	.word	H'0,H'40
    25a6:	3a f0       	mov.b	r2l,@0xf0:8
    25a8:	18 00       	sub.b	r0h,r0h
    25aa:	05 02       	xorc	#0x2,ccr
    25ac:	00 40       	.word	H'0,H'40
    25ae:	3a fc       	mov.b	r2l,@0xfc:8
    25b0:	18 00       	sub.b	r0h,r0h
    25b2:	05 02       	xorc	#0x2,ccr
    25b4:	00 40       	.word	H'0,H'40
    25b6:	3b 08       	mov.b	r3l,@0x8:8
    25b8:	18 00       	sub.b	r0h,r0h
    25ba:	05 02       	xorc	#0x2,ccr
    25bc:	00 40       	.word	H'0,H'40
    25be:	3b 18       	mov.b	r3l,@0x18:8
    25c0:	18 00       	sub.b	r0h,r0h
    25c2:	05 02       	xorc	#0x2,ccr
    25c4:	00 40       	.word	H'0,H'40
    25c6:	3b 28       	mov.b	r3l,@0x28:8
    25c8:	18 00       	sub.b	r0h,r0h
    25ca:	05 02       	xorc	#0x2,ccr
    25cc:	00 40       	.word	H'0,H'40
    25ce:	3b 2a       	mov.b	r3l,@0x2a:8
    25d0:	1e 00       	subx	r0h,r0h
    25d2:	05 02       	xorc	#0x2,ccr
    25d4:	00 40       	.word	H'0,H'40
    25d6:	3b 2c       	mov.b	r3l,@0x2c:8
    25d8:	18 00       	sub.b	r0h,r0h
    25da:	05 02       	xorc	#0x2,ccr
    25dc:	00 40       	.word	H'0,H'40
    25de:	3b 4e       	mov.b	r3l,@0x4e:8
    25e0:	18 00       	sub.b	r0h,r0h
    25e2:	05 02       	xorc	#0x2,ccr
    25e4:	00 40       	.word	H'0,H'40
    25e6:	3b 50       	mov.b	r3l,@0x50:8
    25e8:	18 00       	sub.b	r0h,r0h
    25ea:	05 02       	xorc	#0x2,ccr
    25ec:	00 40       	.word	H'0,H'40
    25ee:	3b 52       	mov.b	r3l,@0x52:8
    25f0:	1d 00       	cmp.w	r0,r0
    25f2:	05 02       	xorc	#0x2,ccr
    25f4:	00 40       	.word	H'0,H'40
    25f6:	3b 54       	mov.b	r3l,@0x54:8
    25f8:	18 00       	sub.b	r0h,r0h
    25fa:	05 02       	xorc	#0x2,ccr
    25fc:	00 40       	.word	H'0,H'40
    25fe:	3b 62       	mov.b	r3l,@0x62:8
    2600:	1a 00       	dec.b	r0h
    2602:	05 02       	xorc	#0x2,ccr
    2604:	00 40       	.word	H'0,H'40
    2606:	3b 7c       	mov.b	r3l,@0x7c:8
    2608:	1c 00       	cmp.b	r0h,r0h
    260a:	05 02       	xorc	#0x2,ccr
    260c:	00 40       	.word	H'0,H'40
    260e:	3b 80       	mov.b	r3l,@0x80:8
    2610:	18 00       	sub.b	r0h,r0h
    2612:	05 02       	xorc	#0x2,ccr
    2614:	00 40       	.word	H'0,H'40
    2616:	3b 8e       	mov.b	r3l,@0x8e:8
    2618:	00 02       	.word	H'0,H'2
    261a:	04 01       	orc	#0x1,ccr
    261c:	1a 00       	dec.b	r0h
    261e:	05 02       	xorc	#0x2,ccr
    2620:	00 40       	.word	H'0,H'40
    2622:	3b ae       	mov.b	r3l,@0xae:8
    2624:	18 00       	sub.b	r0h,r0h
    2626:	05 02       	xorc	#0x2,ccr
    2628:	00 40       	.word	H'0,H'40
    262a:	3b c0       	mov.b	r3l,@0xc0:8
    262c:	18 00       	sub.b	r0h,r0h
    262e:	05 02       	xorc	#0x2,ccr
    2630:	00 40       	.word	H'0,H'40
    2632:	3c 0a       	mov.b	r4l,@0xa:8
    2634:	18 00       	sub.b	r0h,r0h
    2636:	05 02       	xorc	#0x2,ccr
    2638:	00 40       	.word	H'0,H'40
    263a:	3c 16       	mov.b	r4l,@0x16:8
    263c:	14 00       	or.b	r0h,r0h
    263e:	05 02       	xorc	#0x2,ccr
    2640:	00 40       	.word	H'0,H'40
    2642:	3c 1a       	mov.b	r4l,@0x1a:8
    2644:	00 01       	.word	H'0,H'1
    2646:	01        	.word	H'1,H'0

00002647 <.Ldebug_line0>:
    2647:	00 00       	nop	
    2649:	02 59       	.word	H'2,H'59
    264b:	00 04       	.word	H'0,H'4
    264d:	00 00       	nop	
    264f:	00 4c       	.word	H'0,H'4c
    2651:	01 01       	.word	H'1,H'1
    2653:	01 f6       	.word	H'1,H'f6
    2655:	f2 0d       	mov.b	#0xd,r2h
    2657:	00 01       	.word	H'0,H'1
    2659:	01 01       	.word	H'1,H'1
    265b:	01 00       	.word	H'1,H'0
    265d:	00 00       	nop	
    265f:	01 00       	.word	H'1,H'0
    2661:	00 01       	.word	H'0,H'1
    2663:	00 74       	.word	H'0,H'74
    2665:	69 6d       	mov.w	@er6,e5
    2667:	65 72       	xor.w	r7,r2
    2669:	64 72       	or.w	r7,r2
    266b:	76 2e       	band	#0x2,r6l
    266d:	63 00       	btst	r0h,r0h
    266f:	00 00       	nop	
    2671:	00 74       	.word	H'0,H'74
    2673:	69 6d       	mov.w	@er6,e5
    2675:	65 72       	xor.w	r7,r2
    2677:	64 72       	or.w	r7,r2
    2679:	76 2e       	band	#0x2,r6l
    267b:	68 00       	mov.b	@er0,r0h
    267d:	00 00       	nop	
    267f:	00 64       	.word	H'0,H'64
    2681:	65 66       	xor.w	r6,r6
    2683:	69 6e       	mov.w	@er6,e6
    2685:	65 73       	xor.w	r7,r3
    2687:	2e 68       	mov.b	@0x68:8,r6l
    2689:	00 00       	nop	
    268b:	00 00       	nop	
    268d:	69 6e       	mov.w	@er6,e6
    268f:	74 65       	bor	#0x6,r5h
    2691:	72 72       	bclr	#0x7,r2h
    2693:	75 70       	bxor	#0x7,r0h
    2695:	74 2e       	bor	#0x2,r6l
    2697:	68 00       	mov.b	@er0,r0h
    2699:	00 00       	nop	
    269b:	00 00       	nop	
    269d:	00 05       	.word	H'0,H'5
    269f:	02 00       	stc	ccr,r0h
    26a1:	40 3c       	bra	.+60 (0x26df)
    26a3:	1a 36       	sub.w	#0x3,r6
    26a5:	00 05       	.word	H'0,H'5
    26a7:	02 00       	stc	ccr,r0h
    26a9:	40 3c       	bra	.+60 (0x26e7)
    26ab:	22 18       	mov.b	@0x18:8,r2h
    26ad:	00 05       	.word	H'0,H'5
    26af:	02 00       	stc	ccr,r0h
    26b1:	40 3c       	bra	.+60 (0x26ef)
    26b3:	2e 19       	mov.b	@0x19:8,r6l
    26b5:	00 05       	.word	H'0,H'5
    26b7:	02 00       	stc	ccr,r0h
    26b9:	40 3c       	bra	.+60 (0x26f7)
    26bb:	44 18       	bcc	.+24 (0x26d5)
    26bd:	00 05       	.word	H'0,H'5
    26bf:	02 00       	stc	ccr,r0h
    26c1:	40 3c       	bra	.+60 (0x26ff)
    26c3:	54 18       	.word	H'54,H'18
    26c5:	00 05       	.word	H'0,H'5
    26c7:	02 00       	stc	ccr,r0h
    26c9:	40 3c       	bra	.+60 (0x2707)
    26cb:	62 19       	bclr	r1h,r1l
    26cd:	00 05       	.word	H'0,H'5
    26cf:	02 00       	stc	ccr,r0h
    26d1:	40 3c       	bra	.+60 (0x270f)
    26d3:	6c 1b       	mov.b	@er1+,r3l
    26d5:	00 05       	.word	H'0,H'5
    26d7:	02 00       	stc	ccr,r0h
    26d9:	40 3c       	bra	.+60 (0x2717)
    26db:	72 18       	bclr	#0x1,r0l
    26dd:	00 05       	.word	H'0,H'5
    26df:	02 00       	stc	ccr,r0h
    26e1:	40 3c       	bra	.+60 (0x271f)
    26e3:	82 18       	add.b	#0x18,r2h
    26e5:	00 05       	.word	H'0,H'5
    26e7:	02 00       	stc	ccr,r0h
    26e9:	40 3c       	bra	.+60 (0x2727)
    26eb:	8c 18       	add.b	#0x18,r4l
    26ed:	00 05       	.word	H'0,H'5
    26ef:	02 00       	stc	ccr,r0h
    26f1:	40 3c       	bra	.+60 (0x272f)
    26f3:	8e 18       	add.b	#0x18,r6l
    26f5:	00 05       	.word	H'0,H'5
    26f7:	02 00       	stc	ccr,r0h
    26f9:	40 3c       	bra	.+60 (0x2737)
    26fb:	96 1b       	addx	#0x1b,r6h
    26fd:	00 05       	.word	H'0,H'5
    26ff:	02 00       	stc	ccr,r0h
    2701:	40 3c       	bra	.+60 (0x273f)
    2703:	b2 1d       	subx	#0x1d,r2h
    2705:	00 05       	.word	H'0,H'5
    2707:	02 00       	stc	ccr,r0h
    2709:	40 3c       	bra	.+60 (0x2747)
    270b:	c4 5c       	or.b	#0x5c,r4h
    270d:	00 05       	.word	H'0,H'5
    270f:	02 00       	stc	ccr,r0h
    2711:	40 3c       	bra	.+60 (0x274f)
    2713:	c8 03       	or.b	#0x3,r0l
    2715:	be 7f       	subx	#0x7f,r6l
    2717:	01 00       	.word	H'1,H'0
    2719:	05 02       	xorc	#0x2,ccr
    271b:	00 40       	.word	H'0,H'40
    271d:	3c d8       	mov.b	r4l,@0xd8:8
    271f:	19 00       	sub.w	r0,r0
    2721:	05 02       	xorc	#0x2,ccr
    2723:	00 40       	.word	H'0,H'40
    2725:	3c e4       	mov.b	r4l,@0xe4:8
    2727:	19 00       	sub.w	r0,r0
    2729:	05 02       	xorc	#0x2,ccr
    272b:	00 40       	.word	H'0,H'40
    272d:	3c f8       	mov.b	r4l,@0xf8:8
    272f:	19 00       	sub.w	r0,r0
    2731:	05 02       	xorc	#0x2,ccr
    2733:	00 40       	.word	H'0,H'40
    2735:	3d 0c       	mov.b	r5l,@0xc:8
    2737:	18 00       	sub.b	r0h,r0h
    2739:	05 02       	xorc	#0x2,ccr
    273b:	00 40       	.word	H'0,H'40
    273d:	3d 18       	mov.b	r5l,@0x18:8
    273f:	19 00       	sub.w	r0,r0
    2741:	05 02       	xorc	#0x2,ccr
    2743:	00 40       	.word	H'0,H'40
    2745:	3d 28       	mov.b	r5l,@0x28:8
    2747:	18 00       	sub.b	r0h,r0h
    2749:	05 02       	xorc	#0x2,ccr
    274b:	00 40       	.word	H'0,H'40
    274d:	3d 4a       	mov.b	r5l,@0x4a:8
    274f:	19 00       	sub.w	r0,r0
    2751:	05 02       	xorc	#0x2,ccr
    2753:	00 40       	.word	H'0,H'40
    2755:	3d 4e       	mov.b	r5l,@0x4e:8
    2757:	1a 00       	dec.b	r0h
    2759:	05 02       	xorc	#0x2,ccr
    275b:	00 40       	.word	H'0,H'40
    275d:	3d 5a       	mov.b	r5l,@0x5a:8
    275f:	1a 00       	dec.b	r0h
    2761:	05 02       	xorc	#0x2,ccr
    2763:	00 40       	.word	H'0,H'40
    2765:	3d 68       	mov.b	r5l,@0x68:8
    2767:	18 00       	sub.b	r0h,r0h
    2769:	05 02       	xorc	#0x2,ccr
    276b:	00 40       	.word	H'0,H'40
    276d:	3d 74       	mov.b	r5l,@0x74:8
    276f:	18 00       	sub.b	r0h,r0h
    2771:	05 02       	xorc	#0x2,ccr
    2773:	00 40       	.word	H'0,H'40
    2775:	3d 86       	mov.b	r5l,@0x86:8
    2777:	18 00       	sub.b	r0h,r0h
    2779:	05 02       	xorc	#0x2,ccr
    277b:	00 40       	.word	H'0,H'40
    277d:	3d 9a       	mov.b	r5l,@0x9a:8
    277f:	19 00       	sub.w	r0,r0
    2781:	05 02       	xorc	#0x2,ccr
    2783:	00 40       	.word	H'0,H'40
    2785:	3d a0       	mov.b	r5l,@0xa0:8
    2787:	19 00       	sub.w	r0,r0
    2789:	05 02       	xorc	#0x2,ccr
    278b:	00 40       	.word	H'0,H'40
    278d:	3d ae       	mov.b	r5l,@0xae:8
    278f:	19 00       	sub.w	r0,r0
    2791:	05 02       	xorc	#0x2,ccr
    2793:	00 40       	.word	H'0,H'40
    2795:	3d c2       	mov.b	r5l,@0xc2:8
    2797:	1a 00       	dec.b	r0h
    2799:	05 02       	xorc	#0x2,ccr
    279b:	00 40       	.word	H'0,H'40
    279d:	3d ce       	mov.b	r5l,@0xce:8
    279f:	19 00       	sub.w	r0,r0
    27a1:	05 02       	xorc	#0x2,ccr
    27a3:	00 40       	.word	H'0,H'40
    27a5:	3d dc       	mov.b	r5l,@0xdc:8
    27a7:	19 00       	sub.w	r0,r0
    27a9:	05 02       	xorc	#0x2,ccr
    27ab:	00 40       	.word	H'0,H'40
    27ad:	3d ec       	mov.b	r5l,@0xec:8
    27af:	19 00       	sub.w	r0,r0
    27b1:	05 02       	xorc	#0x2,ccr
    27b3:	00 40       	.word	H'0,H'40
    27b5:	3d fe       	mov.b	r5l,@0xfe:8
    27b7:	18 00       	sub.b	r0h,r0h
    27b9:	05 02       	xorc	#0x2,ccr
    27bb:	00 40       	.word	H'0,H'40
    27bd:	3e 20       	mov.b	r6l,@0x20:8
    27bf:	18 00       	sub.b	r0h,r0h
    27c1:	05 02       	xorc	#0x2,ccr
    27c3:	00 40       	.word	H'0,H'40
    27c5:	3e 24       	mov.b	r6l,@0x24:8
    27c7:	1a 00       	dec.b	r0h
    27c9:	05 02       	xorc	#0x2,ccr
    27cb:	00 40       	.word	H'0,H'40
    27cd:	3e 40       	mov.b	r6l,@0x40:8
    27cf:	19 00       	sub.w	r0,r0
    27d1:	05 02       	xorc	#0x2,ccr
    27d3:	00 40       	.word	H'0,H'40
    27d5:	3e 48       	mov.b	r6l,@0x48:8
    27d7:	00 02       	.word	H'0,H'2
    27d9:	04 01       	orc	#0x1,ccr
    27db:	06 01       	andc	#0x1,ccr
    27dd:	00 05       	.word	H'0,H'5
    27df:	02 00       	stc	ccr,r0h
    27e1:	40 3e       	bra	.+62 (0x2821)
    27e3:	4e 00       	bgt	.0 (0x27e5)
    27e5:	02 04       	stc	ccr,r4h
    27e7:	00 06       	.word	H'0,H'6
    27e9:	1a 00       	dec.b	r0h
    27eb:	05 02       	xorc	#0x2,ccr
    27ed:	00 40       	.word	H'0,H'40
    27ef:	3e 60       	mov.b	r6l,@0x60:8
    27f1:	19 00       	sub.w	r0,r0
    27f3:	05 02       	xorc	#0x2,ccr
    27f5:	00 40       	.word	H'0,H'40
    27f7:	3e 82       	mov.b	r6l,@0x82:8
    27f9:	19 00       	sub.w	r0,r0
    27fb:	05 02       	xorc	#0x2,ccr
    27fd:	00 40       	.word	H'0,H'40
    27ff:	3e 96       	mov.b	r6l,@0x96:8
    2801:	18 00       	sub.b	r0h,r0h
    2803:	05 02       	xorc	#0x2,ccr
    2805:	00 40       	.word	H'0,H'40
    2807:	3e a6       	mov.b	r6l,@0xa6:8
    2809:	19 00       	sub.w	r0,r0
    280b:	05 02       	xorc	#0x2,ccr
    280d:	00 40       	.word	H'0,H'40
    280f:	3e c8       	mov.b	r6l,@0xc8:8
    2811:	18 00       	sub.b	r0h,r0h
    2813:	05 02       	xorc	#0x2,ccr
    2815:	00 40       	.word	H'0,H'40
    2817:	3e ca       	mov.b	r6l,@0xca:8
    2819:	1b 00       	subs	#1,er0
    281b:	05 02       	xorc	#0x2,ccr
    281d:	00 40       	.word	H'0,H'40
    281f:	3e d0       	mov.b	r6l,@0xd0:8
    2821:	18 00       	sub.b	r0h,r0h
    2823:	05 02       	xorc	#0x2,ccr
    2825:	00 40       	.word	H'0,H'40
    2827:	3e ea       	mov.b	r6l,@0xea:8
    2829:	03 63       	ldc	er3,vbr
    282b:	01 00       	.word	H'1,H'0
    282d:	05 02       	xorc	#0x2,ccr
    282f:	00 40       	.word	H'0,H'40
    2831:	3e fa       	mov.b	r6l,@0xfa:8
    2833:	19 00       	sub.w	r0,r0
    2835:	05 02       	xorc	#0x2,ccr
    2837:	00 40       	.word	H'0,H'40
    2839:	3e fe       	mov.b	r6l,@0xfe:8
    283b:	1d 00       	cmp.w	r0,r0
    283d:	05 02       	xorc	#0x2,ccr
    283f:	00 40       	.word	H'0,H'40
    2841:	3f 00       	mov.b	r7l,@0x0:8
    2843:	2f 00       	mov.b	@0x0:8,r7l
    2845:	05 02       	xorc	#0x2,ccr
    2847:	00 40       	.word	H'0,H'40
    2849:	3f 0c       	mov.b	r7l,@0xc:8
    284b:	18 00       	sub.b	r0h,r0h
    284d:	05 02       	xorc	#0x2,ccr
    284f:	00 40       	.word	H'0,H'40
    2851:	3f 0e       	mov.b	r7l,@0xe:8
    2853:	03 4d       	.word	H'3,H'4d
    2855:	01 00       	.word	H'1,H'0
    2857:	05 02       	xorc	#0x2,ccr
    2859:	00 40       	.word	H'0,H'40
    285b:	3f 10       	mov.b	r7l,@0x10:8
    285d:	50 00       	mulxu.b	r0h,r0
    285f:	05 02       	xorc	#0x2,ccr
    2861:	00 40       	.word	H'0,H'40
    2863:	3f 12       	mov.b	r7l,@0x12:8
    2865:	18 00       	sub.b	r0h,r0h
    2867:	05 02       	xorc	#0x2,ccr
    2869:	00 40       	.word	H'0,H'40
    286b:	3f 20       	mov.b	r7l,@0x20:8
    286d:	1a 00       	dec.b	r0h
    286f:	05 02       	xorc	#0x2,ccr
    2871:	00 40       	.word	H'0,H'40
    2873:	3f 36       	mov.b	r7l,@0x36:8
    2875:	1b 00       	subs	#1,er0
    2877:	05 02       	xorc	#0x2,ccr
    2879:	00 40       	.word	H'0,H'40
    287b:	3f 3a       	mov.b	r7l,@0x3a:8
    287d:	18 00       	sub.b	r0h,r0h
    287f:	05 02       	xorc	#0x2,ccr
    2881:	00 40       	.word	H'0,H'40
    2883:	3f 48       	mov.b	r7l,@0x48:8
    2885:	00 02       	.word	H'0,H'2
    2887:	04 01       	orc	#0x1,ccr
    2889:	1b 00       	subs	#1,er0
    288b:	05 02       	xorc	#0x2,ccr
    288d:	00 40       	.word	H'0,H'40
    288f:	3f 5c       	mov.b	r7l,@0x5c:8
    2891:	18 00       	sub.b	r0h,r0h
    2893:	05 02       	xorc	#0x2,ccr
    2895:	00 40       	.word	H'0,H'40
    2897:	3f 72       	mov.b	r7l,@0x72:8
    2899:	16 00       	and.b	r0h,r0h
    289b:	05 02       	xorc	#0x2,ccr
    289d:	00 40       	.word	H'0,H'40
    289f:	3f 74       	mov.b	r7l,@0x74:8
    28a1:	00 01       	.word	H'0,H'1
    28a3:	01        	.word	H'1,H'0

000028a4 <.Ldebug_line0>:
    28a4:	00 00       	nop	
    28a6:	01 3a       	.word	H'1,H'3a
    28a8:	00 04       	.word	H'0,H'4
    28aa:	00 00       	nop	
    28ac:	00 3e       	.word	H'0,H'3e
    28ae:	01 01       	.word	H'1,H'1
    28b0:	01 f6       	.word	H'1,H'f6
    28b2:	f2 0d       	mov.b	#0xd,r2h
    28b4:	00 01       	.word	H'0,H'1
    28b6:	01 01       	.word	H'1,H'1
    28b8:	01 00       	.word	H'1,H'0
    28ba:	00 00       	nop	
    28bc:	01 00       	.word	H'1,H'0
    28be:	00 01       	.word	H'0,H'1
    28c0:	00 65       	.word	H'0,H'65
    28c2:	74 68       	bor	#0x6,r0l
    28c4:	65 72       	xor.w	r7,r2
    28c6:	64 72       	or.w	r7,r2
    28c8:	76 2e       	band	#0x2,r6l
    28ca:	63 00       	btst	r0h,r0h
    28cc:	00 00       	nop	
    28ce:	00 64       	.word	H'0,H'64
    28d0:	65 66       	xor.w	r6,r6
    28d2:	69 6e       	mov.w	@er6,e6
    28d4:	65 73       	xor.w	r7,r3
    28d6:	2e 68       	mov.b	@0x68:8,r6l
    28d8:	00 00       	nop	
    28da:	00 00       	nop	
    28dc:	69 6e       	mov.w	@er6,e6
    28de:	74 65       	bor	#0x6,r5h
    28e0:	72 72       	bclr	#0x7,r2h
    28e2:	75 70       	bxor	#0x7,r0h
    28e4:	74 2e       	bor	#0x2,r6l
    28e6:	68 00       	mov.b	@er0,r0h
    28e8:	00 00       	nop	
    28ea:	00 00       	nop	
    28ec:	00 05       	.word	H'0,H'5
    28ee:	02 00       	stc	ccr,r0h
    28f0:	40 3f       	bra/s	.+62 (0x2930)
    28f2:	74 23       	bor	#0x2,r3h
    28f4:	00 05       	.word	H'0,H'5
    28f6:	02 00       	stc	ccr,r0h
    28f8:	40 3f       	bra/s	.+62 (0x2938)
    28fa:	80 1e       	add.b	#0x1e,r0h
    28fc:	00 05       	.word	H'0,H'5
    28fe:	02 00       	stc	ccr,r0h
    2900:	40 3f       	bra/s	.+62 (0x2940)
    2902:	8c 18       	add.b	#0x18,r4l
    2904:	00 05       	.word	H'0,H'5
    2906:	02 00       	stc	ccr,r0h
    2908:	40 3f       	bra/s	.+62 (0x2948)
    290a:	9a 18       	addx	#0x18,r2l
    290c:	00 05       	.word	H'0,H'5
    290e:	02 00       	stc	ccr,r0h
    2910:	40 3f       	bra/s	.+62 (0x2950)
    2912:	ac 18       	cmp.b	#0x18,r4l
    2914:	00 05       	.word	H'0,H'5
    2916:	02 00       	stc	ccr,r0h
    2918:	40 3f       	bra/s	.+62 (0x2958)
    291a:	b4 19       	subx	#0x19,r4h
    291c:	00 05       	.word	H'0,H'5
    291e:	02 00       	stc	ccr,r0h
    2920:	40 3f       	bra/s	.+62 (0x2960)
    2922:	c8 1b       	or.b	#0x1b,r0l
    2924:	00 05       	.word	H'0,H'5
    2926:	02 00       	stc	ccr,r0h
    2928:	40 3f       	bra/s	.+62 (0x2968)
    292a:	ca 15       	or.b	#0x15,r2l
    292c:	00 05       	.word	H'0,H'5
    292e:	02 00       	stc	ccr,r0h
    2930:	40 3f       	bra/s	.+62 (0x2970)
    2932:	d6 19       	xor.b	#0x19,r6h
    2934:	00 05       	.word	H'0,H'5
    2936:	02 00       	stc	ccr,r0h
    2938:	40 3f       	bra/s	.+62 (0x2978)
    293a:	e2 1b       	and.b	#0x1b,r2h
    293c:	00 05       	.word	H'0,H'5
    293e:	02 00       	stc	ccr,r0h
    2940:	40 3f       	bra/s	.+62 (0x2980)
    2942:	e8 18       	and.b	#0x18,r0l
    2944:	00 05       	.word	H'0,H'5
    2946:	02 00       	stc	ccr,r0h
    2948:	40 3f       	bra/s	.+62 (0x2988)
    294a:	ea 18       	and.b	#0x18,r2l
    294c:	00 05       	.word	H'0,H'5
    294e:	02 00       	stc	ccr,r0h
    2950:	40 3f       	bra/s	.+62 (0x2990)
    2952:	f2 1b       	mov.b	#0x1b,r2h
    2954:	00 05       	.word	H'0,H'5
    2956:	02 00       	stc	ccr,r0h
    2958:	40 40       	bra	.+64 (0x299a)
    295a:	08 19       	add.b	r1h,r1l
    295c:	00 05       	.word	H'0,H'5
    295e:	02 00       	stc	ccr,r0h
    2960:	40 40       	bra	.+64 (0x29a2)
    2962:	1e 23       	subx	r2h,r3h
    2964:	00 05       	.word	H'0,H'5
    2966:	02 00       	stc	ccr,r0h
    2968:	40 40       	bra	.+64 (0x29aa)
    296a:	20 0d       	mov.b	@0xd:8,r0h
    296c:	00 05       	.word	H'0,H'5
    296e:	02 00       	stc	ccr,r0h
    2970:	40 40       	bra	.+64 (0x29b2)
    2972:	26 18       	mov.b	@0x18:8,r6h
    2974:	00 05       	.word	H'0,H'5
    2976:	02 00       	stc	ccr,r0h
    2978:	40 40       	bra	.+64 (0x29ba)
    297a:	2c 18       	mov.b	@0x18:8,r4l
    297c:	00 05       	.word	H'0,H'5
    297e:	02 00       	stc	ccr,r0h
    2980:	40 40       	bra	.+64 (0x29c2)
    2982:	2e 1b       	mov.b	@0x1b:8,r6l
    2984:	00 05       	.word	H'0,H'5
    2986:	02 00       	stc	ccr,r0h
    2988:	40 40       	bra	.+64 (0x29ca)
    298a:	4a 18       	bpl	.+24 (0x29a4)
    298c:	00 05       	.word	H'0,H'5
    298e:	02 00       	stc	ccr,r0h
    2990:	40 40       	bra	.+64 (0x29d2)
    2992:	4c 1d       	.word	H'4c,H'1d
    2994:	00 05       	.word	H'0,H'5
    2996:	02 00       	stc	ccr,r0h
    2998:	40 40       	bra	.+64 (0x29da)
    299a:	4e 18       	bgt	.+24 (0x29b4)
    299c:	00 05       	.word	H'0,H'5
    299e:	02 00       	stc	ccr,r0h
    29a0:	40 40       	bra	.+64 (0x29e2)
    29a2:	5a 1a 00 05 	jmp	@0x1a0005:24
    29a6:	02 00       	stc	ccr,r0h
    29a8:	40 40       	bra	.+64 (0x29ea)
    29aa:	70 1b       	bset	#0x1,r3l
    29ac:	00 05       	.word	H'0,H'5
    29ae:	02 00       	stc	ccr,r0h
    29b0:	40 40       	bra	.+64 (0x29f2)
    29b2:	74 18       	bor	#0x1,r0l
    29b4:	00 05       	.word	H'0,H'5
    29b6:	02 00       	stc	ccr,r0h
    29b8:	40 40       	bra	.+64 (0x29fa)
    29ba:	82 00       	add.b	#0x0,r2h
    29bc:	02 04       	stc	ccr,r4h
    29be:	01 1b       	.word	H'1,H'1b
    29c0:	00 05       	.word	H'0,H'5
    29c2:	02 00       	stc	ccr,r0h
    29c4:	40 40       	bra	.+64 (0x2a06)
    29c6:	96 19       	addx	#0x19,r6h
    29c8:	00 05       	.word	H'0,H'5
    29ca:	02 00       	stc	ccr,r0h
    29cc:	40 40       	bra	.+64 (0x2a0e)
    29ce:	a8 18       	cmp.b	#0x18,r0l
    29d0:	00 05       	.word	H'0,H'5
    29d2:	02 00       	stc	ccr,r0h
    29d4:	40 40       	bra	.+64 (0x2a16)
    29d6:	b4 14       	subx	#0x14,r4h
    29d8:	00 05       	.word	H'0,H'5
    29da:	02 00       	stc	ccr,r0h
    29dc:	40 40       	bra	.+64 (0x2a1e)
    29de:	b6 00       	subx	#0x0,r6h
    29e0:	01 01       	.word	H'1,H'1

Disassembly of section .debug_str:

00000000 <.debug_str>:
   0:	6c 6f       	mov.b	@er6+,r7l
   2:	6e 67 20 75 	mov.b	@(0x2075:16,er6),r7h
   6:	6e 73 69 67 	mov.b	@(0x6967:16,er7),r3h
   a:	6e 65 64 20 	mov.b	@(0x6420:16,er6),r5h
   e:	69 6e       	mov.w	@er6,e6
  10:	74 00       	bor	#0x0,r0h
  12:	73 6f       	btst	#0x6,r7l
  14:	66 74       	and.w	r7,r4
  16:	76 65       	band	#0x6,r5h
  18:	63 00       	btst	r0h,r0h
  1a:	73 74       	btst	#0x7,r4h
  1c:	61 72       	bnot	r7h,r2h
  1e:	74 5f       	bor	#0x5,r7l
  20:	74 68       	bor	#0x6,r0l
  22:	72 65       	bclr	#0x6,r5h
  24:	61 64       	bnot	r6h,r4h
  26:	73 00       	btst	#0x0,r0h
  28:	73 68       	btst	#0x6,r0l
  2a:	6f 72 74 20 	mov.w	@(0x7420:16,er7),r2
  2e:	75 6e       	bxor	#0x6,r6l
  30:	73 69       	btst	#0x6,r1l
  32:	67 6e       	bst	#0x6,r6l
  34:	65 64       	xor.w	r6,r4
  36:	20 69       	mov.b	@0x69:8,r0h
  38:	6e 74 00 61 	mov.b	@(0x61:16,er7),r4h
  3c:	72 67       	bclr	#0x6,r7h
  3e:	63 00       	btst	r0h,r0h
  40:	73 68       	btst	#0x6,r0l
  42:	6f 72 74 20 	mov.w	@(0x7420:16,er7),r2
  46:	69 6e       	mov.w	@er6,e6
  48:	74 00       	bor	#0x0,r0h
  4a:	6d 61       	mov.w	@er6+,r1
  4c:	69 6e       	mov.w	@er6,e6
  4e:	2e 63       	mov.b	@0x63:8,r6l
  50:	00 2f       	.word	H'0,H'2f
  52:	68 6f       	mov.b	@er6,r7l
  54:	6d 65       	mov.w	@er6+,r5
  56:	00 75       	.word	H'0,H'75
  58:	6e 73 69 67 	mov.b	@(0x6967:16,er7),r3h
  5c:	6e 65 64 20 	mov.b	@(0x6420:16,er6),r5h
  60:	63 68       	btst	r6h,r0l
  62:	61 72       	bnot	r7h,r2h
  64:	00 47       	.word	H'0,H'47
  66:	4e 55       	.word	H'4e,H'55
  68:	20 43       	mov.b	@0x43:8,r0h
  6a:	31 31       	mov.b	r1h,@0x31:8
  6c:	20 37       	mov.b	@0x37:8,r0h
  6e:	2e 33       	mov.b	@0x33:8,r6l
  70:	2e 30       	mov.b	@0x30:8,r6l
  72:	20 2d       	mov.b	@0x2d:8,r0h
  74:	6d 68       	mov.w	@er6+,e0
  76:	20 2d       	mov.b	@0x2d:8,r0h
  78:	67 20       	bst	#0x2,r0h
  7a:	2d 66       	mov.b	@0x66:8,r5l
  7c:	6e 6f 2d 62 	mov.b	@(0x2d62:16,er6),r7l
  80:	75 69       	bxor	#0x6,r1l
  82:	6c 74       	mov.b	@er7+,r4h
  84:	69 6e       	mov.w	@er6,e6
  86:	00 61       	.word	H'0,H'61
  88:	72 67       	bclr	#0x6,r7h
  8a:	76 00       	band	#0x0,r0h
  8c:	69 6e       	mov.w	@er6,e6
  8e:	74 65       	bor	#0x6,r5h
  90:	72 72       	bclr	#0x7,r2h
  92:	75 70       	bxor	#0x7,r0h
  94:	74 00       	bor	#0x0,r0h
  96:	69 6e       	mov.w	@er6,e6
  98:	74 65       	bor	#0x6,r5h
  9a:	72 72       	bclr	#0x7,r2h
  9c:	75 70       	bxor	#0x7,r0h
  9e:	74 2e       	bor	#0x2,r6l
  a0:	63 00       	btst	r0h,r0h
  a2:	73 6f       	btst	#0x6,r7l
  a4:	66 74       	and.w	r7,r4
  a6:	76 65       	band	#0x6,r5h
  a8:	63 5f       	btst	r5h,r7l
  aa:	74 79       	bor	#0x7,r1l
  ac:	70 65       	bset	#0x6,r5h
  ae:	5f 74       	jsr	@@116 (0x74)
  b0:	00 73       	.word	H'0,H'73
  b2:	6f 66 74 76 	mov.w	@(0x7476:16,er6),r6
  b6:	65 63       	xor.w	r6,r3
  b8:	5f 69       	jsr	@@105 (0x69)
  ba:	6e 69 74 00 	mov.b	@(0x7400:16,er6),r1l
  be:	68 61       	mov.b	@er6,r1h
  c0:	6e 64 6c 65 	mov.b	@(0x6c65:16,er6),r4h
  c4:	72 00       	bclr	#0x0,r0h
  c6:	73 6f       	btst	#0x6,r7l
  c8:	66 74       	and.w	r7,r4
  ca:	76 65       	band	#0x6,r5h
  cc:	63 5f       	btst	r5h,r7l
  ce:	73 65       	btst	#0x6,r5h
  d0:	74 69       	bor	#0x6,r1l
  d2:	6e 74 72 00 	mov.b	@(0x7200:16,er7),r4h
  d6:	74 79       	bor	#0x7,r1l
  d8:	70 65       	bset	#0x6,r5h
  da:	00 73       	.word	H'0,H'73
  dc:	6f 66 74 76 	mov.w	@(0x7476:16,er6),r6
  e0:	65 63       	xor.w	r6,r3
  e2:	5f 68       	jsr	@@104 (0x68)
  e4:	61 6e       	bnot	r6h,r6l
  e6:	64 6c       	or.w	r6,e4
  e8:	65 72       	xor.w	r7,r2
  ea:	5f 74       	jsr	@@116 (0x74)
  ec:	00 76       	.word	H'0,H'76
  ee:	61 6c       	bnot	r6h,r4l
  f0:	75 65       	bxor	#0x6,r5h
  f2:	00 6d       	.word	H'0,H'6d
  f4:	65 6d       	xor.w	r6,e5
  f6:	73 65       	btst	#0x6,r5h
  f8:	74 00       	bor	#0x0,r0h
  fa:	73 74       	btst	#0x7,r4h
  fc:	72 6e       	bclr	#0x6,r6l
  fe:	63 6d       	btst	r6h,r5l
 100:	70 00       	bset	#0x0,r0h
 102:	63 6f       	btst	r6h,r7l
 104:	6c 75       	mov.b	@er7+,r5h
 106:	6d 6e       	mov.w	@er6+,e6
 108:	00 73       	.word	H'0,H'73
 10a:	74 72       	bor	#0x7,r2h
 10c:	6c 65       	mov.b	@er6+,r5h
 10e:	6e 00 67 65 	mov.b	@(0x6765:16,er0),r0h
 112:	74 63       	bor	#0x6,r3h
 114:	00 73       	.word	H'0,H'73
 116:	74 72       	bor	#0x7,r2h
 118:	63 70       	btst	r7h,r0h
 11a:	79 00 67 65 	mov.w	#0x6765,r0
 11e:	74 73       	bor	#0x7,r3h
 120:	00 6d       	.word	H'0,H'6d
 122:	65 6d       	xor.w	r6,e5
 124:	63 6d       	btst	r6h,r5l
 126:	70 00       	bset	#0x0,r0h
 128:	6c 69       	mov.b	@er6+,r1l
 12a:	62 2e       	bclr	r2h,r6l
 12c:	63 00       	btst	r0h,r0h
 12e:	70 75       	bset	#0x7,r5h
 130:	74 78       	bor	#0x7,r0l
 132:	76 61       	band	#0x6,r1h
 134:	6c 00       	mov.b	@er0+,r0h
 136:	73 74       	btst	#0x7,r4h
 138:	72 63       	bclr	#0x6,r3h
 13a:	6d 70       	mov.w	@er7+,r0
 13c:	00 6d       	.word	H'0,H'6d
 13e:	65 6d       	xor.w	r6,e5
 140:	63 70       	btst	r7h,r0h
 142:	79 00 70 75 	mov.w	#0x7075,r0
 146:	74 63       	bor	#0x6,r3h
 148:	00 6c       	.word	H'0,H'6c
 14a:	6f 6e 67 20 	mov.w	@(0x6720:16,er6),e6
 14e:	69 6e       	mov.w	@er6,e6
 150:	74 00       	bor	#0x0,r0h
 152:	70 75       	bset	#0x7,r5h
 154:	74 73       	bor	#0x7,r3h
 156:	00 73       	.word	H'0,H'73
 158:	65 72       	xor.w	r7,r2
 15a:	69 61       	mov.w	@er6,r1
 15c:	6c 5f       	mov.b	@er5+,r7l
 15e:	69 6e       	mov.w	@er6,e6
 160:	74 72       	bor	#0x7,r2h
 162:	5f 72       	jsr	@@114 (0x72)
 164:	65 63       	xor.w	r6,r3
 166:	76 5f       	band	#0x5,r7l
 168:	65 6e       	xor.w	r6,e6
 16a:	61 62       	bnot	r6h,r2h
 16c:	6c 65       	mov.b	@er6+,r5h
 16e:	00 73       	.word	H'0,H'73
 170:	65 72       	xor.w	r7,r2
 172:	69 61       	mov.w	@er6,r1
 174:	6c 5f       	mov.b	@er5+,r7l
 176:	69 6e       	mov.w	@er6,e6
 178:	74 72       	bor	#0x7,r2h
 17a:	5f 69       	jsr	@@105 (0x69)
 17c:	73 5f       	btst	#0x5,r7l
 17e:	73 65       	btst	#0x6,r5h
 180:	6e 64 5f 65 	mov.b	@(0x5f65:16,er6),r4h
 184:	6e 61 62 6c 	mov.b	@(0x626c:16,er6),r1h
 188:	65 00       	xor.w	r0,r0
 18a:	73 65       	btst	#0x6,r5h
 18c:	72 69       	bclr	#0x6,r1l
 18e:	61 6c       	bnot	r6h,r4l
 190:	5f 72       	jsr	@@114 (0x72)
 192:	65 63       	xor.w	r6,r3
 194:	76 5f       	band	#0x5,r7l
 196:	62 79       	bclr	r7h,r1l
 198:	74 65       	bor	#0x6,r5h
 19a:	00 75       	.word	H'0,H'75
 19c:	69 6e       	mov.w	@er6,e6
 19e:	74 38       	bor	#0x3,r0l
 1a0:	00 68       	.word	H'0,H'68
 1a2:	38 5f       	mov.b	r0l,@0x5f:8
 1a4:	33 30       	mov.b	r3h,@0x30:8
 1a6:	36 39       	mov.b	r6h,@0x39:8
 1a8:	66 5f       	and.w	r5,e7
 1aa:	73 63       	btst	#0x6,r3h
 1ac:	69 00       	mov.w	@er0,r0
 1ae:	73 65       	btst	#0x6,r5h
 1b0:	72 69       	bclr	#0x6,r1l
 1b2:	61 6c       	bnot	r6h,r4l
 1b4:	5f 69       	jsr	@@105 (0x69)
 1b6:	6e 74 72 5f 	mov.b	@(0x725f:16,er7),r4h
 1ba:	72 65       	bclr	#0x6,r5h
 1bc:	63 76       	btst	r7h,r6h
 1be:	5f 64       	jsr	@@100 (0x64)
 1c0:	69 73       	mov.w	@er7,r3
 1c2:	61 62       	bnot	r6h,r2h
 1c4:	6c 65       	mov.b	@er6+,r5h
 1c6:	00 73       	.word	H'0,H'73
 1c8:	65 72       	xor.w	r7,r2
 1ca:	69 61       	mov.w	@er6,r1
 1cc:	6c 5f       	mov.b	@er5+,r7l
 1ce:	69 6e       	mov.w	@er6,e6
 1d0:	74 72       	bor	#0x7,r2h
 1d2:	5f 73       	jsr	@@115 (0x73)
 1d4:	65 6e       	xor.w	r6,e6
 1d6:	64 5f       	or.w	r5,e7
 1d8:	65 6e       	xor.w	r6,e6
 1da:	61 62       	bnot	r6h,r2h
 1dc:	6c 65       	mov.b	@er6+,r5h
 1de:	00 73       	.word	H'0,H'73
 1e0:	65 72       	xor.w	r7,r2
 1e2:	69 61       	mov.w	@er6,r1
 1e4:	6c 2e       	mov.b	@er2+,r6l
 1e6:	63 00       	btst	r0h,r0h
 1e8:	73 63       	btst	#0x6,r3h
 1ea:	6d 72       	mov.w	@er7+,r2
 1ec:	00 72       	.word	H'0,H'72
 1ee:	65 67       	xor.w	r6,r7
 1f0:	73 00       	btst	#0x0,r0h
 1f2:	73 65       	btst	#0x6,r5h
 1f4:	72 69       	bclr	#0x6,r1l
 1f6:	61 6c       	bnot	r6h,r4l
 1f8:	5f 69       	jsr	@@105 (0x69)
 1fa:	6e 74 72 5f 	mov.b	@(0x725f:16,er7),r4h
 1fe:	73 65       	btst	#0x6,r5h
 200:	6e 64 5f 64 	mov.b	@(0x5f64:16,er6),r4h
 204:	69 73       	mov.w	@er7,r3
 206:	61 62       	bnot	r6h,r2h
 208:	6c 65       	mov.b	@er6+,r5h
 20a:	00 73       	.word	H'0,H'73
 20c:	65 72       	xor.w	r7,r2
 20e:	69 61       	mov.w	@er6,r1
 210:	6c 5f       	mov.b	@er5+,r7l
 212:	69 6e       	mov.w	@er6,e6
 214:	69 74       	mov.w	@er7,r4
 216:	00 73       	.word	H'0,H'73
 218:	65 72       	xor.w	r7,r2
 21a:	69 61       	mov.w	@er6,r1
 21c:	6c 5f       	mov.b	@er5+,r7l
 21e:	69 6e       	mov.w	@er6,e6
 220:	74 72       	bor	#0x7,r2h
 222:	5f 69       	jsr	@@105 (0x69)
 224:	73 5f       	btst	#0x5,r7l
 226:	72 65       	bclr	#0x6,r5h
 228:	63 76       	btst	r7h,r6h
 22a:	5f 65       	jsr	@@101 (0x65)
 22c:	6e 61 62 6c 	mov.b	@(0x626c:16,er6),r1h
 230:	65 00       	xor.w	r0,r0
 232:	73 65       	btst	#0x6,r5h
 234:	72 69       	bclr	#0x6,r1l
 236:	61 6c       	bnot	r6h,r4l
 238:	5f 69       	jsr	@@105 (0x69)
 23a:	73 5f       	btst	#0x5,r7l
 23c:	73 65       	btst	#0x6,r5h
 23e:	6e 64 5f 65 	mov.b	@(0x5f65:16,er6),r4h
 242:	6e 61 62 6c 	mov.b	@(0x626c:16,er6),r1h
 246:	65 00       	xor.w	r0,r0
 248:	69 6e       	mov.w	@er6,e6
 24a:	64 65       	or.w	r6,r5
 24c:	78 00       	.word	H'78,H'0
 24e:	73 65       	btst	#0x6,r5h
 250:	72 69       	bclr	#0x6,r1l
 252:	61 6c       	bnot	r6h,r4l
 254:	5f 73       	jsr	@@115 (0x73)
 256:	65 6e       	xor.w	r6,e6
 258:	64 5f       	or.w	r5,e7
 25a:	62 79       	bclr	r7h,r1l
 25c:	74 65       	bor	#0x6,r5h
 25e:	00 73       	.word	H'0,H'73
 260:	65 72       	xor.w	r7,r2
 262:	69 61       	mov.w	@er6,r1
 264:	6c 5f       	mov.b	@er5+,r7l
 266:	69 73       	mov.w	@er7,r3
 268:	5f 72       	jsr	@@114 (0x72)
 26a:	65 63       	xor.w	r6,r3
 26c:	76 5f       	band	#0x5,r7l
 26e:	65 6e       	xor.w	r6,e6
 270:	61 62       	bnot	r6h,r2h
 272:	6c 65       	mov.b	@er6+,r5h
 274:	00 74       	.word	H'0,H'74
 276:	69 6d       	mov.w	@er6,e5
 278:	65 72       	xor.w	r7,r2
 27a:	5f 67       	jsr	@@103 (0x67)
 27c:	65 74       	xor.w	r7,r4
 27e:	74 69       	bor	#0x6,r1l
 280:	6d 65       	mov.w	@er6+,r5
 282:	00 68       	.word	H'0,H'68
 284:	38 5f       	mov.b	r0l,@0x5f:8
 286:	33 30       	mov.b	r3h,@0x30:8
 288:	36 39       	mov.b	r6h,@0x39:8
 28a:	66 5f       	and.w	r5,e7
 28c:	74 6d       	bor	#0x6,r5l
 28e:	72 00       	bclr	#0x0,r0h
 290:	63 6f       	btst	r6h,r7l
 292:	75 6e       	bxor	#0x6,r6l
 294:	74 00       	bor	#0x0,r0h
 296:	74 63       	bor	#0x6,r3h
 298:	6f 72 62 30 	mov.w	@(0x6230:16,er7),r2
 29c:	00 74       	.word	H'0,H'74
 29e:	69 6d       	mov.w	@er6,e5
 2a0:	65 72       	xor.w	r7,r2
 2a2:	2e 63       	mov.b	@0x63:8,r6l
 2a4:	00 74       	.word	H'0,H'74
 2a6:	63 6e       	btst	r6h,r6l
 2a8:	74 00       	bor	#0x0,r0h
 2aa:	74 69       	bor	#0x6,r1l
 2ac:	6d 65       	mov.w	@er6+,r5
 2ae:	72 5f       	bclr	#0x5,r7l
 2b0:	69 73       	mov.w	@er7,r3
 2b2:	5f 72       	jsr	@@114 (0x72)
 2b4:	75 6e       	bxor	#0x6,r6l
 2b6:	6e 69 6e 67 	mov.b	@(0x6e67:16,er6),r1l
 2ba:	00 74       	.word	H'0,H'74
 2bc:	63 6f       	btst	r6h,r7l
 2be:	72 62       	bclr	#0x6,r2h
 2c0:	31 00       	mov.b	r1h,@0x0:8
 2c2:	74 69       	bor	#0x6,r1l
 2c4:	6d 65       	mov.w	@er6+,r5
 2c6:	72 5f       	bclr	#0x5,r7l
 2c8:	65 78       	xor.w	r7,e0
 2ca:	70 69       	bset	#0x6,r1l
 2cc:	72 65       	bclr	#0x6,r5h
 2ce:	00 74       	.word	H'0,H'74
 2d0:	63 73       	btst	r7h,r3h
 2d2:	72 30       	bclr	#0x3,r0h
 2d4:	00 74       	.word	H'0,H'74
 2d6:	63 73       	btst	r7h,r3h
 2d8:	72 31       	bclr	#0x3,r1h
 2da:	00 75       	.word	H'0,H'75
 2dc:	69 6e       	mov.w	@er6,e6
 2de:	74 31       	bor	#0x3,r1h
 2e0:	36 00       	mov.b	r6h,@0x0:8
 2e2:	6d 73       	mov.w	@er7+,r3
 2e4:	65 63       	xor.w	r6,r3
 2e6:	00 74       	.word	H'0,H'74
 2e8:	69 6d       	mov.w	@er6,e5
 2ea:	65 72       	xor.w	r7,r2
 2ec:	5f 73       	jsr	@@115 (0x73)
 2ee:	74 61       	bor	#0x6,r1h
 2f0:	72 74       	bclr	#0x7,r4h
 2f2:	00 66       	.word	H'0,H'66
 2f4:	6c 61       	mov.b	@er6+,r1h
 2f6:	67 73       	bst	#0x7,r3h
 2f8:	00 74       	.word	H'0,H'74
 2fa:	63 6f       	btst	r6h,r7l
 2fc:	72 61       	bclr	#0x6,r1h
 2fe:	30 00       	mov.b	r0h,@0x0:8
 300:	74 63       	bor	#0x6,r3h
 302:	6f 72 61 31 	mov.w	@(0x6131:16,er7),r2
 306:	00 74       	.word	H'0,H'74
 308:	63 72       	btst	r7h,r2h
 30a:	30 00       	mov.b	r0h,@0x0:8
 30c:	74 63       	bor	#0x6,r3h
 30e:	72 31       	bclr	#0x3,r1h
 310:	00 74       	.word	H'0,H'74
 312:	69 6d       	mov.w	@er6,e5
 314:	65 72       	xor.w	r7,r2
 316:	5f 69       	jsr	@@105 (0x69)
 318:	73 5f       	btst	#0x5,r7l
 31a:	65 78       	xor.w	r7,e0
 31c:	70 69       	bset	#0x6,r1l
 31e:	72 65       	bclr	#0x6,r5h
 320:	64 00       	or.w	r0,r0
 322:	74 69       	bor	#0x6,r1l
 324:	6d 65       	mov.w	@er6+,r5
 326:	72 5f       	bclr	#0x5,r7l
 328:	63 61       	btst	r6h,r1h
 32a:	6e 63 65 6c 	mov.b	@(0x656c:16,er6),r3h
 32e:	00 6d       	.word	H'0,H'6d
 330:	64 65       	or.w	r6,r5
 332:	6c 61       	mov.b	@er6+,r1h
 334:	79 00 65 74 	mov.w	#0x6574,r0
 338:	68 65       	mov.b	@er6,r5h
 33a:	72 5f       	bclr	#0x5,r7l
 33c:	73 65       	btst	#0x6,r5h
 33e:	6e 64 00 65 	mov.b	@(0x65:16,er6),r4h
 342:	74 68       	bor	#0x6,r0l
 344:	65 72       	xor.w	r7,r2
 346:	2e 63       	mov.b	@0x63:8,r6l
 348:	00 75       	.word	H'0,H'75
 34a:	73 65       	btst	#0x6,r5h
 34c:	63 00       	btst	r0h,r0h
 34e:	65 74       	xor.w	r7,r4
 350:	68 65       	mov.b	@er6,r5h
 352:	72 5f       	bclr	#0x5,r7l
 354:	72 65       	bclr	#0x6,r5h
 356:	63 76       	btst	r7h,r6h
 358:	00 63       	.word	H'0,H'63
 35a:	75 72       	bxor	#0x7,r2h
 35c:	72 00       	bclr	#0x0,r0h
 35e:	65 74       	xor.w	r7,r4
 360:	68 65       	mov.b	@er6,r5h
 362:	72 5f       	bclr	#0x5,r7l
 364:	69 6e       	mov.w	@er6,e6
 366:	74 72       	bor	#0x7,r2h
 368:	5f 64       	jsr	@@100 (0x64)
 36a:	69 73       	mov.w	@er7,r3
 36c:	61 62       	bnot	r6h,r2h
 36e:	6c 65       	mov.b	@er6+,r5h
 370:	00 77       	.word	H'0,H'77
 372:	72 69       	bclr	#0x6,r1l
 374:	74 65       	bor	#0x6,r5h
 376:	5f 64       	jsr	@@100 (0x64)
 378:	61 74       	bnot	r7h,r4h
 37a:	61 00       	bnot	r0h,r0h
 37c:	75 64       	bxor	#0x6,r4h
 37e:	65 6c       	xor.w	r6,e4
 380:	61 79       	bnot	r7h,r1l
 382:	00 65       	.word	H'0,H'65
 384:	74 68       	bor	#0x6,r0l
 386:	65 72       	xor.w	r7,r2
 388:	5f 69       	jsr	@@105 (0x69)
 38a:	6e 74 72 5f 	mov.b	@(0x725f:16,er7),r4h
 38e:	65 6e       	xor.w	r6,e6
 390:	61 62       	bnot	r6h,r2h
 392:	6c 65       	mov.b	@er6+,r5h
 394:	00 65       	.word	H'0,H'65
 396:	74 68       	bor	#0x6,r0l
 398:	65 72       	xor.w	r7,r2
 39a:	5f 69       	jsr	@@105 (0x69)
 39c:	6e 69 74 00 	mov.b	@(0x7400:16,er6),r1l
 3a0:	6d 61       	mov.w	@er6+,r1
 3a2:	63 61       	btst	r6h,r1h
 3a4:	64 64       	or.w	r6,r4
 3a6:	72 00       	bclr	#0x0,r0h
 3a8:	65 74       	xor.w	r7,r4
 3aa:	68 65       	mov.b	@er6,r5h
 3ac:	72 5f       	bclr	#0x5,r7l
 3ae:	63 68       	btst	r6h,r0l
 3b0:	65 63       	xor.w	r6,r3
 3b2:	6b 69       	.word	H'6b,H'69
 3b4:	6e 74 72 00 	mov.b	@(0x7200:16,er7),r4h
 3b8:	63 6c       	btst	r6h,r4l
 3ba:	65 61       	xor.w	r6,r1
 3bc:	72 5f       	bclr	#0x5,r7l
 3be:	69 72       	mov.w	@er7,r2
 3c0:	71 00       	bnot	#0x0,r0h
 3c2:	70 6f       	bset	#0x6,r7l
 3c4:	72 74       	bclr	#0x7,r4h
 3c6:	5f 69       	jsr	@@105 (0x69)
 3c8:	6e 69 74 00 	mov.b	@(0x7400:16,er6),r1l
 3cc:	73 74       	btst	#0x7,r4h
 3ce:	61 74       	bnot	r7h,r4h
 3d0:	75 73       	bxor	#0x7,r3h
 3d2:	00 72       	.word	H'0,H'72
 3d4:	65 61       	xor.w	r6,r1
 3d6:	64 5f       	or.w	r5,e7
 3d8:	64 61       	or.w	r6,r1
 3da:	74 61       	bor	#0x6,r1h
 3dc:	00 4b       	.word	H'0,H'4b
 3de:	5a 5f 53 59 	jmp	@0x5f5359:24
 3e2:	53 43       	divxu.w	r4,er3
 3e4:	41 4c       	brn	.+76 (0x432)
 3e6:	4c 5f       	.word	H'4c,H'5f
 3e8:	54 59       	.word	H'54,H'59
 3ea:	50 45       	mulxu.b	r4h,r5
 3ec:	5f 53       	jsr	@@83 (0x53)
 3ee:	4c 45       	.word	H'4c,H'45
 3f0:	45 50       	bcs	.+80 (0x442)
 3f2:	00 6b       	.word	H'0,H'6b
 3f4:	7a 5f 6d 73 	xor.l	#0x6d73,er7
 3f8:	67 62       	bst	#0x6,r2h
 3fa:	6f 78 5f 69 	mov.w	@(0x5f69:16,er7),e0
 3fe:	64 5f       	or.w	r5,e7
 400:	74 00       	bor	#0x0,r0h
 402:	4b 5a       	bmi	.+90 (0x45e)
 404:	5f 53       	jsr	@@83 (0x53)
 406:	59 53       	.word	H'59,H'53
 408:	43 41       	.word	H'43,H'41
 40a:	4c 4c       	bge	.+76 (0x458)
 40c:	5f 54       	jsr	@@84 (0x54)
 40e:	59 50       	jmp	@er5
 410:	45 5f       	.word	H'45,H'5f
 412:	43 48       	bls	.+72 (0x45c)
 414:	50 52       	mulxu.b	r5h,r2
 416:	49 00       	bvs	.0 (0x418)
 418:	6b 7a       	.word	H'6b,H'7a
 41a:	5f 73       	jsr	@@115 (0x73)
 41c:	79 73       	.word	H'79,H'73
 41e:	64 6f       	or.w	r6,e7
 420:	77 6e       	bld	#0x6,r6l
 422:	00 4d       	.word	H'0,H'4d
 424:	53 47       	divxu.w	r4,er7
 426:	42 4f       	.word	H'42,H'4f
 428:	58 5f       	.word	H'58,H'5f
 42a:	49 44       	bvs	.+68 (0x470)
 42c:	5f 54       	jsr	@@84 (0x54)
 42e:	49 4d       	.word	H'49,H'4d
 430:	44 52       	bcc	.+82 (0x484)
 432:	49 56       	bvs	.+86 (0x48a)
 434:	45 00       	bcs	.0 (0x436)
 436:	4b 5a       	bmi	.+90 (0x492)
 438:	5f 53       	jsr	@@83 (0x53)
 43a:	59 53       	.word	H'59,H'53
 43c:	43 41       	.word	H'43,H'41
 43e:	4c 4c       	bge	.+76 (0x48c)
 440:	5f 54       	jsr	@@84 (0x54)
 442:	59 50       	jmp	@er5
 444:	45 5f       	.word	H'45,H'5f
 446:	45 58       	bcs	.+88 (0x4a0)
 448:	49 54       	bvs	.+84 (0x49e)
 44a:	00 74       	.word	H'0,H'74
 44c:	68 72       	mov.b	@er7,r2h
 44e:	65 61       	xor.w	r6,r1
 450:	64 5f       	or.w	r5,e7
 452:	73 65       	btst	#0x6,r5h
 454:	74 69       	bor	#0x6,r1l
 456:	6e 74 72 00 	mov.b	@(0x7200:16,er7),r4h
 45a:	73 69       	btst	#0x6,r1l
 45c:	7a 65 70 00 	and.l	#0x70006b7a,er5
 460:	6b 7a 
 462:	5f 73       	jsr	@@115 (0x73)
 464:	79 73       	.word	H'79,H'73
 466:	63 61       	btst	r6h,r1h
 468:	6c 6c       	mov.b	@er6+,r4l
 46a:	5f 70       	jsr	@@112 (0x70)
 46c:	61 72       	bnot	r7h,r2h
 46e:	61 6d       	bnot	r6h,r5l
 470:	5f 74       	jsr	@@116 (0x74)
 472:	00 4d       	.word	H'0,H'4d
 474:	53 47       	divxu.w	r4,er7
 476:	42 4f       	.word	H'42,H'4f
 478:	58 5f       	.word	H'58,H'5f
 47a:	49 44       	bvs	.+68 (0x4c0)
 47c:	5f 45       	jsr	@@69 (0x45)
 47e:	54 48       	.word	H'54,H'48
 480:	49 4e       	bvs	.+78 (0x4d0)
 482:	50 55       	mulxu.b	r5h,r5
 484:	54 00       	rts/l	er0
 486:	73 65       	btst	#0x6,r5h
 488:	6e 64 6d 73 	mov.b	@(0x6d73:16,er6),r4h
 48c:	67 00       	bst	#0x0,r0h
 48e:	6b 7a       	.word	H'6b,H'7a
 490:	5f 73       	jsr	@@115 (0x73)
 492:	74 61       	bor	#0x6,r1h
 494:	72 74       	bclr	#0x7,r4h
 496:	00 6d       	.word	H'0,H'6d
 498:	62 6f       	bclr	r6h,r7l
 49a:	78 70       	.word	H'78,H'70
 49c:	00 4b       	.word	H'0,H'4b
 49e:	5a 5f 53 59 	jmp	@0x5f5359:24
 4a2:	53 43       	divxu.w	r4,er3
 4a4:	41 4c       	brn	.+76 (0x4f2)
 4a6:	4c 5f       	.word	H'4c,H'5f
 4a8:	54 59       	.word	H'54,H'59
 4aa:	50 45       	mulxu.b	r4h,r5
 4ac:	5f 53       	jsr	@@83 (0x53)
 4ae:	45 4e       	bcs	.+78 (0x4fe)
 4b0:	44 00       	bcc	.0 (0x4b2)
 4b2:	4b 5a       	bmi	.+90 (0x50e)
 4b4:	5f 53       	jsr	@@83 (0x53)
 4b6:	59 53       	.word	H'59,H'53
 4b8:	43 41       	.word	H'43,H'41
 4ba:	4c 4c       	bge	.+76 (0x508)
 4bc:	5f 54       	jsr	@@84 (0x54)
 4be:	59 50       	jmp	@er5
 4c0:	45 5f       	.word	H'45,H'5f
 4c2:	53 45       	divxu.w	r4,er5
 4c4:	54 49       	.word	H'54,H'49
 4c6:	4e 54       	bgt	.+84 (0x51c)
 4c8:	52 00       	mulxu.w	r0,er0
 4ca:	6b 7a       	.word	H'6b,H'7a
 4cc:	5f 73       	jsr	@@115 (0x73)
 4ce:	79 73       	.word	H'79,H'73
 4d0:	63 61       	btst	r6h,r1h
 4d2:	6c 6c       	mov.b	@er6+,r4l
 4d4:	00 73       	.word	H'0,H'73
 4d6:	74 61       	bor	#0x6,r1h
 4d8:	63 6b       	btst	r6h,r3l
 4da:	73 69       	btst	#0x6,r1l
 4dc:	7a 65 00 4d 	and.l	#0x4d5347,er5
 4e0:	53 47 
 4e2:	42 4f       	.word	H'42,H'4f
 4e4:	58 5f       	.word	H'58,H'5f
 4e6:	49 44       	bvs	.+68 (0x52c)
 4e8:	5f 54       	jsr	@@84 (0x54)
 4ea:	49 4d       	.word	H'49,H'4d
 4ec:	45 58       	bcs	.+88 (0x546)
 4ee:	50 49       	mulxu.b	r4h,e1
 4f0:	52 45       	mulxu.w	r4,er5
 4f2:	00 68       	.word	H'0,H'68
 4f4:	65 61       	xor.w	r6,r1
 4f6:	64 00       	or.w	r0,r0
 4f8:	73 63       	btst	#0x6,r3h
 4fa:	68 65       	mov.b	@er6,r5h
 4fc:	64 75       	or.w	r7,r5
 4fe:	6c 65       	mov.b	@er6+,r5h
 500:	00 74       	.word	H'0,H'74
 502:	68 72       	mov.b	@er7,r2h
 504:	65 61       	xor.w	r6,r1
 506:	64 5f       	or.w	r5,e7
 508:	73 74       	btst	#0x7,r4h
 50a:	61 63       	bnot	r6h,r3h
 50c:	6b 00 5f 6b 	mov.w	@0x5f6b:16,r0
 510:	7a 5f 6d 73 	xor.l	#0x6d73,er7
 514:	67 62       	bst	#0x6,r2h
 516:	6f 78 00 74 	mov.w	@(0x74:16,er7),e0
 51a:	68 72       	mov.b	@er7,r2h
 51c:	65 61       	xor.w	r6,r1
 51e:	64 5f       	or.w	r5,e7
 520:	69 6e       	mov.w	@er6,e6
 522:	69 74       	mov.w	@er7,r4
 524:	00 74       	.word	H'0,H'74
 526:	68 72       	mov.b	@er7,r2h
 528:	65 61       	xor.w	r6,r1
 52a:	64 5f       	or.w	r5,e7
 52c:	77 61       	bld	#0x6,r1h
 52e:	6b 65       	.word	H'6b,H'65
 530:	75 70       	bxor	#0x7,r0h
 532:	00 73       	.word	H'0,H'73
 534:	65 6e       	xor.w	r6,e6
 536:	64 65       	or.w	r6,r5
 538:	72 00       	bclr	#0x0,r0h
 53a:	6b 7a       	.word	H'6b,H'7a
 53c:	5f 66       	jsr	@@102 (0x66)
 53e:	75 6e       	bxor	#0x6,r6l
 540:	63 5f       	btst	r5h,r7l
 542:	74 00       	bor	#0x0,r0h
 544:	66 75       	and.w	r7,r5
 546:	6e 63 00 70 	mov.b	@(0x70:16,er6),r3h
 54a:	75 74       	bxor	#0x7,r4h
 54c:	63 75       	btst	r7h,r5h
 54e:	72 72       	bclr	#0x7,r2h
 550:	65 6e       	xor.w	r6,e6
 552:	74 00       	bor	#0x0,r0h
 554:	74 68       	bor	#0x6,r0l
 556:	72 65       	bclr	#0x6,r5h
 558:	61 64       	bnot	r6h,r4h
 55a:	5f 67       	jsr	@@103 (0x67)
 55c:	65 74       	xor.w	r7,r4
 55e:	69 64       	mov.w	@er6,r4
 560:	00 5f       	.word	H'0,H'5f
 562:	6b 7a       	.word	H'6b,H'7a
 564:	5f 63       	jsr	@@99 (0x63)
 566:	6f 6e 74 65 	mov.w	@(0x7465:16,er6),e6
 56a:	78 74       	.word	H'78,H'74
 56c:	00 4b       	.word	H'0,H'4b
 56e:	5a 5f 53 59 	jmp	@0x5f5359:24
 572:	53 43       	divxu.w	r4,er3
 574:	41 4c       	brn	.+76 (0x5c2)
 576:	4c 5f       	.word	H'4c,H'5f
 578:	54 59       	.word	H'54,H'59
 57a:	50 45       	mulxu.b	r4h,r5
 57c:	5f 57       	jsr	@@87 (0x57)
 57e:	41 49       	.word	H'41,H'49
 580:	54 00       	rts/l	er0
 582:	64 75       	or.w	r7,r5
 584:	6d 6d       	mov.w	@er6+,e5
 586:	79 00 74 68 	mov.w	#0x7468,r0
 58a:	72 65       	bclr	#0x6,r5h
 58c:	61 64       	bnot	r6h,r4h
 58e:	5f 63       	jsr	@@99 (0x63)
 590:	68 70       	mov.b	@er7,r0h
 592:	72 69       	bclr	#0x6,r1l
 594:	00 6b       	.word	H'0,H'6b
 596:	7a 5f 74 68 	xor.l	#0x7468,er7
 59a:	72 65       	bclr	#0x6,r5h
 59c:	61 64       	bnot	r6h,r4h
 59e:	5f 69       	jsr	@@105 (0x69)
 5a0:	64 5f       	or.w	r5,e7
 5a2:	74 00       	bor	#0x0,r0h
 5a4:	6e 61 6d 65 	mov.b	@(0x6d65:16,er6),r1h
 5a8:	00 74       	.word	H'0,H'74
 5aa:	61 69       	bnot	r6h,r1l
 5ac:	6c 00       	mov.b	@er0+,r0h
 5ae:	74 68       	bor	#0x6,r0l
 5b0:	72 65       	bclr	#0x6,r5h
 5b2:	61 64       	bnot	r6h,r4h
 5b4:	5f 72       	jsr	@@114 (0x72)
 5b6:	75 6e       	bxor	#0x6,r6l
 5b8:	00 75       	.word	H'0,H'75
 5ba:	73 65       	btst	#0x6,r5h
 5bc:	72 73       	bclr	#0x7,r3h
 5be:	74 61       	bor	#0x6,r1h
 5c0:	63 6b       	btst	r6h,r3l
 5c2:	00 74       	.word	H'0,H'74
 5c4:	68 72       	mov.b	@er7,r2h
 5c6:	65 61       	xor.w	r6,r1
 5c8:	64 5f       	or.w	r5,e7
 5ca:	77 61       	bld	#0x6,r1h
 5cc:	69 74       	mov.w	@er7,r4
 5ce:	00 5f       	.word	H'0,H'5f
 5d0:	6b 7a       	.word	H'6b,H'7a
 5d2:	5f 74       	jsr	@@116 (0x74)
 5d4:	68 72       	mov.b	@er7,r2h
 5d6:	65 61       	xor.w	r6,r1
 5d8:	64 00       	or.w	r0,r0
 5da:	74 68       	bor	#0x6,r0l
 5dc:	72 65       	bclr	#0x6,r5h
 5de:	61 64       	bnot	r6h,r4h
 5e0:	5f 6b       	jsr	@@107 (0x6b)
 5e2:	6d 61       	mov.w	@er6+,r1
 5e4:	6c 6c       	mov.b	@er6+,r4l
 5e6:	6f 63 00 68 	mov.w	@(0x68:16,er6),r3
 5ea:	61 6e       	bnot	r6h,r6l
 5ec:	64 6c       	or.w	r6,e4
 5ee:	65 72       	xor.w	r7,r2
 5f0:	73 00       	btst	#0x0,r0h
 5f2:	6b 7a       	.word	H'6b,H'7a
 5f4:	5f 68       	jsr	@@104 (0x68)
 5f6:	61 6e       	bnot	r6h,r6l
 5f8:	64 6c       	or.w	r6,e4
 5fa:	65 72       	xor.w	r7,r2
 5fc:	5f 74       	jsr	@@116 (0x74)
 5fe:	00 74       	.word	H'0,H'74
 600:	68 72       	mov.b	@er7,r2h
 602:	65 61       	xor.w	r6,r1
 604:	64 5f       	or.w	r5,e7
 606:	73 65       	btst	#0x6,r5h
 608:	6e 64 00 70 	mov.b	@(0x70:16,er6),r4h
 60c:	61 72       	bnot	r7h,r2h
 60e:	61 6d       	bnot	r6h,r5l
 610:	00 74       	.word	H'0,H'74
 612:	68 72       	mov.b	@er7,r2h
 614:	65 61       	xor.w	r6,r1
 616:	64 5f       	or.w	r5,e7
 618:	72 65       	bclr	#0x6,r5h
 61a:	63 76       	btst	r7h,r6h
 61c:	00 73       	.word	H'0,H'73
 61e:	79 73       	.word	H'79,H'73
 620:	63 61       	btst	r6h,r1h
 622:	6c 6c       	mov.b	@er6+,r4l
 624:	5f 70       	jsr	@@112 (0x70)
 626:	72 6f       	bclr	#0x6,r7l
 628:	63 00       	btst	r0h,r0h
 62a:	73 6f       	btst	#0x6,r7l
 62c:	66 74       	and.w	r7,r4
 62e:	65 72       	xor.w	r7,r2
 630:	72 5f       	bclr	#0x5,r7l
 632:	69 6e       	mov.w	@er6,e6
 634:	74 72       	bor	#0x7,r2h
 636:	00 4b       	.word	H'0,H'4b
 638:	5a 5f 53 59 	jmp	@0x5f5359:24
 63c:	53 43       	divxu.w	r4,er3
 63e:	41 4c       	brn	.+76 (0x68c)
 640:	4c 5f       	.word	H'4c,H'5f
 642:	54 59       	.word	H'54,H'59
 644:	50 45       	mulxu.b	r4h,r5
 646:	5f 4b       	jsr	@@75 (0x4b)
 648:	4d 46       	blt	.+70 (0x690)
 64a:	52 45       	mulxu.w	r4,er5
 64c:	45 00       	bcs	.0 (0x64e)
 64e:	67 65       	bst	#0x6,r5h
 650:	74 63       	bor	#0x6,r3h
 652:	75 72       	bxor	#0x7,r2h
 654:	72 65       	bclr	#0x6,r5h
 656:	6e 74 00 74 	mov.b	@(0x74:16,er7),r4h
 65a:	68 72       	mov.b	@er7,r2h
 65c:	65 61       	xor.w	r6,r1
 65e:	64 5f       	or.w	r5,e7
 660:	65 78       	xor.w	r7,e0
 662:	69 74       	mov.w	@er7,r4
 664:	00 73       	.word	H'0,H'73
 666:	79 73       	.word	H'79,H'73
 668:	63 61       	btst	r6h,r1h
 66a:	6c 6c       	mov.b	@er6+,r4l
 66c:	5f 69       	jsr	@@105 (0x69)
 66e:	6e 74 72 00 	mov.b	@(0x7200:16,er7),r4h
 672:	74 68       	bor	#0x6,r0l
 674:	72 65       	bclr	#0x6,r5h
 676:	61 64       	bnot	r6h,r4h
 678:	5f 69       	jsr	@@105 (0x69)
 67a:	6e 74 72 00 	mov.b	@(0x7200:16,er7),r4h
 67e:	4d 53       	.word	H'4d,H'53
 680:	47 42       	beq	.+66 (0x6c4)
 682:	4f 58       	ble	.+88 (0x6dc)
 684:	5f 49       	jsr	@@73 (0x49)
 686:	44 5f       	.word	H'44,H'5f
 688:	45 54       	bcs	.+84 (0x6de)
 68a:	48 4f       	.word	H'48,H'4f
 68c:	55 54       	bsr	.+84 (0x6e2)
 68e:	50 55       	mulxu.b	r5h,r5
 690:	54 00       	rts/l	er0
 692:	4b 5a       	bmi	.+90 (0x6ee)
 694:	5f 53       	jsr	@@83 (0x53)
 696:	59 53       	.word	H'59,H'53
 698:	43 41       	.word	H'43,H'41
 69a:	4c 4c       	bge	.+76 (0x6e8)
 69c:	5f 54       	jsr	@@84 (0x54)
 69e:	59 50       	jmp	@er5
 6a0:	45 5f       	.word	H'45,H'5f
 6a2:	4b 4d       	.word	H'4b,H'4d
 6a4:	41 4c       	brn	.+76 (0x6f2)
 6a6:	4c 4f       	.word	H'4c,H'4f
 6a8:	43 00       	bls	.0 (0x6aa)
 6aa:	6b 6f       	.word	H'6b,H'6f
 6ac:	7a 6f 73 2e 	and.l	#0x732e,er7
 6b0:	63 00       	btst	r0h,r0h
 6b2:	4b 5a       	bmi	.+90 (0x70e)
 6b4:	5f 53       	jsr	@@83 (0x53)
 6b6:	59 53       	.word	H'59,H'53
 6b8:	43 41       	.word	H'43,H'41
 6ba:	4c 4c       	bge	.+76 (0x708)
 6bc:	5f 54       	jsr	@@84 (0x54)
 6be:	59 50       	jmp	@er5
 6c0:	45 5f       	.word	H'45,H'5f
 6c2:	52 45       	mulxu.w	r4,er5
 6c4:	43 56       	bls	.+86 (0x71c)
 6c6:	00 75       	.word	H'0,H'75
 6c8:	69 6e       	mov.w	@er6,e6
 6ca:	74 33       	bor	#0x3,r3h
 6cc:	32 00       	mov.b	r2h,@0x0:8
 6ce:	6b 7a       	.word	H'6b,H'7a
 6d0:	5f 73       	jsr	@@115 (0x73)
 6d2:	79 73       	.word	H'79,H'73
 6d4:	63 61       	btst	r6h,r1h
 6d6:	6c 6c       	mov.b	@er6+,r4l
 6d8:	5f 74       	jsr	@@116 (0x74)
 6da:	79 70       	.word	H'79,H'70
 6dc:	65 5f       	xor.w	r5,e7
 6de:	74 00       	bor	#0x0,r0h
 6e0:	4d 53       	.word	H'4d,H'53
 6e2:	47 42       	beq	.+66 (0x726)
 6e4:	4f 58       	ble	.+88 (0x73e)
 6e6:	5f 49       	jsr	@@73 (0x49)
 6e8:	44 5f       	.word	H'44,H'5f
 6ea:	4e 55       	.word	H'4e,H'55
 6ec:	4d 00       	blt	.0 (0x6ee)
 6ee:	63 61       	btst	r6h,r1h
 6f0:	6c 6c       	mov.b	@er6+,r4l
 6f2:	5f 66       	jsr	@@102 (0x66)
 6f4:	75 6e       	bxor	#0x6,r6l
 6f6:	63 74       	btst	r7h,r4h
 6f8:	69 6f       	mov.w	@er6,e7
 6fa:	6e 73 00 4b 	mov.b	@(0x4b:16,er7),r3h
 6fe:	5a 5f 53 59 	jmp	@0x5f5359:24
 702:	53 43       	divxu.w	r4,er3
 704:	41 4c       	brn	.+76 (0x752)
 706:	4c 5f       	.word	H'4c,H'5f
 708:	54 59       	.word	H'54,H'59
 70a:	50 45       	mulxu.b	r4h,r5
 70c:	5f 47       	jsr	@@71 (0x47)
 70e:	45 54       	bcs	.+84 (0x764)
 710:	49 44       	bvs	.+68 (0x756)
 712:	00 74       	.word	H'0,H'74
 714:	68 72       	mov.b	@er7,r2h
 716:	65 61       	xor.w	r6,r1
 718:	64 5f       	or.w	r5,e7
 71a:	73 6c       	btst	#0x6,r4l
 71c:	65 65       	xor.w	r6,r5
 71e:	70 00       	bset	#0x0,r0h
 720:	5f 6b       	jsr	@@107 (0x6b)
 722:	7a 5f 6d 73 	xor.l	#0x6d73,er7
 726:	67 62       	bst	#0x6,r2h
 728:	75 66       	bxor	#0x6,r6h
 72a:	00 74       	.word	H'0,H'74
 72c:	68 72       	mov.b	@er7,r2h
 72e:	65 61       	xor.w	r6,r1
 730:	64 5f       	or.w	r5,e7
 732:	65 6e       	xor.w	r6,e6
 734:	64 00       	or.w	r0,r0
 736:	4d 53       	.word	H'4d,H'53
 738:	47 42       	beq	.+66 (0x77c)
 73a:	4f 58       	ble	.+88 (0x794)
 73c:	5f 49       	jsr	@@73 (0x49)
 73e:	44 5f       	.word	H'44,H'5f
 740:	43 4f       	.word	H'43,H'4f
 742:	4e 53       	.word	H'4e,H'53
 744:	4f 55       	.word	H'4f,H'55
 746:	54 50       	rts/l	er-5-er0
 748:	55 54       	bsr	.+84 (0x79e)
 74a:	00 74       	.word	H'0,H'74
 74c:	68 72       	mov.b	@er7,r2h
 74e:	65 61       	xor.w	r6,r1
 750:	64 5f       	or.w	r5,e7
 752:	6b 6d       	.word	H'6b,H'6d
 754:	66 72       	and.w	r7,r2
 756:	65 65       	xor.w	r6,r5
 758:	00 72       	.word	H'0,H'72
 75a:	65 63       	xor.w	r6,r3
 75c:	65 69       	xor.w	r6,e1
 75e:	76 65       	band	#0x6,r5h
 760:	72 00       	bclr	#0x0,r0h
 762:	70 72       	bset	#0x7,r2h
 764:	69 6f       	mov.w	@er6,e7
 766:	72 69       	bclr	#0x6,r1l
 768:	74 79       	bor	#0x7,r1l
 76a:	00 4d       	.word	H'0,H'4d
 76c:	53 47       	divxu.w	r4,er7
 76e:	42 4f       	.word	H'42,H'4f
 770:	58 5f       	.word	H'58,H'5f
 772:	49 44       	bvs	.+68 (0x7b8)
 774:	5f 43       	jsr	@@67 (0x43)
 776:	4f 4e       	ble	.+78 (0x7c6)
 778:	53 49       	.word	H'53,H'49
 77a:	4e 50       	bgt	.+80 (0x7cc)
 77c:	55 54       	bsr	.+84 (0x7d2)
 77e:	00 73       	.word	H'0,H'73
 780:	72 76       	bclr	#0x7,r6h
 782:	63 61       	btst	r6h,r1h
 784:	6c 6c       	mov.b	@er6+,r4l
 786:	5f 70       	jsr	@@112 (0x70)
 788:	72 6f       	bclr	#0x6,r7l
 78a:	63 00       	btst	r0h,r0h
 78c:	6b 7a       	.word	H'6b,H'7a
 78e:	5f 73       	jsr	@@115 (0x73)
 790:	72 76       	bclr	#0x7,r6h
 792:	63 61       	btst	r6h,r1h
 794:	6c 6c       	mov.b	@er6+,r4l
 796:	00 72       	.word	H'0,H'72
 798:	65 61       	xor.w	r6,r1
 79a:	64 79       	or.w	r7,e1
 79c:	71 75       	bnot	#0x7,r5h
 79e:	65 00       	xor.w	r0,r0
 7a0:	72 65       	bclr	#0x6,r5h
 7a2:	63 76       	btst	r7h,r6h
 7a4:	6d 73       	mov.w	@er7+,r3
 7a6:	67 00       	bst	#0x0,r0h
 7a8:	4b 5a       	bmi	.+90 (0x804)
 7aa:	5f 53       	jsr	@@83 (0x53)
 7ac:	59 53       	.word	H'59,H'53
 7ae:	43 41       	.word	H'43,H'41
 7b0:	4c 4c       	bge	.+76 (0x7fe)
 7b2:	5f 54       	jsr	@@84 (0x54)
 7b4:	59 50       	jmp	@er5
 7b6:	45 5f       	.word	H'45,H'5f
 7b8:	57 41       	.word	H'57,H'41
 7ba:	4b 45       	.word	H'4b,H'45
 7bc:	55 50       	bsr	.+80 (0x80e)
 7be:	00 6e       	.word	H'0,H'6e
 7c0:	65 78       	xor.w	r7,e0
 7c2:	74 00       	bor	#0x0,r0h
 7c4:	4b 5a       	bmi	.+90 (0x820)
 7c6:	5f 53       	jsr	@@83 (0x53)
 7c8:	59 53       	.word	H'59,H'53
 7ca:	43 41       	.word	H'43,H'41
 7cc:	4c 4c       	bge	.+76 (0x81a)
 7ce:	5f 54       	jsr	@@84 (0x54)
 7d0:	59 50       	jmp	@er5
 7d2:	45 5f       	.word	H'45,H'5f
 7d4:	52 55       	mulxu.w	r5,er5
 7d6:	4e 00       	bgt	.0 (0x7d8)
 7d8:	6d 73       	mov.w	@er7+,r3
 7da:	67 62       	bst	#0x6,r2h
 7dc:	6f 78 65 73 	mov.w	@(0x6573:16,er7),e0
 7e0:	00 6b       	.word	H'0,H'6b
 7e2:	7a 5f 63 68 	xor.l	#0x6368,er7
 7e6:	70 72       	bset	#0x7,r2h
 7e8:	69 00       	mov.w	@er0,r0
 7ea:	6b 7a       	.word	H'6b,H'7a
 7ec:	5f 77       	jsr	@@119 (0x77)
 7ee:	61 69       	bnot	r6h,r1l
 7f0:	74 00       	bor	#0x0,r0h
 7f2:	6b 7a       	.word	H'6b,H'7a
 7f4:	5f 6b       	jsr	@@107 (0x6b)
 7f6:	6d 61       	mov.w	@er6+,r1
 7f8:	6c 6c       	mov.b	@er6+,r4l
 7fa:	6f 63 00 6b 	mov.w	@(0x6b:16,er6),r3
 7fe:	7a 5f 73 6c 	xor.l	#0x736c,er7
 802:	65 65       	xor.w	r6,r5
 804:	70 00       	bset	#0x0,r0h
 806:	6b 7a       	.word	H'6b,H'7a
 808:	5f 6b       	jsr	@@107 (0x6b)
 80a:	6d 66       	mov.w	@er6+,r6
 80c:	72 65       	bclr	#0x6,r5h
 80e:	65 00       	xor.w	r0,r0
 810:	6b 7a       	.word	H'6b,H'7a
 812:	5f 72       	jsr	@@114 (0x72)
 814:	75 6e       	bxor	#0x6,r6l
 816:	00 6b       	.word	H'0,H'6b
 818:	7a 5f 77 61 	xor.l	#0x7761,er7
 81c:	6b 65       	.word	H'6b,H'65
 81e:	75 70       	bxor	#0x7,r0h
 820:	00 6b       	.word	H'0,H'6b
 822:	78 5f       	.word	H'78,H'5f
 824:	6b 6d       	.word	H'6b,H'6d
 826:	61 6c       	bnot	r6h,r4l
 828:	6c 6f       	mov.b	@er6+,r7l
 82a:	63 00       	btst	r0h,r0h
 82c:	6b 7a       	.word	H'6b,H'7a
 82e:	5f 73       	jsr	@@115 (0x73)
 830:	65 6e       	xor.w	r6,e6
 832:	64 00       	or.w	r0,r0
 834:	6b 7a       	.word	H'6b,H'7a
 836:	5f 67       	jsr	@@103 (0x67)
 838:	65 74       	xor.w	r7,r4
 83a:	69 64       	mov.w	@er6,r4
 83c:	00 6b       	.word	H'0,H'6b
 83e:	7a 5f 73 65 	xor.l	#0x7365,er7
 842:	74 69       	bor	#0x6,r1l
 844:	6e 74 72 00 	mov.b	@(0x7200:16,er7),r4h
 848:	6b 78       	.word	H'6b,H'78
 84a:	5f 77       	jsr	@@119 (0x77)
 84c:	61 6b       	bnot	r6h,r3l
 84e:	65 75       	xor.w	r7,r5
 850:	70 00       	bset	#0x0,r0h
 852:	6b 7a       	.word	H'6b,H'7a
 854:	5f 65       	jsr	@@101 (0x65)
 856:	78 69       	.word	H'78,H'69
 858:	74 00       	bor	#0x0,r0h
 85a:	6b 7a       	.word	H'6b,H'7a
 85c:	5f 72       	jsr	@@114 (0x72)
 85e:	65 63       	xor.w	r6,r3
 860:	76 00       	band	#0x0,r0h
 862:	6b 78       	.word	H'6b,H'78
 864:	5f 6b       	jsr	@@107 (0x6b)
 866:	6d 66       	mov.w	@er6+,r6
 868:	72 65       	bclr	#0x6,r5h
 86a:	65 00       	xor.w	r0,r0
 86c:	73 79       	btst	#0x7,r1l
 86e:	73 63       	btst	#0x6,r3h
 870:	61 6c       	bnot	r6h,r4l
 872:	6c 2e       	mov.b	@er2+,r6l
 874:	63 00       	btst	r0h,r0h
 876:	6b 78       	.word	H'6b,H'78
 878:	5f 73       	jsr	@@115 (0x73)
 87a:	65 6e       	xor.w	r6,e6
 87c:	64 00       	or.w	r0,r0
 87e:	6b 7a       	.word	H'6b,H'7a
 880:	6d 65       	mov.w	@er6+,r5
 882:	6d 5f       	mov.w	@er5+,e7
 884:	66 72       	and.w	r7,r2
 886:	65 65       	xor.w	r6,r5
 888:	00 6b       	.word	H'0,H'6b
 88a:	7a 6d 65 6d 	and.l	#0x656d,er5
 88e:	5f 61       	jsr	@@97 (0x61)
 890:	6c 6c       	mov.b	@er6+,r4l
 892:	6f 63 00 6d 	mov.w	@(0x6d:16,er6),r3
 896:	65 6d       	xor.w	r6,e5
 898:	6f 72 79 2e 	mov.w	@(0x792e:16,er7),r2
 89c:	63 00       	btst	r0h,r0h
 89e:	5f 6b       	jsr	@@107 (0x6b)
 8a0:	7a 6d 65 6d 	and.l	#0x656d,er5
 8a4:	5f 62       	jsr	@@98 (0x62)
 8a6:	6c 6f       	mov.b	@er6+,r7l
 8a8:	63 6b       	btst	r6h,r3l
 8aa:	00 5f       	.word	H'0,H'5f
 8ac:	6b 7a       	.word	H'6b,H'7a
 8ae:	6d 65       	mov.w	@er6+,r5
 8b0:	6d 5f       	mov.w	@er5+,e7
 8b2:	70 6f       	bset	#0x6,r7l
 8b4:	6f 6c 00 6b 	mov.w	@(0x6b:16,er6),e4
 8b8:	7a 6d 65 6d 	and.l	#0x656d,er5
 8bc:	5f 69       	jsr	@@105 (0x69)
 8be:	6e 69 74 5f 	mov.b	@(0x745f:16,er6),r1l
 8c2:	70 6f       	bset	#0x6,r7l
 8c4:	6f 6c 00 6b 	mov.w	@(0x6b:16,er6),e4
 8c8:	7a 6d 65 6d 	and.l	#0x656d,er5
 8cc:	5f 69       	jsr	@@105 (0x69)
 8ce:	6e 69 74 00 	mov.b	@(0x7400:16,er6),r1l
 8d2:	66 72       	and.w	r7,r2
 8d4:	65 65       	xor.w	r6,r5
 8d6:	61 72       	bnot	r7h,r2h
 8d8:	65 61       	xor.w	r6,r1
 8da:	00 73       	.word	H'0,H'73
 8dc:	65 6e       	xor.w	r6,e6
 8de:	64 5f       	or.w	r5,e7
 8e0:	73 74       	btst	#0x7,r4h
 8e2:	61 72       	bnot	r7h,r2h
 8e4:	74 00       	bor	#0x0,r0h
 8e6:	73 65       	btst	#0x6,r5h
 8e8:	6e 64 5f 75 	mov.b	@(0x5f75:16,er6),r4h
 8ec:	73 65       	btst	#0x6,r5h
 8ee:	00 63       	.word	H'0,H'63
 8f0:	6f 6d 6d 61 	mov.w	@(0x6d61:16,er6),e5
 8f4:	6e 64 5f 6d 	mov.b	@(0x5f6d:16,er6),r4h
 8f8:	61 69       	bnot	r6h,r1l
 8fa:	6e 00 73 65 	mov.b	@(0x7365:16,er0),r0h
 8fe:	6e 64 5f 77 	mov.b	@(0x5f77:16,er6),r4h
 902:	72 69       	bclr	#0x6,r1l
 904:	74 65       	bor	#0x6,r5h
 906:	00 74       	.word	H'0,H'74
 908:	69 6d       	mov.w	@er6,e5
 90a:	65 72       	xor.w	r7,r2
 90c:	72 65       	bclr	#0x6,r5h
 90e:	71 00       	bnot	#0x0,r0h
 910:	63 6f       	btst	r6h,r7l
 912:	6d 6d       	mov.w	@er6+,e5
 914:	61 6e       	bnot	r6h,r6l
 916:	64 2e       	or.w	r2,e6
 918:	63 00       	btst	r0h,r0h
 91a:	63 6c       	btst	r6h,r4l
 91c:	6f 63 6b 5f 	mov.w	@(0x6b5f:16,er6),r3
 920:	6d 61       	mov.w	@er6+,r1
 922:	69 6e       	mov.w	@er6,e6
 924:	00 63       	.word	H'0,H'63
 926:	6c 6f       	mov.b	@er6+,r7l
 928:	63 6b       	btst	r6h,r3l
 92a:	2e 63       	mov.b	@0x63:8,r6l
 92c:	00 69       	.word	H'0,H'69
 92e:	70 5f       	bset	#0x5,r7l
 930:	6d 61       	mov.w	@er6+,r1
 932:	69 6e       	mov.w	@er6,e6
 934:	00 69       	.word	H'0,H'69
 936:	70 61       	bset	#0x6,r1h
 938:	64 64       	or.w	r6,r4
 93a:	72 00       	bclr	#0x0,r0h
 93c:	74 61       	bor	#0x6,r1h
 93e:	72 67       	bclr	#0x6,r7h
 940:	65 74       	xor.w	r7,r4
 942:	5f 70       	jsr	@@112 (0x70)
 944:	72 6f       	bclr	#0x6,r7l
 946:	74 6f       	bor	#0x6,r7l
 948:	63 6f       	btst	r6h,r7l
 94a:	6c 5f       	mov.b	@er5+,r7l
 94c:	61 64       	bnot	r6h,r4h
 94e:	64 72       	or.w	r7,r2
 950:	00 65       	.word	H'0,H'65
 952:	74 68       	bor	#0x6,r0l
 954:	65 72       	xor.w	r7,r2
 956:	6e 65 74 5f 	mov.b	@(0x745f:16,er6),r5h
 95a:	70 72       	bset	#0x7,r2h
 95c:	6f 63 00 64 	mov.w	@(0x64:16,er6),r3
 960:	73 74       	btst	#0x7,r4h
 962:	5f 61       	jsr	@@97 (0x61)
 964:	64 64       	or.w	r6,r4
 966:	72 00       	bclr	#0x0,r0h
 968:	63 61       	btst	r6h,r1h
 96a:	6c 63       	mov.b	@er6+,r3h
 96c:	5f 63       	jsr	@@99 (0x63)
 96e:	68 65       	mov.b	@er6,r5h
 970:	63 6b       	btst	r6h,r3l
 972:	73 75       	btst	#0x7,r5h
 974:	6d 00       	mov.w	@er0+,r0
 976:	73 65       	btst	#0x6,r5h
 978:	6e 64 65 72 	mov.b	@(0x6572:16,er6),r4h
 97c:	5f 70       	jsr	@@112 (0x70)
 97e:	72 6f       	bclr	#0x6,r7l
 980:	74 6f       	bor	#0x6,r7l
 982:	63 6f       	btst	r6h,r7l
 984:	6c 5f       	mov.b	@er5+,r7l
 986:	61 64       	bnot	r6h,r4h
 988:	64 72       	or.w	r7,r2
 98a:	00 68       	.word	H'0,H'68
 98c:	61 72       	bnot	r7h,r2h
 98e:	64 77       	or.w	r7,r7
 990:	61 72       	bnot	r7h,r2h
 992:	65 5f       	xor.w	r5,e7
 994:	61 64       	bnot	r6h,r4h
 996:	64 72       	or.w	r7,r2
 998:	5f 73       	jsr	@@115 (0x73)
 99a:	69 7a       	mov.w	@er7,e2
 99c:	65 00       	xor.w	r0,r0
 99e:	6e 65 78 74 	mov.b	@(0x7874:16,er6),r5h
 9a2:	68 64       	mov.b	@er6,r4h
 9a4:	72 00       	bclr	#0x0,r0h
 9a6:	6e 65 78 74 	mov.b	@(0x7874:16,er6),r5h
 9aa:	73 69       	btst	#0x6,r1l
 9ac:	7a 65 00 6f 	and.l	#0x6f7065,er5
 9b0:	70 65 
 9b2:	72 61       	bclr	#0x6,r1h
 9b4:	74 69       	bor	#0x6,r1l
 9b6:	6f 6e 00 70 	mov.w	@(0x70:16,er6),e6
 9ba:	72 6f       	bclr	#0x6,r7l
 9bc:	74 6f       	bor	#0x6,r7l
 9be:	63 6f       	btst	r6h,r7l
 9c0:	6c 00       	mov.b	@er0+,r0h
 9c2:	65 74       	xor.w	r7,r4
 9c4:	68 65       	mov.b	@er6,r5h
 9c6:	72 6e       	bclr	#0x6,r6l
 9c8:	65 74       	xor.w	r7,r4
 9ca:	5f 68       	jsr	@@104 (0x68)
 9cc:	65 61       	xor.w	r6,r1
 9ce:	64 65       	or.w	r6,r5
 9d0:	72 00       	bclr	#0x0,r0h
 9d2:	6e 65 74 77 	mov.b	@(0x7477:16,er6),r5h
 9d6:	6f 72 6b 5f 	mov.w	@(0x6b5f:16,er7),r2
 9da:	69 64       	mov.w	@er6,r4
 9dc:	00 69       	.word	H'0,H'69
 9de:	70 5f       	bset	#0x5,r7l
 9e0:	70 72       	bset	#0x7,r2h
 9e2:	6f 63 00 73 	mov.w	@(0x73:16,er6),r3
 9e6:	72 63       	bclr	#0x6,r3h
 9e8:	5f 61       	jsr	@@97 (0x61)
 9ea:	64 64       	or.w	r6,r4
 9ec:	72 00       	bclr	#0x0,r0h
 9ee:	69 63       	mov.w	@er6,r3
 9f0:	6d 70       	mov.w	@er7+,r0
 9f2:	5f 68       	jsr	@@104 (0x68)
 9f4:	65 61       	xor.w	r6,r1
 9f6:	64 65       	or.w	r6,r5
 9f8:	72 00       	bclr	#0x0,r0h
 9fa:	74 6f       	bor	#0x6,r7l
 9fc:	74 61       	bor	#0x6,r1h
 9fe:	6c 5f       	mov.b	@er5+,r7l
 a00:	6c 65       	mov.b	@er6+,r5h
 a02:	6e 67 74 68 	mov.b	@(0x7468:16,er6),r7h
 a06:	00 66       	.word	H'0,H'66
 a08:	72 61       	bclr	#0x6,r1h
 a0a:	67 6d       	bst	#0x6,r5l
 a0c:	65 6e       	xor.w	r6,e6
 a0e:	74 00       	bor	#0x0,r0h
 a10:	69 63       	mov.w	@er6,r3
 a12:	6d 70       	mov.w	@er7+,r0
 a14:	5f 70       	jsr	@@112 (0x70)
 a16:	72 6f       	bclr	#0x6,r7l
 a18:	63 00       	btst	r0h,r0h
 a1a:	74 61       	bor	#0x6,r1h
 a1c:	72 67       	bclr	#0x6,r7h
 a1e:	65 74       	xor.w	r7,r4
 a20:	5f 68       	jsr	@@104 (0x68)
 a22:	61 72       	bnot	r7h,r2h
 a24:	64 77       	or.w	r7,r7
 a26:	61 72       	bnot	r7h,r2h
 a28:	65 5f       	xor.w	r5,e7
 a2a:	61 64       	bnot	r6h,r4h
 a2c:	64 72       	or.w	r7,r2
 a2e:	00 61       	.word	H'0,H'61
 a30:	72 70       	bclr	#0x7,r0h
 a32:	5f 68       	jsr	@@104 (0x68)
 a34:	65 61       	xor.w	r6,r1
 a36:	64 65       	or.w	r6,r5
 a38:	72 00       	bclr	#0x0,r0h
 a3a:	73 65       	btst	#0x6,r5h
 a3c:	6e 64 65 72 	mov.b	@(0x6572:16,er6),r4h
 a40:	5f 68       	jsr	@@104 (0x68)
 a42:	61 72       	bnot	r7h,r2h
 a44:	64 77       	or.w	r7,r7
 a46:	61 72       	bnot	r7h,r2h
 a48:	65 5f       	xor.w	r5,e7
 a4a:	61 64       	bnot	r6h,r4h
 a4c:	64 72       	or.w	r7,r2
 a4e:	00 63       	.word	H'0,H'63
 a50:	6f 64 65 00 	mov.w	@(0x6500:16,er6),r4
 a54:	69 70       	mov.w	@er7,r0
 a56:	2e 63       	mov.b	@0x63:8,r6l
 a58:	00 73       	.word	H'0,H'73
 a5a:	65 6e       	xor.w	r6,e6
 a5c:	64 5f       	or.w	r5,e7
 a5e:	73 65       	btst	#0x6,r5h
 a60:	6e 64 00 68 	mov.b	@(0x68:16,er6),r4h
 a64:	64 72       	or.w	r7,r2
 a66:	6c 65       	mov.b	@er6+,r5h
 a68:	6e 00 61 72 	mov.b	@(0x6172:16,er0),r0h
 a6c:	70 5f       	bset	#0x5,r7l
 a6e:	70 72       	bset	#0x7,r2h
 a70:	6f 63 00 68 	mov.w	@(0x68:16,er6),r3
 a74:	61 72       	bnot	r7h,r2h
 a76:	64 77       	or.w	r7,r7
 a78:	61 72       	bnot	r7h,r2h
 a7a:	65 00       	xor.w	r0,r0
 a7c:	70 72       	bset	#0x7,r2h
 a7e:	6f 74 6f 63 	mov.w	@(0x6f63:16,er7),r4
 a82:	6f 6c 5f 61 	mov.w	@(0x5f61:16,er6),e4
 a86:	64 64       	or.w	r6,r4
 a88:	72 5f       	bclr	#0x5,r7l
 a8a:	73 69       	btst	#0x6,r1l
 a8c:	7a 65 00 69 	and.l	#0x69705f,er5
 a90:	70 5f 
 a92:	68 65       	mov.b	@er6,r5h
 a94:	61 64       	bnot	r6h,r4h
 a96:	65 72       	xor.w	r7,r2
 a98:	00 76       	.word	H'0,H'76
 a9a:	5f 68       	jsr	@@104 (0x68)
 a9c:	6c 00       	mov.b	@er0+,r0h
 a9e:	73 65       	btst	#0x6,r5h
 aa0:	6e 64 5f 73 	mov.b	@(0x5f73:16,er6),r4h
 aa4:	74 72       	bor	#0x7,r2h
 aa6:	69 6e       	mov.w	@er6,e6
 aa8:	67 00       	bst	#0x0,r0h
 aaa:	63 6f       	btst	r6h,r7l
 aac:	6e 73 64 72 	mov.b	@(0x6472:16,er7),r3h
 ab0:	76 5f       	band	#0x5,r7l
 ab2:	63 6f       	btst	r6h,r7l
 ab4:	6d 6d       	mov.w	@er6+,e5
 ab6:	61 6e       	bnot	r6h,r6l
 ab8:	64 00       	or.w	r0,r0
 aba:	73 65       	btst	#0x6,r5h
 abc:	6e 64 5f 63 	mov.b	@(0x5f63:16,er6),r4h
 ac0:	68 61       	mov.b	@er6,r1h
 ac2:	72 00       	bclr	#0x0,r0h
 ac4:	63 6f       	btst	r6h,r7l
 ac6:	6e 73 64 72 	mov.b	@(0x6472:16,er7),r3h
 aca:	76 5f       	band	#0x5,r7l
 acc:	69 6e       	mov.w	@er6,e6
 ace:	74 72       	bor	#0x7,r2h
 ad0:	70 72       	bset	#0x7,r2h
 ad2:	6f 63 00 63 	mov.w	@(0x63:16,er6),r3
 ad6:	6f 6e 73 64 	mov.w	@(0x7364:16,er6),e6
 ada:	72 76       	bclr	#0x7,r6h
 adc:	5f 69       	jsr	@@105 (0x69)
 ade:	6e 74 72 00 	mov.b	@(0x7200:16,er7),r4h
 ae2:	63 6f       	btst	r6h,r7l
 ae4:	6e 73 64 72 	mov.b	@(0x6472:16,er7),r3h
 ae8:	76 5f       	band	#0x5,r7l
 aea:	69 6e       	mov.w	@er6,e6
 aec:	69 74       	mov.w	@er7,r4
 aee:	00 72       	.word	H'0,H'72
 af0:	65 63       	xor.w	r6,r3
 af2:	76 5f       	band	#0x5,r7l
 af4:	62 75       	bclr	r7h,r5h
 af6:	66 00       	and.w	r0,r0
 af8:	73 65       	btst	#0x6,r5h
 afa:	6e 64 5f 6c 	mov.b	@(0x5f6c:16,er6),r4h
 afe:	65 6e       	xor.w	r6,e6
 b00:	00 72       	.word	H'0,H'72
 b02:	65 63       	xor.w	r6,r3
 b04:	76 5f       	band	#0x5,r7l
 b06:	6c 65       	mov.b	@er6+,r5h
 b08:	6e 00 63 6f 	mov.b	@(0x636f:16,er0),r0h
 b0c:	6e 73 64 72 	mov.b	@(0x6472:16,er7),r3h
 b10:	76 2e       	band	#0x2,r6l
 b12:	63 00       	btst	r0h,r0h
 b14:	63 6f       	btst	r6h,r7l
 b16:	6e 73 64 72 	mov.b	@(0x6472:16,er7),r3h
 b1a:	76 5f       	band	#0x5,r7l
 b1c:	6d 61       	mov.w	@er6+,r1
 b1e:	69 6e       	mov.w	@er6,e6
 b20:	00 73       	.word	H'0,H'73
 b22:	65 6e       	xor.w	r6,e6
 b24:	64 5f       	or.w	r5,e7
 b26:	62 75       	bclr	r7h,r5h
 b28:	66 00       	and.w	r0,r0
 b2a:	63 6f       	btst	r6h,r7l
 b2c:	6e 73 72 65 	mov.b	@(0x7265:16,er7),r3h
 b30:	67 00       	bst	#0x0,r0h
 b32:	63 6f       	btst	r6h,r7l
 b34:	6e 73 00 74 	mov.b	@(0x74:16,er7),r3h
 b38:	69 6d       	mov.w	@er6,e5
 b3a:	65 72       	xor.w	r7,r2
 b3c:	64 72       	or.w	r7,r2
 b3e:	76 5f       	band	#0x5,r7l
 b40:	63 6f       	btst	r6h,r7l
 b42:	6d 6d       	mov.w	@er6+,e5
 b44:	61 6e       	bnot	r6h,r6l
 b46:	64 00       	or.w	r0,r0
 b48:	74 69       	bor	#0x6,r1l
 b4a:	6d 65       	mov.w	@er6+,r5
 b4c:	72 64       	bclr	#0x6,r4h
 b4e:	72 76       	bclr	#0x7,r6h
 b50:	5f 69       	jsr	@@105 (0x69)
 b52:	6e 74 72 00 	mov.b	@(0x7200:16,er7),r4h
 b56:	74 6d       	bor	#0x6,r5l
 b58:	62 75       	bclr	r7h,r5h
 b5a:	66 70       	and.w	r7,r0
 b5c:	00 74       	.word	H'0,H'74
 b5e:	69 6d       	mov.w	@er6,e5
 b60:	65 72       	xor.w	r7,r2
 b62:	64 72       	or.w	r7,r2
 b64:	76 5f       	band	#0x5,r7l
 b66:	69 6e       	mov.w	@er6,e6
 b68:	69 74       	mov.w	@er7,r4
 b6a:	00 74       	.word	H'0,H'74
 b6c:	69 6d       	mov.w	@er6,e5
 b6e:	65 72       	xor.w	r7,r2
 b70:	73 00       	btst	#0x0,r0h
 b72:	74 69       	bor	#0x6,r1l
 b74:	6d 65       	mov.w	@er6+,r5
 b76:	72 62       	bclr	#0x6,r2h
 b78:	75 66       	bxor	#0x6,r6h
 b7a:	00 74       	.word	H'0,H'74
 b7c:	6d 62       	mov.w	@er6+,r2
 b7e:	75 66       	bxor	#0x6,r6h
 b80:	00 74       	.word	H'0,H'74
 b82:	69 6d       	mov.w	@er6,e5
 b84:	65 72       	xor.w	r7,r2
 b86:	72 65       	bclr	#0x6,r5h
 b88:	67 00       	bst	#0x0,r0h
 b8a:	74 69       	bor	#0x6,r1l
 b8c:	6d 65       	mov.w	@er6+,r5
 b8e:	72 64       	bclr	#0x6,r4h
 b90:	72 76       	bclr	#0x7,r6h
 b92:	5f 6d       	jsr	@@109 (0x6d)
 b94:	61 69       	bnot	r6h,r1l
 b96:	6e 00 74 69 	mov.b	@(0x7469:16,er0),r0h
 b9a:	6d 65       	mov.w	@er6+,r5
 b9c:	72 64       	bclr	#0x6,r4h
 b9e:	72 76       	bclr	#0x7,r6h
 ba0:	2e 63       	mov.b	@0x63:8,r6l
 ba2:	00 62       	.word	H'0,H'62
 ba4:	75 66       	bxor	#0x6,r6h
 ba6:	66 65       	and.w	r6,r5
 ba8:	72 00       	bclr	#0x0,r0h
 baa:	65 74       	xor.w	r7,r4
 bac:	68 65       	mov.b	@er6,r5h
 bae:	72 64       	bclr	#0x6,r4h
 bb0:	72 76       	bclr	#0x7,r6h
 bb2:	5f 6d       	jsr	@@109 (0x6d)
 bb4:	61 69       	bnot	r6h,r1l
 bb6:	6e 00 65 74 	mov.b	@(0x6574:16,er0),r0h
 bba:	68 65       	mov.b	@er6,r5h
 bbc:	72 64       	bclr	#0x6,r4h
 bbe:	72 76       	bclr	#0x7,r6h
 bc0:	2e 63       	mov.b	@0x63:8,r6l
 bc2:	00 65       	.word	H'0,H'65
 bc4:	74 68       	bor	#0x6,r0l
 bc6:	65 72       	xor.w	r7,r2
 bc8:	64 72       	or.w	r7,r2
 bca:	76 5f       	band	#0x5,r7l
 bcc:	69 6e       	mov.w	@er6,e6
 bce:	74 72       	bor	#0x7,r2h
 bd0:	00 65       	.word	H'0,H'65
 bd2:	74 68       	bor	#0x6,r0l
 bd4:	65 72       	xor.w	r7,r2
 bd6:	64 72       	or.w	r7,r2
 bd8:	76 5f       	band	#0x5,r7l
 bda:	69 6e       	mov.w	@er6,e6
 bdc:	69 74       	mov.w	@er7,r4
 bde:	00 65       	.word	H'0,H'65
 be0:	74 68       	bor	#0x6,r0l
 be2:	65 72       	xor.w	r7,r2
 be4:	64 72       	or.w	r7,r2
 be6:	76 5f       	band	#0x5,r7l
 be8:	63 6f       	btst	r6h,r7l
 bea:	6d 6d       	mov.w	@er6+,e5
 bec:	61 6e       	bnot	r6h,r6l
 bee:	64 00       	or.w	r0,r0

Disassembly of section .comment:

00000000 <.comment>:
   0:	47 43       	.word	H'47,H'43
   2:	43 3a       	bls	.+58 (0x3e)
   4:	20 28       	mov.b	@0x28:8,r0h
   6:	47 4e       	beq	.+78 (0x56)
   8:	55 29       	bsr	.+41 (0x33)
   a:	20 37       	mov.b	@0x37:8,r0h
   c:	2e 33       	mov.b	@0x33:8,r6l
   e:	2e 30       	mov.b	@0x30:8,r6l
	...
