
kozos.elf:     file format elf32-h8300


Disassembly of section .text:

00400100 <_start>:
_text_start():
  400100:	7a 07 00 ff 	mov.l	#0xffff00,er7
  400104:	ff 00 
  400106:	5e 40 02 74 	jsr	@0x400274:24

0040010a <.L11>:
.L11():
  40010a:	40 fe       	bra	.-2 (0x40010a)

0040010c <_dispatch>:
_dispatch():
  40010c:	01 00 69 07 	mov.l	@er0,er7
  400110:	01 00 6d 70 	mov.l	@er7+,er0
  400114:	01 00 6d 71 	mov.l	@er7+,er1
  400118:	01 00 6d 72 	mov.l	@er7+,er2
  40011c:	01 00 6d 73 	mov.l	@er7+,er3
  400120:	01 00 6d 74 	mov.l	@er7+,er4
  400124:	01 00 6d 75 	mov.l	@er7+,er5
  400128:	01 00 6d 76 	mov.l	@er7+,er6
  40012c:	56 70       	rte	

0040012e <_start_threads>:
start_threads():
/home/main.c:8
#include "interrupt.h"
#include "lib.h"

/* システム・タスクとユーザ・タスクの起動 */
static int start_threads(int argc, char *argv[])
{
  40012e:	01 00 6d f6 	mov.l	er6,@-er7
  400132:	0f f6       	mov.l	er7,er6
  400134:	7a 37 00 00 	sub.l	#0x8,er7
  400138:	00 08 
  40013a:	6f e0 ff fe 	mov.w	r0,@(0xfffe:16,er6)
  40013e:	01 00 6f e1 	mov.l	er1,@(0xfff8:16,er6)
  400142:	ff f8 

00400144 <.LM2>:
/home/main.c:9
  kz_run(consdrv_main,  "consdrv",  1, 0x200, 0, NULL);
  400144:	1a a2       	sub.l	er2,er2
  400146:	01 00 6d f2 	mov.l	er2,@-er7
  40014a:	0f f2       	mov.l	er7,er2
  40014c:	1b 92       	subs	#4,er2
  40014e:	0f a7       	mov.l	er2,er7
  400150:	19 22       	sub.w	r2,r2
  400152:	6f f2 00 02 	mov.w	r2,@(0x2:16,er7)
  400156:	0f f2       	mov.l	er7,er2
  400158:	1b 92       	subs	#4,er2
  40015a:	0f a7       	mov.l	er2,er7
  40015c:	79 02 02 00 	mov.w	#0x200,r2
  400160:	6f f2 00 02 	mov.w	r2,@(0x2:16,er7)
  400164:	79 02 00 01 	mov.w	#0x1,r2
  400168:	7a 01 00 40 	mov.l	#0x4040b8,er1
  40016c:	40 b8 
  40016e:	7a 00 00 40 	mov.l	#0x403b62,er0
  400172:	3b 62 
  400174:	5e 40 25 78 	jsr	@0x402578:24
  400178:	7a 17 00 00 	add.l	#0xc,er7
  40017c:	00 0c 

0040017e <.LM3>:
/home/main.c:10
  kz_run(command_main,  "command",  8, 0x200, 0, NULL);
  40017e:	1a a2       	sub.l	er2,er2
  400180:	01 00 6d f2 	mov.l	er2,@-er7
  400184:	0f f2       	mov.l	er7,er2
  400186:	1b 92       	subs	#4,er2
  400188:	0f a7       	mov.l	er2,er7
  40018a:	19 22       	sub.w	r2,r2
  40018c:	6f f2 00 02 	mov.w	r2,@(0x2:16,er7)
  400190:	0f f2       	mov.l	er7,er2
  400192:	1b 92       	subs	#4,er2
  400194:	0f a7       	mov.l	er2,er7
  400196:	79 02 02 00 	mov.w	#0x200,r2
  40019a:	6f f2 00 02 	mov.w	r2,@(0x2:16,er7)
  40019e:	79 02 00 08 	mov.w	#0x8,r2
  4001a2:	7a 01 00 40 	mov.l	#0x4040c0,er1
  4001a6:	40 c0 
  4001a8:	7a 00 00 40 	mov.l	#0x402da8,er0
  4001ac:	2d a8 
  4001ae:	5e 40 25 78 	jsr	@0x402578:24
  4001b2:	7a 17 00 00 	add.l	#0xc,er7
  4001b6:	00 0c 

004001b8 <.LM4>:
/home/main.c:11
  kz_run(timerdrv_main, "timerdrv", 2, 0x100, 0, NULL);
  4001b8:	1a a2       	sub.l	er2,er2
  4001ba:	01 00 6d f2 	mov.l	er2,@-er7
  4001be:	0f f2       	mov.l	er7,er2
  4001c0:	1b 92       	subs	#4,er2
  4001c2:	0f a7       	mov.l	er2,er7
  4001c4:	19 22       	sub.w	r2,r2
  4001c6:	6f f2 00 02 	mov.w	r2,@(0x2:16,er7)
  4001ca:	0f f2       	mov.l	er7,er2
  4001cc:	1b 92       	subs	#4,er2
  4001ce:	0f a7       	mov.l	er2,er7
  4001d0:	79 02 01 00 	mov.w	#0x100,r2
  4001d4:	6f f2 00 02 	mov.w	r2,@(0x2:16,er7)
  4001d8:	79 02 00 02 	mov.w	#0x2,r2
  4001dc:	7a 01 00 40 	mov.l	#0x4040c8,er1
  4001e0:	40 c8 
  4001e2:	7a 00 00 40 	mov.l	#0x403f20,er0
  4001e6:	3f 20 
  4001e8:	5e 40 25 78 	jsr	@0x402578:24
  4001ec:	7a 17 00 00 	add.l	#0xc,er7
  4001f0:	00 0c 

004001f2 <.LM5>:
/home/main.c:12
  kz_run(etherdrv_main, "etherdrv", 3, 0x200, 0, NULL);
  4001f2:	1a a2       	sub.l	er2,er2
  4001f4:	01 00 6d f2 	mov.l	er2,@-er7
  4001f8:	0f f2       	mov.l	er7,er2
  4001fa:	1b 92       	subs	#4,er2
  4001fc:	0f a7       	mov.l	er2,er7
  4001fe:	19 22       	sub.w	r2,r2
  400200:	6f f2 00 02 	mov.w	r2,@(0x2:16,er7)
  400204:	0f f2       	mov.l	er7,er2
  400206:	1b 92       	subs	#4,er2
  400208:	0f a7       	mov.l	er2,er7
  40020a:	79 02 02 00 	mov.w	#0x200,r2
  40020e:	6f f2 00 02 	mov.w	r2,@(0x2:16,er7)
  400212:	79 02 00 03 	mov.w	#0x3,r2
  400216:	7a 01 00 40 	mov.l	#0x4040d1,er1
  40021a:	40 d1 
  40021c:	7a 00 00 40 	mov.l	#0x40405a,er0
  400220:	40 5a 
  400222:	5e 40 25 78 	jsr	@0x402578:24
  400226:	7a 17 00 00 	add.l	#0xc,er7
  40022a:	00 0c 

0040022c <.LM6>:
/home/main.c:16
#if 0
  kz_run(clock_main,    "clock",    9, 0x100, 0, NULL);
#endif
  kz_run(ip_main,       "ip",      10, 0x200, 0, NULL);
  40022c:	1a a2       	sub.l	er2,er2
  40022e:	01 00 6d f2 	mov.l	er2,@-er7
  400232:	0f f2       	mov.l	er7,er2
  400234:	1b 92       	subs	#4,er2
  400236:	0f a7       	mov.l	er2,er7
  400238:	19 22       	sub.w	r2,r2
  40023a:	6f f2 00 02 	mov.w	r2,@(0x2:16,er7)
  40023e:	0f f2       	mov.l	er7,er2
  400240:	1b 92       	subs	#4,er2
  400242:	0f a7       	mov.l	er2,er7
  400244:	79 02 02 00 	mov.w	#0x200,r2
  400248:	6f f2 00 02 	mov.w	r2,@(0x2:16,er7)
  40024c:	79 02 00 0a 	mov.w	#0xa,r2
  400250:	7a 01 00 40 	mov.l	#0x4040da,er1
  400254:	40 da 
  400256:	7a 00 00 40 	mov.l	#0x403600,er0
  40025a:	36 00 
  40025c:	5e 40 25 78 	jsr	@0x402578:24
  400260:	7a 17 00 00 	add.l	#0xc,er7
  400264:	00 0c 

00400266 <.LM7>:
/home/main.c:18

  kz_chpri(15); /* 優先順位を下げて，アイドルスレッドに移行する */
  400266:	79 00 00 0f 	mov.w	#0xf,r0
  40026a:	5e 40 26 e0 	jsr	@0x4026e0:24

0040026e <.LM8>:
/home/main.c:19
  INTR_ENABLE; /* 割込み有効にする */
  40026e:	06 3f       	andc	#0x3f,ccr

00400270 <.L2>:
/home/main.c:21 (discriminator 1)
  while (1) {
    asm volatile ("sleep"); /* 省電力モードに移行 */
  400270:	01 80       	sleep	
  400272:	40 fc       	bra	.-4 (0x400270)

00400274 <_main>:
main():
/home/main.c:28

  return 0;
}

int main(void)
{
  400274:	01 00 6d f6 	mov.l	er6,@-er7
  400278:	0f f6       	mov.l	er7,er6

0040027a <.LM11>:
/home/main.c:29
  INTR_DISABLE; /* 割込み無効にする */
  40027a:	04 c0       	orc	#0xc0,ccr

0040027c <.LM12>:
/home/main.c:31

  puts("kozos boot succeed!\n");
  40027c:	7a 00 00 40 	mov.l	#0x4040dd,er0
  400280:	40 dd 
  400282:	5e 40 07 b6 	jsr	@0x4007b6:24

00400286 <.LM13>:
/home/main.c:34

  /* OSの動作開始 */
  kz_start(start_threads, "idle", 0, 0x100, 0, NULL);
  400286:	1a a2       	sub.l	er2,er2
  400288:	01 00 6d f2 	mov.l	er2,@-er7
  40028c:	0f f2       	mov.l	er7,er2
  40028e:	1b 92       	subs	#4,er2
  400290:	0f a7       	mov.l	er2,er7
  400292:	19 22       	sub.w	r2,r2
  400294:	6f f2 00 02 	mov.w	r2,@(0x2:16,er7)
  400298:	0f f2       	mov.l	er7,er2
  40029a:	1b 92       	subs	#4,er2
  40029c:	0f a7       	mov.l	er2,er7
  40029e:	79 02 01 00 	mov.w	#0x100,r2
  4002a2:	6f f2 00 02 	mov.w	r2,@(0x2:16,er7)
  4002a6:	19 22       	sub.w	r2,r2
  4002a8:	7a 01 00 40 	mov.l	#0x4040f2,er1
  4002ac:	40 f2 
  4002ae:	7a 00 00 40 	mov.l	#0x40012e,er0
  4002b2:	01 2e 
  4002b4:	5e 40 23 f2 	jsr	@0x4023f2:24
  4002b8:	7a 17 00 00 	add.l	#0xc,er7
  4002bc:	00 0c 

004002be <.LM14>:
/home/main.c:37
  /* ここには戻ってこない */

  return 0;
  4002be:	19 22       	sub.w	r2,r2

004002c0 <.LM15>:
/home/main.c:38
}
  4002c0:	0d 20       	mov.w	r2,r0
  4002c2:	01 00 6d 76 	mov.l	@er7+,er6
  4002c6:	54 70       	rts	

004002c8 <_softvec_init>:
softvec_init():
/home/interrupt.c:7
#include "intr.h"
#include "interrupt.h"

/* ソフトウエア・割込みベクタの初期化 */
int softvec_init(void)
{
  4002c8:	01 00 6d f6 	mov.l	er6,@-er7
  4002cc:	0f f6       	mov.l	er7,er6
  4002ce:	1b 97       	subs	#4,er7

004002d0 <.LM2>:
/home/interrupt.c:9
  int type;
  for (type = 0; type < SOFTVEC_TYPE_NUM; type++)
  4002d0:	19 22       	sub.w	r2,r2
  4002d2:	6f e2 ff fe 	mov.w	r2,@(0xfffe:16,er6)
  4002d6:	40 16       	bra	.+22 (0x4002ee)

004002d8 <.L3>:
/home/interrupt.c:10 (discriminator 3)
    softvec_setintr(type, NULL);
  4002d8:	6f 62 ff fe 	mov.w	@(0xfffe:16,er6),r2
  4002dc:	1a 91       	sub.l	er1,er1
  4002de:	0d 20       	mov.w	r2,r0
  4002e0:	5e 40 03 04 	jsr	@0x400304:24

004002e4 <.LM4>:
/home/interrupt.c:9
  for (type = 0; type < SOFTVEC_TYPE_NUM; type++)
  4002e4:	6f 62 ff fe 	mov.w	@(0xfffe:16,er6),r2
  4002e8:	0b 02       	adds	#1,er2
  4002ea:	6f e2 ff fe 	mov.w	r2,@(0xfffe:16,er6)

004002ee <.L2>:
/home/interrupt.c:9 (discriminator 1)
  4002ee:	6f 62 ff fe 	mov.w	@(0xfffe:16,er6),r2
  4002f2:	79 22 00 04 	cmp.w	#0x4,r2
  4002f6:	4f e0       	ble	.-32 (0x4002d8)

004002f8 <.LM6>:
/home/interrupt.c:11
  return 0;
  4002f8:	19 22       	sub.w	r2,r2

004002fa <.LM7>:
/home/interrupt.c:12
}
  4002fa:	0d 20       	mov.w	r2,r0
  4002fc:	0b 97       	adds	#4,er7
  4002fe:	01 00 6d 76 	mov.l	@er7+,er6
  400302:	54 70       	rts	

00400304 <_softvec_setintr>:
softvec_setintr():
/home/interrupt.c:16

/* ソフトウエア・割込みベクタの設定 */
int softvec_setintr(softvec_type_t type, softvec_handler_t handler)
{
  400304:	01 00 6d f6 	mov.l	er6,@-er7
  400308:	0f f6       	mov.l	er7,er6
  40030a:	7a 37 00 00 	sub.l	#0x8,er7
  40030e:	00 08 
  400310:	6f e0 ff fe 	mov.w	r0,@(0xfffe:16,er6)
  400314:	01 00 6f e1 	mov.l	er1,@(0xfff8:16,er6)
  400318:	ff f8 

0040031a <.LM9>:
/home/interrupt.c:17
  SOFTVECS[type] = handler;
  40031a:	6f 62 ff fe 	mov.w	@(0xfffe:16,er6),r2
  40031e:	17 f2       	exts.l	er2
  400320:	10 32       	shll.l	er2
  400322:	10 32       	shll.l	er2
  400324:	7a 12 00 ff 	add.l	#0xffbf20,er2
  400328:	bf 20 
  40032a:	01 00 6f 63 	mov.l	@(0xfff8:16,er6),er3
  40032e:	ff f8 
  400330:	01 00 69 a3 	mov.l	er3,@er2

00400334 <.LM10>:
/home/interrupt.c:18
  return 0;
  400334:	19 22       	sub.w	r2,r2

00400336 <.LM11>:
/home/interrupt.c:19
}
  400336:	0d 20       	mov.w	r2,r0
  400338:	0b 97       	adds	#4,er7
  40033a:	0b 97       	adds	#4,er7
  40033c:	01 00 6d 76 	mov.l	@er7+,er6
  400340:	54 70       	rts	

00400342 <_interrupt>:
interrupt():
/home/interrupt.c:26
/*
 * 共通割込みハンドラ．
 * ソフトウエア・割込みベクタを見て，各ハンドラに分岐する．
 */
void interrupt(softvec_type_t type, unsigned long sp)
{
  400342:	01 00 6d f6 	mov.l	er6,@-er7
  400346:	0f f6       	mov.l	er7,er6
  400348:	7a 37 00 00 	sub.l	#0xc,er7
  40034c:	00 0c 
  40034e:	6f e0 ff fa 	mov.w	r0,@(0xfffa:16,er6)
  400352:	01 00 6f e1 	mov.l	er1,@(0xfff4:16,er6)
  400356:	ff f4 

00400358 <.LM13>:
/home/interrupt.c:27
  softvec_handler_t handler = SOFTVECS[type];
  400358:	6f 62 ff fa 	mov.w	@(0xfffa:16,er6),r2
  40035c:	17 f2       	exts.l	er2
  40035e:	10 32       	shll.l	er2
  400360:	10 32       	shll.l	er2
  400362:	7a 12 00 ff 	add.l	#0xffbf20,er2
  400366:	bf 20 
  400368:	01 00 69 22 	mov.l	@er2,er2
  40036c:	01 00 6f e2 	mov.l	er2,@(0xfffc:16,er6)
  400370:	ff fc 

00400372 <.LM14>:
/home/interrupt.c:28
  if (handler)
  400372:	01 00 6f 62 	mov.l	@(0xfffc:16,er6),er2
  400376:	ff fc 
  400378:	0f a2       	mov.l	er2,er2
  40037a:	47 16       	beq	.+22 (0x400392)

0040037c <.LM15>:
/home/interrupt.c:29
    handler(type, sp);
  40037c:	01 00 6f 60 	mov.l	@(0xfff4:16,er6),er0
  400380:	ff f4 
  400382:	6f 63 ff fa 	mov.w	@(0xfffa:16,er6),r3
  400386:	01 00 6f 62 	mov.l	@(0xfffc:16,er6),er2
  40038a:	ff fc 
  40038c:	0f 81       	mov.l	er0,er1
  40038e:	0d 30       	mov.w	r3,r0
  400390:	5d 20       	jsr	@er2

00400392 <.L9>:
/home/interrupt.c:30
}
  400392:	00 00       	nop	
  400394:	7a 17 00 00 	add.l	#0xc,er7
  400398:	00 0c 
  40039a:	01 00 6d 76 	mov.l	@er7+,er6
  40039e:	54 70       	rts	

004003a0 <_memset>:
memset():
/home/lib.c:6
#include "defines.h"
#include "serial.h"
#include "lib.h"

void *memset(void *b, int c, long len)
{
  4003a0:	01 00 6d f6 	mov.l	er6,@-er7
  4003a4:	0f f6       	mov.l	er7,er6
  4003a6:	7a 37 00 00 	sub.l	#0x10,er7
  4003aa:	00 10 
  4003ac:	01 00 6f e0 	mov.l	er0,@(0xfff8:16,er6)
  4003b0:	ff f8 
  4003b2:	6f e1 ff f6 	mov.w	r1,@(0xfff6:16,er6)
  4003b6:	01 00 6f e2 	mov.l	er2,@(0xfff0:16,er6)
  4003ba:	ff f0 

004003bc <.LM2>:
/home/lib.c:8
  char *p;
  for (p = b; len > 0; len--)
  4003bc:	01 00 6f 62 	mov.l	@(0xfff8:16,er6),er2
  4003c0:	ff f8 
  4003c2:	01 00 6f e2 	mov.l	er2,@(0xfffc:16,er6)
  4003c6:	ff fc 
  4003c8:	40 24       	bra	.+36 (0x4003ee)

004003ca <.L3>:
/home/lib.c:9 (discriminator 3)
    *(p++) = c;
  4003ca:	01 00 6f 62 	mov.l	@(0xfffc:16,er6),er2
  4003ce:	ff fc 
  4003d0:	0f a3       	mov.l	er2,er3
  4003d2:	0b 03       	adds	#1,er3
  4003d4:	01 00 6f e3 	mov.l	er3,@(0xfffc:16,er6)
  4003d8:	ff fc 
  4003da:	6f 63 ff f6 	mov.w	@(0xfff6:16,er6),r3
  4003de:	68 ab       	mov.b	r3l,@er2

004003e0 <.LM4>:
/home/lib.c:8
  for (p = b; len > 0; len--)
  4003e0:	01 00 6f 62 	mov.l	@(0xfff0:16,er6),er2
  4003e4:	ff f0 
  4003e6:	1b 02       	subs	#1,er2
  4003e8:	01 00 6f e2 	mov.l	er2,@(0xfff0:16,er6)
  4003ec:	ff f0 

004003ee <.L2>:
/home/lib.c:8 (discriminator 1)
  4003ee:	01 00 6f 62 	mov.l	@(0xfff0:16,er6),er2
  4003f2:	ff f0 
  4003f4:	0f a2       	mov.l	er2,er2
  4003f6:	4e d2       	bgt	.-46 (0x4003ca)

004003f8 <.LM6>:
/home/lib.c:10
  return b;
  4003f8:	01 00 6f 62 	mov.l	@(0xfff8:16,er6),er2
  4003fc:	ff f8 

004003fe <.LM7>:
/home/lib.c:11
}
  4003fe:	0f a0       	mov.l	er2,er0
  400400:	7a 17 00 00 	add.l	#0x10,er7
  400404:	00 10 
  400406:	01 00 6d 76 	mov.l	@er7+,er6
  40040a:	54 70       	rts	

0040040c <_memcpy>:
memcpy():
/home/lib.c:14

void *memcpy(void *dst, const void *src, long len)
{
  40040c:	01 00 6d f6 	mov.l	er6,@-er7
  400410:	0f f6       	mov.l	er7,er6
  400412:	7a 37 00 00 	sub.l	#0x14,er7
  400416:	00 14 
  400418:	01 00 6f e0 	mov.l	er0,@(0xfff4:16,er6)
  40041c:	ff f4 
  40041e:	01 00 6f e1 	mov.l	er1,@(0xfff0:16,er6)
  400422:	ff f0 
  400424:	01 00 6f e2 	mov.l	er2,@(0xffec:16,er6)
  400428:	ff ec 

0040042a <.LM9>:
/home/lib.c:15
  char *d = dst;
  40042a:	01 00 6f 62 	mov.l	@(0xfff4:16,er6),er2
  40042e:	ff f4 
  400430:	01 00 6f e2 	mov.l	er2,@(0xfffc:16,er6)
  400434:	ff fc 

00400436 <.LM10>:
/home/lib.c:16
  const char *s = src;
  400436:	01 00 6f 62 	mov.l	@(0xfff0:16,er6),er2
  40043a:	ff f0 
  40043c:	01 00 6f e2 	mov.l	er2,@(0xfff8:16,er6)
  400440:	ff f8 

00400442 <.LM11>:
/home/lib.c:17
  for (; len > 0; len--)
  400442:	40 32       	bra	.+50 (0x400476)

00400444 <.L7>:
/home/lib.c:18 (discriminator 2)
    *(d++) = *(s++);
  400444:	01 00 6f 63 	mov.l	@(0xfff8:16,er6),er3
  400448:	ff f8 
  40044a:	0f b2       	mov.l	er3,er2
  40044c:	0b 02       	adds	#1,er2
  40044e:	01 00 6f e2 	mov.l	er2,@(0xfff8:16,er6)
  400452:	ff f8 
  400454:	01 00 6f 62 	mov.l	@(0xfffc:16,er6),er2
  400458:	ff fc 
  40045a:	0f a0       	mov.l	er2,er0
  40045c:	0b 00       	adds	#1,er0
  40045e:	01 00 6f e0 	mov.l	er0,@(0xfffc:16,er6)
  400462:	ff fc 
  400464:	68 3b       	mov.b	@er3,r3l
  400466:	68 ab       	mov.b	r3l,@er2

00400468 <.LM13>:
/home/lib.c:17
  for (; len > 0; len--)
  400468:	01 00 6f 62 	mov.l	@(0xffec:16,er6),er2
  40046c:	ff ec 
  40046e:	1b 02       	subs	#1,er2
  400470:	01 00 6f e2 	mov.l	er2,@(0xffec:16,er6)
  400474:	ff ec 

00400476 <.L6>:
/home/lib.c:17 (discriminator 1)
  400476:	01 00 6f 62 	mov.l	@(0xffec:16,er6),er2
  40047a:	ff ec 
  40047c:	0f a2       	mov.l	er2,er2
  40047e:	4e c4       	bgt	.-60 (0x400444)

00400480 <.LM15>:
/home/lib.c:19
  return dst;
  400480:	01 00 6f 62 	mov.l	@(0xfff4:16,er6),er2
  400484:	ff f4 

00400486 <.LM16>:
/home/lib.c:20
}
  400486:	0f a0       	mov.l	er2,er0
  400488:	7a 17 00 00 	add.l	#0x14,er7
  40048c:	00 14 
  40048e:	01 00 6d 76 	mov.l	@er7+,er6
  400492:	54 70       	rts	

00400494 <_memcmp>:
memcmp():
/home/lib.c:23

int memcmp(const void *b1, const void *b2, long len)
{
  400494:	01 00 6d f6 	mov.l	er6,@-er7
  400498:	0f f6       	mov.l	er7,er6
  40049a:	7a 37 00 00 	sub.l	#0x14,er7
  40049e:	00 14 
  4004a0:	01 00 6f e0 	mov.l	er0,@(0xfff4:16,er6)
  4004a4:	ff f4 
  4004a6:	01 00 6f e1 	mov.l	er1,@(0xfff0:16,er6)
  4004aa:	ff f0 
  4004ac:	01 00 6f e2 	mov.l	er2,@(0xffec:16,er6)
  4004b0:	ff ec 

004004b2 <.LM18>:
/home/lib.c:24
  const char *p1 = b1, *p2 = b2;
  4004b2:	01 00 6f 62 	mov.l	@(0xfff4:16,er6),er2
  4004b6:	ff f4 
  4004b8:	01 00 6f e2 	mov.l	er2,@(0xfffc:16,er6)
  4004bc:	ff fc 
  4004be:	01 00 6f 62 	mov.l	@(0xfff0:16,er6),er2
  4004c2:	ff f0 
  4004c4:	01 00 6f e2 	mov.l	er2,@(0xfff8:16,er6)
  4004c8:	ff f8 

004004ca <.LM19>:
/home/lib.c:25
  for (; len > 0; len--) {
  4004ca:	40 5e       	bra	.+94 (0x40052a)

004004cc <.L15>:
/home/lib.c:26
    if (*p1 != *p2)
  4004cc:	01 00 6f 62 	mov.l	@(0xfffc:16,er6),er2
  4004d0:	ff fc 
  4004d2:	68 2b       	mov.b	@er2,r3l
  4004d4:	01 00 6f 62 	mov.l	@(0xfff8:16,er6),er2
  4004d8:	ff f8 
  4004da:	68 2a       	mov.b	@er2,r2l
  4004dc:	1c ab       	cmp.b	r2l,r3l
  4004de:	47 20       	beq	.+32 (0x400500)

004004e0 <.LM21>:
/home/lib.c:27
      return (*p1 > *p2) ? 1 : -1;
  4004e0:	01 00 6f 62 	mov.l	@(0xfffc:16,er6),er2
  4004e4:	ff fc 
  4004e6:	68 2b       	mov.b	@er2,r3l
  4004e8:	01 00 6f 62 	mov.l	@(0xfff8:16,er6),er2
  4004ec:	ff f8 
  4004ee:	68 2a       	mov.b	@er2,r2l
  4004f0:	1c ab       	cmp.b	r2l,r3l
  4004f2:	43 06       	bls	.+6 (0x4004fa)

004004f4 <.LM22>:
/home/lib.c:27 (discriminator 1)
  4004f4:	79 02 00 01 	mov.w	#0x1,r2
  4004f8:	40 3c       	bra	.+60 (0x400536)

004004fa <.L12>:
/home/lib.c:27 (discriminator 2)
  4004fa:	79 02 ff ff 	mov.w	#0xffff,r2
  4004fe:	40 36       	bra	.+54 (0x400536)

00400500 <.L11>:
/home/lib.c:28
    p1++;
  400500:	01 00 6f 62 	mov.l	@(0xfffc:16,er6),er2
  400504:	ff fc 
  400506:	0b 02       	adds	#1,er2
  400508:	01 00 6f e2 	mov.l	er2,@(0xfffc:16,er6)
  40050c:	ff fc 

0040050e <.LM25>:
/home/lib.c:29
    p2++;
  40050e:	01 00 6f 62 	mov.l	@(0xfff8:16,er6),er2
  400512:	ff f8 
  400514:	0b 02       	adds	#1,er2
  400516:	01 00 6f e2 	mov.l	er2,@(0xfff8:16,er6)
  40051a:	ff f8 

0040051c <.LM26>:
/home/lib.c:25
  for (; len > 0; len--) {
  40051c:	01 00 6f 62 	mov.l	@(0xffec:16,er6),er2
  400520:	ff ec 
  400522:	1b 02       	subs	#1,er2
  400524:	01 00 6f e2 	mov.l	er2,@(0xffec:16,er6)
  400528:	ff ec 

0040052a <.L10>:
/home/lib.c:25 (discriminator 1)
  40052a:	01 00 6f 62 	mov.l	@(0xffec:16,er6),er2
  40052e:	ff ec 
  400530:	0f a2       	mov.l	er2,er2
  400532:	4e 98       	bgt	.-104 (0x4004cc)

00400534 <.LM28>:
/home/lib.c:31
  }
  return 0;
  400534:	19 22       	sub.w	r2,r2

00400536 <.L14>:
/home/lib.c:32
}
  400536:	0d 20       	mov.w	r2,r0
  400538:	7a 17 00 00 	add.l	#0x14,er7
  40053c:	00 14 
  40053e:	01 00 6d 76 	mov.l	@er7+,er6
  400542:	54 70       	rts	

00400544 <_strlen>:
strlen():
/home/lib.c:35

int strlen(const char *s)
{
  400544:	01 00 6d f6 	mov.l	er6,@-er7
  400548:	0f f6       	mov.l	er7,er6
  40054a:	7a 37 00 00 	sub.l	#0x8,er7
  40054e:	00 08 
  400550:	01 00 6f e0 	mov.l	er0,@(0xfff8:16,er6)
  400554:	ff f8 

00400556 <.LM31>:
/home/lib.c:37
  int len;
  for (len = 0; *s; s++, len++)
  400556:	19 22       	sub.w	r2,r2
  400558:	6f e2 ff fe 	mov.w	r2,@(0xfffe:16,er6)
  40055c:	40 18       	bra	.+24 (0x400576)

0040055e <.L18>:
/home/lib.c:37 (discriminator 3)
  40055e:	01 00 6f 62 	mov.l	@(0xfff8:16,er6),er2
  400562:	ff f8 
  400564:	0b 02       	adds	#1,er2
  400566:	01 00 6f e2 	mov.l	er2,@(0xfff8:16,er6)
  40056a:	ff f8 
  40056c:	6f 62 ff fe 	mov.w	@(0xfffe:16,er6),r2
  400570:	0b 02       	adds	#1,er2
  400572:	6f e2 ff fe 	mov.w	r2,@(0xfffe:16,er6)

00400576 <.L17>:
/home/lib.c:37 (discriminator 1)
  400576:	01 00 6f 62 	mov.l	@(0xfff8:16,er6),er2
  40057a:	ff f8 
  40057c:	68 2a       	mov.b	@er2,r2l
  40057e:	0c aa       	mov.b	r2l,r2l
  400580:	46 dc       	bne	.-36 (0x40055e)

00400582 <.LM34>:
/home/lib.c:39
    ;
  return len;
  400582:	6f 62 ff fe 	mov.w	@(0xfffe:16,er6),r2

00400586 <.LM35>:
/home/lib.c:40
}
  400586:	0d 20       	mov.w	r2,r0
  400588:	0b 97       	adds	#4,er7
  40058a:	0b 97       	adds	#4,er7
  40058c:	01 00 6d 76 	mov.l	@er7+,er6
  400590:	54 70       	rts	

00400592 <_strcpy>:
strcpy():
/home/lib.c:43

char *strcpy(char *dst, const char *src)
{
  400592:	01 00 6d f6 	mov.l	er6,@-er7
  400596:	0f f6       	mov.l	er7,er6
  400598:	7a 37 00 00 	sub.l	#0xc,er7
  40059c:	00 0c 
  40059e:	01 00 6f e0 	mov.l	er0,@(0xfff8:16,er6)
  4005a2:	ff f8 
  4005a4:	01 00 6f e1 	mov.l	er1,@(0xfff4:16,er6)
  4005a8:	ff f4 

004005aa <.LM37>:
/home/lib.c:44
  char *d = dst;
  4005aa:	01 00 6f 62 	mov.l	@(0xfff8:16,er6),er2
  4005ae:	ff f8 
  4005b0:	01 00 6f e2 	mov.l	er2,@(0xfffc:16,er6)
  4005b4:	ff fc 

004005b6 <.L23>:
/home/lib.c:46
  for (;; dst++, src++) {
    *dst = *src;
  4005b6:	01 00 6f 62 	mov.l	@(0xfff4:16,er6),er2
  4005ba:	ff f4 
  4005bc:	68 2b       	mov.b	@er2,r3l
  4005be:	01 00 6f 62 	mov.l	@(0xfff8:16,er6),er2
  4005c2:	ff f8 
  4005c4:	68 ab       	mov.b	r3l,@er2

004005c6 <.LM39>:
/home/lib.c:47
    if (!*src) break;
  4005c6:	01 00 6f 62 	mov.l	@(0xfff4:16,er6),er2
  4005ca:	ff f4 
  4005cc:	68 2a       	mov.b	@er2,r2l
  4005ce:	0c aa       	mov.b	r2l,r2l
  4005d0:	47 1e       	beq	.+30 (0x4005f0)

004005d2 <.LM40>:
/home/lib.c:45
  for (;; dst++, src++) {
  4005d2:	01 00 6f 62 	mov.l	@(0xfff8:16,er6),er2
  4005d6:	ff f8 
  4005d8:	0b 02       	adds	#1,er2
  4005da:	01 00 6f e2 	mov.l	er2,@(0xfff8:16,er6)
  4005de:	ff f8 
  4005e0:	01 00 6f 62 	mov.l	@(0xfff4:16,er6),er2
  4005e4:	ff f4 
  4005e6:	0b 02       	adds	#1,er2
  4005e8:	01 00 6f e2 	mov.l	er2,@(0xfff4:16,er6)
  4005ec:	ff f4 

004005ee <.LM41>:
/home/lib.c:46
    *dst = *src;
  4005ee:	40 c6       	bra	.-58 (0x4005b6)

004005f0 <.L26>:
	...

004005f2 <.LM43>:
/home/lib.c:49
  }
  return d;
  4005f2:	01 00 6f 62 	mov.l	@(0xfffc:16,er6),er2
  4005f6:	ff fc 

004005f8 <.LM44>:
/home/lib.c:50
}
  4005f8:	0f a0       	mov.l	er2,er0
  4005fa:	7a 17 00 00 	add.l	#0xc,er7
  4005fe:	00 0c 
  400600:	01 00 6d 76 	mov.l	@er7+,er6
  400604:	54 70       	rts	

00400606 <_strcmp>:
strcmp():
/home/lib.c:53

int strcmp(const char *s1, const char *s2)
{
  400606:	01 00 6d f6 	mov.l	er6,@-er7
  40060a:	0f f6       	mov.l	er7,er6
  40060c:	7a 37 00 00 	sub.l	#0x8,er7
  400610:	00 08 
  400612:	01 00 6f e0 	mov.l	er0,@(0xfffc:16,er6)
  400616:	ff fc 
  400618:	01 00 6f e1 	mov.l	er1,@(0xfff8:16,er6)
  40061c:	ff f8 

0040061e <.LM46>:
/home/lib.c:54
  while (*s1 || *s2) {
  40061e:	40 50       	bra	.+80 (0x400670)

00400620 <.L33>:
/home/lib.c:55
    if (*s1 != *s2)
  400620:	01 00 6f 62 	mov.l	@(0xfffc:16,er6),er2
  400624:	ff fc 
  400626:	68 2b       	mov.b	@er2,r3l
  400628:	01 00 6f 62 	mov.l	@(0xfff8:16,er6),er2
  40062c:	ff f8 
  40062e:	68 2a       	mov.b	@er2,r2l
  400630:	1c ab       	cmp.b	r2l,r3l
  400632:	47 20       	beq	.+32 (0x400654)

00400634 <.LM48>:
/home/lib.c:56
      return (*s1 > *s2) ? 1 : -1;
  400634:	01 00 6f 62 	mov.l	@(0xfffc:16,er6),er2
  400638:	ff fc 
  40063a:	68 2b       	mov.b	@er2,r3l
  40063c:	01 00 6f 62 	mov.l	@(0xfff8:16,er6),er2
  400640:	ff f8 
  400642:	68 2a       	mov.b	@er2,r2l
  400644:	1c ab       	cmp.b	r2l,r3l
  400646:	43 06       	bls	.+6 (0x40064e)

00400648 <.LM49>:
/home/lib.c:56 (discriminator 1)
  400648:	79 02 00 01 	mov.w	#0x1,r2
  40064c:	40 3c       	bra	.+60 (0x40068a)

0040064e <.L30>:
/home/lib.c:56 (discriminator 2)
  40064e:	79 02 ff ff 	mov.w	#0xffff,r2
  400652:	40 36       	bra	.+54 (0x40068a)

00400654 <.L29>:
/home/lib.c:57
    s1++;
  400654:	01 00 6f 62 	mov.l	@(0xfffc:16,er6),er2
  400658:	ff fc 
  40065a:	0b 02       	adds	#1,er2
  40065c:	01 00 6f e2 	mov.l	er2,@(0xfffc:16,er6)
  400660:	ff fc 

00400662 <.LM52>:
/home/lib.c:58
    s2++;
  400662:	01 00 6f 62 	mov.l	@(0xfff8:16,er6),er2
  400666:	ff f8 
  400668:	0b 02       	adds	#1,er2
  40066a:	01 00 6f e2 	mov.l	er2,@(0xfff8:16,er6)
  40066e:	ff f8 

00400670 <.L28>:
/home/lib.c:54
  while (*s1 || *s2) {
  400670:	01 00 6f 62 	mov.l	@(0xfffc:16,er6),er2
  400674:	ff fc 
  400676:	68 2a       	mov.b	@er2,r2l
  400678:	0c aa       	mov.b	r2l,r2l
  40067a:	46 a4       	bne	.-92 (0x400620)

0040067c <.LM54>:
/home/lib.c:54 (discriminator 1)
  40067c:	01 00 6f 62 	mov.l	@(0xfff8:16,er6),er2
  400680:	ff f8 
  400682:	68 2a       	mov.b	@er2,r2l
  400684:	0c aa       	mov.b	r2l,r2l
  400686:	46 98       	bne	.-104 (0x400620)

00400688 <.LM55>:
/home/lib.c:60
  }
  return 0;
  400688:	19 22       	sub.w	r2,r2

0040068a <.L32>:
/home/lib.c:61
}
  40068a:	0d 20       	mov.w	r2,r0
  40068c:	0b 97       	adds	#4,er7
  40068e:	0b 97       	adds	#4,er7
  400690:	01 00 6d 76 	mov.l	@er7+,er6
  400694:	54 70       	rts	

00400696 <_strncmp>:
strncmp():
/home/lib.c:64

int strncmp(const char *s1, const char *s2, int len)
{
  400696:	01 00 6d f6 	mov.l	er6,@-er7
  40069a:	0f f6       	mov.l	er7,er6
  40069c:	7a 37 00 00 	sub.l	#0xc,er7
  4006a0:	00 0c 
  4006a2:	01 00 6f e0 	mov.l	er0,@(0xfffc:16,er6)
  4006a6:	ff fc 
  4006a8:	01 00 6f e1 	mov.l	er1,@(0xfff8:16,er6)
  4006ac:	ff f8 
  4006ae:	6f e2 ff f6 	mov.w	r2,@(0xfff6:16,er6)

004006b2 <.LM58>:
/home/lib.c:65
  while ((*s1 || *s2) && (len > 0)) {
  4006b2:	40 5a       	bra	.+90 (0x40070e)

004006b4 <.L42>:
/home/lib.c:66
    if (*s1 != *s2)
  4006b4:	01 00 6f 62 	mov.l	@(0xfffc:16,er6),er2
  4006b8:	ff fc 
  4006ba:	68 2b       	mov.b	@er2,r3l
  4006bc:	01 00 6f 62 	mov.l	@(0xfff8:16,er6),er2
  4006c0:	ff f8 
  4006c2:	68 2a       	mov.b	@er2,r2l
  4006c4:	1c ab       	cmp.b	r2l,r3l
  4006c6:	47 20       	beq	.+32 (0x4006e8)

004006c8 <.LM60>:
/home/lib.c:67
      return (*s1 > *s2) ? 1 : -1;
  4006c8:	01 00 6f 62 	mov.l	@(0xfffc:16,er6),er2
  4006cc:	ff fc 
  4006ce:	68 2b       	mov.b	@er2,r3l
  4006d0:	01 00 6f 62 	mov.l	@(0xfff8:16,er6),er2
  4006d4:	ff f8 
  4006d6:	68 2a       	mov.b	@er2,r2l
  4006d8:	1c ab       	cmp.b	r2l,r3l
  4006da:	43 06       	bls	.+6 (0x4006e2)

004006dc <.LM61>:
/home/lib.c:67 (discriminator 1)
  4006dc:	79 02 00 01 	mov.w	#0x1,r2
  4006e0:	40 4e       	bra	.+78 (0x400730)

004006e2 <.L37>:
/home/lib.c:67 (discriminator 2)
  4006e2:	79 02 ff ff 	mov.w	#0xffff,r2
  4006e6:	40 48       	bra	.+72 (0x400730)

004006e8 <.L36>:
/home/lib.c:68
    s1++;
  4006e8:	01 00 6f 62 	mov.l	@(0xfffc:16,er6),er2
  4006ec:	ff fc 
  4006ee:	0b 02       	adds	#1,er2
  4006f0:	01 00 6f e2 	mov.l	er2,@(0xfffc:16,er6)
  4006f4:	ff fc 

004006f6 <.LM64>:
/home/lib.c:69
    s2++;
  4006f6:	01 00 6f 62 	mov.l	@(0xfff8:16,er6),er2
  4006fa:	ff f8 
  4006fc:	0b 02       	adds	#1,er2
  4006fe:	01 00 6f e2 	mov.l	er2,@(0xfff8:16,er6)
  400702:	ff f8 

00400704 <.LM65>:
/home/lib.c:70
    len--;
  400704:	6f 62 ff f6 	mov.w	@(0xfff6:16,er6),r2
  400708:	1b 02       	subs	#1,er2
  40070a:	6f e2 ff f6 	mov.w	r2,@(0xfff6:16,er6)

0040070e <.L35>:
/home/lib.c:65
  while ((*s1 || *s2) && (len > 0)) {
  40070e:	01 00 6f 62 	mov.l	@(0xfffc:16,er6),er2
  400712:	ff fc 
  400714:	68 2a       	mov.b	@er2,r2l
  400716:	0c aa       	mov.b	r2l,r2l
  400718:	46 0c       	bne	.+12 (0x400726)

0040071a <.LM67>:
/home/lib.c:65 (discriminator 2)
  40071a:	01 00 6f 62 	mov.l	@(0xfff8:16,er6),er2
  40071e:	ff f8 
  400720:	68 2a       	mov.b	@er2,r2l
  400722:	0c aa       	mov.b	r2l,r2l
  400724:	47 08       	beq	.+8 (0x40072e)

00400726 <.L40>:
/home/lib.c:65 (discriminator 3)
  400726:	6f 62 ff f6 	mov.w	@(0xfff6:16,er6),r2
  40072a:	0d 22       	mov.w	r2,r2
  40072c:	4e 86       	bgt	.-122 (0x4006b4)

0040072e <.L41>:
/home/lib.c:72
  }
  return 0;
  40072e:	19 22       	sub.w	r2,r2

00400730 <.L39>:
/home/lib.c:73
}
  400730:	0d 20       	mov.w	r2,r0
  400732:	7a 17 00 00 	add.l	#0xc,er7
  400736:	00 0c 
  400738:	01 00 6d 76 	mov.l	@er7+,er6
  40073c:	54 70       	rts	

0040073e <_putc>:
putc():
/home/lib.c:77

/* １文字送信 */
int putc(unsigned char c)
{
  40073e:	01 00 6d f6 	mov.l	er6,@-er7
  400742:	0f f6       	mov.l	er7,er6
  400744:	1b 97       	subs	#4,er7
  400746:	6e e8 ff ff 	mov.b	r0l,@(0xffff:16,er6)

0040074a <.LM72>:
/home/lib.c:78
  if (c == '\n')
  40074a:	6e 6a ff ff 	mov.b	@(0xffff:16,er6),r2l
  40074e:	aa 0a       	cmp.b	#0xa,r2l
  400750:	46 0a       	bne	.+10 (0x40075c)

00400752 <.LM73>:
/home/lib.c:79
    serial_send_byte(SERIAL_DEFAULT_DEVICE, '\r');
  400752:	f9 0d       	mov.b	#0xd,r1l
  400754:	79 00 00 01 	mov.w	#0x1,r0
  400758:	5e 40 09 ea 	jsr	@0x4009ea:24

0040075c <.L44>:
/home/lib.c:80
  return serial_send_byte(SERIAL_DEFAULT_DEVICE, c);
  40075c:	6e 6a ff ff 	mov.b	@(0xffff:16,er6),r2l
  400760:	0c a9       	mov.b	r2l,r1l
  400762:	79 00 00 01 	mov.w	#0x1,r0
  400766:	5e 40 09 ea 	jsr	@0x4009ea:24
  40076a:	0d 02       	mov.w	r0,r2

0040076c <.LM75>:
/home/lib.c:81
}
  40076c:	0d 20       	mov.w	r2,r0
  40076e:	0b 97       	adds	#4,er7
  400770:	01 00 6d 76 	mov.l	@er7+,er6
  400774:	54 70       	rts	

00400776 <_getc>:
getc():
/home/lib.c:85

/* １文字受信 */
unsigned char getc(void)
{
  400776:	01 00 6d f6 	mov.l	er6,@-er7
  40077a:	0f f6       	mov.l	er7,er6
  40077c:	1b 97       	subs	#4,er7

0040077e <.LM77>:
/home/lib.c:86
  unsigned char c = serial_recv_byte(SERIAL_DEFAULT_DEVICE);
  40077e:	79 00 00 01 	mov.w	#0x1,r0
  400782:	5e 40 0a a4 	jsr	@0x400aa4:24
  400786:	6e e8 ff ff 	mov.b	r0l,@(0xffff:16,er6)

0040078a <.LM78>:
/home/lib.c:87
  c = (c == '\r') ? '\n' : c;
  40078a:	6e 6a ff ff 	mov.b	@(0xffff:16,er6),r2l
  40078e:	aa 0d       	cmp.b	#0xd,r2l
  400790:	47 06       	beq	.+6 (0x400798)

00400792 <.LM79>:
/home/lib.c:87 (discriminator 1)
  400792:	6e 6a ff ff 	mov.b	@(0xffff:16,er6),r2l
  400796:	40 02       	bra	.+2 (0x40079a)

00400798 <.L47>:
/home/lib.c:87 (discriminator 2)
  400798:	fa 0a       	mov.b	#0xa,r2l

0040079a <.L48>:
/home/lib.c:87 (discriminator 4)
  40079a:	6e ea ff ff 	mov.b	r2l,@(0xffff:16,er6)

0040079e <.LM82>:
/home/lib.c:88
  putc(c); /* エコー・バック */
  40079e:	6e 6a ff ff 	mov.b	@(0xffff:16,er6),r2l
  4007a2:	0c a8       	mov.b	r2l,r0l
  4007a4:	5e 40 07 3e 	jsr	@0x40073e:24

004007a8 <.LM83>:
/home/lib.c:89
  return c;
  4007a8:	6e 6a ff ff 	mov.b	@(0xffff:16,er6),r2l

004007ac <.LM84>:
/home/lib.c:90
}
  4007ac:	0c a8       	mov.b	r2l,r0l
  4007ae:	0b 97       	adds	#4,er7
  4007b0:	01 00 6d 76 	mov.l	@er7+,er6
  4007b4:	54 70       	rts	

004007b6 <_puts>:
puts():
/home/lib.c:94

/* 文字列送信 */
int puts(unsigned char *str)
{
  4007b6:	01 00 6d f6 	mov.l	er6,@-er7
  4007ba:	0f f6       	mov.l	er7,er6
  4007bc:	1b 97       	subs	#4,er7
  4007be:	01 00 6f e0 	mov.l	er0,@(0xfffc:16,er6)
  4007c2:	ff fc 

004007c4 <.LM86>:
/home/lib.c:95
  while (*str)
  4007c4:	40 18       	bra	.+24 (0x4007de)

004007c6 <.L52>:
/home/lib.c:96
    putc(*(str++));
  4007c6:	01 00 6f 62 	mov.l	@(0xfffc:16,er6),er2
  4007ca:	ff fc 
  4007cc:	0f a3       	mov.l	er2,er3
  4007ce:	0b 03       	adds	#1,er3
  4007d0:	01 00 6f e3 	mov.l	er3,@(0xfffc:16,er6)
  4007d4:	ff fc 
  4007d6:	68 2a       	mov.b	@er2,r2l
  4007d8:	0c a8       	mov.b	r2l,r0l
  4007da:	5e 40 07 3e 	jsr	@0x40073e:24

004007de <.L51>:
/home/lib.c:95
  while (*str)
  4007de:	01 00 6f 62 	mov.l	@(0xfffc:16,er6),er2
  4007e2:	ff fc 
  4007e4:	68 2a       	mov.b	@er2,r2l
  4007e6:	0c aa       	mov.b	r2l,r2l
  4007e8:	46 dc       	bne	.-36 (0x4007c6)

004007ea <.LM89>:
/home/lib.c:97
  return 0;
  4007ea:	19 22       	sub.w	r2,r2

004007ec <.LM90>:
/home/lib.c:98
}
  4007ec:	0d 20       	mov.w	r2,r0
  4007ee:	0b 97       	adds	#4,er7
  4007f0:	01 00 6d 76 	mov.l	@er7+,er6
  4007f4:	54 70       	rts	

004007f6 <_gets>:
gets():
/home/lib.c:102

/* 文字列受信 */
int gets(unsigned char *buf)
{
  4007f6:	01 00 6d f6 	mov.l	er6,@-er7
  4007fa:	0f f6       	mov.l	er7,er6
  4007fc:	7a 37 00 00 	sub.l	#0x8,er7
  400800:	00 08 
  400802:	01 00 6f e0 	mov.l	er0,@(0xfff8:16,er6)
  400806:	ff f8 

00400808 <.LM92>:
/home/lib.c:103
  int i = 0;
  400808:	19 22       	sub.w	r2,r2
  40080a:	6f e2 ff fe 	mov.w	r2,@(0xfffe:16,er6)

0040080e <.L56>:
/home/lib.c:106
  unsigned char c;
  do {
    c = getc();
  40080e:	5e 40 07 76 	jsr	@0x400776:24
  400812:	6e e8 ff fd 	mov.b	r0l,@(0xfffd:16,er6)

00400816 <.LM94>:
/home/lib.c:107
    if (c == '\n')
  400816:	6e 6a ff fd 	mov.b	@(0xfffd:16,er6),r2l
  40081a:	aa 0a       	cmp.b	#0xa,r2l
  40081c:	46 06       	bne	.+6 (0x400824)

0040081e <.LM95>:
/home/lib.c:108
      c = '\0';
  40081e:	18 aa       	sub.b	r2l,r2l
  400820:	6e ea ff fd 	mov.b	r2l,@(0xfffd:16,er6)

00400824 <.L55>:
/home/lib.c:109
    buf[i++] = c;
  400824:	6f 62 ff fe 	mov.w	@(0xfffe:16,er6),r2
  400828:	0d 23       	mov.w	r2,r3
  40082a:	0b 03       	adds	#1,er3
  40082c:	6f e3 ff fe 	mov.w	r3,@(0xfffe:16,er6)
  400830:	17 f2       	exts.l	er2
  400832:	01 00 6f 63 	mov.l	@(0xfff8:16,er6),er3
  400836:	ff f8 
  400838:	0a b2       	add.l	er3,er2
  40083a:	6e 6b ff fd 	mov.b	@(0xfffd:16,er6),r3l
  40083e:	68 ab       	mov.b	r3l,@er2

00400840 <.LM97>:
/home/lib.c:110
  } while (c);
  400840:	6e 6a ff fd 	mov.b	@(0xfffd:16,er6),r2l
  400844:	0c aa       	mov.b	r2l,r2l
  400846:	46 c6       	bne	.-58 (0x40080e)

00400848 <.LM98>:
/home/lib.c:111
  return i - 1;
  400848:	6f 62 ff fe 	mov.w	@(0xfffe:16,er6),r2
  40084c:	1b 02       	subs	#1,er2

0040084e <.LM99>:
/home/lib.c:112
}
  40084e:	0d 20       	mov.w	r2,r0
  400850:	0b 97       	adds	#4,er7
  400852:	0b 97       	adds	#4,er7
  400854:	01 00 6d 76 	mov.l	@er7+,er6
  400858:	54 70       	rts	

0040085a <_putxval>:
putxval():
/home/lib.c:116

/* 数値の16進表示 */
int putxval(unsigned long value, int column)
{
  40085a:	01 00 6d f6 	mov.l	er6,@-er7
  40085e:	0f f6       	mov.l	er7,er6
  400860:	7a 37 00 00 	sub.l	#0x18,er7
  400864:	00 18 
  400866:	01 00 6f e0 	mov.l	er0,@(0xffec:16,er6)
  40086a:	ff ec 
  40086c:	6f e1 ff ea 	mov.w	r1,@(0xffea:16,er6)

00400870 <.LM101>:
/home/lib.c:120
  char buf[9];
  char *p;

  p = buf + sizeof(buf) - 1;
  400870:	0f e2       	mov.l	er6,er2
  400872:	7a 32 00 00 	sub.l	#0xd,er2
  400876:	00 0d 
  400878:	0b 92       	adds	#4,er2
  40087a:	0b 92       	adds	#4,er2
  40087c:	01 00 6f e2 	mov.l	er2,@(0xfffc:16,er6)
  400880:	ff fc 

00400882 <.LM102>:
/home/lib.c:121
  *(p--) = '\0';
  400882:	01 00 6f 62 	mov.l	@(0xfffc:16,er6),er2
  400886:	ff fc 
  400888:	0f a3       	mov.l	er2,er3
  40088a:	1b 03       	subs	#1,er3
  40088c:	01 00 6f e3 	mov.l	er3,@(0xfffc:16,er6)
  400890:	ff fc 
  400892:	18 bb       	sub.b	r3l,r3l
  400894:	68 ab       	mov.b	r3l,@er2

00400896 <.LM103>:
/home/lib.c:123

  if (!value && !column)
  400896:	01 00 6f 62 	mov.l	@(0xffec:16,er6),er2
  40089a:	ff ec 
  40089c:	0f a2       	mov.l	er2,er2
  40089e:	46 62       	bne	.+98 (0x400902)

004008a0 <.LM104>:
/home/lib.c:123 (discriminator 1)
  4008a0:	6f 62 ff ea 	mov.w	@(0xffea:16,er6),r2
  4008a4:	0d 22       	mov.w	r2,r2
  4008a6:	46 5a       	bne	.+90 (0x400902)

004008a8 <.LM105>:
/home/lib.c:124
    column++;
  4008a8:	6f 62 ff ea 	mov.w	@(0xffea:16,er6),r2
  4008ac:	0b 02       	adds	#1,er2
  4008ae:	6f e2 ff ea 	mov.w	r2,@(0xffea:16,er6)

004008b2 <.LM106>:
/home/lib.c:126

  while (value || column) {
  4008b2:	40 4e       	bra	.+78 (0x400902)

004008b4 <.L61>:
/home/lib.c:127
    *(p--) = "0123456789abcdef"[value & 0xf];
  4008b4:	01 00 6f 62 	mov.l	@(0xffec:16,er6),er2
  4008b8:	ff ec 
  4008ba:	0f a3       	mov.l	er2,er3
  4008bc:	7a 63 00 00 	and.l	#0xf,er3
  4008c0:	00 0f 
  4008c2:	01 00 6f 62 	mov.l	@(0xfffc:16,er6),er2
  4008c6:	ff fc 
  4008c8:	0f a0       	mov.l	er2,er0
  4008ca:	1b 00       	subs	#1,er0
  4008cc:	01 00 6f e0 	mov.l	er0,@(0xfffc:16,er6)
  4008d0:	ff fc 
  4008d2:	78 30 6a 2b 	mov.b	@(0x4040f7:32,er3),r3l
  4008d6:	00 40 40 f7 
  4008da:	68 ab       	mov.b	r3l,@er2

004008dc <.LM108>:
/home/lib.c:128
    value >>= 4;
  4008dc:	01 00 6f 62 	mov.l	@(0xffec:16,er6),er2
  4008e0:	ff ec 
  4008e2:	11 32       	shlr.l	er2
  4008e4:	11 32       	shlr.l	er2
  4008e6:	11 32       	shlr.l	er2
  4008e8:	11 32       	shlr.l	er2
  4008ea:	01 00 6f e2 	mov.l	er2,@(0xffec:16,er6)
  4008ee:	ff ec 

004008f0 <.LM109>:
/home/lib.c:129
    if (column) column--;
  4008f0:	6f 62 ff ea 	mov.w	@(0xffea:16,er6),r2
  4008f4:	0d 22       	mov.w	r2,r2
  4008f6:	47 0a       	beq	.+10 (0x400902)

004008f8 <.LM110>:
/home/lib.c:129 (discriminator 1)
  4008f8:	6f 62 ff ea 	mov.w	@(0xffea:16,er6),r2
  4008fc:	1b 02       	subs	#1,er2
  4008fe:	6f e2 ff ea 	mov.w	r2,@(0xffea:16,er6)

00400902 <.L60>:
/home/lib.c:126
  while (value || column) {
  400902:	01 00 6f 62 	mov.l	@(0xffec:16,er6),er2
  400906:	ff ec 
  400908:	0f a2       	mov.l	er2,er2
  40090a:	46 a8       	bne	.-88 (0x4008b4)

0040090c <.LM112>:
/home/lib.c:126 (discriminator 1)
  40090c:	6f 62 ff ea 	mov.w	@(0xffea:16,er6),r2
  400910:	0d 22       	mov.w	r2,r2
  400912:	46 a0       	bne	.-96 (0x4008b4)

00400914 <.LM113>:
/home/lib.c:132
  }

  puts(p + 1);
  400914:	01 00 6f 62 	mov.l	@(0xfffc:16,er6),er2
  400918:	ff fc 
  40091a:	0b 02       	adds	#1,er2
  40091c:	0f a0       	mov.l	er2,er0
  40091e:	5e 40 07 b6 	jsr	@0x4007b6:24

00400922 <.LM114>:
/home/lib.c:134

  return 0;
  400922:	19 22       	sub.w	r2,r2

00400924 <.LM115>:
/home/lib.c:135
}
  400924:	0d 20       	mov.w	r2,r0
  400926:	7a 17 00 00 	add.l	#0x18,er7
  40092a:	00 18 
  40092c:	01 00 6d 76 	mov.l	@er7+,er6
  400930:	54 70       	rts	

00400932 <_serial_init>:
serial_init():
/home/serial.c:59
  { H8_3069F_SCI2 }, 
};

/* デバイス初期化 */
int serial_init(int index)
{
  400932:	01 00 6d f6 	mov.l	er6,@-er7
  400936:	0f f6       	mov.l	er7,er6
  400938:	7a 37 00 00 	sub.l	#0x8,er7
  40093c:	00 08 
  40093e:	6f e0 ff fa 	mov.w	r0,@(0xfffa:16,er6)

00400942 <.LM2>:
/home/serial.c:60
  volatile struct h8_3069f_sci *sci = regs[index].sci;
  400942:	6f 62 ff fa 	mov.w	@(0xfffa:16,er6),r2
  400946:	17 f2       	exts.l	er2
  400948:	10 32       	shll.l	er2
  40094a:	10 32       	shll.l	er2
  40094c:	7a 12 00 40 	add.l	#0x4041d0,er2
  400950:	41 d0 
  400952:	01 00 69 22 	mov.l	@er2,er2
  400956:	01 00 6f e2 	mov.l	er2,@(0xfffc:16,er6)
  40095a:	ff fc 

0040095c <.LM3>:
/home/serial.c:62

  sci->scr = 0;
  40095c:	01 00 6f 62 	mov.l	@(0xfffc:16,er6),er2
  400960:	ff fc 
  400962:	18 bb       	sub.b	r3l,r3l
  400964:	6e ab 00 02 	mov.b	r3l,@(0x2:16,er2)

00400968 <.LM4>:
/home/serial.c:63
  sci->smr = 0;
  400968:	01 00 6f 62 	mov.l	@(0xfffc:16,er6),er2
  40096c:	ff fc 
  40096e:	18 bb       	sub.b	r3l,r3l
  400970:	68 ab       	mov.b	r3l,@er2

00400972 <.LM5>:
/home/serial.c:64
  sci->brr = 64; /* 20MHzのクロックから9600bpsを生成(25MHzの場合は80にする) */
  400972:	01 00 6f 62 	mov.l	@(0xfffc:16,er6),er2
  400976:	ff fc 
  400978:	fb 40       	mov.b	#0x40,r3l
  40097a:	6e ab 00 01 	mov.b	r3l,@(0x1:16,er2)

0040097e <.LM6>:
/home/serial.c:65
  sci->scr = H8_3069F_SCI_SCR_RE | H8_3069F_SCI_SCR_TE; /* 送受信可能 */
  40097e:	01 00 6f 62 	mov.l	@(0xfffc:16,er6),er2
  400982:	ff fc 
  400984:	fb 30       	mov.b	#0x30,r3l
  400986:	6e ab 00 02 	mov.b	r3l,@(0x2:16,er2)

0040098a <.LM7>:
/home/serial.c:66
  sci->ssr = 0;
  40098a:	01 00 6f 62 	mov.l	@(0xfffc:16,er6),er2
  40098e:	ff fc 
  400990:	18 bb       	sub.b	r3l,r3l
  400992:	6e ab 00 04 	mov.b	r3l,@(0x4:16,er2)

00400996 <.LM8>:
/home/serial.c:68

  return 0;
  400996:	19 22       	sub.w	r2,r2

00400998 <.LM9>:
/home/serial.c:69
}
  400998:	0d 20       	mov.w	r2,r0
  40099a:	0b 97       	adds	#4,er7
  40099c:	0b 97       	adds	#4,er7
  40099e:	01 00 6d 76 	mov.l	@er7+,er6
  4009a2:	54 70       	rts	

004009a4 <_serial_is_send_enable>:
serial_is_send_enable():
/home/serial.c:73

/* 送信可能か？ */
int serial_is_send_enable(int index)
{
  4009a4:	01 00 6d f6 	mov.l	er6,@-er7
  4009a8:	0f f6       	mov.l	er7,er6
  4009aa:	7a 37 00 00 	sub.l	#0x8,er7
  4009ae:	00 08 
  4009b0:	6f e0 ff fa 	mov.w	r0,@(0xfffa:16,er6)

004009b4 <.LM11>:
/home/serial.c:74
  volatile struct h8_3069f_sci *sci = regs[index].sci;
  4009b4:	6f 62 ff fa 	mov.w	@(0xfffa:16,er6),r2
  4009b8:	17 f2       	exts.l	er2
  4009ba:	10 32       	shll.l	er2
  4009bc:	10 32       	shll.l	er2
  4009be:	7a 12 00 40 	add.l	#0x4041d0,er2
  4009c2:	41 d0 
  4009c4:	01 00 69 22 	mov.l	@er2,er2
  4009c8:	01 00 6f e2 	mov.l	er2,@(0xfffc:16,er6)
  4009cc:	ff fc 

004009ce <.LM12>:
/home/serial.c:75
  return (sci->ssr & H8_3069F_SCI_SSR_TDRE);
  4009ce:	01 00 6f 62 	mov.l	@(0xfffc:16,er6),er2
  4009d2:	ff fc 
  4009d4:	6e 2a 00 04 	mov.b	@(0x4:16,er2),r2l
  4009d8:	17 52       	extu.w	r2
  4009da:	79 62 00 80 	and.w	#0x80,r2

004009de <.LM13>:
/home/serial.c:76
}
  4009de:	0d 20       	mov.w	r2,r0
  4009e0:	0b 97       	adds	#4,er7
  4009e2:	0b 97       	adds	#4,er7
  4009e4:	01 00 6d 76 	mov.l	@er7+,er6
  4009e8:	54 70       	rts	

004009ea <_serial_send_byte>:
serial_send_byte():
/home/serial.c:80

/* １文字送信 */
int serial_send_byte(int index, unsigned char c)
{
  4009ea:	01 00 6d f6 	mov.l	er6,@-er7
  4009ee:	0f f6       	mov.l	er7,er6
  4009f0:	7a 37 00 00 	sub.l	#0x8,er7
  4009f4:	00 08 
  4009f6:	6f e0 ff fa 	mov.w	r0,@(0xfffa:16,er6)
  4009fa:	6e e9 ff f9 	mov.b	r1l,@(0xfff9:16,er6)

004009fe <.LM15>:
/home/serial.c:81
  volatile struct h8_3069f_sci *sci = regs[index].sci;
  4009fe:	6f 62 ff fa 	mov.w	@(0xfffa:16,er6),r2
  400a02:	17 f2       	exts.l	er2
  400a04:	10 32       	shll.l	er2
  400a06:	10 32       	shll.l	er2
  400a08:	7a 12 00 40 	add.l	#0x4041d0,er2
  400a0c:	41 d0 
  400a0e:	01 00 69 22 	mov.l	@er2,er2
  400a12:	01 00 6f e2 	mov.l	er2,@(0xfffc:16,er6)
  400a16:	ff fc 

00400a18 <.LM16>:
	...

00400a1a <.L6>:
/home/serial.c:84 (discriminator 1)

  /* 送信可能になるまで待つ */
  while (!serial_is_send_enable(index))
  400a1a:	6f 62 ff fa 	mov.w	@(0xfffa:16,er6),r2
  400a1e:	0d 20       	mov.w	r2,r0
  400a20:	5e 40 09 a4 	jsr	@0x4009a4:24
  400a24:	0d 02       	mov.w	r0,r2
  400a26:	0d 22       	mov.w	r2,r2
  400a28:	47 f0       	beq	.-16 (0x400a1a)

00400a2a <.LM18>:
/home/serial.c:86
    ;
  sci->tdr = c;
  400a2a:	01 00 6f 62 	mov.l	@(0xfffc:16,er6),er2
  400a2e:	ff fc 
  400a30:	6e 6b ff f9 	mov.b	@(0xfff9:16,er6),r3l
  400a34:	6e ab 00 03 	mov.b	r3l,@(0x3:16,er2)

00400a38 <.LM19>:
/home/serial.c:87
  sci->ssr &= ~H8_3069F_SCI_SSR_TDRE; /* 送信開始 */
  400a38:	01 00 6f 62 	mov.l	@(0xfffc:16,er6),er2
  400a3c:	ff fc 
  400a3e:	6e 2a 00 04 	mov.b	@(0x4:16,er2),r2l
  400a42:	0c ab       	mov.b	r2l,r3l
  400a44:	72 7b       	bclr	#0x7,r3l
  400a46:	01 00 6f 62 	mov.l	@(0xfffc:16,er6),er2
  400a4a:	ff fc 
  400a4c:	6e ab 00 04 	mov.b	r3l,@(0x4:16,er2)

00400a50 <.LM20>:
/home/serial.c:89

  return 0;
  400a50:	19 22       	sub.w	r2,r2

00400a52 <.LM21>:
/home/serial.c:90
}
  400a52:	0d 20       	mov.w	r2,r0
  400a54:	0b 97       	adds	#4,er7
  400a56:	0b 97       	adds	#4,er7
  400a58:	01 00 6d 76 	mov.l	@er7+,er6
  400a5c:	54 70       	rts	

00400a5e <_serial_is_recv_enable>:
serial_is_recv_enable():
/home/serial.c:94

/* 受信可能か？ */
int serial_is_recv_enable(int index)
{
  400a5e:	01 00 6d f6 	mov.l	er6,@-er7
  400a62:	0f f6       	mov.l	er7,er6
  400a64:	7a 37 00 00 	sub.l	#0x8,er7
  400a68:	00 08 
  400a6a:	6f e0 ff fa 	mov.w	r0,@(0xfffa:16,er6)

00400a6e <.LM23>:
/home/serial.c:95
  volatile struct h8_3069f_sci *sci = regs[index].sci;
  400a6e:	6f 62 ff fa 	mov.w	@(0xfffa:16,er6),r2
  400a72:	17 f2       	exts.l	er2
  400a74:	10 32       	shll.l	er2
  400a76:	10 32       	shll.l	er2
  400a78:	7a 12 00 40 	add.l	#0x4041d0,er2
  400a7c:	41 d0 
  400a7e:	01 00 69 22 	mov.l	@er2,er2
  400a82:	01 00 6f e2 	mov.l	er2,@(0xfffc:16,er6)
  400a86:	ff fc 

00400a88 <.LM24>:
/home/serial.c:96
  return (sci->ssr & H8_3069F_SCI_SSR_RDRF);
  400a88:	01 00 6f 62 	mov.l	@(0xfffc:16,er6),er2
  400a8c:	ff fc 
  400a8e:	6e 2a 00 04 	mov.b	@(0x4:16,er2),r2l
  400a92:	17 52       	extu.w	r2
  400a94:	79 62 00 40 	and.w	#0x40,r2

00400a98 <.LM25>:
/home/serial.c:97
}
  400a98:	0d 20       	mov.w	r2,r0
  400a9a:	0b 97       	adds	#4,er7
  400a9c:	0b 97       	adds	#4,er7
  400a9e:	01 00 6d 76 	mov.l	@er7+,er6
  400aa2:	54 70       	rts	

00400aa4 <_serial_recv_byte>:
serial_recv_byte():
/home/serial.c:101

/* １文字受信 */
unsigned char serial_recv_byte(int index)
{
  400aa4:	01 00 6d f6 	mov.l	er6,@-er7
  400aa8:	0f f6       	mov.l	er7,er6
  400aaa:	7a 37 00 00 	sub.l	#0xc,er7
  400aae:	00 0c 
  400ab0:	6f e0 ff f6 	mov.w	r0,@(0xfff6:16,er6)

00400ab4 <.LM27>:
/home/serial.c:102
  volatile struct h8_3069f_sci *sci = regs[index].sci;
  400ab4:	6f 62 ff f6 	mov.w	@(0xfff6:16,er6),r2
  400ab8:	17 f2       	exts.l	er2
  400aba:	10 32       	shll.l	er2
  400abc:	10 32       	shll.l	er2
  400abe:	7a 12 00 40 	add.l	#0x4041d0,er2
  400ac2:	41 d0 
  400ac4:	01 00 69 22 	mov.l	@er2,er2
  400ac8:	01 00 6f e2 	mov.l	er2,@(0xfffc:16,er6)
  400acc:	ff fc 

00400ace <.LM28>:
	...

00400ad0 <.L11>:
/home/serial.c:106 (discriminator 1)
  unsigned char c;

  /* 受信文字が来るまで待つ */
  while (!serial_is_recv_enable(index))
  400ad0:	6f 62 ff f6 	mov.w	@(0xfff6:16,er6),r2
  400ad4:	0d 20       	mov.w	r2,r0
  400ad6:	5e 40 0a 5e 	jsr	@0x400a5e:24
  400ada:	0d 02       	mov.w	r0,r2
  400adc:	0d 22       	mov.w	r2,r2
  400ade:	47 f0       	beq	.-16 (0x400ad0)

00400ae0 <.LM30>:
/home/serial.c:108
    ;
  c = sci->rdr;
  400ae0:	01 00 6f 62 	mov.l	@(0xfffc:16,er6),er2
  400ae4:	ff fc 
  400ae6:	6e 2a 00 05 	mov.b	@(0x5:16,er2),r2l
  400aea:	6e ea ff fb 	mov.b	r2l,@(0xfffb:16,er6)

00400aee <.LM31>:
/home/serial.c:109
  sci->ssr &= ~H8_3069F_SCI_SSR_RDRF; /* 受信完了 */
  400aee:	01 00 6f 62 	mov.l	@(0xfffc:16,er6),er2
  400af2:	ff fc 
  400af4:	6e 2a 00 04 	mov.b	@(0x4:16,er2),r2l
  400af8:	0c ab       	mov.b	r2l,r3l
  400afa:	72 6b       	bclr	#0x6,r3l
  400afc:	01 00 6f 62 	mov.l	@(0xfffc:16,er6),er2
  400b00:	ff fc 
  400b02:	6e ab 00 04 	mov.b	r3l,@(0x4:16,er2)

00400b06 <.LM32>:
/home/serial.c:111

  return c;
  400b06:	6e 6a ff fb 	mov.b	@(0xfffb:16,er6),r2l

00400b0a <.LM33>:
/home/serial.c:112
}
  400b0a:	0c a8       	mov.b	r2l,r0l
  400b0c:	7a 17 00 00 	add.l	#0xc,er7
  400b10:	00 0c 
  400b12:	01 00 6d 76 	mov.l	@er7+,er6
  400b16:	54 70       	rts	

00400b18 <_serial_intr_is_send_enable>:
serial_intr_is_send_enable():
/home/serial.c:116

/* 送信割込み有効か？ */
int serial_intr_is_send_enable(int index)
{
  400b18:	01 00 6d f6 	mov.l	er6,@-er7
  400b1c:	0f f6       	mov.l	er7,er6
  400b1e:	7a 37 00 00 	sub.l	#0x8,er7
  400b22:	00 08 
  400b24:	6f e0 ff fa 	mov.w	r0,@(0xfffa:16,er6)

00400b28 <.LM35>:
/home/serial.c:117
  volatile struct h8_3069f_sci *sci = regs[index].sci;
  400b28:	6f 62 ff fa 	mov.w	@(0xfffa:16,er6),r2
  400b2c:	17 f2       	exts.l	er2
  400b2e:	10 32       	shll.l	er2
  400b30:	10 32       	shll.l	er2
  400b32:	7a 12 00 40 	add.l	#0x4041d0,er2
  400b36:	41 d0 
  400b38:	01 00 69 22 	mov.l	@er2,er2
  400b3c:	01 00 6f e2 	mov.l	er2,@(0xfffc:16,er6)
  400b40:	ff fc 

00400b42 <.LM36>:
/home/serial.c:118
  return (sci->scr & H8_3069F_SCI_SCR_TIE) ? 1 : 0;
  400b42:	01 00 6f 62 	mov.l	@(0xfffc:16,er6),er2
  400b46:	ff fc 
  400b48:	6e 2a 00 02 	mov.b	@(0x2:16,er2),r2l
  400b4c:	12 8a       	rotl.b	r2l
  400b4e:	ea 01       	and.b	#0x1,r2l
  400b50:	17 52       	extu.w	r2

00400b52 <.LM37>:
/home/serial.c:119
}
  400b52:	0d 20       	mov.w	r2,r0
  400b54:	0b 97       	adds	#4,er7
  400b56:	0b 97       	adds	#4,er7
  400b58:	01 00 6d 76 	mov.l	@er7+,er6
  400b5c:	54 70       	rts	

00400b5e <_serial_intr_send_enable>:
serial_intr_send_enable():
/home/serial.c:123

/* 送信割込み有効化 */
void serial_intr_send_enable(int index)
{
  400b5e:	01 00 6d f6 	mov.l	er6,@-er7
  400b62:	0f f6       	mov.l	er7,er6
  400b64:	7a 37 00 00 	sub.l	#0x8,er7
  400b68:	00 08 
  400b6a:	6f e0 ff fa 	mov.w	r0,@(0xfffa:16,er6)

00400b6e <.LM39>:
/home/serial.c:124
  volatile struct h8_3069f_sci *sci = regs[index].sci;
  400b6e:	6f 62 ff fa 	mov.w	@(0xfffa:16,er6),r2
  400b72:	17 f2       	exts.l	er2
  400b74:	10 32       	shll.l	er2
  400b76:	10 32       	shll.l	er2
  400b78:	7a 12 00 40 	add.l	#0x4041d0,er2
  400b7c:	41 d0 
  400b7e:	01 00 69 22 	mov.l	@er2,er2
  400b82:	01 00 6f e2 	mov.l	er2,@(0xfffc:16,er6)
  400b86:	ff fc 

00400b88 <.LM40>:
/home/serial.c:125
  sci->scr |= H8_3069F_SCI_SCR_TIE;
  400b88:	01 00 6f 62 	mov.l	@(0xfffc:16,er6),er2
  400b8c:	ff fc 
  400b8e:	6e 2a 00 02 	mov.b	@(0x2:16,er2),r2l
  400b92:	0c ab       	mov.b	r2l,r3l
  400b94:	70 7b       	bset	#0x7,r3l
  400b96:	01 00 6f 62 	mov.l	@(0xfffc:16,er6),er2
  400b9a:	ff fc 
  400b9c:	6e ab 00 02 	mov.b	r3l,@(0x2:16,er2)

00400ba0 <.LM41>:
/home/serial.c:126
}
  400ba0:	00 00       	nop	
  400ba2:	0b 97       	adds	#4,er7
  400ba4:	0b 97       	adds	#4,er7
  400ba6:	01 00 6d 76 	mov.l	@er7+,er6
  400baa:	54 70       	rts	

00400bac <_serial_intr_send_disable>:
serial_intr_send_disable():
/home/serial.c:130

/* 送信割込み無効化 */
void serial_intr_send_disable(int index)
{
  400bac:	01 00 6d f6 	mov.l	er6,@-er7
  400bb0:	0f f6       	mov.l	er7,er6
  400bb2:	7a 37 00 00 	sub.l	#0x8,er7
  400bb6:	00 08 
  400bb8:	6f e0 ff fa 	mov.w	r0,@(0xfffa:16,er6)

00400bbc <.LM43>:
/home/serial.c:131
  volatile struct h8_3069f_sci *sci = regs[index].sci;
  400bbc:	6f 62 ff fa 	mov.w	@(0xfffa:16,er6),r2
  400bc0:	17 f2       	exts.l	er2
  400bc2:	10 32       	shll.l	er2
  400bc4:	10 32       	shll.l	er2
  400bc6:	7a 12 00 40 	add.l	#0x4041d0,er2
  400bca:	41 d0 
  400bcc:	01 00 69 22 	mov.l	@er2,er2
  400bd0:	01 00 6f e2 	mov.l	er2,@(0xfffc:16,er6)
  400bd4:	ff fc 

00400bd6 <.LM44>:
/home/serial.c:132
  sci->scr &= ~H8_3069F_SCI_SCR_TIE;
  400bd6:	01 00 6f 62 	mov.l	@(0xfffc:16,er6),er2
  400bda:	ff fc 
  400bdc:	6e 2a 00 02 	mov.b	@(0x2:16,er2),r2l
  400be0:	0c ab       	mov.b	r2l,r3l
  400be2:	72 7b       	bclr	#0x7,r3l
  400be4:	01 00 6f 62 	mov.l	@(0xfffc:16,er6),er2
  400be8:	ff fc 
  400bea:	6e ab 00 02 	mov.b	r3l,@(0x2:16,er2)

00400bee <.LM45>:
/home/serial.c:133
}
  400bee:	00 00       	nop	
  400bf0:	0b 97       	adds	#4,er7
  400bf2:	0b 97       	adds	#4,er7
  400bf4:	01 00 6d 76 	mov.l	@er7+,er6
  400bf8:	54 70       	rts	

00400bfa <_serial_intr_is_recv_enable>:
serial_intr_is_recv_enable():
/home/serial.c:137

/* 受信割込み有効か？ */
int serial_intr_is_recv_enable(int index)
{
  400bfa:	01 00 6d f6 	mov.l	er6,@-er7
  400bfe:	0f f6       	mov.l	er7,er6
  400c00:	7a 37 00 00 	sub.l	#0x8,er7
  400c04:	00 08 
  400c06:	6f e0 ff fa 	mov.w	r0,@(0xfffa:16,er6)

00400c0a <.LM47>:
/home/serial.c:138
  volatile struct h8_3069f_sci *sci = regs[index].sci;
  400c0a:	6f 62 ff fa 	mov.w	@(0xfffa:16,er6),r2
  400c0e:	17 f2       	exts.l	er2
  400c10:	10 32       	shll.l	er2
  400c12:	10 32       	shll.l	er2
  400c14:	7a 12 00 40 	add.l	#0x4041d0,er2
  400c18:	41 d0 
  400c1a:	01 00 69 22 	mov.l	@er2,er2
  400c1e:	01 00 6f e2 	mov.l	er2,@(0xfffc:16,er6)
  400c22:	ff fc 

00400c24 <.LM48>:
/home/serial.c:139
  return (sci->scr & H8_3069F_SCI_SCR_RIE) ? 1 : 0;
  400c24:	01 00 6f 62 	mov.l	@(0xfffc:16,er6),er2
  400c28:	ff fc 
  400c2a:	6e 2a 00 02 	mov.b	@(0x2:16,er2),r2l
  400c2e:	17 52       	extu.w	r2
  400c30:	0d 23       	mov.w	r2,r3
  400c32:	79 63 00 40 	and.w	#0x40,r3
  400c36:	fa 01       	mov.b	#0x1,r2l
  400c38:	0d 33       	mov.w	r3,r3
  400c3a:	46 02       	bne	.+2 (0x400c3e)
  400c3c:	18 aa       	sub.b	r2l,r2l

00400c3e <.L18>:
  400c3e:	17 52       	extu.w	r2

00400c40 <.LM49>:
/home/serial.c:140
}
  400c40:	0d 20       	mov.w	r2,r0
  400c42:	0b 97       	adds	#4,er7
  400c44:	0b 97       	adds	#4,er7
  400c46:	01 00 6d 76 	mov.l	@er7+,er6
  400c4a:	54 70       	rts	

00400c4c <_serial_intr_recv_enable>:
serial_intr_recv_enable():
/home/serial.c:144

/* 受信割込み有効化 */
void serial_intr_recv_enable(int index)
{
  400c4c:	01 00 6d f6 	mov.l	er6,@-er7
  400c50:	0f f6       	mov.l	er7,er6
  400c52:	7a 37 00 00 	sub.l	#0x8,er7
  400c56:	00 08 
  400c58:	6f e0 ff fa 	mov.w	r0,@(0xfffa:16,er6)

00400c5c <.LM51>:
/home/serial.c:145
  volatile struct h8_3069f_sci *sci = regs[index].sci;
  400c5c:	6f 62 ff fa 	mov.w	@(0xfffa:16,er6),r2
  400c60:	17 f2       	exts.l	er2
  400c62:	10 32       	shll.l	er2
  400c64:	10 32       	shll.l	er2
  400c66:	7a 12 00 40 	add.l	#0x4041d0,er2
  400c6a:	41 d0 
  400c6c:	01 00 69 22 	mov.l	@er2,er2
  400c70:	01 00 6f e2 	mov.l	er2,@(0xfffc:16,er6)
  400c74:	ff fc 

00400c76 <.LM52>:
/home/serial.c:146
  sci->scr |= H8_3069F_SCI_SCR_RIE;
  400c76:	01 00 6f 62 	mov.l	@(0xfffc:16,er6),er2
  400c7a:	ff fc 
  400c7c:	6e 2a 00 02 	mov.b	@(0x2:16,er2),r2l
  400c80:	0c ab       	mov.b	r2l,r3l
  400c82:	70 6b       	bset	#0x6,r3l
  400c84:	01 00 6f 62 	mov.l	@(0xfffc:16,er6),er2
  400c88:	ff fc 
  400c8a:	6e ab 00 02 	mov.b	r3l,@(0x2:16,er2)

00400c8e <.LM53>:
/home/serial.c:147
}
  400c8e:	00 00       	nop	
  400c90:	0b 97       	adds	#4,er7
  400c92:	0b 97       	adds	#4,er7
  400c94:	01 00 6d 76 	mov.l	@er7+,er6
  400c98:	54 70       	rts	

00400c9a <_serial_intr_recv_disable>:
serial_intr_recv_disable():
/home/serial.c:151

/* 受信割込み無効化 */
void serial_intr_recv_disable(int index)
{
  400c9a:	01 00 6d f6 	mov.l	er6,@-er7
  400c9e:	0f f6       	mov.l	er7,er6
  400ca0:	7a 37 00 00 	sub.l	#0x8,er7
  400ca4:	00 08 
  400ca6:	6f e0 ff fa 	mov.w	r0,@(0xfffa:16,er6)

00400caa <.LM55>:
/home/serial.c:152
  volatile struct h8_3069f_sci *sci = regs[index].sci;
  400caa:	6f 62 ff fa 	mov.w	@(0xfffa:16,er6),r2
  400cae:	17 f2       	exts.l	er2
  400cb0:	10 32       	shll.l	er2
  400cb2:	10 32       	shll.l	er2
  400cb4:	7a 12 00 40 	add.l	#0x4041d0,er2
  400cb8:	41 d0 
  400cba:	01 00 69 22 	mov.l	@er2,er2
  400cbe:	01 00 6f e2 	mov.l	er2,@(0xfffc:16,er6)
  400cc2:	ff fc 

00400cc4 <.LM56>:
/home/serial.c:153
  sci->scr &= ~H8_3069F_SCI_SCR_RIE;
  400cc4:	01 00 6f 62 	mov.l	@(0xfffc:16,er6),er2
  400cc8:	ff fc 
  400cca:	6e 2a 00 02 	mov.b	@(0x2:16,er2),r2l
  400cce:	0c ab       	mov.b	r2l,r3l
  400cd0:	72 6b       	bclr	#0x6,r3l
  400cd2:	01 00 6f 62 	mov.l	@(0xfffc:16,er6),er2
  400cd6:	ff fc 
  400cd8:	6e ab 00 02 	mov.b	r3l,@(0x2:16,er2)

00400cdc <.LM57>:
/home/serial.c:154
}
  400cdc:	00 00       	nop	
  400cde:	0b 97       	adds	#4,er7
  400ce0:	0b 97       	adds	#4,er7
  400ce2:	01 00 6d 76 	mov.l	@er7+,er6
  400ce6:	54 70       	rts	

00400ce8 <_timer_start>:
timer_start():
/home/timer.c:57
  { H8_3069F_TMR23 }, 
};

/* タイマ開始 */
int timer_start(int index, int msec, int flags)
{
  400ce8:	01 00 6d f6 	mov.l	er6,@-er7
  400cec:	0f f6       	mov.l	er7,er6
  400cee:	7a 37 00 00 	sub.l	#0x14,er7
  400cf2:	00 14 
  400cf4:	6f e0 ff f2 	mov.w	r0,@(0xfff2:16,er6)
  400cf8:	6f e1 ff f0 	mov.w	r1,@(0xfff0:16,er6)
  400cfc:	6f e2 ff ee 	mov.w	r2,@(0xffee:16,er6)

00400d00 <.LM2>:
/home/timer.c:58
  volatile struct h8_3069f_tmr *tmr = regs[index].tmr;
  400d00:	6f 62 ff f2 	mov.w	@(0xfff2:16,er6),r2
  400d04:	17 f2       	exts.l	er2
  400d06:	10 32       	shll.l	er2
  400d08:	10 32       	shll.l	er2
  400d0a:	7a 12 00 40 	add.l	#0x4041dc,er2
  400d0e:	41 dc 
  400d10:	01 00 69 22 	mov.l	@er2,er2
  400d14:	01 00 6f e2 	mov.l	er2,@(0xfff8:16,er6)
  400d18:	ff f8 

00400d1a <.LM3>:
/home/timer.c:62
  int count;
  uint8 tcr;

  tcr = H8_3069F_TMR_TCR_OVF;
  400d1a:	fa 04       	mov.b	#0x4,r2l
  400d1c:	6e ea ff ff 	mov.b	r2l,@(0xffff:16,er6)

00400d20 <.LM4>:
/home/timer.c:63
  if (flags & TIMER_START_FLAG_CYCLE)
  400d20:	6f 62 ff ee 	mov.w	@(0xffee:16,er6),r2
  400d24:	79 62 00 01 	and.w	#0x1,r2
  400d28:	0d 22       	mov.w	r2,r2
  400d2a:	47 0a       	beq	.+10 (0x400d36)

00400d2c <.LM5>:
/home/timer.c:64
    tcr |= H8_3069F_TMR_TCR_CCLR_CLRCMFA;
  400d2c:	6e 6a ff ff 	mov.b	@(0xffff:16,er6),r2l
  400d30:	70 3a       	bset	#0x3,r2l
  400d32:	6e ea ff ff 	mov.b	r2l,@(0xffff:16,er6)

00400d36 <.L3>:
/home/timer.c:67
  else
    tcr |= H8_3069F_TMR_TCR_CCLR_DISCLR;
  tmr->tcr0 = tcr;
  400d36:	01 00 6f 62 	mov.l	@(0xfff8:16,er6),er2
  400d3a:	ff f8 
  400d3c:	6e 6b ff ff 	mov.b	@(0xffff:16,er6),r3l
  400d40:	68 ab       	mov.b	r3l,@er2

00400d42 <.LM7>:
/home/timer.c:68
  tmr->tcr1 = H8_3069F_TMR_TCR_CLK8192 | H8_3069F_TMR_TCR_CCLR_DISCLR;
  400d42:	01 00 6f 62 	mov.l	@(0xfff8:16,er6),er2
  400d46:	ff f8 
  400d48:	fb 03       	mov.b	#0x3,r3l
  400d4a:	6e ab 00 01 	mov.b	r3l,@(0x1:16,er2)

00400d4e <.LM8>:
/home/timer.c:70

  tmr->tcsr0 = 0;
  400d4e:	01 00 6f 62 	mov.l	@(0xfff8:16,er6),er2
  400d52:	ff f8 
  400d54:	18 bb       	sub.b	r3l,r3l
  400d56:	6e ab 00 02 	mov.b	r3l,@(0x2:16,er2)

00400d5a <.LM9>:
/home/timer.c:71
  tmr->tcsr1 = 0;
  400d5a:	01 00 6f 62 	mov.l	@(0xfff8:16,er6),er2
  400d5e:	ff f8 
  400d60:	18 bb       	sub.b	r3l,r3l
  400d62:	6e ab 00 03 	mov.b	r3l,@(0x3:16,er2)

00400d66 <.LM10>:
/home/timer.c:73

  count = msec / 105; /* 20MHz: (msec * 20000000 / 8192 / 256 / 1000) */
  400d66:	6f 62 ff f0 	mov.w	@(0xfff0:16,er6),r2
  400d6a:	0d 23       	mov.w	r2,r3
  400d6c:	17 f3       	exts.l	er3
  400d6e:	79 02 00 69 	mov.w	#0x69,r2
  400d72:	0f b0       	mov.l	er3,er0
  400d74:	01 d0 53 20 	divxs.w	r2,er0
  400d78:	0d 83       	mov.w	e0,r3
  400d7a:	0d 02       	mov.w	r0,r2
  400d7c:	6f e2 ff f6 	mov.w	r2,@(0xfff6:16,er6)

00400d80 <.LM11>:
/home/timer.c:75

  tmr->tcnt = 0;
  400d80:	01 00 6f 62 	mov.l	@(0xfff8:16,er6),er2
  400d84:	ff f8 
  400d86:	19 33       	sub.w	r3,r3
  400d88:	6f a3 00 08 	mov.w	r3,@(0x8:16,er2)

00400d8c <.LM12>:
/home/timer.c:76
  tmr->tcora0 = count;
  400d8c:	6f 62 ff f6 	mov.w	@(0xfff6:16,er6),r2
  400d90:	0c ab       	mov.b	r2l,r3l
  400d92:	01 00 6f 62 	mov.l	@(0xfff8:16,er6),er2
  400d96:	ff f8 
  400d98:	6e ab 00 04 	mov.b	r3l,@(0x4:16,er2)

00400d9c <.LM13>:
/home/timer.c:77
  tmr->tcr0 |= H8_3069F_TMR_TCR_CMIEA; /* 割込み有効化 */
  400d9c:	01 00 6f 62 	mov.l	@(0xfff8:16,er6),er2
  400da0:	ff f8 
  400da2:	68 2a       	mov.b	@er2,r2l
  400da4:	0c ab       	mov.b	r2l,r3l
  400da6:	70 6b       	bset	#0x6,r3l
  400da8:	01 00 6f 62 	mov.l	@(0xfff8:16,er6),er2
  400dac:	ff f8 
  400dae:	68 ab       	mov.b	r3l,@er2

00400db0 <.LM14>:
/home/timer.c:79

  return 0;
  400db0:	19 22       	sub.w	r2,r2

00400db2 <.LM15>:
/home/timer.c:80
}
  400db2:	0d 20       	mov.w	r2,r0
  400db4:	7a 17 00 00 	add.l	#0x14,er7
  400db8:	00 14 
  400dba:	01 00 6d 76 	mov.l	@er7+,er6
  400dbe:	54 70       	rts	

00400dc0 <_timer_is_expired>:
timer_is_expired():
/home/timer.c:84

/* タイマ満了したか？ */
int timer_is_expired(int index)
{
  400dc0:	01 00 6d f6 	mov.l	er6,@-er7
  400dc4:	0f f6       	mov.l	er7,er6
  400dc6:	7a 37 00 00 	sub.l	#0x8,er7
  400dca:	00 08 
  400dcc:	6f e0 ff fa 	mov.w	r0,@(0xfffa:16,er6)

00400dd0 <.LM17>:
/home/timer.c:85
  volatile struct h8_3069f_tmr *tmr = regs[index].tmr;
  400dd0:	6f 62 ff fa 	mov.w	@(0xfffa:16,er6),r2
  400dd4:	17 f2       	exts.l	er2
  400dd6:	10 32       	shll.l	er2
  400dd8:	10 32       	shll.l	er2
  400dda:	7a 12 00 40 	add.l	#0x4041dc,er2
  400dde:	41 dc 
  400de0:	01 00 69 22 	mov.l	@er2,er2
  400de4:	01 00 6f e2 	mov.l	er2,@(0xfffc:16,er6)
  400de8:	ff fc 

00400dea <.LM18>:
/home/timer.c:86
  return (tmr->tcsr0 & H8_3069F_TMR_TCSR_CMFA) ? 1 : 0;
  400dea:	01 00 6f 62 	mov.l	@(0xfffc:16,er6),er2
  400dee:	ff fc 
  400df0:	6e 2a 00 02 	mov.b	@(0x2:16,er2),r2l
  400df4:	17 52       	extu.w	r2
  400df6:	0d 23       	mov.w	r2,r3
  400df8:	79 63 00 40 	and.w	#0x40,r3
  400dfc:	fa 01       	mov.b	#0x1,r2l
  400dfe:	0d 33       	mov.w	r3,r3
  400e00:	46 02       	bne	.+2 (0x400e04)
  400e02:	18 aa       	sub.b	r2l,r2l

00400e04 <.L6>:
  400e04:	17 52       	extu.w	r2

00400e06 <.LM19>:
/home/timer.c:87
}
  400e06:	0d 20       	mov.w	r2,r0
  400e08:	0b 97       	adds	#4,er7
  400e0a:	0b 97       	adds	#4,er7
  400e0c:	01 00 6d 76 	mov.l	@er7+,er6
  400e10:	54 70       	rts	

00400e12 <_timer_expire>:
timer_expire():
/home/timer.c:91

/* タイマ満了処理 */
int timer_expire(int index)
{
  400e12:	01 00 6d f6 	mov.l	er6,@-er7
  400e16:	0f f6       	mov.l	er7,er6
  400e18:	7a 37 00 00 	sub.l	#0x8,er7
  400e1c:	00 08 
  400e1e:	6f e0 ff fa 	mov.w	r0,@(0xfffa:16,er6)

00400e22 <.LM21>:
/home/timer.c:92
  volatile struct h8_3069f_tmr *tmr = regs[index].tmr;
  400e22:	6f 62 ff fa 	mov.w	@(0xfffa:16,er6),r2
  400e26:	17 f2       	exts.l	er2
  400e28:	10 32       	shll.l	er2
  400e2a:	10 32       	shll.l	er2
  400e2c:	7a 12 00 40 	add.l	#0x4041dc,er2
  400e30:	41 dc 
  400e32:	01 00 69 22 	mov.l	@er2,er2
  400e36:	01 00 6f e2 	mov.l	er2,@(0xfffc:16,er6)
  400e3a:	ff fc 

00400e3c <.LM22>:
/home/timer.c:94

  tmr->tcsr0 &= ~H8_3069F_TMR_TCSR_CMFA;
  400e3c:	01 00 6f 62 	mov.l	@(0xfffc:16,er6),er2
  400e40:	ff fc 
  400e42:	6e 2a 00 02 	mov.b	@(0x2:16,er2),r2l
  400e46:	0c ab       	mov.b	r2l,r3l
  400e48:	72 6b       	bclr	#0x6,r3l
  400e4a:	01 00 6f 62 	mov.l	@(0xfffc:16,er6),er2
  400e4e:	ff fc 
  400e50:	6e ab 00 02 	mov.b	r3l,@(0x2:16,er2)

00400e54 <.LM23>:
/home/timer.c:96

  return 0;
  400e54:	19 22       	sub.w	r2,r2

00400e56 <.LM24>:
/home/timer.c:97
}
  400e56:	0d 20       	mov.w	r2,r0
  400e58:	0b 97       	adds	#4,er7
  400e5a:	0b 97       	adds	#4,er7
  400e5c:	01 00 6d 76 	mov.l	@er7+,er6
  400e60:	54 70       	rts	

00400e62 <_timer_cancel>:
timer_cancel():
/home/timer.c:101

/* タイマキャンセル */
int timer_cancel(int index)
{
  400e62:	01 00 6d f6 	mov.l	er6,@-er7
  400e66:	0f f6       	mov.l	er7,er6
  400e68:	7a 37 00 00 	sub.l	#0x8,er7
  400e6c:	00 08 
  400e6e:	6f e0 ff fa 	mov.w	r0,@(0xfffa:16,er6)

00400e72 <.LM26>:
/home/timer.c:102
  volatile struct h8_3069f_tmr *tmr = regs[index].tmr;
  400e72:	6f 62 ff fa 	mov.w	@(0xfffa:16,er6),r2
  400e76:	17 f2       	exts.l	er2
  400e78:	10 32       	shll.l	er2
  400e7a:	10 32       	shll.l	er2
  400e7c:	7a 12 00 40 	add.l	#0x4041dc,er2
  400e80:	41 dc 
  400e82:	01 00 69 22 	mov.l	@er2,er2
  400e86:	01 00 6f e2 	mov.l	er2,@(0xfffc:16,er6)
  400e8a:	ff fc 

00400e8c <.LM27>:
/home/timer.c:104

  timer_expire(index);
  400e8c:	6f 62 ff fa 	mov.w	@(0xfffa:16,er6),r2
  400e90:	0d 20       	mov.w	r2,r0
  400e92:	5e 40 0e 12 	jsr	@0x400e12:24

00400e96 <.LM28>:
/home/timer.c:106

  tmr->tcr0 = 0;
  400e96:	01 00 6f 62 	mov.l	@(0xfffc:16,er6),er2
  400e9a:	ff fc 
  400e9c:	18 bb       	sub.b	r3l,r3l
  400e9e:	68 ab       	mov.b	r3l,@er2

00400ea0 <.LM29>:
/home/timer.c:107
  tmr->tcr1 = 0;
  400ea0:	01 00 6f 62 	mov.l	@(0xfffc:16,er6),er2
  400ea4:	ff fc 
  400ea6:	18 bb       	sub.b	r3l,r3l
  400ea8:	6e ab 00 01 	mov.b	r3l,@(0x1:16,er2)

00400eac <.LM30>:
/home/timer.c:109

  tmr->tcr0 &= ~H8_3069F_TMR_TCR_CMIEA; /* 割込み無効化 */
  400eac:	01 00 6f 62 	mov.l	@(0xfffc:16,er6),er2
  400eb0:	ff fc 
  400eb2:	68 2a       	mov.b	@er2,r2l
  400eb4:	0c ab       	mov.b	r2l,r3l
  400eb6:	72 6b       	bclr	#0x6,r3l
  400eb8:	01 00 6f 62 	mov.l	@(0xfffc:16,er6),er2
  400ebc:	ff fc 
  400ebe:	68 ab       	mov.b	r3l,@er2

00400ec0 <.LM31>:
/home/timer.c:111

  return 0;
  400ec0:	19 22       	sub.w	r2,r2

00400ec2 <.LM32>:
/home/timer.c:112
}
  400ec2:	0d 20       	mov.w	r2,r0
  400ec4:	0b 97       	adds	#4,er7
  400ec6:	0b 97       	adds	#4,er7
  400ec8:	01 00 6d 76 	mov.l	@er7+,er6
  400ecc:	54 70       	rts	

00400ece <_timer_is_running>:
timer_is_running():
/home/timer.c:116

/* タイマ動作中か？ */
int timer_is_running(int index)
{
  400ece:	01 00 6d f6 	mov.l	er6,@-er7
  400ed2:	0f f6       	mov.l	er7,er6
  400ed4:	7a 37 00 00 	sub.l	#0x8,er7
  400ed8:	00 08 
  400eda:	6f e0 ff fa 	mov.w	r0,@(0xfffa:16,er6)

00400ede <.LM34>:
/home/timer.c:117
  volatile struct h8_3069f_tmr *tmr = regs[index].tmr;
  400ede:	6f 62 ff fa 	mov.w	@(0xfffa:16,er6),r2
  400ee2:	17 f2       	exts.l	er2
  400ee4:	10 32       	shll.l	er2
  400ee6:	10 32       	shll.l	er2
  400ee8:	7a 12 00 40 	add.l	#0x4041dc,er2
  400eec:	41 dc 
  400eee:	01 00 69 22 	mov.l	@er2,er2
  400ef2:	01 00 6f e2 	mov.l	er2,@(0xfffc:16,er6)
  400ef6:	ff fc 

00400ef8 <.LM35>:
/home/timer.c:118
  return (tmr->tcr0 & H8_3069F_TMR_TCR_CMIEA) ? 1 : 0;
  400ef8:	01 00 6f 62 	mov.l	@(0xfffc:16,er6),er2
  400efc:	ff fc 
  400efe:	68 2a       	mov.b	@er2,r2l
  400f00:	17 52       	extu.w	r2
  400f02:	0d 23       	mov.w	r2,r3
  400f04:	79 63 00 40 	and.w	#0x40,r3
  400f08:	fa 01       	mov.b	#0x1,r2l
  400f0a:	0d 33       	mov.w	r3,r3
  400f0c:	46 02       	bne	.+2 (0x400f10)
  400f0e:	18 aa       	sub.b	r2l,r2l

00400f10 <.L13>:
  400f10:	17 52       	extu.w	r2

00400f12 <.LM36>:
/home/timer.c:119
}
  400f12:	0d 20       	mov.w	r2,r0
  400f14:	0b 97       	adds	#4,er7
  400f16:	0b 97       	adds	#4,er7
  400f18:	01 00 6d 76 	mov.l	@er7+,er6
  400f1c:	54 70       	rts	

00400f1e <_timer_gettime>:
timer_gettime():
/home/timer.c:123

/* タイマの現在値 */
int timer_gettime(int index)
{
  400f1e:	01 00 6d f6 	mov.l	er6,@-er7
  400f22:	0f f6       	mov.l	er7,er6
  400f24:	7a 37 00 00 	sub.l	#0xc,er7
  400f28:	00 0c 
  400f2a:	6f e0 ff f6 	mov.w	r0,@(0xfff6:16,er6)

00400f2e <.LM38>:
/home/timer.c:124
  volatile struct h8_3069f_tmr *tmr = regs[index].tmr;
  400f2e:	6f 62 ff f6 	mov.w	@(0xfff6:16,er6),r2
  400f32:	17 f2       	exts.l	er2
  400f34:	10 32       	shll.l	er2
  400f36:	10 32       	shll.l	er2
  400f38:	7a 12 00 40 	add.l	#0x4041dc,er2
  400f3c:	41 dc 
  400f3e:	01 00 69 22 	mov.l	@er2,er2
  400f42:	01 00 6f e2 	mov.l	er2,@(0xfffc:16,er6)
  400f46:	ff fc 

00400f48 <.LM39>:
/home/timer.c:132

  /*
   * 周期タイマの場合は動作中かどうかのチェックの直後にタイマ満了すると
   * カウンタがゼロに初期化されてしまうので，前もって値を取得しておく．
   */
  count = tmr->tcnt;
  400f48:	01 00 6f 62 	mov.l	@(0xfffc:16,er6),er2
  400f4c:	ff fc 
  400f4e:	6f 22 00 08 	mov.w	@(0x8:16,er2),r2
  400f52:	6f e2 ff f8 	mov.w	r2,@(0xfff8:16,er6)

00400f56 <.LM40>:
/home/timer.c:133
  msec = count * 2 / 5; /* 20MHz: (count * 8192 * 1000 / 20000000) */
  400f56:	6f 62 ff f8 	mov.w	@(0xfff8:16,er6),r2
  400f5a:	10 12       	shll.w	r2
  400f5c:	79 03 66 67 	mov.w	#0x6667,r3
  400f60:	01 c0 52 23 	mulxs.w	r2,er3
  400f64:	0d b3       	mov.w	e3,r3
  400f66:	17 73       	extu.l	er3
  400f68:	11 93       	shar.w	r3
  400f6a:	10 02       	shll.b	r2h
  400f6c:	1e 22       	subx	r2h,r2h
  400f6e:	0c 2a       	mov.b	r2h,r2l
  400f70:	0d 30       	mov.w	r3,r0
  400f72:	19 20       	sub.w	r2,r0
  400f74:	0d 02       	mov.w	r0,r2
  400f76:	6f e2 ff fa 	mov.w	r2,@(0xfffa:16,er6)

00400f7a <.LM41>:
/home/timer.c:135

  return timer_is_running(index) ? msec : -1;
  400f7a:	6f 62 ff f6 	mov.w	@(0xfff6:16,er6),r2
  400f7e:	0d 20       	mov.w	r2,r0
  400f80:	5e 40 0e ce 	jsr	@0x400ece:24
  400f84:	0d 02       	mov.w	r0,r2
  400f86:	0d 22       	mov.w	r2,r2
  400f88:	47 06       	beq	.+6 (0x400f90)

00400f8a <.LM42>:
/home/timer.c:135 (discriminator 1)
  400f8a:	6f 62 ff fa 	mov.w	@(0xfffa:16,er6),r2
  400f8e:	40 04       	bra	.+4 (0x400f94)

00400f90 <.L16>:
/home/timer.c:135 (discriminator 2)
  400f90:	79 02 ff ff 	mov.w	#0xffff,r2

00400f94 <.L18>:
/home/timer.c:136 (discriminator 5)
}
  400f94:	0d 20       	mov.w	r2,r0
  400f96:	7a 17 00 00 	add.l	#0xc,er7
  400f9a:	00 0c 
  400f9c:	01 00 6d 76 	mov.l	@er7+,er6
  400fa0:	54 70       	rts	

00400fa2 <_udelay>:
udelay():
/home/ether.c:114
#define NE2000_TP_START 0x40
#define NE2000_RP_START 0x46
#define NE2000_RP_STOP  0x80

static void udelay(int usec)
{
  400fa2:	01 00 6d f6 	mov.l	er6,@-er7
  400fa6:	0f f6       	mov.l	er7,er6
  400fa8:	7a 37 00 00 	sub.l	#0x8,er7
  400fac:	00 08 
  400fae:	6f e0 ff fa 	mov.w	r0,@(0xfffa:16,er6)

00400fb2 <.LM2>:
/home/ether.c:116
  volatile int i;
  for (i = 0; i < 20; i++) /* 20MHz */
  400fb2:	19 22       	sub.w	r2,r2
  400fb4:	6f e2 ff fe 	mov.w	r2,@(0xfffe:16,er6)
  400fb8:	40 0a       	bra	.+10 (0x400fc4)

00400fba <.L3>:
/home/ether.c:116 (discriminator 3)
  400fba:	6f 62 ff fe 	mov.w	@(0xfffe:16,er6),r2
  400fbe:	0b 02       	adds	#1,er2
  400fc0:	6f e2 ff fe 	mov.w	r2,@(0xfffe:16,er6)

00400fc4 <.L2>:
/home/ether.c:116 (discriminator 1)
  400fc4:	6f 62 ff fe 	mov.w	@(0xfffe:16,er6),r2
  400fc8:	79 22 00 13 	cmp.w	#0x13,r2
  400fcc:	4f ec       	ble	.-20 (0x400fba)

00400fce <.LM5>:
/home/ether.c:118
    ;
}
  400fce:	00 00       	nop	
  400fd0:	0b 97       	adds	#4,er7
  400fd2:	0b 97       	adds	#4,er7
  400fd4:	01 00 6d 76 	mov.l	@er7+,er6
  400fd8:	54 70       	rts	

00400fda <_mdelay>:
mdelay():
/home/ether.c:121

static void mdelay(int msec)
{
  400fda:	01 00 6d f6 	mov.l	er6,@-er7
  400fde:	0f f6       	mov.l	er7,er6
  400fe0:	7a 37 00 00 	sub.l	#0x8,er7
  400fe4:	00 08 
  400fe6:	6f e0 ff fa 	mov.w	r0,@(0xfffa:16,er6)

00400fea <.LM7>:
/home/ether.c:123
  volatile int i;
  for (i = 0; i < msec; i++) {
  400fea:	19 22       	sub.w	r2,r2
  400fec:	6f e2 ff fe 	mov.w	r2,@(0xfffe:16,er6)
  400ff0:	40 12       	bra	.+18 (0x401004)

00400ff2 <.L6>:
/home/ether.c:124 (discriminator 3)
    udelay(1000);
  400ff2:	79 00 03 e8 	mov.w	#0x3e8,r0
  400ff6:	5e 40 0f a2 	jsr	@0x400fa2:24

00400ffa <.LM9>:
/home/ether.c:123
  for (i = 0; i < msec; i++) {
  400ffa:	6f 62 ff fe 	mov.w	@(0xfffe:16,er6),r2
  400ffe:	0b 02       	adds	#1,er2
  401000:	6f e2 ff fe 	mov.w	r2,@(0xfffe:16,er6)

00401004 <.L5>:
/home/ether.c:123 (discriminator 1)
  401004:	6f 62 ff fe 	mov.w	@(0xfffe:16,er6),r2
  401008:	6f 63 ff fa 	mov.w	@(0xfffa:16,er6),r3
  40100c:	1d 23       	cmp.w	r2,r3
  40100e:	4e e2       	bgt	.-30 (0x400ff2)

00401010 <.LM11>:
/home/ether.c:126
  }
}
  401010:	00 00       	nop	
  401012:	0b 97       	adds	#4,er7
  401014:	0b 97       	adds	#4,er7
  401016:	01 00 6d 76 	mov.l	@er7+,er6
  40101a:	54 70       	rts	

0040101c <_read_data>:
read_data():
/home/ether.c:130

// Ethernet フレームを Ethernet Phy から読み込む
static int read_data(int addr, int size, char *buf)
{
  40101c:	01 00 6d f6 	mov.l	er6,@-er7
  401020:	0f f6       	mov.l	er7,er6
  401022:	7a 37 00 00 	sub.l	#0xc,er7
  401026:	00 0c 
  401028:	6f e0 ff fa 	mov.w	r0,@(0xfffa:16,er6)
  40102c:	6f e1 ff f8 	mov.w	r1,@(0xfff8:16,er6)
  401030:	01 00 6f e2 	mov.l	er2,@(0xfff4:16,er6)
  401034:	ff f4 

00401036 <.LM13>:
/home/ether.c:137

  // CR(command register) PS1, PS0, RD2, RD1, RD0, TXP, STA, STP
  // PS: P0 => ページ0を選択
  // RD: ABORT => Abort/Complete remote DMA
  // STA=1, STP=0 => Start command (起動時はストップ)
  *NE2000_CR    = NE2000_CR_P0 | NE2000_CR_RD_ABORT | NE2000_CR_STA;
  401036:	7a 02 00 20 	mov.l	#0x200000,er2
  40103a:	00 00 
  40103c:	fb 22       	mov.b	#0x22,r3l
  40103e:	68 ab       	mov.b	r3l,@er2

00401040 <.LM14>:
/home/ether.c:142

  // RBCR(Remote Byte Count Registers)、書き込み用
  // レジスタに何バイトのデータが溜まっているか？を記録
  // 送信するデータのサイズを2バイトで表現(RBCR1 が上位バイト)
  *NE2000_RBCR0 = size & 0xff;
  401040:	7a 02 00 20 	mov.l	#0x20000a,er2
  401044:	00 0a 
  401046:	6f 63 ff f8 	mov.w	@(0xfff8:16,er6),r3
  40104a:	68 ab       	mov.b	r3l,@er2

0040104c <.LM15>:
/home/ether.c:143
  *NE2000_RBCR1 = (size >> 8) & 0xff;
  40104c:	6f 62 ff f8 	mov.w	@(0xfff8:16,er6),r2
  401050:	0c 2a       	mov.b	r2h,r2l
  401052:	17 52       	extu.w	r2
  401054:	7a 03 00 20 	mov.l	#0x20000b,er3
  401058:	00 0b 
  40105a:	68 ba       	mov.b	r2l,@er3

0040105c <.LM16>:
/home/ether.c:147

  // RSAR(Remote Start Address Registers)、書き込み用
  // リモート DMA の開始アドレスを設定する(RSAR1 が上位バイト)
  *NE2000_RSAR0 = addr & 0xff;
  40105c:	7a 02 00 20 	mov.l	#0x200008,er2
  401060:	00 08 
  401062:	6f 63 ff fa 	mov.w	@(0xfffa:16,er6),r3
  401066:	68 ab       	mov.b	r3l,@er2

00401068 <.LM17>:
/home/ether.c:148
  *NE2000_RSAR1 = (addr >> 8) & 0xff;
  401068:	6f 62 ff fa 	mov.w	@(0xfffa:16,er6),r2
  40106c:	0c 2a       	mov.b	r2h,r2l
  40106e:	17 52       	extu.w	r2
  401070:	7a 03 00 20 	mov.l	#0x200009,er3
  401074:	00 09 
  401076:	68 ba       	mov.b	r2l,@er3

00401078 <.LM18>:
/home/ether.c:151

  // command register を操作し、remote read を行う
  *NE2000_CR    = NE2000_CR_P0 | NE2000_CR_RD_READ | NE2000_CR_STA;
  401078:	7a 02 00 20 	mov.l	#0x200000,er2
  40107c:	00 00 
  40107e:	fb 0a       	mov.b	#0xa,r3l
  401080:	68 ab       	mov.b	r3l,@er2

00401082 <.LM19>:
/home/ether.c:152
  for (i = 0; i < size; i++) {
  401082:	19 22       	sub.w	r2,r2
  401084:	6f e2 ff fe 	mov.w	r2,@(0xfffe:16,er6)
  401088:	40 22       	bra	.+34 (0x4010ac)

0040108a <.L9>:
/home/ether.c:155 (discriminator 3)
    // RDMAP = remote DMA port で、RTL8019 に接続されている
    // ウェイトも入れずにどんどん読んでいいのか？
    buf[i] = *RTL8019_RDMAP;
  40108a:	7a 03 00 20 	mov.l	#0x200010,er3
  40108e:	00 10 
  401090:	6f 62 ff fe 	mov.w	@(0xfffe:16,er6),r2
  401094:	17 f2       	exts.l	er2
  401096:	01 00 6f 60 	mov.l	@(0xfff4:16,er6),er0
  40109a:	ff f4 
  40109c:	0a 82       	add.l	er0,er2
  40109e:	68 3b       	mov.b	@er3,r3l
  4010a0:	68 ab       	mov.b	r3l,@er2

004010a2 <.LM21>:
/home/ether.c:152
  for (i = 0; i < size; i++) {
  4010a2:	6f 62 ff fe 	mov.w	@(0xfffe:16,er6),r2
  4010a6:	0b 02       	adds	#1,er2
  4010a8:	6f e2 ff fe 	mov.w	r2,@(0xfffe:16,er6)

004010ac <.L8>:
/home/ether.c:152 (discriminator 1)
  4010ac:	6f 63 ff fe 	mov.w	@(0xfffe:16,er6),r3
  4010b0:	6f 62 ff f8 	mov.w	@(0xfff8:16,er6),r2
  4010b4:	1d 23       	cmp.w	r2,r3
  4010b6:	4d d2       	blt	.-46 (0x40108a)

004010b8 <.LM23>:
	...

004010ba <.L10>:
/home/ether.c:158 (discriminator 1)
  }
  // ISR の RDC ビットは、Remote DMA operation が完了するとセットされる
  while ((*NE2000_ISR & NE2000_ISR_RDC) == 0)
  4010ba:	7a 02 00 20 	mov.l	#0x200007,er2
  4010be:	00 07 
  4010c0:	68 2a       	mov.b	@er2,r2l
  4010c2:	17 52       	extu.w	r2
  4010c4:	79 62 00 40 	and.w	#0x40,r2
  4010c8:	0d 22       	mov.w	r2,r2
  4010ca:	47 ee       	beq	.-18 (0x4010ba)

004010cc <.LM25>:
/home/ether.c:161
    ;

  return 0;
  4010cc:	19 22       	sub.w	r2,r2

004010ce <.LM26>:
/home/ether.c:162
}
  4010ce:	0d 20       	mov.w	r2,r0
  4010d0:	7a 17 00 00 	add.l	#0xc,er7
  4010d4:	00 0c 
  4010d6:	01 00 6d 76 	mov.l	@er7+,er6
  4010da:	54 70       	rts	

004010dc <_write_data>:
write_data():
/home/ether.c:166

// Ethernet フレームを Ethernet Phy に書き込む
static int write_data(int addr, int size, char *buf)
{
  4010dc:	01 00 6d f6 	mov.l	er6,@-er7
  4010e0:	0f f6       	mov.l	er7,er6
  4010e2:	7a 37 00 00 	sub.l	#0xc,er7
  4010e6:	00 0c 
  4010e8:	6f e0 ff fa 	mov.w	r0,@(0xfffa:16,er6)
  4010ec:	6f e1 ff f8 	mov.w	r1,@(0xfff8:16,er6)
  4010f0:	01 00 6f e2 	mov.l	er2,@(0xfff4:16,er6)
  4010f4:	ff f4 

004010f6 <.LM28>:
/home/ether.c:170
  int i;
  
  // ページ0を選択しコマンドを開始する
  *NE2000_CR    = NE2000_CR_P0 | NE2000_CR_RD_ABORT | NE2000_CR_STA;
  4010f6:	7a 02 00 20 	mov.l	#0x200000,er2
  4010fa:	00 00 
  4010fc:	fb 22       	mov.b	#0x22,r3l
  4010fe:	68 ab       	mov.b	r3l,@er2

00401100 <.LM29>:
/home/ether.c:173

  // データサイズを指定
  *NE2000_RBCR0 = size & 0xff;
  401100:	7a 02 00 20 	mov.l	#0x20000a,er2
  401104:	00 0a 
  401106:	6f 63 ff f8 	mov.w	@(0xfff8:16,er6),r3
  40110a:	68 ab       	mov.b	r3l,@er2

0040110c <.LM30>:
/home/ether.c:174
  *NE2000_RBCR1 = (size >> 8) & 0xff;
  40110c:	6f 62 ff f8 	mov.w	@(0xfff8:16,er6),r2
  401110:	0c 2a       	mov.b	r2h,r2l
  401112:	17 52       	extu.w	r2
  401114:	7a 03 00 20 	mov.l	#0x20000b,er3
  401118:	00 0b 
  40111a:	68 ba       	mov.b	r2l,@er3

0040111c <.LM31>:
/home/ether.c:177

  // Remote DMA の開始アドレスを指定
  *NE2000_RSAR0 = addr & 0xff;
  40111c:	7a 02 00 20 	mov.l	#0x200008,er2
  401120:	00 08 
  401122:	6f 63 ff fa 	mov.w	@(0xfffa:16,er6),r3
  401126:	68 ab       	mov.b	r3l,@er2

00401128 <.LM32>:
/home/ether.c:178
  *NE2000_RSAR1 = (addr >> 8) & 0xff;
  401128:	6f 62 ff fa 	mov.w	@(0xfffa:16,er6),r2
  40112c:	0c 2a       	mov.b	r2h,r2l
  40112e:	17 52       	extu.w	r2
  401130:	7a 03 00 20 	mov.l	#0x200009,er3
  401134:	00 09 
  401136:	68 ba       	mov.b	r2l,@er3

00401138 <.LM33>:
/home/ether.c:182

  // command resiger を操作し、remote dma write を行う
  // H8 と RTL8019AS 間で DMA できるようになっている？
  *NE2000_CR    = NE2000_CR_P0 | NE2000_CR_RD_WRITE | NE2000_CR_STA;
  401138:	7a 02 00 20 	mov.l	#0x200000,er2
  40113c:	00 00 
  40113e:	fb 12       	mov.b	#0x12,r3l
  401140:	68 ab       	mov.b	r3l,@er2

00401142 <.LM34>:
/home/ether.c:183
  for (i = 0; i < size; i++) {
  401142:	19 22       	sub.w	r2,r2
  401144:	6f e2 ff fe 	mov.w	r2,@(0xfffe:16,er6)
  401148:	40 22       	bra	.+34 (0x40116c)

0040114a <.L14>:
/home/ether.c:192 (discriminator 3)
    // outb_p のように _p 付きのものが用意されている

    // ウェイトも入れずにどんどん書いていいのか？
    // RSAR で指定した値が徐々にずれていくのかも？
    // そのあたりの動作が明確に書かれた仕様が見つからない
    *RTL8019_RDMAP = buf[i];
  40114a:	6f 62 ff fe 	mov.w	@(0xfffe:16,er6),r2
  40114e:	17 f2       	exts.l	er2
  401150:	01 00 6f 63 	mov.l	@(0xfff4:16,er6),er3
  401154:	ff f4 
  401156:	0a a3       	add.l	er2,er3
  401158:	7a 02 00 20 	mov.l	#0x200010,er2
  40115c:	00 10 
  40115e:	68 3b       	mov.b	@er3,r3l
  401160:	68 ab       	mov.b	r3l,@er2

00401162 <.LM36>:
/home/ether.c:183
  for (i = 0; i < size; i++) {
  401162:	6f 62 ff fe 	mov.w	@(0xfffe:16,er6),r2
  401166:	0b 02       	adds	#1,er2
  401168:	6f e2 ff fe 	mov.w	r2,@(0xfffe:16,er6)

0040116c <.L13>:
/home/ether.c:183 (discriminator 1)
  40116c:	6f 63 ff fe 	mov.w	@(0xfffe:16,er6),r3
  401170:	6f 62 ff f8 	mov.w	@(0xfff8:16,er6),r2
  401174:	1d 23       	cmp.w	r2,r3
  401176:	4d d2       	blt	.-46 (0x40114a)

00401178 <.LM38>:
	...

0040117a <.L15>:
/home/ether.c:197 (discriminator 1)
  }

  // リモートコマンドの完了を待つ
  // 何をもって完了とするのか？
  while ((*NE2000_ISR & NE2000_ISR_RDC) == 0)
  40117a:	7a 02 00 20 	mov.l	#0x200007,er2
  40117e:	00 07 
  401180:	68 2a       	mov.b	@er2,r2l
  401182:	17 52       	extu.w	r2
  401184:	79 62 00 40 	and.w	#0x40,r2
  401188:	0d 22       	mov.w	r2,r2
  40118a:	47 ee       	beq	.-18 (0x40117a)

0040118c <.LM40>:
/home/ether.c:199
    ;
}
  40118c:	00 00       	nop	
  40118e:	0d 20       	mov.w	r2,r0
  401190:	7a 17 00 00 	add.l	#0xc,er7
  401194:	00 0c 
  401196:	01 00 6d 76 	mov.l	@er7+,er6
  40119a:	54 70       	rts	

0040119c <_port_init>:
port_init():
/home/ether.c:202

static int port_init()
{
  40119c:	01 00 6d f6 	mov.l	er6,@-er7
  4011a0:	0f f6       	mov.l	er7,er6

004011a2 <.LM42>:
/home/ether.c:212
#endif

#if 0
  *H8_3069F_P8DDR = 0xe8; /* CS1 */
#else
  *H8_3069F_P8DDR = 0xec; /* CS1(ether) and CS2(DRAM) */
  4011a2:	7a 02 00 fe 	mov.l	#0xfee007,er2
  4011a6:	e0 07 
  4011a8:	fb ec       	mov.b	#0xec,r3l
  4011aa:	68 ab       	mov.b	r3l,@er2

004011ac <.LM43>:
/home/ether.c:219

#if 0
  *H8_3069F_P9DDR = ...; /* IERの設定によるので設定不要 */
#endif

  *H8_3069F_ISCR = 0x00; /* lowレベルで割り込み */
  4011ac:	7a 02 00 fe 	mov.l	#0xfee014,er2
  4011b0:	e0 14 
  4011b2:	18 bb       	sub.b	r3l,r3l
  4011b4:	68 ab       	mov.b	r3l,@er2

004011b6 <.LM44>:
/home/ether.c:220
  *H8_3069F_IPRA = 0x00;
  4011b6:	7a 02 00 fe 	mov.l	#0xfee018,er2
  4011ba:	e0 18 
  4011bc:	18 bb       	sub.b	r3l,r3l
  4011be:	68 ab       	mov.b	r3l,@er2

004011c0 <.LM45>:
/home/ether.c:221
  *H8_3069F_IER  = 0x20; /* IRQ5割り込み有効化 */
  4011c0:	7a 02 00 fe 	mov.l	#0xfee015,er2
  4011c4:	e0 15 
  4011c6:	fb 20       	mov.b	#0x20,r3l
  4011c8:	68 ab       	mov.b	r3l,@er2

004011ca <.LM46>:
/home/ether.c:223

  return 0;
  4011ca:	19 22       	sub.w	r2,r2

004011cc <.LM47>:
/home/ether.c:224
}
  4011cc:	0d 20       	mov.w	r2,r0
  4011ce:	01 00 6d 76 	mov.l	@er7+,er6
  4011d2:	54 70       	rts	

004011d4 <_ether_init>:
ether_init():
/home/ether.c:227

int ether_init(int index)
{
  4011d4:	01 00 6d f6 	mov.l	er6,@-er7
  4011d8:	0f f6       	mov.l	er7,er6
  4011da:	7a 37 00 00 	sub.l	#0x1c,er7
  4011de:	00 1c 
  4011e0:	6f e0 ff e6 	mov.w	r0,@(0xffe6:16,er6)

004011e4 <.LM49>:
/home/ether.c:234
  unsigned char t2[12];
  unsigned char macaddr[6];
  int i;

  // 外部 IO を使えるようにするための設定など
  port_init();
  4011e4:	5e 40 11 9c 	jsr	@0x40119c:24

004011e8 <.LM50>:
/home/ether.c:238

  // RP: Reset port
  // 読み取りにはどんな意味が？なにを書いてもいい気がするけど…
  t1 = *RTL8019_RP;
  4011e8:	7a 02 00 20 	mov.l	#0x200018,er2
  4011ec:	00 18 
  4011ee:	68 2a       	mov.b	@er2,r2l
  4011f0:	6e ea ff fd 	mov.b	r2l,@(0xfffd:16,er6)

004011f4 <.LM51>:
/home/ether.c:239
  *RTL8019_RP = t1;
  4011f4:	7a 02 00 20 	mov.l	#0x200018,er2
  4011f8:	00 18 
  4011fa:	6e 6b ff fd 	mov.b	@(0xfffd:16,er6),r3l
  4011fe:	68 ab       	mov.b	r3l,@er2

00401200 <.LM52>:
/home/ether.c:242

  // リセットさせて、少し待つ
  mdelay(10);
  401200:	79 00 00 0a 	mov.w	#0xa,r0
  401204:	5e 40 0f da 	jsr	@0x400fda:24

00401208 <.LM53>:
/home/ether.c:245

  // リモートコマンドを停止(STP)
  *NE2000_CR     = NE2000_CR_P0 | NE2000_CR_RD_ABORT | NE2000_CR_STP;
  401208:	7a 02 00 20 	mov.l	#0x200000,er2
  40120c:	00 00 
  40120e:	fb 21       	mov.b	#0x21,r3l
  401210:	68 ab       	mov.b	r3l,@er2

00401212 <.LM54>:
/home/ether.c:251

  // DCR(data configuration register)、ページ0なので write できる
  // F1: FIFO threshold
  // LS: loopback select, セットすると normal operation となる
  // BOS: byte order select, not impelemented とあるので意味がない？
  *NE2000_DCR    = NE2000_DCR_F1 | NE2000_DCR_LS | NE2000_DCR_BOS;
  401212:	7a 02 00 20 	mov.l	#0x20000e,er2
  401216:	00 0e 
  401218:	fb 4a       	mov.b	#0x4a,r3l
  40121a:	68 ab       	mov.b	r3l,@er2

0040121c <.LM55>:
/home/ether.c:254

  // データサイズは 0 に
  *NE2000_RBCR0  = 0x00;
  40121c:	7a 02 00 20 	mov.l	#0x20000a,er2
  401220:	00 0a 
  401222:	18 bb       	sub.b	r3l,r3l
  401224:	68 ab       	mov.b	r3l,@er2

00401226 <.LM56>:
/home/ether.c:255
  *NE2000_RBCR1  = 0x00;
  401226:	7a 02 00 20 	mov.l	#0x20000b,er2
  40122a:	00 0b 
  40122c:	18 bb       	sub.b	r3l,r3l
  40122e:	68 ab       	mov.b	r3l,@er2

00401230 <.LM57>:
/home/ether.c:259

  // RCR(receive configuration register)
  // monitor mode、受信したパケットのチェックはするが、バッファしない？
  *NE2000_RCR    = NE2000_RCR_MON;
  401230:	7a 02 00 20 	mov.l	#0x20000c,er2
  401234:	00 0c 
  401236:	fb 20       	mov.b	#0x20,r3l
  401238:	68 ab       	mov.b	r3l,@er2

0040123a <.LM58>:
/home/ether.c:263

  // TCR(transmit configuration register)
  // ILB = internal loopback
  *NE2000_TCR    = NE2000_TCR_ILB;
  40123a:	7a 02 00 20 	mov.l	#0x20000d,er2
  40123e:	00 0d 
  401240:	fb 02       	mov.b	#0x2,r3l
  401242:	68 ab       	mov.b	r3l,@er2

00401244 <.LM59>:
/home/ether.c:271
  // 送信するパケットのスタートページのアドレスを指定する？
  // http://contiki.sourceforge.net/docs/2.6/a00626_source.html
  // buffer boundaries - transmit has 6 256-byte pages
  //   receive has 26 256-byte pages
  // NE2000_TP_START は 0x40 なので、64番目のページを使うという宣言？
  *NE2000_TPSR   = NE2000_TP_START;
  401244:	7a 02 00 20 	mov.l	#0x200004,er2
  401248:	00 04 
  40124a:	fb 40       	mov.b	#0x40,r3l
  40124c:	68 ab       	mov.b	r3l,@er2

0040124e <.LM60>:
/home/ether.c:275

  // PSTART(page start resgister)
  // 受信用のリングバッファの開始アドレス
  *NE2000_PSTART = NE2000_RP_START;
  40124e:	7a 02 00 20 	mov.l	#0x200001,er2
  401252:	00 01 
  401254:	fb 46       	mov.b	#0x46,r3l
  401256:	68 ab       	mov.b	r3l,@er2

00401258 <.LM61>:
/home/ether.c:279

  // BNRY(boundary register)
  // リングバッファ領域の末尾のアドレスを入れる(オーバーランを防ぐために使う)
  *NE2000_BNRY   = NE2000_RP_START;
  401258:	7a 02 00 20 	mov.l	#0x200003,er2
  40125c:	00 03 
  40125e:	fb 46       	mov.b	#0x46,r3l
  401260:	68 ab       	mov.b	r3l,@er2

00401262 <.LM62>:
/home/ether.c:283

  // PSTOP(page stop register)
  // 受信リングバッファが置かれたページアドレスを指定する
  *NE2000_PSTOP  = NE2000_RP_STOP;
  401262:	7a 02 00 20 	mov.l	#0x200002,er2
  401266:	00 02 
  401268:	fb 80       	mov.b	#0x80,r3l
  40126a:	68 ab       	mov.b	r3l,@er2

0040126c <.LM63>:
/home/ether.c:287

  // IMR(Interrupt mask register)
  // ISR の割込みを有効にするかどうかを決める
  *NE2000_IMR    = 0x00;
  40126c:	7a 02 00 20 	mov.l	#0x20000f,er2
  401270:	00 0f 
  401272:	18 bb       	sub.b	r3l,r3l
  401274:	68 ab       	mov.b	r3l,@er2

00401276 <.LM64>:
/home/ether.c:291

  // ISR(Interrupt status register)
  // NIC の状態と対応する
  *NE2000_ISR    = 0xff;
  401276:	7a 02 00 20 	mov.l	#0x200007,er2
  40127a:	00 07 
  40127c:	fb ff       	mov.b	#0xff,r3l
  40127e:	68 ab       	mov.b	r3l,@er2

00401280 <.LM65>:
/home/ether.c:294

  // SAPROM の 0 番地から 12 バイト読み込む(最初に MAC アドレスが入っている？)
  read_data(0, 12, t2);
  401280:	0f e2       	mov.l	er6,er2
  401282:	7a 32 00 00 	sub.l	#0xf,er2
  401286:	00 0f 
  401288:	79 01 00 0c 	mov.w	#0xc,r1
  40128c:	19 00       	sub.w	r0,r0
  40128e:	5e 40 10 1c 	jsr	@0x40101c:24

00401292 <.LM66>:
/home/ether.c:295
  puts("MAC: ");
  401292:	7a 00 00 40 	mov.l	#0x404108,er0
  401296:	41 08 
  401298:	5e 40 07 b6 	jsr	@0x4007b6:24

0040129c <.LM67>:
/home/ether.c:296
  for (i = 0; i < 6; i++) {
  40129c:	19 22       	sub.w	r2,r2
  40129e:	6f e2 ff fe 	mov.w	r2,@(0xfffe:16,er6)
  4012a2:	40 52       	bra	.+82 (0x4012f6)

004012a4 <.L20>:
/home/ether.c:297 (discriminator 3)
    macaddr[i] = t2[i * 2];
  4012a4:	6f 62 ff fe 	mov.w	@(0xfffe:16,er6),r2
  4012a8:	10 12       	shll.w	r2
  4012aa:	17 f2       	exts.l	er2
  4012ac:	0f e3       	mov.l	er6,er3
  4012ae:	7a 33 00 00 	sub.l	#0xf,er3
  4012b2:	00 0f 
  4012b4:	0a b2       	add.l	er3,er2
  4012b6:	68 2b       	mov.b	@er2,r3l
  4012b8:	6f 62 ff fe 	mov.w	@(0xfffe:16,er6),r2
  4012bc:	17 f2       	exts.l	er2
  4012be:	0f e0       	mov.l	er6,er0
  4012c0:	7a 30 00 00 	sub.l	#0x15,er0
  4012c4:	00 15 
  4012c6:	0a 82       	add.l	er0,er2
  4012c8:	68 ab       	mov.b	r3l,@er2

004012ca <.LM69>:
/home/ether.c:298
    putxval((unsigned char)macaddr[i], 2);
  4012ca:	6f 62 ff fe 	mov.w	@(0xfffe:16,er6),r2
  4012ce:	17 f2       	exts.l	er2
  4012d0:	0f e3       	mov.l	er6,er3
  4012d2:	7a 33 00 00 	sub.l	#0x15,er3
  4012d6:	00 15 
  4012d8:	0a b2       	add.l	er3,er2
  4012da:	68 2a       	mov.b	@er2,r2l
  4012dc:	0c aa       	mov.b	r2l,r2l
  4012de:	17 52       	extu.w	r2
  4012e0:	17 72       	extu.l	er2
  4012e2:	79 01 00 02 	mov.w	#0x2,r1
  4012e6:	0f a0       	mov.l	er2,er0
  4012e8:	5e 40 08 5a 	jsr	@0x40085a:24

004012ec <.LM70>:
/home/ether.c:296
  for (i = 0; i < 6; i++) {
  4012ec:	6f 62 ff fe 	mov.w	@(0xfffe:16,er6),r2
  4012f0:	0b 02       	adds	#1,er2
  4012f2:	6f e2 ff fe 	mov.w	r2,@(0xfffe:16,er6)

004012f6 <.L19>:
/home/ether.c:296 (discriminator 1)
  4012f6:	6f 62 ff fe 	mov.w	@(0xfffe:16,er6),r2
  4012fa:	79 22 00 05 	cmp.w	#0x5,r2
  4012fe:	4f a4       	ble	.-92 (0x4012a4)

00401300 <.LM72>:
/home/ether.c:300
  }
  puts("\n");
  401300:	7a 00 00 40 	mov.l	#0x40410e,er0
  401304:	41 0e 
  401306:	5e 40 07 b6 	jsr	@0x4007b6:24

0040130a <.LM73>:
/home/ether.c:302

  *NE2000_CR   = NE2000_CR_P1 | NE2000_CR_RD_ABORT | NE2000_CR_STP;
  40130a:	7a 02 00 20 	mov.l	#0x200000,er2
  40130e:	00 00 
  401310:	fb 61       	mov.b	#0x61,r3l
  401312:	68 ab       	mov.b	r3l,@er2

00401314 <.LM74>:
/home/ether.c:305

  // PAR0-5 に MAC アドレスを書き込む
  *NE2000_PAR0 = macaddr[0];
  401314:	7a 02 00 20 	mov.l	#0x200001,er2
  401318:	00 01 
  40131a:	6e 6b ff eb 	mov.b	@(0xffeb:16,er6),r3l
  40131e:	68 ab       	mov.b	r3l,@er2

00401320 <.LM75>:
/home/ether.c:306
  *NE2000_PAR1 = macaddr[1];
  401320:	7a 02 00 20 	mov.l	#0x200002,er2
  401324:	00 02 
  401326:	6e 6b ff ec 	mov.b	@(0xffec:16,er6),r3l
  40132a:	68 ab       	mov.b	r3l,@er2

0040132c <.LM76>:
/home/ether.c:307
  *NE2000_PAR2 = macaddr[2];
  40132c:	7a 02 00 20 	mov.l	#0x200003,er2
  401330:	00 03 
  401332:	6e 6b ff ed 	mov.b	@(0xffed:16,er6),r3l
  401336:	68 ab       	mov.b	r3l,@er2

00401338 <.LM77>:
/home/ether.c:308
  *NE2000_PAR3 = macaddr[3];
  401338:	7a 02 00 20 	mov.l	#0x200004,er2
  40133c:	00 04 
  40133e:	6e 6b ff ee 	mov.b	@(0xffee:16,er6),r3l
  401342:	68 ab       	mov.b	r3l,@er2

00401344 <.LM78>:
/home/ether.c:309
  *NE2000_PAR4 = macaddr[4];
  401344:	7a 02 00 20 	mov.l	#0x200005,er2
  401348:	00 05 
  40134a:	6e 6b ff ef 	mov.b	@(0xffef:16,er6),r3l
  40134e:	68 ab       	mov.b	r3l,@er2

00401350 <.LM79>:
/home/ether.c:310
  *NE2000_PAR5 = macaddr[5];
  401350:	7a 02 00 20 	mov.l	#0x200006,er2
  401354:	00 06 
  401356:	6e 6b ff f0 	mov.b	@(0xfff0:16,er6),r3l
  40135a:	68 ab       	mov.b	r3l,@er2

0040135c <.LM80>:
/home/ether.c:312

  *NE2000_CURR = NE2000_RP_START + 1;
  40135c:	7a 02 00 20 	mov.l	#0x200007,er2
  401360:	00 07 
  401362:	fb 47       	mov.b	#0x47,r3l
  401364:	68 ab       	mov.b	r3l,@er2

00401366 <.LM81>:
/home/ether.c:313
  *NE2000_MAR0 = 0x00;
  401366:	7a 02 00 20 	mov.l	#0x200008,er2
  40136a:	00 08 
  40136c:	18 bb       	sub.b	r3l,r3l
  40136e:	68 ab       	mov.b	r3l,@er2

00401370 <.LM82>:
/home/ether.c:314
  *NE2000_MAR1 = 0x00;
  401370:	7a 02 00 20 	mov.l	#0x200009,er2
  401374:	00 09 
  401376:	18 bb       	sub.b	r3l,r3l
  401378:	68 ab       	mov.b	r3l,@er2

0040137a <.LM83>:
/home/ether.c:315
  *NE2000_MAR2 = 0x00;
  40137a:	7a 02 00 20 	mov.l	#0x20000a,er2
  40137e:	00 0a 
  401380:	18 bb       	sub.b	r3l,r3l
  401382:	68 ab       	mov.b	r3l,@er2

00401384 <.LM84>:
/home/ether.c:316
  *NE2000_MAR3 = 0x00;
  401384:	7a 02 00 20 	mov.l	#0x20000b,er2
  401388:	00 0b 
  40138a:	18 bb       	sub.b	r3l,r3l
  40138c:	68 ab       	mov.b	r3l,@er2

0040138e <.LM85>:
/home/ether.c:317
  *NE2000_MAR4 = 0x00;
  40138e:	7a 02 00 20 	mov.l	#0x20000c,er2
  401392:	00 0c 
  401394:	18 bb       	sub.b	r3l,r3l
  401396:	68 ab       	mov.b	r3l,@er2

00401398 <.LM86>:
/home/ether.c:318
  *NE2000_MAR5 = 0x00;
  401398:	7a 02 00 20 	mov.l	#0x20000d,er2
  40139c:	00 0d 
  40139e:	18 bb       	sub.b	r3l,r3l
  4013a0:	68 ab       	mov.b	r3l,@er2

004013a2 <.LM87>:
/home/ether.c:319
  *NE2000_MAR6 = 0x00;
  4013a2:	7a 02 00 20 	mov.l	#0x20000e,er2
  4013a6:	00 0e 
  4013a8:	18 bb       	sub.b	r3l,r3l
  4013aa:	68 ab       	mov.b	r3l,@er2

004013ac <.LM88>:
/home/ether.c:320
  *NE2000_MAR7 = 0x00;
  4013ac:	7a 02 00 20 	mov.l	#0x20000f,er2
  4013b0:	00 0f 
  4013b2:	18 bb       	sub.b	r3l,r3l
  4013b4:	68 ab       	mov.b	r3l,@er2

004013b6 <.LM89>:
/home/ether.c:330
  *RTL8019_CONFIG1 = 0x80 | 0x40;
  *RTL8019_CONFIG2 = 0x00;
  *RTL8019_9346CR  = 0x00;
#endif

  *NE2000_CR   = NE2000_CR_P0 | NE2000_CR_RD_ABORT | NE2000_CR_STP;
  4013b6:	7a 02 00 20 	mov.l	#0x200000,er2
  4013ba:	00 00 
  4013bc:	fb 21       	mov.b	#0x21,r3l
  4013be:	68 ab       	mov.b	r3l,@er2

004013c0 <.LM90>:
/home/ether.c:331
  *NE2000_RCR  = NE2000_RCR_AM | NE2000_RCR_AB | NE2000_RCR_PRO;
  4013c0:	7a 02 00 20 	mov.l	#0x20000c,er2
  4013c4:	00 0c 
  4013c6:	fb 1c       	mov.b	#0x1c,r3l
  4013c8:	68 ab       	mov.b	r3l,@er2

004013ca <.LM91>:
/home/ether.c:332
  *NE2000_CR   = NE2000_CR_P0 | NE2000_CR_RD_ABORT | NE2000_CR_STA;
  4013ca:	7a 02 00 20 	mov.l	#0x200000,er2
  4013ce:	00 00 
  4013d0:	fb 22       	mov.b	#0x22,r3l
  4013d2:	68 ab       	mov.b	r3l,@er2

004013d4 <.LM92>:
/home/ether.c:333
  *NE2000_TCR  = NE2000_TCR_NORMAL;
  4013d4:	7a 02 00 20 	mov.l	#0x20000d,er2
  4013d8:	00 0d 
  4013da:	18 bb       	sub.b	r3l,r3l
  4013dc:	68 ab       	mov.b	r3l,@er2

004013de <.LM93>:
/home/ether.c:334
  *NE2000_IMR  = 0x00;
  4013de:	7a 02 00 20 	mov.l	#0x20000f,er2
  4013e2:	00 0f 
  4013e4:	18 bb       	sub.b	r3l,r3l
  4013e6:	68 ab       	mov.b	r3l,@er2

004013e8 <.LM94>:
/home/ether.c:336

  return 0;
  4013e8:	19 22       	sub.w	r2,r2

004013ea <.LM95>:
/home/ether.c:337
}
  4013ea:	0d 20       	mov.w	r2,r0
  4013ec:	7a 17 00 00 	add.l	#0x1c,er7
  4013f0:	00 1c 
  4013f2:	01 00 6d 76 	mov.l	@er7+,er6
  4013f6:	54 70       	rts	

004013f8 <_ether_intr_enable>:
ether_intr_enable():
/home/ether.c:341

// RTL からの割込みを有効にする
void ether_intr_enable(int index)
{
  4013f8:	01 00 6d f6 	mov.l	er6,@-er7
  4013fc:	0f f6       	mov.l	er7,er6
  4013fe:	1b 97       	subs	#4,er7
  401400:	6f e0 ff fe 	mov.w	r0,@(0xfffe:16,er6)

00401404 <.LM97>:
/home/ether.c:342
  *NE2000_CR  = NE2000_CR_P0 | NE2000_CR_RD_ABORT | NE2000_CR_STA;
  401404:	7a 02 00 20 	mov.l	#0x200000,er2
  401408:	00 00 
  40140a:	fb 22       	mov.b	#0x22,r3l
  40140c:	68 ab       	mov.b	r3l,@er2

0040140e <.LM98>:
/home/ether.c:343
  *NE2000_IMR = 0x01;
  40140e:	7a 02 00 20 	mov.l	#0x20000f,er2
  401412:	00 0f 
  401414:	fb 01       	mov.b	#0x1,r3l
  401416:	68 ab       	mov.b	r3l,@er2

00401418 <.LM99>:
/home/ether.c:344
}
  401418:	00 00       	nop	
  40141a:	0b 97       	adds	#4,er7
  40141c:	01 00 6d 76 	mov.l	@er7+,er6
  401420:	54 70       	rts	

00401422 <_ether_intr_disable>:
ether_intr_disable():
/home/ether.c:348

// RTL からの割込みを無効にする
void ether_intr_disable(int index)
{
  401422:	01 00 6d f6 	mov.l	er6,@-er7
  401426:	0f f6       	mov.l	er7,er6
  401428:	1b 97       	subs	#4,er7
  40142a:	6f e0 ff fe 	mov.w	r0,@(0xfffe:16,er6)

0040142e <.LM101>:
/home/ether.c:349
  *NE2000_CR  = NE2000_CR_P0 | NE2000_CR_RD_ABORT | NE2000_CR_STP;
  40142e:	7a 02 00 20 	mov.l	#0x200000,er2
  401432:	00 00 
  401434:	fb 21       	mov.b	#0x21,r3l
  401436:	68 ab       	mov.b	r3l,@er2

00401438 <.LM102>:
/home/ether.c:350
  *NE2000_IMR = 0x00;
  401438:	7a 02 00 20 	mov.l	#0x20000f,er2
  40143c:	00 0f 
  40143e:	18 bb       	sub.b	r3l,r3l
  401440:	68 ab       	mov.b	r3l,@er2

00401442 <.LM103>:
/home/ether.c:351
}
  401442:	00 00       	nop	
  401444:	0b 97       	adds	#4,er7
  401446:	01 00 6d 76 	mov.l	@er7+,er6
  40144a:	54 70       	rts	

0040144c <_ether_checkintr>:
ether_checkintr():
/home/ether.c:354

int ether_checkintr(int index)
{
  40144c:	01 00 6d f6 	mov.l	er6,@-er7
  401450:	0f f6       	mov.l	er7,er6
  401452:	7a 37 00 00 	sub.l	#0x8,er7
  401456:	00 08 
  401458:	6f e0 ff fa 	mov.w	r0,@(0xfffa:16,er6)

0040145c <.LM105>:
/home/ether.c:360
  unsigned char status;
#if 0
  status = *H8_3069F_ISR;
  return (status & 0x20) ? 1 : 0;
#else
  *NE2000_CR = NE2000_CR_P0 | NE2000_CR_RD_ABORT | NE2000_CR_STA;
  40145c:	7a 02 00 20 	mov.l	#0x200000,er2
  401460:	00 00 
  401462:	fb 22       	mov.b	#0x22,r3l
  401464:	68 ab       	mov.b	r3l,@er2

00401466 <.LM106>:
/home/ether.c:361
  status = *NE2000_ISR;
  401466:	7a 02 00 20 	mov.l	#0x200007,er2
  40146a:	00 07 
  40146c:	68 2a       	mov.b	@er2,r2l
  40146e:	6e ea ff ff 	mov.b	r2l,@(0xffff:16,er6)

00401472 <.LM107>:
/home/ether.c:362
  return (status & 0x01) ? 1 : 0;
  401472:	6e 6a ff ff 	mov.b	@(0xffff:16,er6),r2l
  401476:	17 52       	extu.w	r2
  401478:	79 62 00 01 	and.w	#0x1,r2

0040147c <.LM108>:
/home/ether.c:364
#endif
}
  40147c:	0d 20       	mov.w	r2,r0
  40147e:	0b 97       	adds	#4,er7
  401480:	0b 97       	adds	#4,er7
  401482:	01 00 6d 76 	mov.l	@er7+,er6
  401486:	54 70       	rts	

00401488 <_clear_irq>:
clear_irq():
/home/ether.c:368

// Ethernet Phy の割込みフラグをクリア
static int clear_irq(int index)
{
  401488:	01 00 6d f6 	mov.l	er6,@-er7
  40148c:	0f f6       	mov.l	er7,er6
  40148e:	1b 97       	subs	#4,er7
  401490:	6f e0 ff fe 	mov.w	r0,@(0xfffe:16,er6)

00401494 <.LM110>:
/home/ether.c:369
  if (ether_checkintr(index)) {
  401494:	6f 62 ff fe 	mov.w	@(0xfffe:16,er6),r2
  401498:	0d 20       	mov.w	r2,r0
  40149a:	5e 40 14 4c 	jsr	@0x40144c:24
  40149e:	0d 02       	mov.w	r0,r2
  4014a0:	0d 22       	mov.w	r2,r2
  4014a2:	47 1e       	beq	.+30 (0x4014c2)

004014a4 <.LM111>:
/home/ether.c:371
    // H8 のほうの ISR レジスタをクリアする
    *H8_3069F_ISR = 0x00;
  4014a4:	7a 02 00 fe 	mov.l	#0xfee016,er2
  4014a8:	e0 16 
  4014aa:	18 bb       	sub.b	r3l,r3l
  4014ac:	68 ab       	mov.b	r3l,@er2

004014ae <.LM112>:
/home/ether.c:373
    // ページ0にしてコマンドを準備
    *NE2000_CR    = NE2000_CR_P0 | NE2000_CR_RD_ABORT | NE2000_CR_STA;
  4014ae:	7a 02 00 20 	mov.l	#0x200000,er2
  4014b2:	00 00 
  4014b4:	fb 22       	mov.b	#0x22,r3l
  4014b6:	68 ab       	mov.b	r3l,@er2

004014b8 <.LM113>:
/home/ether.c:375
    // ステータスレジスタをクリア
    *NE2000_ISR   = 0xff;
  4014b8:	7a 02 00 20 	mov.l	#0x200007,er2
  4014bc:	00 07 
  4014be:	fb ff       	mov.b	#0xff,r3l
  4014c0:	68 ab       	mov.b	r3l,@er2

004014c2 <.L27>:
/home/ether.c:377
  }
  return 0;
  4014c2:	19 22       	sub.w	r2,r2

004014c4 <.LM115>:
/home/ether.c:378
}
  4014c4:	0d 20       	mov.w	r2,r0
  4014c6:	0b 97       	adds	#4,er7
  4014c8:	01 00 6d 76 	mov.l	@er7+,er6
  4014cc:	54 70       	rts	

004014ce <_ether_recv>:
ether_recv():
/home/ether.c:382

// Ethernet フレームを受信する
int ether_recv(int index, char *buf)
{
  4014ce:	01 00 6d f6 	mov.l	er6,@-er7
  4014d2:	0f f6       	mov.l	er7,er6
  4014d4:	7a 37 00 00 	sub.l	#0x10,er7
  4014d8:	00 10 
  4014da:	6f e0 ff f6 	mov.w	r0,@(0xfff6:16,er6)
  4014de:	01 00 6f e1 	mov.l	er1,@(0xfff0:16,er6)
  4014e2:	ff f0 

004014e4 <.LM117>:
/home/ether.c:391

  // BNRY: read ポインタ、この番号までは読み終えている、次回はこの番号の次から読む
  // CURR: write ポインタ、次にパケットを受信したら、この番号から書く

  // ページ0を選択しコマンドを開始
  *NE2000_CR = NE2000_CR_P0 | NE2000_CR_RD_ABORT | NE2000_CR_STA;
  4014e4:	7a 02 00 20 	mov.l	#0x200000,er2
  4014e8:	00 00 
  4014ea:	fb 22       	mov.b	#0x22,r3l
  4014ec:	68 ab       	mov.b	r3l,@er2

004014ee <.LM118>:
/home/ether.c:393
  // リングバッファの次の領域を開始アドレスにする
  start = *NE2000_BNRY + 1;
  4014ee:	7a 02 00 20 	mov.l	#0x200003,er2
  4014f2:	00 03 
  4014f4:	68 2a       	mov.b	@er2,r2l
  4014f6:	8a 01       	add.b	#0x1,r2l
  4014f8:	6e ea ff ff 	mov.b	r2l,@(0xffff:16,er6)

004014fc <.LM119>:
/home/ether.c:396

  // ページ1を選択しコマンドを開始
  *NE2000_CR = NE2000_CR_P1 | NE2000_CR_RD_ABORT | NE2000_CR_STA;
  4014fc:	7a 02 00 20 	mov.l	#0x200000,er2
  401500:	00 00 
  401502:	fb 62       	mov.b	#0x62,r3l
  401504:	68 ab       	mov.b	r3l,@er2

00401506 <.LM120>:
/home/ether.c:398
  // CURR(current page register): パケットを受信するために使う最初のバッファのページアドレス
  curr = *NE2000_CURR;
  401506:	7a 02 00 20 	mov.l	#0x200007,er2
  40150a:	00 07 
  40150c:	68 2a       	mov.b	@er2,r2l
  40150e:	6e ea ff fe 	mov.b	r2l,@(0xfffe:16,er6)

00401512 <.LM121>:
/home/ether.c:400

  if (curr < start)
  401512:	6e 6b ff fe 	mov.b	@(0xfffe:16,er6),r3l
  401516:	6e 6a ff ff 	mov.b	@(0xffff:16,er6),r2l
  40151a:	1c ab       	cmp.b	r2l,r3l
  40151c:	44 0a       	bcc	.+10 (0x401528)

0040151e <.LM122>:
/home/ether.c:402
    // 書き込みデータがリングバッファの先頭に戻ってしまっていたら
    curr += NE2000_RP_STOP - NE2000_RP_START;
  40151e:	6e 6a ff fe 	mov.b	@(0xfffe:16,er6),r2l
  401522:	8a 3a       	add.b	#0x3a,r2l
  401524:	6e ea ff fe 	mov.b	r2l,@(0xfffe:16,er6)

00401528 <.L30>:
/home/ether.c:403
  if (start == curr)
  401528:	6e 6b ff ff 	mov.b	@(0xffff:16,er6),r3l
  40152c:	6e 6a ff fe 	mov.b	@(0xfffe:16,er6),r2l
  401530:	1c ab       	cmp.b	r2l,r3l
  401532:	46 06       	bne	.+6 (0x40153a)

00401534 <.LM124>:
/home/ether.c:405
    // 何のデータも受信していない場合
    return 0;
  401534:	19 22       	sub.w	r2,r2
  401536:	58 00 00 96 	bra	.+150 (0x4015d0)

0040153a <.L31>:
/home/ether.c:406
  if (start == NE2000_RP_STOP)
  40153a:	6e 6a ff ff 	mov.b	@(0xffff:16,er6),r2l
  40153e:	aa 80       	cmp.b	#0x80,r2l
  401540:	46 06       	bne	.+6 (0x401548)

00401542 <.LM126>:
/home/ether.c:408
    // PSTOP を読もうとしたら、先頭に巻き戻す
    start = NE2000_RP_START;
  401542:	fa 46       	mov.b	#0x46,r2l
  401544:	6e ea ff ff 	mov.b	r2l,@(0xffff:16,er6)

00401548 <.L33>:
/home/ether.c:411

  // まずパケットのサイズを受信
  read_data(start * 256, 4, header);
  401548:	6e 6a ff ff 	mov.b	@(0xffff:16,er6),r2l
  40154c:	17 52       	extu.w	r2
  40154e:	0d 23       	mov.w	r2,r3
  401550:	0c b3       	mov.b	r3l,r3h
  401552:	18 bb       	sub.b	r3l,r3l
  401554:	0f e2       	mov.l	er6,er2
  401556:	1b 92       	subs	#4,er2
  401558:	1b 92       	subs	#4,er2
  40155a:	79 01 00 04 	mov.w	#0x4,r1
  40155e:	0d 30       	mov.w	r3,r0
  401560:	5e 40 10 1c 	jsr	@0x40101c:24

00401564 <.LM128>:
/home/ether.c:413
  // パケットのサイズは下位2バイト
  size = ((int)header[3] << 8) + header[2] - 4;
  401564:	6e 6a ff fb 	mov.b	@(0xfffb:16,er6),r2l
  401568:	17 52       	extu.w	r2
  40156a:	0c a2       	mov.b	r2l,r2h
  40156c:	18 aa       	sub.b	r2l,r2l
  40156e:	6e 6b ff fa 	mov.b	@(0xfffa:16,er6),r3l
  401572:	17 53       	extu.w	r3
  401574:	09 32       	add.w	r3,r2
  401576:	1b 92       	subs	#4,er2
  401578:	6f e2 ff fc 	mov.w	r2,@(0xfffc:16,er6)

0040157c <.LM129>:
/home/ether.c:417

  // パケットの本体を受信
  // リングバッファの末尾を超える可能性があるが、そこはハードがうまくやることを期待している
  read_data((start * 256) + 4, size, buf);
  40157c:	6e 6a ff ff 	mov.b	@(0xffff:16,er6),r2l
  401580:	17 52       	extu.w	r2
  401582:	0c a2       	mov.b	r2l,r2h
  401584:	18 aa       	sub.b	r2l,r2l
  401586:	0d 23       	mov.w	r2,r3
  401588:	0b 93       	adds	#4,er3
  40158a:	01 00 6f 62 	mov.l	@(0xfff0:16,er6),er2
  40158e:	ff f0 
  401590:	6f 60 ff fc 	mov.w	@(0xfffc:16,er6),r0
  401594:	0d 01       	mov.w	r0,r1
  401596:	0d 30       	mov.w	r3,r0
  401598:	5e 40 10 1c 	jsr	@0x40101c:24

0040159c <.LM130>:
/home/ether.c:420

  // ページを0に
  *NE2000_CR = NE2000_CR_P0 | NE2000_CR_RD_ABORT | NE2000_CR_STA;
  40159c:	7a 02 00 20 	mov.l	#0x200000,er2
  4015a0:	00 00 
  4015a2:	fb 22       	mov.b	#0x22,r3l
  4015a4:	68 ab       	mov.b	r3l,@er2

004015a6 <.LM131>:
/home/ether.c:421
  if (header[1] == NE2000_RP_START)
  4015a6:	6e 6a ff f9 	mov.b	@(0xfff9:16,er6),r2l
  4015aa:	aa 46       	cmp.b	#0x46,r2l
  4015ac:	46 06       	bne	.+6 (0x4015b4)

004015ae <.LM132>:
/home/ether.c:422
    header[1] = NE2000_RP_STOP;
  4015ae:	fa 80       	mov.b	#0x80,r2l
  4015b0:	6e ea ff f9 	mov.b	r2l,@(0xfff9:16,er6)

004015b4 <.L34>:
/home/ether.c:424
  // ヘッダの2バイト目には次のページのインデックスが書かれている
  *NE2000_BNRY = header[1] - 1;
  4015b4:	6e 6b ff f9 	mov.b	@(0xfff9:16,er6),r3l
  4015b8:	7a 02 00 20 	mov.l	#0x200003,er2
  4015bc:	00 03 
  4015be:	8b ff       	add.b	#0xff,r3l
  4015c0:	68 ab       	mov.b	r3l,@er2

004015c2 <.LM134>:
/home/ether.c:426

  clear_irq(index);
  4015c2:	6f 62 ff f6 	mov.w	@(0xfff6:16,er6),r2
  4015c6:	0d 20       	mov.w	r2,r0
  4015c8:	5e 40 14 88 	jsr	@0x401488:24

004015cc <.LM135>:
/home/ether.c:428

  return size;
  4015cc:	6f 62 ff fc 	mov.w	@(0xfffc:16,er6),r2

004015d0 <.L35>:
/home/ether.c:429 (discriminator 1)
}
  4015d0:	0d 20       	mov.w	r2,r0
  4015d2:	7a 17 00 00 	add.l	#0x10,er7
  4015d6:	00 10 
  4015d8:	01 00 6d 76 	mov.l	@er7+,er6
  4015dc:	54 70       	rts	

004015de <_ether_send>:
ether_send():
/home/ether.c:433

// Ethernet フレームを送信する
int ether_send(int index, int size, char *buf)
{
  4015de:	01 00 6d f6 	mov.l	er6,@-er7
  4015e2:	0f f6       	mov.l	er7,er6
  4015e4:	7a 37 00 00 	sub.l	#0x8,er7
  4015e8:	00 08 
  4015ea:	6f e0 ff fe 	mov.w	r0,@(0xfffe:16,er6)
  4015ee:	6f e1 ff fc 	mov.w	r1,@(0xfffc:16,er6)
  4015f2:	01 00 6f e2 	mov.l	er2,@(0xfff8:16,er6)
  4015f6:	ff f8 

004015f8 <.LM138>:
/home/ether.c:436
  // 送信時は必ず 0x40 の位置にデータを書く
  // 送信用のデータ領域は1パケット分しかないため
  write_data(NE2000_TP_START * 256, size, buf);
  4015f8:	01 00 6f 62 	mov.l	@(0xfff8:16,er6),er2
  4015fc:	ff f8 
  4015fe:	6f 63 ff fc 	mov.w	@(0xfffc:16,er6),r3
  401602:	0d 31       	mov.w	r3,r1
  401604:	79 00 40 00 	mov.w	#0x4000,r0
  401608:	5e 40 10 dc 	jsr	@0x4010dc:24

0040160c <.LM139>:
/home/ether.c:438
        
  if(size < 60)
  40160c:	6f 62 ff fc 	mov.w	@(0xfffc:16,er6),r2
  401610:	79 22 00 3b 	cmp.w	#0x3b,r2
  401614:	4e 08       	bgt	.+8 (0x40161e)

00401616 <.LM140>:
/home/ether.c:439
    size = 60;
  401616:	79 02 00 3c 	mov.w	#0x3c,r2
  40161a:	6f e2 ff fc 	mov.w	r2,@(0xfffc:16,er6)

0040161e <.L37>:
/home/ether.c:442

  // ページ0でコマンドを準備
  *NE2000_CR    = NE2000_CR_P0 | NE2000_CR_RD_ABORT | NE2000_CR_STA;
  40161e:	7a 02 00 20 	mov.l	#0x200000,er2
  401622:	00 00 
  401624:	fb 22       	mov.b	#0x22,r3l
  401626:	68 ab       	mov.b	r3l,@er2

00401628 <.LM142>:
/home/ether.c:444
  // パケットサイズを2バイトで指定
  *NE2000_TBCR0 = size & 0xff;        // 下位バイト
  401628:	7a 02 00 20 	mov.l	#0x200005,er2
  40162c:	00 05 
  40162e:	6f 63 ff fc 	mov.w	@(0xfffc:16,er6),r3
  401632:	68 ab       	mov.b	r3l,@er2

00401634 <.LM143>:
/home/ether.c:445
  *NE2000_TBCR1 = (size >> 8) & 0xff; // 上位バイト
  401634:	6f 62 ff fc 	mov.w	@(0xfffc:16,er6),r2
  401638:	0c 2a       	mov.b	r2h,r2l
  40163a:	17 52       	extu.w	r2
  40163c:	7a 03 00 20 	mov.l	#0x200006,er3
  401640:	00 06 
  401642:	68 ba       	mov.b	r2l,@er3

00401644 <.LM144>:
/home/ether.c:448

  // TPSR(transmit page start register): 送信されるパケットのスタートページアドレス
  *NE2000_TPSR  = NE2000_TP_START;
  401644:	7a 02 00 20 	mov.l	#0x200004,er2
  401648:	00 04 
  40164a:	fb 40       	mov.b	#0x40,r3l
  40164c:	68 ab       	mov.b	r3l,@er2

0040164e <.LM145>:
/home/ether.c:451

  // TXP をセットし送信を開始
  *NE2000_CR    = NE2000_CR_P0 | NE2000_CR_RD_ABORT | NE2000_CR_TXP | NE2000_CR_STA;
  40164e:	7a 02 00 20 	mov.l	#0x200000,er2
  401652:	00 00 
  401654:	fb 26       	mov.b	#0x26,r3l
  401656:	68 ab       	mov.b	r3l,@er2

00401658 <.LM146>:
	...

0040165a <.L38>:
/home/ether.c:454 (discriminator 1)

  // 送信が完了するまで(TXP ビットがクリアされるまで)ビジーループで待つ
  while ((*NE2000_CR & NE2000_CR_TXP) != 0)
  40165a:	7a 02 00 20 	mov.l	#0x200000,er2
  40165e:	00 00 
  401660:	68 2a       	mov.b	@er2,r2l
  401662:	17 52       	extu.w	r2
  401664:	79 62 00 04 	and.w	#0x4,r2
  401668:	0d 22       	mov.w	r2,r2
  40166a:	46 ee       	bne	.-18 (0x40165a)

0040166c <.LM148>:
/home/ether.c:457
    ;

  return 0;
  40166c:	19 22       	sub.w	r2,r2

0040166e <.LM149>:
/home/ether.c:458
}
  40166e:	0d 20       	mov.w	r2,r0
  401670:	0b 97       	adds	#4,er7
  401672:	0b 97       	adds	#4,er7
  401674:	01 00 6d 76 	mov.l	@er7+,er6
  401678:	54 70       	rts	

0040167a <_getcurrent>:
getcurrent():
/home/kozos.c:84

void dispatch(kz_context *context);

/* カレント・スレッドをレディー・キューから抜き出す */
static int getcurrent(void)
{
  40167a:	01 00 6d f6 	mov.l	er6,@-er7
  40167e:	0f f6       	mov.l	er7,er6

00401680 <.LM2>:
/home/kozos.c:85
  if (current == NULL) {
  401680:	01 00 6b 22 	mov.l	@0x404290:32,er2
  401684:	00 40 42 90 
  401688:	0f a2       	mov.l	er2,er2
  40168a:	46 08       	bne	.+8 (0x401694)

0040168c <.LM3>:
/home/kozos.c:86
    return -1;
  40168c:	79 02 ff ff 	mov.w	#0xffff,r2
  401690:	58 00 00 ba 	bra	.+186 (0x40174e)

00401694 <.L2>:
/home/kozos.c:88
  }
  if (!(current->flags & KZ_THREAD_FLAG_READY)) {
  401694:	01 00 6b 22 	mov.l	@0x404290:32,er2
  401698:	00 40 42 90 
  40169c:	01 00 6f 22 	mov.l	@(0x1c:16,er2),er2
  4016a0:	00 1c 
  4016a2:	7a 62 00 00 	and.l	#0x1,er2
  4016a6:	00 01 
  4016a8:	0f a2       	mov.l	er2,er2
  4016aa:	46 08       	bne	.+8 (0x4016b4)

004016ac <.LM5>:
/home/kozos.c:90
    /* すでに無い場合は無視 */
    return 1;
  4016ac:	79 02 00 01 	mov.w	#0x1,r2
  4016b0:	58 00 00 9a 	bra	.+154 (0x40174e)

004016b4 <.L4>:
/home/kozos.c:94
  }

  /* カレント・スレッドは必ず先頭にあるはずなので，先頭から抜き出す */
  readyque[current->priority].head = current->next;
  4016b4:	01 00 6b 23 	mov.l	@0x404290:32,er3
  4016b8:	00 40 42 90 
  4016bc:	01 00 6b 22 	mov.l	@0x404290:32,er2
  4016c0:	00 40 42 90 
  4016c4:	6f 22 00 14 	mov.w	@(0x14:16,er2),r2
  4016c8:	01 00 69 33 	mov.l	@er3,er3
  4016cc:	17 f2       	exts.l	er2
  4016ce:	10 32       	shll.l	er2
  4016d0:	10 32       	shll.l	er2
  4016d2:	10 32       	shll.l	er2
  4016d4:	7a 12 00 40 	add.l	#0x404210,er2
  4016d8:	42 10 
  4016da:	01 00 69 a3 	mov.l	er3,@er2

004016de <.LM7>:
/home/kozos.c:95
  if (readyque[current->priority].head == NULL) {
  4016de:	01 00 6b 22 	mov.l	@0x404290:32,er2
  4016e2:	00 40 42 90 
  4016e6:	6f 22 00 14 	mov.w	@(0x14:16,er2),r2
  4016ea:	17 f2       	exts.l	er2
  4016ec:	10 32       	shll.l	er2
  4016ee:	10 32       	shll.l	er2
  4016f0:	10 32       	shll.l	er2
  4016f2:	7a 12 00 40 	add.l	#0x404210,er2
  4016f6:	42 10 
  4016f8:	01 00 69 22 	mov.l	@er2,er2
  4016fc:	0f a2       	mov.l	er2,er2
  4016fe:	46 20       	bne	.+32 (0x401720)

00401700 <.LM8>:
/home/kozos.c:96
    readyque[current->priority].tail = NULL;
  401700:	01 00 6b 22 	mov.l	@0x404290:32,er2
  401704:	00 40 42 90 
  401708:	6f 22 00 14 	mov.w	@(0x14:16,er2),r2
  40170c:	17 f2       	exts.l	er2
  40170e:	10 32       	shll.l	er2
  401710:	10 32       	shll.l	er2
  401712:	10 32       	shll.l	er2
  401714:	7a 12 00 40 	add.l	#0x404214,er2
  401718:	42 14 
  40171a:	1a b3       	sub.l	er3,er3
  40171c:	01 00 69 a3 	mov.l	er3,@er2

00401720 <.L5>:
/home/kozos.c:98
  }
  current->flags &= ~KZ_THREAD_FLAG_READY;
  401720:	01 00 6b 22 	mov.l	@0x404290:32,er2
  401724:	00 40 42 90 
  401728:	01 00 6f 23 	mov.l	@(0x1c:16,er2),er3
  40172c:	00 1c 
  40172e:	01 00 6b 22 	mov.l	@0x404290:32,er2
  401732:	00 40 42 90 
  401736:	eb fe       	and.b	#0xfe,r3l
  401738:	01 00 6f a3 	mov.l	er3,@(0x1c:16,er2)
  40173c:	00 1c 

0040173e <.LM10>:
/home/kozos.c:99
  current->next = NULL;
  40173e:	01 00 6b 22 	mov.l	@0x404290:32,er2
  401742:	00 40 42 90 
  401746:	1a b3       	sub.l	er3,er3
  401748:	01 00 69 a3 	mov.l	er3,@er2

0040174c <.LM11>:
/home/kozos.c:101

  return 0;
  40174c:	19 22       	sub.w	r2,r2

0040174e <.L3>:
/home/kozos.c:102
}
  40174e:	0d 20       	mov.w	r2,r0
  401750:	01 00 6d 76 	mov.l	@er7+,er6
  401754:	54 70       	rts	

00401756 <_putcurrent>:
putcurrent():
/home/kozos.c:106

/* カレント・スレッドをレディー・キューに繋げる */
static int putcurrent(void)
{
  401756:	01 00 6d f6 	mov.l	er6,@-er7
  40175a:	0f f6       	mov.l	er7,er6

0040175c <.LM14>:
/home/kozos.c:107
  if (current == NULL) {
  40175c:	01 00 6b 22 	mov.l	@0x404290:32,er2
  401760:	00 40 42 90 
  401764:	0f a2       	mov.l	er2,er2
  401766:	46 08       	bne	.+8 (0x401770)

00401768 <.LM15>:
/home/kozos.c:108
    return -1;
  401768:	79 02 ff ff 	mov.w	#0xffff,r2
  40176c:	58 00 00 da 	bra	.+218 (0x40184a)

00401770 <.L7>:
/home/kozos.c:110
  }
  if (current->flags & KZ_THREAD_FLAG_READY) {
  401770:	01 00 6b 22 	mov.l	@0x404290:32,er2
  401774:	00 40 42 90 
  401778:	01 00 6f 22 	mov.l	@(0x1c:16,er2),er2
  40177c:	00 1c 
  40177e:	7a 62 00 00 	and.l	#0x1,er2
  401782:	00 01 
  401784:	0f a2       	mov.l	er2,er2
  401786:	47 08       	beq	.+8 (0x401790)

00401788 <.LM17>:
/home/kozos.c:112
    /* すでに有る場合は無視 */
    return 1;
  401788:	79 02 00 01 	mov.w	#0x1,r2
  40178c:	58 00 00 ba 	bra	.+186 (0x40184a)

00401790 <.L9>:
/home/kozos.c:116
  }

  /* レディー・キューの末尾に接続する */
  if (readyque[current->priority].tail) {
  401790:	01 00 6b 22 	mov.l	@0x404290:32,er2
  401794:	00 40 42 90 
  401798:	6f 22 00 14 	mov.w	@(0x14:16,er2),r2
  40179c:	17 f2       	exts.l	er2
  40179e:	10 32       	shll.l	er2
  4017a0:	10 32       	shll.l	er2
  4017a2:	10 32       	shll.l	er2
  4017a4:	7a 12 00 40 	add.l	#0x404214,er2
  4017a8:	42 14 
  4017aa:	01 00 69 22 	mov.l	@er2,er2
  4017ae:	0f a2       	mov.l	er2,er2
  4017b0:	47 2c       	beq	.+44 (0x4017de)

004017b2 <.LM19>:
/home/kozos.c:117
    readyque[current->priority].tail->next = current;
  4017b2:	01 00 6b 22 	mov.l	@0x404290:32,er2
  4017b6:	00 40 42 90 
  4017ba:	6f 22 00 14 	mov.w	@(0x14:16,er2),r2
  4017be:	17 f2       	exts.l	er2
  4017c0:	10 32       	shll.l	er2
  4017c2:	10 32       	shll.l	er2
  4017c4:	10 32       	shll.l	er2
  4017c6:	7a 12 00 40 	add.l	#0x404214,er2
  4017ca:	42 14 
  4017cc:	01 00 69 22 	mov.l	@er2,er2
  4017d0:	01 00 6b 23 	mov.l	@0x404290:32,er3
  4017d4:	00 40 42 90 
  4017d8:	01 00 69 a3 	mov.l	er3,@er2
  4017dc:	40 26       	bra	.+38 (0x401804)

004017de <.L10>:
/home/kozos.c:119
  } else {
    readyque[current->priority].head = current;
  4017de:	01 00 6b 22 	mov.l	@0x404290:32,er2
  4017e2:	00 40 42 90 
  4017e6:	6f 22 00 14 	mov.w	@(0x14:16,er2),r2
  4017ea:	01 00 6b 23 	mov.l	@0x404290:32,er3
  4017ee:	00 40 42 90 
  4017f2:	17 f2       	exts.l	er2
  4017f4:	10 32       	shll.l	er2
  4017f6:	10 32       	shll.l	er2
  4017f8:	10 32       	shll.l	er2
  4017fa:	7a 12 00 40 	add.l	#0x404210,er2
  4017fe:	42 10 
  401800:	01 00 69 a3 	mov.l	er3,@er2

00401804 <.L11>:
/home/kozos.c:121
  }
  readyque[current->priority].tail = current;
  401804:	01 00 6b 22 	mov.l	@0x404290:32,er2
  401808:	00 40 42 90 
  40180c:	6f 22 00 14 	mov.w	@(0x14:16,er2),r2
  401810:	01 00 6b 23 	mov.l	@0x404290:32,er3
  401814:	00 40 42 90 
  401818:	17 f2       	exts.l	er2
  40181a:	10 32       	shll.l	er2
  40181c:	10 32       	shll.l	er2
  40181e:	10 32       	shll.l	er2
  401820:	7a 12 00 40 	add.l	#0x404214,er2
  401824:	42 14 
  401826:	01 00 69 a3 	mov.l	er3,@er2

0040182a <.LM22>:
/home/kozos.c:122
  current->flags |= KZ_THREAD_FLAG_READY;
  40182a:	01 00 6b 22 	mov.l	@0x404290:32,er2
  40182e:	00 40 42 90 
  401832:	01 00 6f 23 	mov.l	@(0x1c:16,er2),er3
  401836:	00 1c 
  401838:	01 00 6b 22 	mov.l	@0x404290:32,er2
  40183c:	00 40 42 90 
  401840:	cb 01       	or.b	#0x1,r3l
  401842:	01 00 6f a3 	mov.l	er3,@(0x1c:16,er2)
  401846:	00 1c 

00401848 <.LM23>:
/home/kozos.c:124

  return 0;
  401848:	19 22       	sub.w	r2,r2

0040184a <.L8>:
/home/kozos.c:125
}
  40184a:	0d 20       	mov.w	r2,r0
  40184c:	01 00 6d 76 	mov.l	@er7+,er6
  401850:	54 70       	rts	

00401852 <_thread_end>:
thread_end():
/home/kozos.c:128

static void thread_end(void)
{
  401852:	01 00 6d f6 	mov.l	er6,@-er7
  401856:	0f f6       	mov.l	er7,er6

00401858 <.LM26>:
/home/kozos.c:129
  kz_exit();
  401858:	5e 40 25 f4 	jsr	@0x4025f4:24

0040185c <.LM27>:
/home/kozos.c:130
}
  40185c:	00 00       	nop	
  40185e:	01 00 6d 76 	mov.l	@er7+,er6
  401862:	54 70       	rts	

00401864 <_thread_init>:
thread_init():
/home/kozos.c:134

/* スレッドのスタート・アップ */
static void thread_init(kz_thread *thp)
{
  401864:	01 00 6d f6 	mov.l	er6,@-er7
  401868:	0f f6       	mov.l	er7,er6
  40186a:	1b 97       	subs	#4,er7
  40186c:	01 00 6f e0 	mov.l	er0,@(0xfffc:16,er6)
  401870:	ff fc 

00401872 <.LM29>:
/home/kozos.c:136
  /* スレッドのメイン関数を呼び出す */
  thp->init.func(thp->init.argc, thp->init.argv);
  401872:	01 00 6f 62 	mov.l	@(0xfffc:16,er6),er2
  401876:	ff fc 
  401878:	01 00 6f 22 	mov.l	@(0x20:16,er2),er2
  40187c:	00 20 
  40187e:	01 00 6f 63 	mov.l	@(0xfffc:16,er6),er3
  401882:	ff fc 
  401884:	01 00 6f 30 	mov.l	@(0x28:16,er3),er0
  401888:	00 28 
  40188a:	01 00 6f 63 	mov.l	@(0xfffc:16,er6),er3
  40188e:	ff fc 
  401890:	6f 33 00 24 	mov.w	@(0x24:16,er3),r3
  401894:	0f 81       	mov.l	er0,er1
  401896:	0d 30       	mov.w	r3,r0
  401898:	5d 20       	jsr	@er2

0040189a <.LM30>:
/home/kozos.c:137
  thread_end();
  40189a:	5e 40 18 52 	jsr	@0x401852:24

0040189e <.LM31>:
/home/kozos.c:138
}
  40189e:	00 00       	nop	
  4018a0:	0b 97       	adds	#4,er7
  4018a2:	01 00 6d 76 	mov.l	@er7+,er6
  4018a6:	54 70       	rts	

004018a8 <_thread_run>:
thread_run():
/home/kozos.c:143

/* システム・コールの処理(kz_run():スレッドの起動) */
static kz_thread_id_t thread_run(kz_func_t func, char *name, int priority,
				 int stacksize, int argc, char *argv[])
{
  4018a8:	01 00 6d f6 	mov.l	er6,@-er7
  4018ac:	0f f6       	mov.l	er7,er6
  4018ae:	7a 37 00 00 	sub.l	#0x18,er7
  4018b2:	00 18 
  4018b4:	01 00 6f e0 	mov.l	er0,@(0xfff0:16,er6)
  4018b8:	ff f0 
  4018ba:	01 00 6f e1 	mov.l	er1,@(0xffec:16,er6)
  4018be:	ff ec 
  4018c0:	6f e2 ff ea 	mov.w	r2,@(0xffea:16,er6)

004018c4 <.LM33>:
/home/kozos.c:151
  uint32 *sp;
  extern char userstack; /* リンカ・スクリプトで定義されるスタック領域 */
  static char *thread_stack = &userstack;

  /* 空いているタスク・コントロール・ブロックを検索 */
  for (i = 0; i < THREAD_NUM; i++) {
  4018c4:	19 22       	sub.w	r2,r2
  4018c6:	6f e2 ff fe 	mov.w	r2,@(0xfffe:16,er6)
  4018ca:	40 34       	bra	.+52 (0x401900)

004018cc <.L18>:
/home/kozos.c:152
    thp = &threads[i];
  4018cc:	6f 62 ff fe 	mov.w	@(0xfffe:16,er6),r2
  4018d0:	17 f2       	exts.l	er2
  4018d2:	fb 06       	mov.b	#0x6,r3l

004018d4 <.Llt8>:
  4018d4:	10 32       	shll.l	er2
  4018d6:	8b ff       	add.b	#0xff,r3l
  4018d8:	46 fa       	bne	.-6 (0x4018d4)
  4018da:	7a 12 00 40 	add.l	#0x404294,er2
  4018de:	42 94 
  4018e0:	01 00 6f e2 	mov.l	er2,@(0xfff8:16,er6)
  4018e4:	ff f8 

004018e6 <.LM35>:
/home/kozos.c:153
    if (!thp->init.func) /* 見つかった */
  4018e6:	01 00 6f 62 	mov.l	@(0xfff8:16,er6),er2
  4018ea:	ff f8 
  4018ec:	01 00 6f 22 	mov.l	@(0x20:16,er2),er2
  4018f0:	00 20 
  4018f2:	0f a2       	mov.l	er2,er2
  4018f4:	47 16       	beq	.+22 (0x40190c)

004018f6 <.LM36>:
/home/kozos.c:151 (discriminator 2)
  for (i = 0; i < THREAD_NUM; i++) {
  4018f6:	6f 62 ff fe 	mov.w	@(0xfffe:16,er6),r2
  4018fa:	0b 02       	adds	#1,er2
  4018fc:	6f e2 ff fe 	mov.w	r2,@(0xfffe:16,er6)

00401900 <.L15>:
/home/kozos.c:151 (discriminator 1)
  401900:	6f 62 ff fe 	mov.w	@(0xfffe:16,er6),r2
  401904:	79 22 00 05 	cmp.w	#0x5,r2
  401908:	4f c2       	ble	.-62 (0x4018cc)
  40190a:	40 02       	bra	.+2 (0x40190e)

0040190c <.L23>:
	...

0040190e <.L17>:
/home/kozos.c:156
      break;
  }
  if (i == THREAD_NUM) /* 見つからなかった */
  40190e:	6f 62 ff fe 	mov.w	@(0xfffe:16,er6),r2
  401912:	79 22 00 06 	cmp.w	#0x6,r2
  401916:	46 08       	bne	.+8 (0x401920)

00401918 <.LM40>:
/home/kozos.c:157
    return -1;
  401918:	1a a2       	sub.l	er2,er2
  40191a:	1b 02       	subs	#1,er2
  40191c:	58 00 02 10 	bra	.+528 (0x401b30)

00401920 <.L19>:
/home/kozos.c:159

  memset(thp, 0, sizeof(*thp));
  401920:	01 00 6f 63 	mov.l	@(0xfff8:16,er6),er3
  401924:	ff f8 
  401926:	1a a2       	sub.l	er2,er2
  401928:	8a 40       	add.b	#0x40,r2l
  40192a:	19 11       	sub.w	r1,r1
  40192c:	0f b0       	mov.l	er3,er0
  40192e:	5e 40 03 a0 	jsr	@0x4003a0:24

00401932 <.LM42>:
/home/kozos.c:162

  /* タスク・コントロール・ブロック(TCB)の設定 */
  strcpy(thp->name, name);
  401932:	01 00 6f 62 	mov.l	@(0xfff8:16,er6),er2
  401936:	ff f8 
  401938:	0b 92       	adds	#4,er2
  40193a:	01 00 6f 63 	mov.l	@(0xffec:16,er6),er3
  40193e:	ff ec 
  401940:	0f b1       	mov.l	er3,er1
  401942:	0f a0       	mov.l	er2,er0
  401944:	5e 40 05 92 	jsr	@0x400592:24

00401948 <.LM43>:
/home/kozos.c:163
  thp->next     = NULL;
  401948:	01 00 6f 62 	mov.l	@(0xfff8:16,er6),er2
  40194c:	ff f8 
  40194e:	1a b3       	sub.l	er3,er3
  401950:	01 00 69 a3 	mov.l	er3,@er2

00401954 <.LM44>:
/home/kozos.c:164
  thp->priority = priority;
  401954:	01 00 6f 62 	mov.l	@(0xfff8:16,er6),er2
  401958:	ff f8 
  40195a:	6f 63 ff ea 	mov.w	@(0xffea:16,er6),r3
  40195e:	6f a3 00 14 	mov.w	r3,@(0x14:16,er2)

00401962 <.LM45>:
/home/kozos.c:165
  thp->flags    = 0;
  401962:	01 00 6f 62 	mov.l	@(0xfff8:16,er6),er2
  401966:	ff f8 
  401968:	1a b3       	sub.l	er3,er3
  40196a:	01 00 6f a3 	mov.l	er3,@(0x1c:16,er2)
  40196e:	00 1c 

00401970 <.LM46>:
/home/kozos.c:167

  thp->init.func = func;
  401970:	01 00 6f 62 	mov.l	@(0xfff8:16,er6),er2
  401974:	ff f8 
  401976:	01 00 6f 63 	mov.l	@(0xfff0:16,er6),er3
  40197a:	ff f0 
  40197c:	01 00 6f a3 	mov.l	er3,@(0x20:16,er2)
  401980:	00 20 

00401982 <.LM47>:
/home/kozos.c:168
  thp->init.argc = argc;
  401982:	01 00 6f 62 	mov.l	@(0xfff8:16,er6),er2
  401986:	ff f8 
  401988:	6f 63 00 0e 	mov.w	@(0xe:16,er6),r3
  40198c:	6f a3 00 24 	mov.w	r3,@(0x24:16,er2)

00401990 <.LM48>:
/home/kozos.c:169
  thp->init.argv = argv;
  401990:	01 00 6f 62 	mov.l	@(0xfff8:16,er6),er2
  401994:	ff f8 
  401996:	01 00 6f 63 	mov.l	@(0x10:16,er6),er3
  40199a:	00 10 
  40199c:	01 00 6f a3 	mov.l	er3,@(0x28:16,er2)
  4019a0:	00 28 

004019a2 <.LM49>:
/home/kozos.c:172

  /* スタック領域を獲得 */
  memset(thread_stack, 0, stacksize);
  4019a2:	6f 62 00 0a 	mov.w	@(0xa:16,er6),r2
  4019a6:	17 f2       	exts.l	er2
  4019a8:	01 00 6b 23 	mov.l	@0x4041e4:32,er3
  4019ac:	00 40 41 e4 
  4019b0:	19 11       	sub.w	r1,r1
  4019b2:	0f b0       	mov.l	er3,er0
  4019b4:	5e 40 03 a0 	jsr	@0x4003a0:24

004019b8 <.LM50>:
/home/kozos.c:173
  thread_stack += stacksize;
  4019b8:	01 00 6b 23 	mov.l	@0x4041e4:32,er3
  4019bc:	00 40 41 e4 
  4019c0:	6f 62 00 0a 	mov.w	@(0xa:16,er6),r2
  4019c4:	17 f2       	exts.l	er2
  4019c6:	0a b2       	add.l	er3,er2
  4019c8:	01 00 6b a2 	mov.l	er2,@0x4041e4:32
  4019cc:	00 40 41 e4 

004019d0 <.LM51>:
/home/kozos.c:175

  thp->stack = thread_stack; /* スタックを設定 */
  4019d0:	01 00 6b 23 	mov.l	@0x4041e4:32,er3
  4019d4:	00 40 41 e4 
  4019d8:	01 00 6f 62 	mov.l	@(0xfff8:16,er6),er2
  4019dc:	ff f8 
  4019de:	01 00 6f a3 	mov.l	er3,@(0x18:16,er2)
  4019e2:	00 18 

004019e4 <.LM52>:
/home/kozos.c:178

  /* スタックの初期化 */
  sp = (uint32 *)thp->stack;
  4019e4:	01 00 6f 62 	mov.l	@(0xfff8:16,er6),er2
  4019e8:	ff f8 
  4019ea:	01 00 6f 22 	mov.l	@(0x18:16,er2),er2
  4019ee:	00 18 
  4019f0:	01 00 6f e2 	mov.l	er2,@(0xfff4:16,er6)
  4019f4:	ff f4 

004019f6 <.LM53>:
/home/kozos.c:179
  *(--sp) = (uint32)thread_end;
  4019f6:	01 00 6f 62 	mov.l	@(0xfff4:16,er6),er2
  4019fa:	ff f4 
  4019fc:	1b 92       	subs	#4,er2
  4019fe:	01 00 6f e2 	mov.l	er2,@(0xfff4:16,er6)
  401a02:	ff f4 
  401a04:	7a 03 00 40 	mov.l	#0x401852,er3
  401a08:	18 52 
  401a0a:	01 00 6f 62 	mov.l	@(0xfff4:16,er6),er2
  401a0e:	ff f4 
  401a10:	01 00 69 a3 	mov.l	er3,@er2

00401a14 <.LM54>:
/home/kozos.c:185

  /*
   * プログラム・カウンタを設定する．
   * スレッドの優先度がゼロの場合には，割込み禁止スレッドとする．
   */
  *(--sp) = (uint32)thread_init | ((uint32)(priority ? 0 : 0xc0) << 24);
  401a14:	6f 62 ff ea 	mov.w	@(0xffea:16,er6),r2
  401a18:	0d 22       	mov.w	r2,r2
  401a1a:	47 08       	beq	.+8 (0x401a24)

00401a1c <.LM55>:
/home/kozos.c:185 (discriminator 1)
  401a1c:	7a 02 00 40 	mov.l	#0x401864,er2
  401a20:	18 64 
  401a22:	40 0a       	bra	.+10 (0x401a2e)

00401a24 <.L21>:
/home/kozos.c:185 (discriminator 2)
  401a24:	7a 02 00 40 	mov.l	#0x401864,er2
  401a28:	18 64 
  401a2a:	79 4a c0 00 	or.w	#0xc000,e2

00401a2e <.L22>:
/home/kozos.c:185 (discriminator 4)
  401a2e:	01 00 6f 63 	mov.l	@(0xfff4:16,er6),er3
  401a32:	ff f4 
  401a34:	1b 93       	subs	#4,er3
  401a36:	01 00 6f e3 	mov.l	er3,@(0xfff4:16,er6)
  401a3a:	ff f4 
  401a3c:	01 00 6f 63 	mov.l	@(0xfff4:16,er6),er3
  401a40:	ff f4 
  401a42:	01 00 69 b2 	mov.l	er2,@er3

00401a46 <.LM58>:
/home/kozos.c:187

  *(--sp) = 0; /* ER6 */
  401a46:	01 00 6f 62 	mov.l	@(0xfff4:16,er6),er2
  401a4a:	ff f4 
  401a4c:	1b 92       	subs	#4,er2
  401a4e:	01 00 6f e2 	mov.l	er2,@(0xfff4:16,er6)
  401a52:	ff f4 
  401a54:	01 00 6f 62 	mov.l	@(0xfff4:16,er6),er2
  401a58:	ff f4 
  401a5a:	1a b3       	sub.l	er3,er3
  401a5c:	01 00 69 a3 	mov.l	er3,@er2

00401a60 <.LM59>:
/home/kozos.c:188
  *(--sp) = 0; /* ER5 */
  401a60:	01 00 6f 62 	mov.l	@(0xfff4:16,er6),er2
  401a64:	ff f4 
  401a66:	1b 92       	subs	#4,er2
  401a68:	01 00 6f e2 	mov.l	er2,@(0xfff4:16,er6)
  401a6c:	ff f4 
  401a6e:	01 00 6f 62 	mov.l	@(0xfff4:16,er6),er2
  401a72:	ff f4 
  401a74:	1a b3       	sub.l	er3,er3
  401a76:	01 00 69 a3 	mov.l	er3,@er2

00401a7a <.LM60>:
/home/kozos.c:189
  *(--sp) = 0; /* ER4 */
  401a7a:	01 00 6f 62 	mov.l	@(0xfff4:16,er6),er2
  401a7e:	ff f4 
  401a80:	1b 92       	subs	#4,er2
  401a82:	01 00 6f e2 	mov.l	er2,@(0xfff4:16,er6)
  401a86:	ff f4 
  401a88:	01 00 6f 62 	mov.l	@(0xfff4:16,er6),er2
  401a8c:	ff f4 
  401a8e:	1a b3       	sub.l	er3,er3
  401a90:	01 00 69 a3 	mov.l	er3,@er2

00401a94 <.LM61>:
/home/kozos.c:190
  *(--sp) = 0; /* ER3 */
  401a94:	01 00 6f 62 	mov.l	@(0xfff4:16,er6),er2
  401a98:	ff f4 
  401a9a:	1b 92       	subs	#4,er2
  401a9c:	01 00 6f e2 	mov.l	er2,@(0xfff4:16,er6)
  401aa0:	ff f4 
  401aa2:	01 00 6f 62 	mov.l	@(0xfff4:16,er6),er2
  401aa6:	ff f4 
  401aa8:	1a b3       	sub.l	er3,er3
  401aaa:	01 00 69 a3 	mov.l	er3,@er2

00401aae <.LM62>:
/home/kozos.c:191
  *(--sp) = 0; /* ER2 */
  401aae:	01 00 6f 62 	mov.l	@(0xfff4:16,er6),er2
  401ab2:	ff f4 
  401ab4:	1b 92       	subs	#4,er2
  401ab6:	01 00 6f e2 	mov.l	er2,@(0xfff4:16,er6)
  401aba:	ff f4 
  401abc:	01 00 6f 62 	mov.l	@(0xfff4:16,er6),er2
  401ac0:	ff f4 
  401ac2:	1a b3       	sub.l	er3,er3
  401ac4:	01 00 69 a3 	mov.l	er3,@er2

00401ac8 <.LM63>:
/home/kozos.c:192
  *(--sp) = 0; /* ER1 */
  401ac8:	01 00 6f 62 	mov.l	@(0xfff4:16,er6),er2
  401acc:	ff f4 
  401ace:	1b 92       	subs	#4,er2
  401ad0:	01 00 6f e2 	mov.l	er2,@(0xfff4:16,er6)
  401ad4:	ff f4 
  401ad6:	01 00 6f 62 	mov.l	@(0xfff4:16,er6),er2
  401ada:	ff f4 
  401adc:	1a b3       	sub.l	er3,er3
  401ade:	01 00 69 a3 	mov.l	er3,@er2

00401ae2 <.LM64>:
/home/kozos.c:195

  /* スレッドのスタート・アップ(thread_init())に渡す引数 */
  *(--sp) = (uint32)thp;  /* ER0 */
  401ae2:	01 00 6f 62 	mov.l	@(0xfff4:16,er6),er2
  401ae6:	ff f4 
  401ae8:	1b 92       	subs	#4,er2
  401aea:	01 00 6f e2 	mov.l	er2,@(0xfff4:16,er6)
  401aee:	ff f4 
  401af0:	01 00 6f 63 	mov.l	@(0xfff8:16,er6),er3
  401af4:	ff f8 
  401af6:	01 00 6f 62 	mov.l	@(0xfff4:16,er6),er2
  401afa:	ff f4 
  401afc:	01 00 69 a3 	mov.l	er3,@er2

00401b00 <.LM65>:
/home/kozos.c:198

  /* スレッドのコンテキストを設定 */
  thp->context.sp = (uint32)sp;
  401b00:	01 00 6f 63 	mov.l	@(0xfff4:16,er6),er3
  401b04:	ff f4 
  401b06:	01 00 6f 62 	mov.l	@(0xfff8:16,er6),er2
  401b0a:	ff f8 
  401b0c:	01 00 6f a3 	mov.l	er3,@(0x34:16,er2)
  401b10:	00 34 

00401b12 <.LM66>:
/home/kozos.c:201

  /* システム・コールを呼び出したスレッドをレディー・キューに戻す */
  putcurrent();
  401b12:	5e 40 17 56 	jsr	@0x401756:24

00401b16 <.LM67>:
/home/kozos.c:204

  /* 新規作成したスレッドを，レディー・キューに接続する */
  current = thp;
  401b16:	01 00 6f 62 	mov.l	@(0xfff8:16,er6),er2
  401b1a:	ff f8 
  401b1c:	01 00 6b a2 	mov.l	er2,@0x404290:32
  401b20:	00 40 42 90 

00401b24 <.LM68>:
/home/kozos.c:205
  putcurrent();
  401b24:	5e 40 17 56 	jsr	@0x401756:24

00401b28 <.LM69>:
/home/kozos.c:207

  return (kz_thread_id_t)current;
  401b28:	01 00 6b 22 	mov.l	@0x404290:32,er2
  401b2c:	00 40 42 90 

00401b30 <.L20>:
/home/kozos.c:208
}
  401b30:	0f a0       	mov.l	er2,er0
  401b32:	7a 17 00 00 	add.l	#0x18,er7
  401b36:	00 18 
  401b38:	01 00 6d 76 	mov.l	@er7+,er6
  401b3c:	54 70       	rts	

00401b3e <_thread_exit>:
thread_exit():
/home/kozos.c:212

/* システム・コールの処理(kz_exit():スレッドの終了) */
static int thread_exit(void)
{
  401b3e:	01 00 6d f6 	mov.l	er6,@-er7
  401b42:	0f f6       	mov.l	er7,er6

00401b44 <.LM72>:
/home/kozos.c:217
  /*
   * 本来ならスタックも解放して再利用できるようにすべきだが省略．
   * このため，スレッドを頻繁に生成・消去するようなことは現状でできない．
   */
  puts(current->name);
  401b44:	01 00 6b 22 	mov.l	@0x404290:32,er2
  401b48:	00 40 42 90 
  401b4c:	0b 92       	adds	#4,er2
  401b4e:	0f a0       	mov.l	er2,er0
  401b50:	5e 40 07 b6 	jsr	@0x4007b6:24

00401b54 <.LM73>:
/home/kozos.c:218
  puts(" EXIT.\n");
  401b54:	7a 00 00 40 	mov.l	#0x404110,er0
  401b58:	41 10 
  401b5a:	5e 40 07 b6 	jsr	@0x4007b6:24

00401b5e <.LM74>:
/home/kozos.c:219
  memset(current, 0, sizeof(*current));
  401b5e:	01 00 6b 23 	mov.l	@0x404290:32,er3
  401b62:	00 40 42 90 
  401b66:	1a a2       	sub.l	er2,er2
  401b68:	8a 40       	add.b	#0x40,r2l
  401b6a:	19 11       	sub.w	r1,r1
  401b6c:	0f b0       	mov.l	er3,er0
  401b6e:	5e 40 03 a0 	jsr	@0x4003a0:24

00401b72 <.LM75>:
/home/kozos.c:220
  return 0;
  401b72:	19 22       	sub.w	r2,r2

00401b74 <.LM76>:
/home/kozos.c:221
}
  401b74:	0d 20       	mov.w	r2,r0
  401b76:	01 00 6d 76 	mov.l	@er7+,er6
  401b7a:	54 70       	rts	

00401b7c <_thread_wait>:
thread_wait():
/home/kozos.c:225

/* システム・コールの処理(kz_wait():スレッドの実行権放棄) */
static int thread_wait(void)
{
  401b7c:	01 00 6d f6 	mov.l	er6,@-er7
  401b80:	0f f6       	mov.l	er7,er6

00401b82 <.LM78>:
/home/kozos.c:226
  putcurrent();
  401b82:	5e 40 17 56 	jsr	@0x401756:24

00401b86 <.LM79>:
/home/kozos.c:227
  return 0;
  401b86:	19 22       	sub.w	r2,r2

00401b88 <.LM80>:
/home/kozos.c:228
}
  401b88:	0d 20       	mov.w	r2,r0
  401b8a:	01 00 6d 76 	mov.l	@er7+,er6
  401b8e:	54 70       	rts	

00401b90 <_thread_sleep>:
thread_sleep():
/home/kozos.c:232

/* システム・コールの処理(kz_sleep():スレッドのスリープ) */
static int thread_sleep(void)
{
  401b90:	01 00 6d f6 	mov.l	er6,@-er7
  401b94:	0f f6       	mov.l	er7,er6

00401b96 <.LM82>:
/home/kozos.c:233
  return 0;
  401b96:	19 22       	sub.w	r2,r2

00401b98 <.LM83>:
/home/kozos.c:234
}
  401b98:	0d 20       	mov.w	r2,r0
  401b9a:	01 00 6d 76 	mov.l	@er7+,er6
  401b9e:	54 70       	rts	

00401ba0 <_thread_wakeup>:
thread_wakeup():
/home/kozos.c:238

/* システム・コールの処理(kz_wakeup():スレッドのウェイク・アップ) */
static int thread_wakeup(kz_thread_id_t id)
{
  401ba0:	01 00 6d f6 	mov.l	er6,@-er7
  401ba4:	0f f6       	mov.l	er7,er6
  401ba6:	1b 97       	subs	#4,er7
  401ba8:	01 00 6f e0 	mov.l	er0,@(0xfffc:16,er6)
  401bac:	ff fc 

00401bae <.LM85>:
/home/kozos.c:240
  /* ウェイク・アップを呼び出したスレッドをレディー・キューに戻す */
  putcurrent();
  401bae:	5e 40 17 56 	jsr	@0x401756:24

00401bb2 <.LM86>:
/home/kozos.c:243

  /* 指定されたスレッドをレディー・キューに接続してウェイク・アップする */
  current = (kz_thread *)id;
  401bb2:	01 00 6f 62 	mov.l	@(0xfffc:16,er6),er2
  401bb6:	ff fc 
  401bb8:	01 00 6b a2 	mov.l	er2,@0x404290:32
  401bbc:	00 40 42 90 

00401bc0 <.LM87>:
/home/kozos.c:244
  putcurrent();
  401bc0:	5e 40 17 56 	jsr	@0x401756:24

00401bc4 <.LM88>:
/home/kozos.c:246

  return 0;
  401bc4:	19 22       	sub.w	r2,r2

00401bc6 <.LM89>:
/home/kozos.c:247
}
  401bc6:	0d 20       	mov.w	r2,r0
  401bc8:	0b 97       	adds	#4,er7
  401bca:	01 00 6d 76 	mov.l	@er7+,er6
  401bce:	54 70       	rts	

00401bd0 <_thread_getid>:
thread_getid():
/home/kozos.c:251

/* システム・コールの処理(kz_getid():スレッドID取得) */
static kz_thread_id_t thread_getid(void)
{
  401bd0:	01 00 6d f6 	mov.l	er6,@-er7
  401bd4:	0f f6       	mov.l	er7,er6

00401bd6 <.LM91>:
/home/kozos.c:252
  putcurrent();
  401bd6:	5e 40 17 56 	jsr	@0x401756:24

00401bda <.LM92>:
/home/kozos.c:253
  return (kz_thread_id_t)current;
  401bda:	01 00 6b 22 	mov.l	@0x404290:32,er2
  401bde:	00 40 42 90 

00401be2 <.LM93>:
/home/kozos.c:254
}
  401be2:	0f a0       	mov.l	er2,er0
  401be4:	01 00 6d 76 	mov.l	@er7+,er6
  401be8:	54 70       	rts	

00401bea <_thread_chpri>:
thread_chpri():
/home/kozos.c:258

/* システム・コールの処理(kz_chpri():スレッドの優先度変更) */
static int thread_chpri(int priority)
{
  401bea:	01 00 6d f6 	mov.l	er6,@-er7
  401bee:	0f f6       	mov.l	er7,er6
  401bf0:	7a 37 00 00 	sub.l	#0x8,er7
  401bf4:	00 08 
  401bf6:	6f e0 ff fa 	mov.w	r0,@(0xfffa:16,er6)

00401bfa <.LM95>:
/home/kozos.c:259
  int old = current->priority;
  401bfa:	01 00 6b 22 	mov.l	@0x404290:32,er2
  401bfe:	00 40 42 90 
  401c02:	6f 22 00 14 	mov.w	@(0x14:16,er2),r2
  401c06:	6f e2 ff fe 	mov.w	r2,@(0xfffe:16,er6)

00401c0a <.LM96>:
/home/kozos.c:260
  if (priority >= 0)
  401c0a:	6f 62 ff fa 	mov.w	@(0xfffa:16,er6),r2
  401c0e:	0d 22       	mov.w	r2,r2
  401c10:	4d 10       	blt	.+16 (0x401c22)

00401c12 <.LM97>:
/home/kozos.c:261
    current->priority = priority; /* 優先度変更 */
  401c12:	01 00 6b 22 	mov.l	@0x404290:32,er2
  401c16:	00 40 42 90 
  401c1a:	6f 63 ff fa 	mov.w	@(0xfffa:16,er6),r3
  401c1e:	6f a3 00 14 	mov.w	r3,@(0x14:16,er2)

00401c22 <.L35>:
/home/kozos.c:262
  putcurrent(); /* 新しい優先度のレディー・キューに繋ぎ直す */
  401c22:	5e 40 17 56 	jsr	@0x401756:24

00401c26 <.LM99>:
/home/kozos.c:263
  return old;
  401c26:	6f 62 ff fe 	mov.w	@(0xfffe:16,er6),r2

00401c2a <.LM100>:
/home/kozos.c:264
}
  401c2a:	0d 20       	mov.w	r2,r0
  401c2c:	0b 97       	adds	#4,er7
  401c2e:	0b 97       	adds	#4,er7
  401c30:	01 00 6d 76 	mov.l	@er7+,er6
  401c34:	54 70       	rts	

00401c36 <_thread_kmalloc>:
thread_kmalloc():
/home/kozos.c:268

/* システム・コールの処理(kz_kmalloc():動的メモリ獲得) */
static void *thread_kmalloc(int size)
{
  401c36:	01 00 6d f6 	mov.l	er6,@-er7
  401c3a:	0f f6       	mov.l	er7,er6
  401c3c:	1b 97       	subs	#4,er7
  401c3e:	6f e0 ff fe 	mov.w	r0,@(0xfffe:16,er6)

00401c42 <.LM102>:
/home/kozos.c:269
  putcurrent();
  401c42:	5e 40 17 56 	jsr	@0x401756:24

00401c46 <.LM103>:
/home/kozos.c:270
  return kzmem_alloc(size);
  401c46:	6f 62 ff fe 	mov.w	@(0xfffe:16,er6),r2
  401c4a:	0d 20       	mov.w	r2,r0
  401c4c:	5e 40 2a e4 	jsr	@0x402ae4:24
  401c50:	0f 82       	mov.l	er0,er2

00401c52 <.LM104>:
/home/kozos.c:271
}
  401c52:	0f a0       	mov.l	er2,er0
  401c54:	0b 97       	adds	#4,er7
  401c56:	01 00 6d 76 	mov.l	@er7+,er6
  401c5a:	54 70       	rts	

00401c5c <_thread_kmfree>:
thread_kmfree():
/home/kozos.c:275

/* システム・コールの処理(kz_kfree():メモリ解放) */
static int thread_kmfree(char *p)
{
  401c5c:	01 00 6d f6 	mov.l	er6,@-er7
  401c60:	0f f6       	mov.l	er7,er6
  401c62:	1b 97       	subs	#4,er7
  401c64:	01 00 6f e0 	mov.l	er0,@(0xfffc:16,er6)
  401c68:	ff fc 

00401c6a <.LM106>:
/home/kozos.c:276
  kzmem_free(p);
  401c6a:	01 00 6f 62 	mov.l	@(0xfffc:16,er6),er2
  401c6e:	ff fc 
  401c70:	0f a0       	mov.l	er2,er0
  401c72:	5e 40 2b b8 	jsr	@0x402bb8:24

00401c76 <.LM107>:
/home/kozos.c:277
  putcurrent();
  401c76:	5e 40 17 56 	jsr	@0x401756:24

00401c7a <.LM108>:
/home/kozos.c:278
  return 0;
  401c7a:	19 22       	sub.w	r2,r2

00401c7c <.LM109>:
/home/kozos.c:279
}
  401c7c:	0d 20       	mov.w	r2,r0
  401c7e:	0b 97       	adds	#4,er7
  401c80:	01 00 6d 76 	mov.l	@er7+,er6
  401c84:	54 70       	rts	

00401c86 <_sendmsg>:
sendmsg():
/home/kozos.c:283

/* メッセージの送信処理 */
static void sendmsg(kz_msgbox *mboxp, kz_thread *thp, int size, char *p)
{
  401c86:	01 00 6d f6 	mov.l	er6,@-er7
  401c8a:	0f f6       	mov.l	er7,er6
  401c8c:	7a 37 00 00 	sub.l	#0x10,er7
  401c90:	00 10 
  401c92:	01 00 6f e0 	mov.l	er0,@(0xfff8:16,er6)
  401c96:	ff f8 
  401c98:	01 00 6f e1 	mov.l	er1,@(0xfff4:16,er6)
  401c9c:	ff f4 
  401c9e:	6f e2 ff f2 	mov.w	r2,@(0xfff2:16,er6)

00401ca2 <.LM111>:
/home/kozos.c:287
  kz_msgbuf *mp;

  /* メッセージ・バッファの作成 */
  mp = (kz_msgbuf *)kzmem_alloc(sizeof(*mp));
  401ca2:	79 00 00 10 	mov.w	#0x10,r0
  401ca6:	5e 40 2a e4 	jsr	@0x402ae4:24
  401caa:	01 00 6f e0 	mov.l	er0,@(0xfffc:16,er6)
  401cae:	ff fc 

00401cb0 <.LM112>:
/home/kozos.c:288
  if (mp == NULL)
  401cb0:	01 00 6f 62 	mov.l	@(0xfffc:16,er6),er2
  401cb4:	ff fc 
  401cb6:	0f a2       	mov.l	er2,er2
  401cb8:	46 04       	bne	.+4 (0x401cbe)

00401cba <.LM113>:
/home/kozos.c:289
    kz_sysdown();
  401cba:	5e 40 24 ea 	jsr	@0x4024ea:24

00401cbe <.L42>:
/home/kozos.c:290
  mp->next       = NULL;
  401cbe:	01 00 6f 62 	mov.l	@(0xfffc:16,er6),er2
  401cc2:	ff fc 
  401cc4:	1a b3       	sub.l	er3,er3
  401cc6:	01 00 69 a3 	mov.l	er3,@er2

00401cca <.LM115>:
/home/kozos.c:291
  mp->sender     = thp;
  401cca:	01 00 6f 62 	mov.l	@(0xfffc:16,er6),er2
  401cce:	ff fc 
  401cd0:	01 00 6f 63 	mov.l	@(0xfff4:16,er6),er3
  401cd4:	ff f4 
  401cd6:	01 00 6f a3 	mov.l	er3,@(0x4:16,er2)
  401cda:	00 04 

00401cdc <.LM116>:
/home/kozos.c:292
  mp->param.size = size;
  401cdc:	01 00 6f 62 	mov.l	@(0xfffc:16,er6),er2
  401ce0:	ff fc 
  401ce2:	6f 63 ff f2 	mov.w	@(0xfff2:16,er6),r3
  401ce6:	6f a3 00 08 	mov.w	r3,@(0x8:16,er2)

00401cea <.LM117>:
/home/kozos.c:293
  mp->param.p    = p;
  401cea:	01 00 6f 62 	mov.l	@(0xfffc:16,er6),er2
  401cee:	ff fc 
  401cf0:	01 00 6f 63 	mov.l	@(0x8:16,er6),er3
  401cf4:	00 08 
  401cf6:	01 00 6f a3 	mov.l	er3,@(0xc:16,er2)
  401cfa:	00 0c 

00401cfc <.LM118>:
/home/kozos.c:296

  /* メッセージ・ボックスの末尾にメッセージを接続する */
  if (mboxp->tail) {
  401cfc:	01 00 6f 62 	mov.l	@(0xfff8:16,er6),er2
  401d00:	ff f8 
  401d02:	01 00 6f 22 	mov.l	@(0x8:16,er2),er2
  401d06:	00 08 
  401d08:	0f a2       	mov.l	er2,er2
  401d0a:	47 18       	beq	.+24 (0x401d24)

00401d0c <.LM119>:
/home/kozos.c:297
    mboxp->tail->next = mp;
  401d0c:	01 00 6f 62 	mov.l	@(0xfff8:16,er6),er2
  401d10:	ff f8 
  401d12:	01 00 6f 22 	mov.l	@(0x8:16,er2),er2
  401d16:	00 08 
  401d18:	01 00 6f 63 	mov.l	@(0xfffc:16,er6),er3
  401d1c:	ff fc 
  401d1e:	01 00 69 a3 	mov.l	er3,@er2
  401d22:	40 12       	bra	.+18 (0x401d36)

00401d24 <.L43>:
/home/kozos.c:299
  } else {
    mboxp->head = mp;
  401d24:	01 00 6f 62 	mov.l	@(0xfff8:16,er6),er2
  401d28:	ff f8 
  401d2a:	01 00 6f 63 	mov.l	@(0xfffc:16,er6),er3
  401d2e:	ff fc 
  401d30:	01 00 6f a3 	mov.l	er3,@(0x4:16,er2)
  401d34:	00 04 

00401d36 <.L44>:
/home/kozos.c:301
  }
  mboxp->tail = mp;
  401d36:	01 00 6f 62 	mov.l	@(0xfff8:16,er6),er2
  401d3a:	ff f8 
  401d3c:	01 00 6f 63 	mov.l	@(0xfffc:16,er6),er3
  401d40:	ff fc 
  401d42:	01 00 6f a3 	mov.l	er3,@(0x8:16,er2)
  401d46:	00 08 

00401d48 <.LM122>:
/home/kozos.c:302
}
  401d48:	00 00       	nop	
  401d4a:	7a 17 00 00 	add.l	#0x10,er7
  401d4e:	00 10 
  401d50:	01 00 6d 76 	mov.l	@er7+,er6
  401d54:	54 70       	rts	

00401d56 <_recvmsg>:
recvmsg():
/home/kozos.c:306

/* メッセージの受信処理 */
static void recvmsg(kz_msgbox *mboxp)
{
  401d56:	01 00 6d f6 	mov.l	er6,@-er7
  401d5a:	0f f6       	mov.l	er7,er6
  401d5c:	7a 37 00 00 	sub.l	#0xc,er7
  401d60:	00 0c 
  401d62:	01 00 6f e0 	mov.l	er0,@(0xfff4:16,er6)
  401d66:	ff f4 

00401d68 <.LM124>:
/home/kozos.c:311
  kz_msgbuf *mp;
  kz_syscall_param_t *p;

  /* メッセージ・ボックスの先頭にあるメッセージを抜き出す */
  mp = mboxp->head;
  401d68:	01 00 6f 62 	mov.l	@(0xfff4:16,er6),er2
  401d6c:	ff f4 
  401d6e:	01 00 6f 22 	mov.l	@(0x4:16,er2),er2
  401d72:	00 04 
  401d74:	01 00 6f e2 	mov.l	er2,@(0xfffc:16,er6)
  401d78:	ff fc 

00401d7a <.LM125>:
/home/kozos.c:312
  mboxp->head = mp->next;
  401d7a:	01 00 6f 62 	mov.l	@(0xfffc:16,er6),er2
  401d7e:	ff fc 
  401d80:	01 00 69 23 	mov.l	@er2,er3
  401d84:	01 00 6f 62 	mov.l	@(0xfff4:16,er6),er2
  401d88:	ff f4 
  401d8a:	01 00 6f a3 	mov.l	er3,@(0x4:16,er2)
  401d8e:	00 04 

00401d90 <.LM126>:
/home/kozos.c:313
  if (mboxp->head == NULL)
  401d90:	01 00 6f 62 	mov.l	@(0xfff4:16,er6),er2
  401d94:	ff f4 
  401d96:	01 00 6f 22 	mov.l	@(0x4:16,er2),er2
  401d9a:	00 04 
  401d9c:	0f a2       	mov.l	er2,er2
  401d9e:	46 0e       	bne	.+14 (0x401dae)

00401da0 <.LM127>:
/home/kozos.c:314
    mboxp->tail = NULL;
  401da0:	01 00 6f 62 	mov.l	@(0xfff4:16,er6),er2
  401da4:	ff f4 
  401da6:	1a b3       	sub.l	er3,er3
  401da8:	01 00 6f a3 	mov.l	er3,@(0x8:16,er2)
  401dac:	00 08 

00401dae <.L46>:
/home/kozos.c:315
  mp->next = NULL;
  401dae:	01 00 6f 62 	mov.l	@(0xfffc:16,er6),er2
  401db2:	ff fc 
  401db4:	1a b3       	sub.l	er3,er3
  401db6:	01 00 69 a3 	mov.l	er3,@er2

00401dba <.LM129>:
/home/kozos.c:318

  /* メッセージを受信するスレッドに返す値を設定する */
  p = mboxp->receiver->syscall.param;
  401dba:	01 00 6f 62 	mov.l	@(0xfff4:16,er6),er2
  401dbe:	ff f4 
  401dc0:	01 00 69 22 	mov.l	@er2,er2
  401dc4:	01 00 6f 22 	mov.l	@(0x30:16,er2),er2
  401dc8:	00 30 
  401dca:	01 00 6f e2 	mov.l	er2,@(0xfff8:16,er6)
  401dce:	ff f8 

00401dd0 <.LM130>:
/home/kozos.c:319
  p->un.recv.ret = (kz_thread_id_t)mp->sender;
  401dd0:	01 00 6f 62 	mov.l	@(0xfffc:16,er6),er2
  401dd4:	ff fc 
  401dd6:	01 00 6f 22 	mov.l	@(0x4:16,er2),er2
  401dda:	00 04 
  401ddc:	0f a3       	mov.l	er2,er3
  401dde:	01 00 6f 62 	mov.l	@(0xfff8:16,er6),er2
  401de2:	ff f8 
  401de4:	01 00 6f a3 	mov.l	er3,@(0xc:16,er2)
  401de8:	00 0c 

00401dea <.LM131>:
/home/kozos.c:320
  if (p->un.recv.sizep)
  401dea:	01 00 6f 62 	mov.l	@(0xfff8:16,er6),er2
  401dee:	ff f8 
  401df0:	01 00 6f 22 	mov.l	@(0x4:16,er2),er2
  401df4:	00 04 
  401df6:	0f a2       	mov.l	er2,er2
  401df8:	47 18       	beq	.+24 (0x401e12)

00401dfa <.LM132>:
/home/kozos.c:321
    *(p->un.recv.sizep) = mp->param.size;
  401dfa:	01 00 6f 62 	mov.l	@(0xfff8:16,er6),er2
  401dfe:	ff f8 
  401e00:	01 00 6f 22 	mov.l	@(0x4:16,er2),er2
  401e04:	00 04 
  401e06:	01 00 6f 63 	mov.l	@(0xfffc:16,er6),er3
  401e0a:	ff fc 
  401e0c:	6f 33 00 08 	mov.w	@(0x8:16,er3),r3
  401e10:	69 a3       	mov.w	r3,@er2

00401e12 <.L47>:
/home/kozos.c:322
  if (p->un.recv.pp)
  401e12:	01 00 6f 62 	mov.l	@(0xfff8:16,er6),er2
  401e16:	ff f8 
  401e18:	01 00 6f 22 	mov.l	@(0x8:16,er2),er2
  401e1c:	00 08 
  401e1e:	0f a2       	mov.l	er2,er2
  401e20:	47 1c       	beq	.+28 (0x401e3e)

00401e22 <.LM134>:
/home/kozos.c:323
    *(p->un.recv.pp) = mp->param.p;
  401e22:	01 00 6f 62 	mov.l	@(0xfff8:16,er6),er2
  401e26:	ff f8 
  401e28:	01 00 6f 22 	mov.l	@(0x8:16,er2),er2
  401e2c:	00 08 
  401e2e:	01 00 6f 63 	mov.l	@(0xfffc:16,er6),er3
  401e32:	ff fc 
  401e34:	01 00 6f 33 	mov.l	@(0xc:16,er3),er3
  401e38:	00 0c 
  401e3a:	01 00 69 a3 	mov.l	er3,@er2

00401e3e <.L48>:
/home/kozos.c:326

  /* 受信待ちスレッドはいなくなったので，NULLに戻す */
  mboxp->receiver = NULL;
  401e3e:	01 00 6f 62 	mov.l	@(0xfff4:16,er6),er2
  401e42:	ff f4 
  401e44:	1a b3       	sub.l	er3,er3
  401e46:	01 00 69 a3 	mov.l	er3,@er2

00401e4a <.LM136>:
/home/kozos.c:329

  /* メッセージ・バッファの解放 */
  kzmem_free(mp);
  401e4a:	01 00 6f 62 	mov.l	@(0xfffc:16,er6),er2
  401e4e:	ff fc 
  401e50:	0f a0       	mov.l	er2,er0
  401e52:	5e 40 2b b8 	jsr	@0x402bb8:24

00401e56 <.LM137>:
/home/kozos.c:330
}
  401e56:	00 00       	nop	
  401e58:	7a 17 00 00 	add.l	#0xc,er7
  401e5c:	00 0c 
  401e5e:	01 00 6d 76 	mov.l	@er7+,er6
  401e62:	54 70       	rts	

00401e64 <_thread_send>:
thread_send():
/home/kozos.c:334

/* システム・コールの処理(kz_send():メッセージ送信) */
static int thread_send(kz_msgbox_id_t id, int size, char *p)
{
  401e64:	01 00 6d f6 	mov.l	er6,@-er7
  401e68:	0f f6       	mov.l	er7,er6
  401e6a:	7a 37 00 00 	sub.l	#0xc,er7
  401e6e:	00 0c 
  401e70:	6f e0 ff fa 	mov.w	r0,@(0xfffa:16,er6)
  401e74:	6f e1 ff f8 	mov.w	r1,@(0xfff8:16,er6)
  401e78:	01 00 6f e2 	mov.l	er2,@(0xfff4:16,er6)
  401e7c:	ff f4 

00401e7e <.LM139>:
/home/kozos.c:335
  kz_msgbox *mboxp = &msgboxes[id];
  401e7e:	6f 62 ff fa 	mov.w	@(0xfffa:16,er6),r2
  401e82:	17 72       	extu.l	er2
  401e84:	10 32       	shll.l	er2
  401e86:	10 32       	shll.l	er2
  401e88:	10 32       	shll.l	er2
  401e8a:	10 32       	shll.l	er2
  401e8c:	7a 12 00 40 	add.l	#0x404428,er2
  401e90:	44 28 
  401e92:	01 00 6f e2 	mov.l	er2,@(0xfffc:16,er6)
  401e96:	ff fc 

00401e98 <.LM140>:
/home/kozos.c:337

  putcurrent();
  401e98:	5e 40 17 56 	jsr	@0x401756:24

00401e9c <.LM141>:
/home/kozos.c:338
  sendmsg(mboxp, current, size, p); /* メッセージの送信処理 */
  401e9c:	01 00 6b 20 	mov.l	@0x404290:32,er0
  401ea0:	00 40 42 90 
  401ea4:	6f 61 ff f8 	mov.w	@(0xfff8:16,er6),r1
  401ea8:	01 00 6f 63 	mov.l	@(0xfffc:16,er6),er3
  401eac:	ff fc 
  401eae:	01 00 6f 62 	mov.l	@(0xfff4:16,er6),er2
  401eb2:	ff f4 
  401eb4:	01 00 6d f2 	mov.l	er2,@-er7
  401eb8:	0d 12       	mov.w	r1,r2
  401eba:	0f 81       	mov.l	er0,er1
  401ebc:	0f b0       	mov.l	er3,er0
  401ebe:	5e 40 1c 86 	jsr	@0x401c86:24
  401ec2:	0b 97       	adds	#4,er7

00401ec4 <.LM142>:
/home/kozos.c:341

  /* 受信待ちスレッドが存在している場合には受信処理を行う */
  if (mboxp->receiver) {
  401ec4:	01 00 6f 62 	mov.l	@(0xfffc:16,er6),er2
  401ec8:	ff fc 
  401eca:	01 00 69 22 	mov.l	@er2,er2
  401ece:	0f a2       	mov.l	er2,er2
  401ed0:	47 22       	beq	.+34 (0x401ef4)

00401ed2 <.LM143>:
/home/kozos.c:342
    current = mboxp->receiver; /* 受信待ちスレッド */
  401ed2:	01 00 6f 62 	mov.l	@(0xfffc:16,er6),er2
  401ed6:	ff fc 
  401ed8:	01 00 69 22 	mov.l	@er2,er2
  401edc:	01 00 6b a2 	mov.l	er2,@0x404290:32
  401ee0:	00 40 42 90 

00401ee4 <.LM144>:
/home/kozos.c:343
    recvmsg(mboxp); /* メッセージの受信処理 */
  401ee4:	01 00 6f 62 	mov.l	@(0xfffc:16,er6),er2
  401ee8:	ff fc 
  401eea:	0f a0       	mov.l	er2,er0
  401eec:	5e 40 1d 56 	jsr	@0x401d56:24

00401ef0 <.LM145>:
/home/kozos.c:344
    putcurrent(); /* 受信により動作可能になったので，ブロック解除する */
  401ef0:	5e 40 17 56 	jsr	@0x401756:24

00401ef4 <.L50>:
/home/kozos.c:347
  }

  return size;
  401ef4:	6f 62 ff f8 	mov.w	@(0xfff8:16,er6),r2

00401ef8 <.LM147>:
/home/kozos.c:348
}
  401ef8:	0d 20       	mov.w	r2,r0
  401efa:	7a 17 00 00 	add.l	#0xc,er7
  401efe:	00 0c 
  401f00:	01 00 6d 76 	mov.l	@er7+,er6
  401f04:	54 70       	rts	

00401f06 <_thread_recv>:
thread_recv():
/home/kozos.c:352

/* システム・コールの処理(kz_recv():メッセージ受信) */
static kz_thread_id_t thread_recv(kz_msgbox_id_t id, int *sizep, char **pp)
{
  401f06:	01 00 6d f6 	mov.l	er6,@-er7
  401f0a:	0f f6       	mov.l	er7,er6
  401f0c:	7a 37 00 00 	sub.l	#0x10,er7
  401f10:	00 10 
  401f12:	6f e0 ff fa 	mov.w	r0,@(0xfffa:16,er6)
  401f16:	01 00 6f e1 	mov.l	er1,@(0xfff4:16,er6)
  401f1a:	ff f4 
  401f1c:	01 00 6f e2 	mov.l	er2,@(0xfff0:16,er6)
  401f20:	ff f0 

00401f22 <.LM149>:
/home/kozos.c:353
  kz_msgbox *mboxp = &msgboxes[id];
  401f22:	6f 62 ff fa 	mov.w	@(0xfffa:16,er6),r2
  401f26:	17 72       	extu.l	er2
  401f28:	10 32       	shll.l	er2
  401f2a:	10 32       	shll.l	er2
  401f2c:	10 32       	shll.l	er2
  401f2e:	10 32       	shll.l	er2
  401f30:	7a 12 00 40 	add.l	#0x404428,er2
  401f34:	44 28 
  401f36:	01 00 6f e2 	mov.l	er2,@(0xfffc:16,er6)
  401f3a:	ff fc 

00401f3c <.LM150>:
/home/kozos.c:355

  if (mboxp->receiver) /* 他のスレッドがすでに受信待ちしている */
  401f3c:	01 00 6f 62 	mov.l	@(0xfffc:16,er6),er2
  401f40:	ff fc 
  401f42:	01 00 69 22 	mov.l	@er2,er2
  401f46:	0f a2       	mov.l	er2,er2
  401f48:	47 04       	beq	.+4 (0x401f4e)

00401f4a <.LM151>:
/home/kozos.c:356
    kz_sysdown();
  401f4a:	5e 40 24 ea 	jsr	@0x4024ea:24

00401f4e <.L53>:
/home/kozos.c:358

  mboxp->receiver = current; /* 受信待ちスレッドに設定 */
  401f4e:	01 00 6b 23 	mov.l	@0x404290:32,er3
  401f52:	00 40 42 90 
  401f56:	01 00 6f 62 	mov.l	@(0xfffc:16,er6),er2
  401f5a:	ff fc 
  401f5c:	01 00 69 a3 	mov.l	er3,@er2

00401f60 <.LM153>:
/home/kozos.c:360

  if (mboxp->head == NULL) {
  401f60:	01 00 6f 62 	mov.l	@(0xfffc:16,er6),er2
  401f64:	ff fc 
  401f66:	01 00 6f 22 	mov.l	@(0x4:16,er2),er2
  401f6a:	00 04 
  401f6c:	0f a2       	mov.l	er2,er2
  401f6e:	46 06       	bne	.+6 (0x401f76)

00401f70 <.LM154>:
/home/kozos.c:365
    /*
     * メッセージ・ボックスにメッセージが無いので，スレッドを
     * スリープさせる．(システム・コールがブロックする)
     */
    return -1;
  401f70:	1a a2       	sub.l	er2,er2
  401f72:	1b 02       	subs	#1,er2
  401f74:	40 24       	bra	.+36 (0x401f9a)

00401f76 <.L54>:
/home/kozos.c:368
  }

  recvmsg(mboxp); /* メッセージの受信処理 */
  401f76:	01 00 6f 62 	mov.l	@(0xfffc:16,er6),er2
  401f7a:	ff fc 
  401f7c:	0f a0       	mov.l	er2,er0
  401f7e:	5e 40 1d 56 	jsr	@0x401d56:24

00401f82 <.LM156>:
/home/kozos.c:369
  putcurrent(); /* メッセージを受信できたので，レディー状態にする */
  401f82:	5e 40 17 56 	jsr	@0x401756:24

00401f86 <.LM157>:
/home/kozos.c:371

  return current->syscall.param->un.recv.ret;
  401f86:	01 00 6b 22 	mov.l	@0x404290:32,er2
  401f8a:	00 40 42 90 
  401f8e:	01 00 6f 22 	mov.l	@(0x30:16,er2),er2
  401f92:	00 30 
  401f94:	01 00 6f 22 	mov.l	@(0xc:16,er2),er2
  401f98:	00 0c 

00401f9a <.L55>:
/home/kozos.c:372
}
  401f9a:	0f a0       	mov.l	er2,er0
  401f9c:	7a 17 00 00 	add.l	#0x10,er7
  401fa0:	00 10 
  401fa2:	01 00 6d 76 	mov.l	@er7+,er6
  401fa6:	54 70       	rts	

00401fa8 <_thread_setintr>:
thread_setintr():
/home/kozos.c:377

/* システム・コールの処理(kz_setintr():割込みハンドラ登録) */
  static void thread_intr(softvec_type_t type, unsigned long sp);
static int thread_setintr(softvec_type_t type, kz_handler_t handler)
{
  401fa8:	01 00 6d f6 	mov.l	er6,@-er7
  401fac:	0f f6       	mov.l	er7,er6
  401fae:	7a 37 00 00 	sub.l	#0x8,er7
  401fb2:	00 08 
  401fb4:	6f e0 ff fe 	mov.w	r0,@(0xfffe:16,er6)
  401fb8:	01 00 6f e1 	mov.l	er1,@(0xfff8:16,er6)
  401fbc:	ff f8 

00401fbe <.LM160>:
/home/kozos.c:383

  /*
   * 割込みを受け付けるために，ソフトウエア・割込みベクタに
   * OSの割込み処理の入口となる関数を登録する．
   */
  softvec_setintr(type, thread_intr);
  401fbe:	6f 62 ff fe 	mov.w	@(0xfffe:16,er6),r2
  401fc2:	7a 01 00 40 	mov.l	#0x402376,er1
  401fc6:	23 76 
  401fc8:	0d 20       	mov.w	r2,r0
  401fca:	5e 40 03 04 	jsr	@0x400304:24

00401fce <.LM161>:
/home/kozos.c:385

  handlers[type] = handler; /* OS側から呼び出す割込みハンドラを登録 */
  401fce:	6f 62 ff fe 	mov.w	@(0xfffe:16,er6),r2
  401fd2:	17 f2       	exts.l	er2
  401fd4:	10 32       	shll.l	er2
  401fd6:	10 32       	shll.l	er2
  401fd8:	7a 12 00 40 	add.l	#0x404414,er2
  401fdc:	44 14 
  401fde:	01 00 6f 63 	mov.l	@(0xfff8:16,er6),er3
  401fe2:	ff f8 
  401fe4:	01 00 69 a3 	mov.l	er3,@er2

00401fe8 <.LM162>:
/home/kozos.c:386
  putcurrent();
  401fe8:	5e 40 17 56 	jsr	@0x401756:24

00401fec <.LM163>:
/home/kozos.c:388

  return 0;
  401fec:	19 22       	sub.w	r2,r2

00401fee <.LM164>:
/home/kozos.c:389
}
  401fee:	0d 20       	mov.w	r2,r0
  401ff0:	0b 97       	adds	#4,er7
  401ff2:	0b 97       	adds	#4,er7
  401ff4:	01 00 6d 76 	mov.l	@er7+,er6
  401ff8:	54 70       	rts	

00401ffa <_call_functions>:
call_functions():
/home/kozos.c:392

static void call_functions(kz_syscall_type_t type, kz_syscall_param_t *p)
{
  401ffa:	01 00 6d f6 	mov.l	er6,@-er7
  401ffe:	0f f6       	mov.l	er7,er6
  402000:	01 00 6d f4 	mov.l	er4,@-er7
  402004:	01 00 6d f5 	mov.l	er5,@-er7
  402008:	7a 37 00 00 	sub.l	#0x8,er7
  40200c:	00 08 
  40200e:	6f e0 ff f6 	mov.w	r0,@(0xfff6:16,er6)
  402012:	01 00 6f e1 	mov.l	er1,@(0xfff0:16,er6)
  402016:	ff f0 

00402018 <.LM166>:
/home/kozos.c:394
  /* システム・コールの実行中にcurrentが書き換わるので注意 */
  switch (type) {
  402018:	6f 62 ff f6 	mov.w	@(0xfff6:16,er6),r2
  40201c:	79 22 00 0b 	cmp.w	#0xb,r2
  402020:	58 20 01 ee 	bhi	.+494 (0x402212)
  402024:	6f 62 ff f6 	mov.w	@(0xfff6:16,er6),r2
  402028:	17 72       	extu.l	er2
  40202a:	10 32       	shll.l	er2
  40202c:	10 32       	shll.l	er2
  40202e:	7a 12 00 40 	add.l	#0x404118,er2
  402032:	41 18 
  402034:	01 00 69 22 	mov.l	@er2,er2
  402038:	59 20       	jmp	@er2

0040203a <.L60>:
/home/kozos.c:396
  case KZ_SYSCALL_TYPE_RUN: /* kz_run() */
    p->un.run.ret = thread_run(p->un.run.func, p->un.run.name,
  40203a:	01 00 6f 62 	mov.l	@(0xfff0:16,er6),er2
  40203e:	ff f0 
  402040:	01 00 6f 20 	mov.l	@(0x10:16,er2),er0
  402044:	00 10 
  402046:	01 00 6f 62 	mov.l	@(0xfff0:16,er6),er2
  40204a:	ff f0 
  40204c:	6f 23 00 0c 	mov.w	@(0xc:16,er2),r3
  402050:	01 00 6f 62 	mov.l	@(0xfff0:16,er6),er2
  402054:	ff f0 
  402056:	6f 22 00 0a 	mov.w	@(0xa:16,er2),r2
  40205a:	01 00 6f 61 	mov.l	@(0xfff0:16,er6),er1
  40205e:	ff f0 
  402060:	6f 11 00 08 	mov.w	@(0x8:16,er1),r1
  402064:	6f e1 ff f4 	mov.w	r1,@(0xfff4:16,er6)
  402068:	01 00 6f 61 	mov.l	@(0xfff0:16,er6),er1
  40206c:	ff f0 
  40206e:	01 00 6f 15 	mov.l	@(0x4:16,er1),er5
  402072:	00 04 
  402074:	01 00 6f 61 	mov.l	@(0xfff0:16,er6),er1
  402078:	ff f0 
  40207a:	01 00 69 14 	mov.l	@er1,er4
  40207e:	01 00 6d f0 	mov.l	er0,@-er7
  402082:	0f f0       	mov.l	er7,er0
  402084:	1b 90       	subs	#4,er0
  402086:	0f 87       	mov.l	er0,er7
  402088:	6f f3 00 02 	mov.w	r3,@(0x2:16,er7)
  40208c:	0f f3       	mov.l	er7,er3
  40208e:	1b 93       	subs	#4,er3
  402090:	0f b7       	mov.l	er3,er7
  402092:	6f f2 00 02 	mov.w	r2,@(0x2:16,er7)
  402096:	6f 62 ff f4 	mov.w	@(0xfff4:16,er6),r2
  40209a:	0f d1       	mov.l	er5,er1
  40209c:	0f c0       	mov.l	er4,er0
  40209e:	5e 40 18 a8 	jsr	@0x4018a8:24
  4020a2:	7a 17 00 00 	add.l	#0xc,er7
  4020a6:	00 0c 
  4020a8:	0f 83       	mov.l	er0,er3
  4020aa:	01 00 6f 62 	mov.l	@(0xfff0:16,er6),er2
  4020ae:	ff f0 
  4020b0:	01 00 6f a3 	mov.l	er3,@(0x14:16,er2)
  4020b4:	00 14 

004020b6 <.LM168>:
/home/kozos.c:399
			       p->un.run.priority, p->un.run.stacksize,
			       p->un.run.argc, p->un.run.argv);
    break;
  4020b6:	58 00 01 5a 	bra	.+346 (0x402214)

004020ba <.L62>:
/home/kozos.c:402
  case KZ_SYSCALL_TYPE_EXIT: /* kz_exit() */
    /* TCBが消去されるので，戻り値を書き込んではいけない */
    thread_exit();
  4020ba:	5e 40 1b 3e 	jsr	@0x401b3e:24

004020be <.LM170>:
/home/kozos.c:403
    break;
  4020be:	58 00 01 52 	bra	.+338 (0x402214)

004020c2 <.L63>:
/home/kozos.c:405
  case KZ_SYSCALL_TYPE_WAIT: /* kz_wait() */
    p->un.wait.ret = thread_wait();
  4020c2:	5e 40 1b 7c 	jsr	@0x401b7c:24
  4020c6:	0d 03       	mov.w	r0,r3
  4020c8:	01 00 6f 62 	mov.l	@(0xfff0:16,er6),er2
  4020cc:	ff f0 
  4020ce:	69 a3       	mov.w	r3,@er2

004020d0 <.LM172>:
/home/kozos.c:406
    break;
  4020d0:	58 00 01 40 	bra	.+320 (0x402214)

004020d4 <.L64>:
/home/kozos.c:408
  case KZ_SYSCALL_TYPE_SLEEP: /* kz_sleep() */
    p->un.sleep.ret = thread_sleep();
  4020d4:	5e 40 1b 90 	jsr	@0x401b90:24
  4020d8:	0d 03       	mov.w	r0,r3
  4020da:	01 00 6f 62 	mov.l	@(0xfff0:16,er6),er2
  4020de:	ff f0 
  4020e0:	69 a3       	mov.w	r3,@er2

004020e2 <.LM174>:
/home/kozos.c:409
    break;
  4020e2:	58 00 01 2e 	bra	.+302 (0x402214)

004020e6 <.L65>:
/home/kozos.c:411
  case KZ_SYSCALL_TYPE_WAKEUP: /* kz_wakeup() */
    p->un.wakeup.ret = thread_wakeup(p->un.wakeup.id);
  4020e6:	01 00 6f 62 	mov.l	@(0xfff0:16,er6),er2
  4020ea:	ff f0 
  4020ec:	01 00 69 22 	mov.l	@er2,er2
  4020f0:	0f a0       	mov.l	er2,er0
  4020f2:	5e 40 1b a0 	jsr	@0x401ba0:24
  4020f6:	0d 03       	mov.w	r0,r3
  4020f8:	01 00 6f 62 	mov.l	@(0xfff0:16,er6),er2
  4020fc:	ff f0 
  4020fe:	6f a3 00 04 	mov.w	r3,@(0x4:16,er2)

00402102 <.LM176>:
/home/kozos.c:412
    break;
  402102:	58 00 01 0e 	bra	.+270 (0x402214)

00402106 <.L66>:
/home/kozos.c:414
  case KZ_SYSCALL_TYPE_GETID: /* kz_getid() */
    p->un.getid.ret = thread_getid();
  402106:	5e 40 1b d0 	jsr	@0x401bd0:24
  40210a:	0f 83       	mov.l	er0,er3
  40210c:	01 00 6f 62 	mov.l	@(0xfff0:16,er6),er2
  402110:	ff f0 
  402112:	01 00 69 a3 	mov.l	er3,@er2

00402116 <.LM178>:
/home/kozos.c:415
    break;
  402116:	58 00 00 fa 	bra	.+250 (0x402214)

0040211a <.L67>:
/home/kozos.c:417
  case KZ_SYSCALL_TYPE_CHPRI: /* kz_chpri() */
    p->un.chpri.ret = thread_chpri(p->un.chpri.priority);
  40211a:	01 00 6f 62 	mov.l	@(0xfff0:16,er6),er2
  40211e:	ff f0 
  402120:	69 22       	mov.w	@er2,r2
  402122:	0d 20       	mov.w	r2,r0
  402124:	5e 40 1b ea 	jsr	@0x401bea:24
  402128:	0d 03       	mov.w	r0,r3
  40212a:	01 00 6f 62 	mov.l	@(0xfff0:16,er6),er2
  40212e:	ff f0 
  402130:	6f a3 00 02 	mov.w	r3,@(0x2:16,er2)

00402134 <.LM180>:
/home/kozos.c:418
    break;
  402134:	58 00 00 dc 	bra	.+220 (0x402214)

00402138 <.L68>:
/home/kozos.c:420
  case KZ_SYSCALL_TYPE_KMALLOC: /* kz_kmalloc() */
    p->un.kmalloc.ret = thread_kmalloc(p->un.kmalloc.size);
  402138:	01 00 6f 62 	mov.l	@(0xfff0:16,er6),er2
  40213c:	ff f0 
  40213e:	69 22       	mov.w	@er2,r2
  402140:	0d 20       	mov.w	r2,r0
  402142:	5e 40 1c 36 	jsr	@0x401c36:24
  402146:	0f 83       	mov.l	er0,er3
  402148:	01 00 6f 62 	mov.l	@(0xfff0:16,er6),er2
  40214c:	ff f0 
  40214e:	01 00 6f a3 	mov.l	er3,@(0x4:16,er2)
  402152:	00 04 

00402154 <.LM182>:
/home/kozos.c:421
    break;
  402154:	58 00 00 bc 	bra	.+188 (0x402214)

00402158 <.L69>:
/home/kozos.c:423
  case KZ_SYSCALL_TYPE_KMFREE: /* kz_kmfree() */
    p->un.kmfree.ret = thread_kmfree(p->un.kmfree.p);
  402158:	01 00 6f 62 	mov.l	@(0xfff0:16,er6),er2
  40215c:	ff f0 
  40215e:	01 00 69 22 	mov.l	@er2,er2
  402162:	0f a0       	mov.l	er2,er0
  402164:	5e 40 1c 5c 	jsr	@0x401c5c:24
  402168:	0d 03       	mov.w	r0,r3
  40216a:	01 00 6f 62 	mov.l	@(0xfff0:16,er6),er2
  40216e:	ff f0 
  402170:	6f a3 00 04 	mov.w	r3,@(0x4:16,er2)

00402174 <.LM184>:
/home/kozos.c:424
    break;
  402174:	58 00 00 9c 	bra	.+156 (0x402214)

00402178 <.L70>:
/home/kozos.c:426
  case KZ_SYSCALL_TYPE_SEND: /* kz_send() */
    p->un.send.ret = thread_send(p->un.send.id,
  402178:	01 00 6f 62 	mov.l	@(0xfff0:16,er6),er2
  40217c:	ff f0 
  40217e:	01 00 6f 21 	mov.l	@(0x4:16,er2),er1
  402182:	00 04 
  402184:	01 00 6f 62 	mov.l	@(0xfff0:16,er6),er2
  402188:	ff f0 
  40218a:	6f 20 00 02 	mov.w	@(0x2:16,er2),r0
  40218e:	01 00 6f 62 	mov.l	@(0xfff0:16,er6),er2
  402192:	ff f0 
  402194:	69 23       	mov.w	@er2,r3
  402196:	0f 92       	mov.l	er1,er2
  402198:	0d 01       	mov.w	r0,r1
  40219a:	0d 30       	mov.w	r3,r0
  40219c:	5e 40 1e 64 	jsr	@0x401e64:24
  4021a0:	0d 03       	mov.w	r0,r3
  4021a2:	01 00 6f 62 	mov.l	@(0xfff0:16,er6),er2
  4021a6:	ff f0 
  4021a8:	6f a3 00 08 	mov.w	r3,@(0x8:16,er2)

004021ac <.LM186>:
/home/kozos.c:428
				 p->un.send.size, p->un.send.p);
    break;
  4021ac:	40 66       	bra	.+102 (0x402214)

004021ae <.L71>:
/home/kozos.c:430
  case KZ_SYSCALL_TYPE_RECV: /* kz_recv() */
    p->un.recv.ret = thread_recv(p->un.recv.id,
  4021ae:	01 00 6f 62 	mov.l	@(0xfff0:16,er6),er2
  4021b2:	ff f0 
  4021b4:	01 00 6f 21 	mov.l	@(0x8:16,er2),er1
  4021b8:	00 08 
  4021ba:	01 00 6f 62 	mov.l	@(0xfff0:16,er6),er2
  4021be:	ff f0 
  4021c0:	01 00 6f 20 	mov.l	@(0x4:16,er2),er0
  4021c4:	00 04 
  4021c6:	01 00 6f 62 	mov.l	@(0xfff0:16,er6),er2
  4021ca:	ff f0 
  4021cc:	69 23       	mov.w	@er2,r3
  4021ce:	0f 92       	mov.l	er1,er2
  4021d0:	0f 81       	mov.l	er0,er1
  4021d2:	0d 30       	mov.w	r3,r0
  4021d4:	5e 40 1f 06 	jsr	@0x401f06:24
  4021d8:	0f 83       	mov.l	er0,er3
  4021da:	01 00 6f 62 	mov.l	@(0xfff0:16,er6),er2
  4021de:	ff f0 
  4021e0:	01 00 6f a3 	mov.l	er3,@(0xc:16,er2)
  4021e4:	00 0c 

004021e6 <.LM188>:
/home/kozos.c:432
				 p->un.recv.sizep, p->un.recv.pp);
    break;
  4021e6:	40 2c       	bra	.+44 (0x402214)

004021e8 <.L72>:
/home/kozos.c:434
  case KZ_SYSCALL_TYPE_SETINTR: /* kz_setintr() */
    p->un.setintr.ret = thread_setintr(p->un.setintr.type,
  4021e8:	01 00 6f 62 	mov.l	@(0xfff0:16,er6),er2
  4021ec:	ff f0 
  4021ee:	01 00 6f 23 	mov.l	@(0x4:16,er2),er3
  4021f2:	00 04 
  4021f4:	01 00 6f 62 	mov.l	@(0xfff0:16,er6),er2
  4021f8:	ff f0 
  4021fa:	69 22       	mov.w	@er2,r2
  4021fc:	0f b1       	mov.l	er3,er1
  4021fe:	0d 20       	mov.w	r2,r0
  402200:	5e 40 1f a8 	jsr	@0x401fa8:24
  402204:	0d 03       	mov.w	r0,r3
  402206:	01 00 6f 62 	mov.l	@(0xfff0:16,er6),er2
  40220a:	ff f0 
  40220c:	6f a3 00 08 	mov.w	r3,@(0x8:16,er2)

00402210 <.LM190>:
/home/kozos.c:436
				       p->un.setintr.handler);
    break;
  402210:	40 02       	bra	.+2 (0x402214)

00402212 <.L74>:
	...

00402214 <.L73>:
/home/kozos.c:440
  default:
    break;
  }
}
  402214:	00 00       	nop	
  402216:	0b 97       	adds	#4,er7
  402218:	0b 97       	adds	#4,er7
  40221a:	01 00 6d 75 	mov.l	@er7+,er5
  40221e:	01 00 6d 74 	mov.l	@er7+,er4
  402222:	01 00 6d 76 	mov.l	@er7+,er6
  402226:	54 70       	rts	

00402228 <_syscall_proc>:
syscall_proc():
/home/kozos.c:444

/* システム・コールの処理 */
static void syscall_proc(kz_syscall_type_t type, kz_syscall_param_t *p)
{
  402228:	01 00 6d f6 	mov.l	er6,@-er7
  40222c:	0f f6       	mov.l	er7,er6
  40222e:	7a 37 00 00 	sub.l	#0x8,er7
  402232:	00 08 
  402234:	6f e0 ff fe 	mov.w	r0,@(0xfffe:16,er6)
  402238:	01 00 6f e1 	mov.l	er1,@(0xfff8:16,er6)
  40223c:	ff f8 

0040223e <.LM194>:
/home/kozos.c:451
   * システム・コールを呼び出したスレッドをレディー・キューから
   * 外した状態で処理関数を呼び出す．このためシステム・コールを
   * 呼び出したスレッドをそのまま動作継続させたい場合には，
   * 処理関数の内部で putcurrent() を行う必要がある．
   */
  getcurrent();
  40223e:	5e 40 16 7a 	jsr	@0x40167a:24

00402242 <.LM195>:
/home/kozos.c:452
  call_functions(type, p);
  402242:	01 00 6f 63 	mov.l	@(0xfff8:16,er6),er3
  402246:	ff f8 
  402248:	6f 62 ff fe 	mov.w	@(0xfffe:16,er6),r2
  40224c:	0f b1       	mov.l	er3,er1
  40224e:	0d 20       	mov.w	r2,r0
  402250:	5e 40 1f fa 	jsr	@0x401ffa:24

00402254 <.LM196>:
/home/kozos.c:453
}
  402254:	00 00       	nop	
  402256:	0b 97       	adds	#4,er7
  402258:	0b 97       	adds	#4,er7
  40225a:	01 00 6d 76 	mov.l	@er7+,er6
  40225e:	54 70       	rts	

00402260 <_srvcall_proc>:
srvcall_proc():
/home/kozos.c:457

/* サービス・コールの処理 */
static void srvcall_proc(kz_syscall_type_t type, kz_syscall_param_t *p)
{
  402260:	01 00 6d f6 	mov.l	er6,@-er7
  402264:	0f f6       	mov.l	er7,er6
  402266:	7a 37 00 00 	sub.l	#0x8,er7
  40226a:	00 08 
  40226c:	6f e0 ff fe 	mov.w	r0,@(0xfffe:16,er6)
  402270:	01 00 6f e1 	mov.l	er1,@(0xfff8:16,er6)
  402274:	ff f8 

00402276 <.LM198>:
/home/kozos.c:467
   * current が残っていると誤動作するため NULL に設定する．
   * サービス・コールは thread_intrvec() 内部の割込みハンドラ呼び出しの
   * 延長で呼ばれているはずでなので，呼び出し後に thread_intrvec() で
   * スケジューリング処理が行われ，current は再設定される．
   */
  current = NULL;
  402276:	1a a2       	sub.l	er2,er2
  402278:	01 00 6b a2 	mov.l	er2,@0x404290:32
  40227c:	00 40 42 90 

00402280 <.LM199>:
/home/kozos.c:468
  call_functions(type, p);
  402280:	01 00 6f 63 	mov.l	@(0xfff8:16,er6),er3
  402284:	ff f8 
  402286:	6f 62 ff fe 	mov.w	@(0xfffe:16,er6),r2
  40228a:	0f b1       	mov.l	er3,er1
  40228c:	0d 20       	mov.w	r2,r0
  40228e:	5e 40 1f fa 	jsr	@0x401ffa:24

00402292 <.LM200>:
/home/kozos.c:469
}
  402292:	00 00       	nop	
  402294:	0b 97       	adds	#4,er7
  402296:	0b 97       	adds	#4,er7
  402298:	01 00 6d 76 	mov.l	@er7+,er6
  40229c:	54 70       	rts	

0040229e <_schedule>:
schedule():
/home/kozos.c:473

/* スレッドのスケジューリング */
static void schedule(void)
{
  40229e:	01 00 6d f6 	mov.l	er6,@-er7
  4022a2:	0f f6       	mov.l	er7,er6
  4022a4:	1b 97       	subs	#4,er7

004022a6 <.LM202>:
/home/kozos.c:480

  /*
   * 優先順位の高い順(優先度の数値の小さい順)にレディー・キューを見て，
   * 動作可能なスレッドを検索する．
   */
  for (i = 0; i < PRIORITY_NUM; i++) {
  4022a6:	19 22       	sub.w	r2,r2
  4022a8:	6f e2 ff fe 	mov.w	r2,@(0xfffe:16,er6)
  4022ac:	40 24       	bra	.+36 (0x4022d2)

004022ae <.L81>:
/home/kozos.c:481
    if (readyque[i].head) /* 見つかった */
  4022ae:	6f 62 ff fe 	mov.w	@(0xfffe:16,er6),r2
  4022b2:	17 f2       	exts.l	er2
  4022b4:	10 32       	shll.l	er2
  4022b6:	10 32       	shll.l	er2
  4022b8:	10 32       	shll.l	er2
  4022ba:	7a 12 00 40 	add.l	#0x404210,er2
  4022be:	42 10 
  4022c0:	01 00 69 22 	mov.l	@er2,er2
  4022c4:	0f a2       	mov.l	er2,er2
  4022c6:	46 16       	bne	.+22 (0x4022de)

004022c8 <.LM204>:
/home/kozos.c:480 (discriminator 2)
  for (i = 0; i < PRIORITY_NUM; i++) {
  4022c8:	6f 62 ff fe 	mov.w	@(0xfffe:16,er6),r2
  4022cc:	0b 02       	adds	#1,er2
  4022ce:	6f e2 ff fe 	mov.w	r2,@(0xfffe:16,er6)

004022d2 <.L78>:
/home/kozos.c:480 (discriminator 1)
  4022d2:	6f 62 ff fe 	mov.w	@(0xfffe:16,er6),r2
  4022d6:	79 22 00 0f 	cmp.w	#0xf,r2
  4022da:	4f d2       	ble	.-46 (0x4022ae)
  4022dc:	40 02       	bra	.+2 (0x4022e0)

004022de <.L83>:
	...

004022e0 <.L80>:
/home/kozos.c:484
      break;
  }
  if (i == PRIORITY_NUM) /* 見つからなかった */
  4022e0:	6f 62 ff fe 	mov.w	@(0xfffe:16,er6),r2
  4022e4:	79 22 00 10 	cmp.w	#0x10,r2
  4022e8:	46 04       	bne	.+4 (0x4022ee)

004022ea <.LM208>:
/home/kozos.c:485
    kz_sysdown();
  4022ea:	5e 40 24 ea 	jsr	@0x4024ea:24

004022ee <.L82>:
/home/kozos.c:487

  current = readyque[i].head; /* カレント・スレッドに設定する */
  4022ee:	6f 62 ff fe 	mov.w	@(0xfffe:16,er6),r2
  4022f2:	17 f2       	exts.l	er2
  4022f4:	10 32       	shll.l	er2
  4022f6:	10 32       	shll.l	er2
  4022f8:	10 32       	shll.l	er2
  4022fa:	7a 12 00 40 	add.l	#0x404210,er2
  4022fe:	42 10 
  402300:	01 00 69 22 	mov.l	@er2,er2
  402304:	01 00 6b a2 	mov.l	er2,@0x404290:32
  402308:	00 40 42 90 

0040230c <.LM210>:
/home/kozos.c:488
}
  40230c:	00 00       	nop	
  40230e:	0b 97       	adds	#4,er7
  402310:	01 00 6d 76 	mov.l	@er7+,er6
  402314:	54 70       	rts	

00402316 <_syscall_intr>:
syscall_intr():
/home/kozos.c:491

static void syscall_intr(void)
{
  402316:	01 00 6d f6 	mov.l	er6,@-er7
  40231a:	0f f6       	mov.l	er7,er6

0040231c <.LM212>:
/home/kozos.c:492
  syscall_proc(current->syscall.type, current->syscall.param);
  40231c:	01 00 6b 22 	mov.l	@0x404290:32,er2
  402320:	00 40 42 90 
  402324:	01 00 6f 23 	mov.l	@(0x30:16,er2),er3
  402328:	00 30 
  40232a:	01 00 6b 22 	mov.l	@0x404290:32,er2
  40232e:	00 40 42 90 
  402332:	6f 22 00 2c 	mov.w	@(0x2c:16,er2),r2
  402336:	0f b1       	mov.l	er3,er1
  402338:	0d 20       	mov.w	r2,r0
  40233a:	5e 40 22 28 	jsr	@0x402228:24

0040233e <.LM213>:
/home/kozos.c:493
}
  40233e:	00 00       	nop	
  402340:	01 00 6d 76 	mov.l	@er7+,er6
  402344:	54 70       	rts	

00402346 <_softerr_intr>:
softerr_intr():
/home/kozos.c:496

static void softerr_intr(void)
{
  402346:	01 00 6d f6 	mov.l	er6,@-er7
  40234a:	0f f6       	mov.l	er7,er6

0040234c <.LM215>:
/home/kozos.c:497
  puts(current->name);
  40234c:	01 00 6b 22 	mov.l	@0x404290:32,er2
  402350:	00 40 42 90 
  402354:	0b 92       	adds	#4,er2
  402356:	0f a0       	mov.l	er2,er0
  402358:	5e 40 07 b6 	jsr	@0x4007b6:24

0040235c <.LM216>:
/home/kozos.c:498
  puts(" DOWN.\n");
  40235c:	7a 00 00 40 	mov.l	#0x404148,er0
  402360:	41 48 
  402362:	5e 40 07 b6 	jsr	@0x4007b6:24

00402366 <.LM217>:
/home/kozos.c:499
  getcurrent(); /* レディーキューから外す */
  402366:	5e 40 16 7a 	jsr	@0x40167a:24

0040236a <.LM218>:
/home/kozos.c:500
  thread_exit(); /* スレッド終了する */
  40236a:	5e 40 1b 3e 	jsr	@0x401b3e:24

0040236e <.LM219>:
/home/kozos.c:501
}
  40236e:	00 00       	nop	
  402370:	01 00 6d 76 	mov.l	@er7+,er6
  402374:	54 70       	rts	

00402376 <_thread_intr>:
thread_intr():
/home/kozos.c:505

/* 割込み処理の入口関数 */
static void thread_intr(softvec_type_t type, unsigned long sp)
{
  402376:	01 00 6d f6 	mov.l	er6,@-er7
  40237a:	0f f6       	mov.l	er7,er6
  40237c:	7a 37 00 00 	sub.l	#0x8,er7
  402380:	00 08 
  402382:	6f e0 ff fe 	mov.w	r0,@(0xfffe:16,er6)
  402386:	01 00 6f e1 	mov.l	er1,@(0xfff8:16,er6)
  40238a:	ff f8 

0040238c <.LM221>:
/home/kozos.c:507
  /* カレント・スレッドのコンテキストを保存する */
  current->context.sp = sp;
  40238c:	01 00 6b 22 	mov.l	@0x404290:32,er2
  402390:	00 40 42 90 
  402394:	01 00 6f 63 	mov.l	@(0xfff8:16,er6),er3
  402398:	ff f8 
  40239a:	01 00 6f a3 	mov.l	er3,@(0x34:16,er2)
  40239e:	00 34 

004023a0 <.LM222>:
/home/kozos.c:517
   * syscall_intr(), softerr_intr() がハンドラに登録されているので，
   * それらが実行される．
   * それ以外の場合は，kz_setintr()によってユーザ登録されたハンドラが
   * 実行される．
   */
  if (handlers[type])
  4023a0:	6f 62 ff fe 	mov.w	@(0xfffe:16,er6),r2
  4023a4:	17 f2       	exts.l	er2
  4023a6:	10 32       	shll.l	er2
  4023a8:	10 32       	shll.l	er2
  4023aa:	7a 12 00 40 	add.l	#0x404414,er2
  4023ae:	44 14 
  4023b0:	01 00 69 22 	mov.l	@er2,er2
  4023b4:	0f a2       	mov.l	er2,er2
  4023b6:	47 16       	beq	.+22 (0x4023ce)

004023b8 <.LM223>:
/home/kozos.c:518
    handlers[type]();
  4023b8:	6f 62 ff fe 	mov.w	@(0xfffe:16,er6),r2
  4023bc:	17 f2       	exts.l	er2
  4023be:	10 32       	shll.l	er2
  4023c0:	10 32       	shll.l	er2
  4023c2:	7a 12 00 40 	add.l	#0x404414,er2
  4023c6:	44 14 
  4023c8:	01 00 69 22 	mov.l	@er2,er2
  4023cc:	5d 20       	jsr	@er2

004023ce <.L87>:
/home/kozos.c:520

  schedule(); /* スレッドのスケジューリング */
  4023ce:	5e 40 22 9e 	jsr	@0x40229e:24

004023d2 <.LM225>:
/home/kozos.c:526

  /*
   * スレッドのディスパッチ
   * (dispatch()関数の本体はstartup.sにあり，アセンブラで記述されている)
   */
  dispatch(&current->context);
  4023d2:	01 00 6b 22 	mov.l	@0x404290:32,er2
  4023d6:	00 40 42 90 
  4023da:	7a 12 00 00 	add.l	#0x34,er2
  4023de:	00 34 
  4023e0:	0f a0       	mov.l	er2,er0
  4023e2:	5e 40 01 0c 	jsr	@0x40010c:24

004023e6 <.LM226>:
/home/kozos.c:528
  /* ここには返ってこない */
}
  4023e6:	00 00       	nop	
  4023e8:	0b 97       	adds	#4,er7
  4023ea:	0b 97       	adds	#4,er7
  4023ec:	01 00 6d 76 	mov.l	@er7+,er6
  4023f0:	54 70       	rts	

004023f2 <_kz_start>:
kz_start():
/home/kozos.c:532

void kz_start(kz_func_t func, char *name, int priority, int stacksize,
	      int argc, char *argv[])
{
  4023f2:	01 00 6d f6 	mov.l	er6,@-er7
  4023f6:	0f f6       	mov.l	er7,er6
  4023f8:	7a 37 00 00 	sub.l	#0xc,er7
  4023fc:	00 0c 
  4023fe:	01 00 6f e0 	mov.l	er0,@(0xfffc:16,er6)
  402402:	ff fc 
  402404:	01 00 6f e1 	mov.l	er1,@(0xfff8:16,er6)
  402408:	ff f8 
  40240a:	6f e2 ff f6 	mov.w	r2,@(0xfff6:16,er6)

0040240e <.LM228>:
/home/kozos.c:533
  kzmem_init(); /* 動的メモリの初期化 */
  40240e:	5e 40 2a 9c 	jsr	@0x402a9c:24

00402412 <.LM229>:
/home/kozos.c:539

  /*
   * 以降で呼び出すスレッド関連のライブラリ関数の内部で current を
   * 見ている場合があるので，current を NULL に初期化しておく．
   */
  current = NULL;
  402412:	1a a2       	sub.l	er2,er2
  402414:	01 00 6b a2 	mov.l	er2,@0x404290:32
  402418:	00 40 42 90 

0040241c <.LM230>:
/home/kozos.c:541

  memset(readyque, 0, sizeof(readyque));
  40241c:	1a a2       	sub.l	er2,er2
  40241e:	8a 80       	add.b	#0x80,r2l
  402420:	19 11       	sub.w	r1,r1
  402422:	7a 00 00 40 	mov.l	#0x404210,er0
  402426:	42 10 
  402428:	5e 40 03 a0 	jsr	@0x4003a0:24

0040242c <.LM231>:
/home/kozos.c:542
  memset(threads,  0, sizeof(threads));
  40242c:	7a 02 00 00 	mov.l	#0x180,er2
  402430:	01 80 
  402432:	19 11       	sub.w	r1,r1
  402434:	7a 00 00 40 	mov.l	#0x404294,er0
  402438:	42 94 
  40243a:	5e 40 03 a0 	jsr	@0x4003a0:24

0040243e <.LM232>:
/home/kozos.c:543
  memset(handlers, 0, sizeof(handlers));
  40243e:	1a a2       	sub.l	er2,er2
  402440:	8a 14       	add.b	#0x14,r2l
  402442:	19 11       	sub.w	r1,r1
  402444:	7a 00 00 40 	mov.l	#0x404414,er0
  402448:	44 14 
  40244a:	5e 40 03 a0 	jsr	@0x4003a0:24

0040244e <.LM233>:
/home/kozos.c:544
  memset(msgboxes, 0, sizeof(msgboxes));
  40244e:	1a a2       	sub.l	er2,er2
  402450:	8a 60       	add.b	#0x60,r2l
  402452:	19 11       	sub.w	r1,r1
  402454:	7a 00 00 40 	mov.l	#0x404428,er0
  402458:	44 28 
  40245a:	5e 40 03 a0 	jsr	@0x4003a0:24

0040245e <.LM234>:
/home/kozos.c:547

  /* 割込みハンドラの登録 */
  thread_setintr(SOFTVEC_TYPE_SYSCALL, syscall_intr); /* システム・コール */
  40245e:	7a 01 00 40 	mov.l	#0x402316,er1
  402462:	23 16 
  402464:	79 00 00 01 	mov.w	#0x1,r0
  402468:	5e 40 1f a8 	jsr	@0x401fa8:24

0040246c <.LM235>:
/home/kozos.c:548
  thread_setintr(SOFTVEC_TYPE_SOFTERR, softerr_intr); /* ダウン要因発生 */
  40246c:	7a 01 00 40 	mov.l	#0x402346,er1
  402470:	23 46 
  402472:	19 00       	sub.w	r0,r0
  402474:	5e 40 1f a8 	jsr	@0x401fa8:24

00402478 <.LM236>:
/home/kozos.c:551

  /* システム・コール発行不可なので直接関数を呼び出してスレッド作成する */
  current = (kz_thread *)thread_run(func, name, priority, stacksize,
  402478:	6f 61 ff f6 	mov.w	@(0xfff6:16,er6),r1
  40247c:	01 00 6f 60 	mov.l	@(0xfff8:16,er6),er0
  402480:	ff f8 
  402482:	01 00 6f 63 	mov.l	@(0xfffc:16,er6),er3
  402486:	ff fc 
  402488:	01 00 6f 62 	mov.l	@(0x10:16,er6),er2
  40248c:	00 10 
  40248e:	01 00 6d f2 	mov.l	er2,@-er7
  402492:	0f f2       	mov.l	er7,er2
  402494:	1b 92       	subs	#4,er2
  402496:	0f a7       	mov.l	er2,er7
  402498:	6f 62 00 0e 	mov.w	@(0xe:16,er6),r2
  40249c:	6f f2 00 02 	mov.w	r2,@(0x2:16,er7)
  4024a0:	0f f2       	mov.l	er7,er2
  4024a2:	1b 92       	subs	#4,er2
  4024a4:	0f a7       	mov.l	er2,er7
  4024a6:	6f 62 00 0a 	mov.w	@(0xa:16,er6),r2
  4024aa:	6f f2 00 02 	mov.w	r2,@(0x2:16,er7)
  4024ae:	0d 12       	mov.w	r1,r2
  4024b0:	0f 81       	mov.l	er0,er1
  4024b2:	0f b0       	mov.l	er3,er0
  4024b4:	5e 40 18 a8 	jsr	@0x4018a8:24
  4024b8:	7a 17 00 00 	add.l	#0xc,er7
  4024bc:	00 0c 
  4024be:	0f 82       	mov.l	er0,er2
  4024c0:	01 00 6b a2 	mov.l	er2,@0x404290:32
  4024c4:	00 40 42 90 

004024c8 <.LM237>:
/home/kozos.c:555
				    argc, argv);

  /* 最初のスレッドを起動 */
  dispatch(&current->context);
  4024c8:	01 00 6b 22 	mov.l	@0x404290:32,er2
  4024cc:	00 40 42 90 
  4024d0:	7a 12 00 00 	add.l	#0x34,er2
  4024d4:	00 34 
  4024d6:	0f a0       	mov.l	er2,er0
  4024d8:	5e 40 01 0c 	jsr	@0x40010c:24

004024dc <.LM238>:
/home/kozos.c:558

  /* ここには返ってこない */
}
  4024dc:	00 00       	nop	
  4024de:	7a 17 00 00 	add.l	#0xc,er7
  4024e2:	00 0c 
  4024e4:	01 00 6d 76 	mov.l	@er7+,er6
  4024e8:	54 70       	rts	

004024ea <_kz_sysdown>:
kz_sysdown():
/home/kozos.c:561

void kz_sysdown(void)
{
  4024ea:	01 00 6d f6 	mov.l	er6,@-er7
  4024ee:	0f f6       	mov.l	er7,er6

004024f0 <.LM240>:
/home/kozos.c:562
  puts("system error!\n");
  4024f0:	7a 00 00 40 	mov.l	#0x404150,er0
  4024f4:	41 50 
  4024f6:	5e 40 07 b6 	jsr	@0x4007b6:24

004024fa <.L90>:
/home/kozos.c:563 (discriminator 1)
  while (1)
  4024fa:	40 fe       	bra	.-2 (0x4024fa)

004024fc <_kz_syscall>:
kz_syscall():
/home/kozos.c:569
    ;
}

/* システム・コール呼び出し用ライブラリ関数 */
void kz_syscall(kz_syscall_type_t type, kz_syscall_param_t *param)
{
  4024fc:	01 00 6d f6 	mov.l	er6,@-er7
  402500:	0f f6       	mov.l	er7,er6
  402502:	7a 37 00 00 	sub.l	#0x8,er7
  402506:	00 08 
  402508:	6f e0 ff fe 	mov.w	r0,@(0xfffe:16,er6)
  40250c:	01 00 6f e1 	mov.l	er1,@(0xfff8:16,er6)
  402510:	ff f8 

00402512 <.LM243>:
/home/kozos.c:570
  current->syscall.type  = type;
  402512:	01 00 6b 22 	mov.l	@0x404290:32,er2
  402516:	00 40 42 90 
  40251a:	6f 63 ff fe 	mov.w	@(0xfffe:16,er6),r3
  40251e:	6f a3 00 2c 	mov.w	r3,@(0x2c:16,er2)

00402522 <.LM244>:
/home/kozos.c:571
  current->syscall.param = param;
  402522:	01 00 6b 22 	mov.l	@0x404290:32,er2
  402526:	00 40 42 90 
  40252a:	01 00 6f 63 	mov.l	@(0xfff8:16,er6),er3
  40252e:	ff f8 
  402530:	01 00 6f a3 	mov.l	er3,@(0x30:16,er2)
  402534:	00 30 

00402536 <.LM245>:
/home/kozos.c:572
  asm volatile ("trapa #0"); /* トラップ割込み発行 */
  402536:	57 00       	trapa	#0x0

00402538 <.LM246>:
/home/kozos.c:573
}
  402538:	00 00       	nop	
  40253a:	0b 97       	adds	#4,er7
  40253c:	0b 97       	adds	#4,er7
  40253e:	01 00 6d 76 	mov.l	@er7+,er6
  402542:	54 70       	rts	

00402544 <_kz_srvcall>:
kz_srvcall():
/home/kozos.c:577

/* サービス・コール呼び出し用ライブラリ関数 */
void kz_srvcall(kz_syscall_type_t type, kz_syscall_param_t *param)
{
  402544:	01 00 6d f6 	mov.l	er6,@-er7
  402548:	0f f6       	mov.l	er7,er6
  40254a:	7a 37 00 00 	sub.l	#0x8,er7
  40254e:	00 08 
  402550:	6f e0 ff fe 	mov.w	r0,@(0xfffe:16,er6)
  402554:	01 00 6f e1 	mov.l	er1,@(0xfff8:16,er6)
  402558:	ff f8 

0040255a <.LM248>:
/home/kozos.c:578
  srvcall_proc(type, param);
  40255a:	01 00 6f 63 	mov.l	@(0xfff8:16,er6),er3
  40255e:	ff f8 
  402560:	6f 62 ff fe 	mov.w	@(0xfffe:16,er6),r2
  402564:	0f b1       	mov.l	er3,er1
  402566:	0d 20       	mov.w	r2,r0
  402568:	5e 40 22 60 	jsr	@0x402260:24

0040256c <.LM249>:
/home/kozos.c:579
}
  40256c:	00 00       	nop	
  40256e:	0b 97       	adds	#4,er7
  402570:	0b 97       	adds	#4,er7
  402572:	01 00 6d 76 	mov.l	@er7+,er6
  402576:	54 70       	rts	

00402578 <_kz_run>:
kz_run():
/home/syscall.c:10

/* システム・コール */

kz_thread_id_t kz_run(kz_func_t func, char *name, int priority, int stacksize,
		      int argc, char *argv[])
{
  402578:	01 00 6d f6 	mov.l	er6,@-er7
  40257c:	0f f6       	mov.l	er7,er6
  40257e:	7a 37 00 00 	sub.l	#0x24,er7
  402582:	00 24 
  402584:	01 00 6f e0 	mov.l	er0,@(0xffe4:16,er6)
  402588:	ff e4 
  40258a:	01 00 6f e1 	mov.l	er1,@(0xffe0:16,er6)
  40258e:	ff e0 
  402590:	6f e2 ff de 	mov.w	r2,@(0xffde:16,er6)

00402594 <.LM2>:
/home/syscall.c:12
  kz_syscall_param_t param;
  param.un.run.func = func;
  402594:	01 00 6f 62 	mov.l	@(0xffe4:16,er6),er2
  402598:	ff e4 
  40259a:	01 00 6f e2 	mov.l	er2,@(0xffe8:16,er6)
  40259e:	ff e8 

004025a0 <.LM3>:
/home/syscall.c:13
  param.un.run.name = name;
  4025a0:	01 00 6f 62 	mov.l	@(0xffe0:16,er6),er2
  4025a4:	ff e0 
  4025a6:	01 00 6f e2 	mov.l	er2,@(0xffec:16,er6)
  4025aa:	ff ec 

004025ac <.LM4>:
/home/syscall.c:14
  param.un.run.priority = priority;
  4025ac:	6f 62 ff de 	mov.w	@(0xffde:16,er6),r2
  4025b0:	6f e2 ff f0 	mov.w	r2,@(0xfff0:16,er6)

004025b4 <.LM5>:
/home/syscall.c:15
  param.un.run.stacksize = stacksize;
  4025b4:	6f 62 00 0a 	mov.w	@(0xa:16,er6),r2
  4025b8:	6f e2 ff f2 	mov.w	r2,@(0xfff2:16,er6)

004025bc <.LM6>:
/home/syscall.c:16
  param.un.run.argc = argc;
  4025bc:	6f 62 00 0e 	mov.w	@(0xe:16,er6),r2
  4025c0:	6f e2 ff f4 	mov.w	r2,@(0xfff4:16,er6)

004025c4 <.LM7>:
/home/syscall.c:17
  param.un.run.argv = argv;
  4025c4:	01 00 6f 62 	mov.l	@(0x10:16,er6),er2
  4025c8:	00 10 
  4025ca:	01 00 6f e2 	mov.l	er2,@(0xfff8:16,er6)
  4025ce:	ff f8 

004025d0 <.LM8>:
/home/syscall.c:18
  kz_syscall(KZ_SYSCALL_TYPE_RUN, &param);
  4025d0:	0f e2       	mov.l	er6,er2
  4025d2:	7a 32 00 00 	sub.l	#0x18,er2
  4025d6:	00 18 
  4025d8:	0f a1       	mov.l	er2,er1
  4025da:	19 00       	sub.w	r0,r0
  4025dc:	5e 40 24 fc 	jsr	@0x4024fc:24

004025e0 <.LM9>:
/home/syscall.c:19
  return param.un.run.ret;
  4025e0:	01 00 6f 62 	mov.l	@(0xfffc:16,er6),er2
  4025e4:	ff fc 

004025e6 <.LM10>:
/home/syscall.c:20
}
  4025e6:	0f a0       	mov.l	er2,er0
  4025e8:	7a 17 00 00 	add.l	#0x24,er7
  4025ec:	00 24 
  4025ee:	01 00 6d 76 	mov.l	@er7+,er6
  4025f2:	54 70       	rts	

004025f4 <_kz_exit>:
kz_exit():
/home/syscall.c:23

void kz_exit(void)
{
  4025f4:	01 00 6d f6 	mov.l	er6,@-er7
  4025f8:	0f f6       	mov.l	er7,er6

004025fa <.LM12>:
/home/syscall.c:24
  kz_syscall(KZ_SYSCALL_TYPE_EXIT, NULL);
  4025fa:	1a 91       	sub.l	er1,er1
  4025fc:	79 00 00 01 	mov.w	#0x1,r0
  402600:	5e 40 24 fc 	jsr	@0x4024fc:24

00402604 <.LM13>:
/home/syscall.c:25
}
  402604:	00 00       	nop	
  402606:	01 00 6d 76 	mov.l	@er7+,er6
  40260a:	54 70       	rts	

0040260c <_kz_wait>:
kz_wait():
/home/syscall.c:28

int kz_wait(void)
{
  40260c:	01 00 6d f6 	mov.l	er6,@-er7
  402610:	0f f6       	mov.l	er7,er6
  402612:	7a 37 00 00 	sub.l	#0x18,er7
  402616:	00 18 

00402618 <.LM15>:
/home/syscall.c:30
  kz_syscall_param_t param;
  kz_syscall(KZ_SYSCALL_TYPE_WAIT, &param);
  402618:	0f e2       	mov.l	er6,er2
  40261a:	7a 32 00 00 	sub.l	#0x18,er2
  40261e:	00 18 
  402620:	0f a1       	mov.l	er2,er1
  402622:	79 00 00 02 	mov.w	#0x2,r0
  402626:	5e 40 24 fc 	jsr	@0x4024fc:24

0040262a <.LM16>:
/home/syscall.c:31
  return param.un.wait.ret;
  40262a:	6f 62 ff e8 	mov.w	@(0xffe8:16,er6),r2

0040262e <.LM17>:
/home/syscall.c:32
}
  40262e:	0d 20       	mov.w	r2,r0
  402630:	7a 17 00 00 	add.l	#0x18,er7
  402634:	00 18 
  402636:	01 00 6d 76 	mov.l	@er7+,er6
  40263a:	54 70       	rts	

0040263c <_kz_sleep>:
kz_sleep():
/home/syscall.c:35

int kz_sleep(void)
{
  40263c:	01 00 6d f6 	mov.l	er6,@-er7
  402640:	0f f6       	mov.l	er7,er6
  402642:	7a 37 00 00 	sub.l	#0x18,er7
  402646:	00 18 

00402648 <.LM19>:
/home/syscall.c:37
  kz_syscall_param_t param;
  kz_syscall(KZ_SYSCALL_TYPE_SLEEP, &param);
  402648:	0f e2       	mov.l	er6,er2
  40264a:	7a 32 00 00 	sub.l	#0x18,er2
  40264e:	00 18 
  402650:	0f a1       	mov.l	er2,er1
  402652:	79 00 00 03 	mov.w	#0x3,r0
  402656:	5e 40 24 fc 	jsr	@0x4024fc:24

0040265a <.LM20>:
/home/syscall.c:38
  return param.un.sleep.ret;
  40265a:	6f 62 ff e8 	mov.w	@(0xffe8:16,er6),r2

0040265e <.LM21>:
/home/syscall.c:39
}
  40265e:	0d 20       	mov.w	r2,r0
  402660:	7a 17 00 00 	add.l	#0x18,er7
  402664:	00 18 
  402666:	01 00 6d 76 	mov.l	@er7+,er6
  40266a:	54 70       	rts	

0040266c <_kz_wakeup>:
kz_wakeup():
/home/syscall.c:42

int kz_wakeup(kz_thread_id_t id)
{
  40266c:	01 00 6d f6 	mov.l	er6,@-er7
  402670:	0f f6       	mov.l	er7,er6
  402672:	7a 37 00 00 	sub.l	#0x1c,er7
  402676:	00 1c 
  402678:	01 00 6f e0 	mov.l	er0,@(0xffe4:16,er6)
  40267c:	ff e4 

0040267e <.LM23>:
/home/syscall.c:44
  kz_syscall_param_t param;
  param.un.wakeup.id = id;
  40267e:	01 00 6f 62 	mov.l	@(0xffe4:16,er6),er2
  402682:	ff e4 
  402684:	01 00 6f e2 	mov.l	er2,@(0xffe8:16,er6)
  402688:	ff e8 

0040268a <.LM24>:
/home/syscall.c:45
  kz_syscall(KZ_SYSCALL_TYPE_WAKEUP, &param);
  40268a:	0f e2       	mov.l	er6,er2
  40268c:	7a 32 00 00 	sub.l	#0x18,er2
  402690:	00 18 
  402692:	0f a1       	mov.l	er2,er1
  402694:	79 00 00 04 	mov.w	#0x4,r0
  402698:	5e 40 24 fc 	jsr	@0x4024fc:24

0040269c <.LM25>:
/home/syscall.c:46
  return param.un.wakeup.ret;
  40269c:	6f 62 ff ec 	mov.w	@(0xffec:16,er6),r2

004026a0 <.LM26>:
/home/syscall.c:47
}
  4026a0:	0d 20       	mov.w	r2,r0
  4026a2:	7a 17 00 00 	add.l	#0x1c,er7
  4026a6:	00 1c 
  4026a8:	01 00 6d 76 	mov.l	@er7+,er6
  4026ac:	54 70       	rts	

004026ae <_kz_getid>:
kz_getid():
/home/syscall.c:50

kz_thread_id_t kz_getid(void)
{
  4026ae:	01 00 6d f6 	mov.l	er6,@-er7
  4026b2:	0f f6       	mov.l	er7,er6
  4026b4:	7a 37 00 00 	sub.l	#0x18,er7
  4026b8:	00 18 

004026ba <.LM28>:
/home/syscall.c:52
  kz_syscall_param_t param;
  kz_syscall(KZ_SYSCALL_TYPE_GETID, &param);
  4026ba:	0f e2       	mov.l	er6,er2
  4026bc:	7a 32 00 00 	sub.l	#0x18,er2
  4026c0:	00 18 
  4026c2:	0f a1       	mov.l	er2,er1
  4026c4:	79 00 00 05 	mov.w	#0x5,r0
  4026c8:	5e 40 24 fc 	jsr	@0x4024fc:24

004026cc <.LM29>:
/home/syscall.c:53
  return param.un.getid.ret;
  4026cc:	01 00 6f 62 	mov.l	@(0xffe8:16,er6),er2
  4026d0:	ff e8 

004026d2 <.LM30>:
/home/syscall.c:54
}
  4026d2:	0f a0       	mov.l	er2,er0
  4026d4:	7a 17 00 00 	add.l	#0x18,er7
  4026d8:	00 18 
  4026da:	01 00 6d 76 	mov.l	@er7+,er6
  4026de:	54 70       	rts	

004026e0 <_kz_chpri>:
kz_chpri():
/home/syscall.c:57

int kz_chpri(int priority)
{
  4026e0:	01 00 6d f6 	mov.l	er6,@-er7
  4026e4:	0f f6       	mov.l	er7,er6
  4026e6:	7a 37 00 00 	sub.l	#0x1c,er7
  4026ea:	00 1c 
  4026ec:	6f e0 ff e6 	mov.w	r0,@(0xffe6:16,er6)

004026f0 <.LM32>:
/home/syscall.c:59
  kz_syscall_param_t param;
  param.un.chpri.priority = priority;
  4026f0:	6f 62 ff e6 	mov.w	@(0xffe6:16,er6),r2
  4026f4:	6f e2 ff e8 	mov.w	r2,@(0xffe8:16,er6)

004026f8 <.LM33>:
/home/syscall.c:60
  kz_syscall(KZ_SYSCALL_TYPE_CHPRI, &param);
  4026f8:	0f e2       	mov.l	er6,er2
  4026fa:	7a 32 00 00 	sub.l	#0x18,er2
  4026fe:	00 18 
  402700:	0f a1       	mov.l	er2,er1
  402702:	79 00 00 06 	mov.w	#0x6,r0
  402706:	5e 40 24 fc 	jsr	@0x4024fc:24

0040270a <.LM34>:
/home/syscall.c:61
  return param.un.chpri.ret;
  40270a:	6f 62 ff ea 	mov.w	@(0xffea:16,er6),r2

0040270e <.LM35>:
/home/syscall.c:62
}
  40270e:	0d 20       	mov.w	r2,r0
  402710:	7a 17 00 00 	add.l	#0x1c,er7
  402714:	00 1c 
  402716:	01 00 6d 76 	mov.l	@er7+,er6
  40271a:	54 70       	rts	

0040271c <_kz_kmalloc>:
kz_kmalloc():
/home/syscall.c:65

void *kz_kmalloc(int size)
{
  40271c:	01 00 6d f6 	mov.l	er6,@-er7
  402720:	0f f6       	mov.l	er7,er6
  402722:	7a 37 00 00 	sub.l	#0x1c,er7
  402726:	00 1c 
  402728:	6f e0 ff e6 	mov.w	r0,@(0xffe6:16,er6)

0040272c <.LM37>:
/home/syscall.c:67
  kz_syscall_param_t param;
  param.un.kmalloc.size = size;
  40272c:	6f 62 ff e6 	mov.w	@(0xffe6:16,er6),r2
  402730:	6f e2 ff e8 	mov.w	r2,@(0xffe8:16,er6)

00402734 <.LM38>:
/home/syscall.c:68
  kz_syscall(KZ_SYSCALL_TYPE_KMALLOC, &param);
  402734:	0f e2       	mov.l	er6,er2
  402736:	7a 32 00 00 	sub.l	#0x18,er2
  40273a:	00 18 
  40273c:	0f a1       	mov.l	er2,er1
  40273e:	79 00 00 07 	mov.w	#0x7,r0
  402742:	5e 40 24 fc 	jsr	@0x4024fc:24

00402746 <.LM39>:
/home/syscall.c:69
  return param.un.kmalloc.ret;
  402746:	01 00 6f 62 	mov.l	@(0xffec:16,er6),er2
  40274a:	ff ec 

0040274c <.LM40>:
/home/syscall.c:70
}
  40274c:	0f a0       	mov.l	er2,er0
  40274e:	7a 17 00 00 	add.l	#0x1c,er7
  402752:	00 1c 
  402754:	01 00 6d 76 	mov.l	@er7+,er6
  402758:	54 70       	rts	

0040275a <_kz_kmfree>:
kz_kmfree():
/home/syscall.c:73

int kz_kmfree(void *p)
{
  40275a:	01 00 6d f6 	mov.l	er6,@-er7
  40275e:	0f f6       	mov.l	er7,er6
  402760:	7a 37 00 00 	sub.l	#0x1c,er7
  402764:	00 1c 
  402766:	01 00 6f e0 	mov.l	er0,@(0xffe4:16,er6)
  40276a:	ff e4 

0040276c <.LM42>:
/home/syscall.c:75
  kz_syscall_param_t param;
  param.un.kmfree.p = p;
  40276c:	01 00 6f 62 	mov.l	@(0xffe4:16,er6),er2
  402770:	ff e4 
  402772:	01 00 6f e2 	mov.l	er2,@(0xffe8:16,er6)
  402776:	ff e8 

00402778 <.LM43>:
/home/syscall.c:76
  kz_syscall(KZ_SYSCALL_TYPE_KMFREE, &param);
  402778:	0f e2       	mov.l	er6,er2
  40277a:	7a 32 00 00 	sub.l	#0x18,er2
  40277e:	00 18 
  402780:	0f a1       	mov.l	er2,er1
  402782:	79 00 00 08 	mov.w	#0x8,r0
  402786:	5e 40 24 fc 	jsr	@0x4024fc:24

0040278a <.LM44>:
/home/syscall.c:77
  return param.un.kmfree.ret;
  40278a:	6f 62 ff ec 	mov.w	@(0xffec:16,er6),r2

0040278e <.LM45>:
/home/syscall.c:78
}
  40278e:	0d 20       	mov.w	r2,r0
  402790:	7a 17 00 00 	add.l	#0x1c,er7
  402794:	00 1c 
  402796:	01 00 6d 76 	mov.l	@er7+,er6
  40279a:	54 70       	rts	

0040279c <_kz_send>:
kz_send():
/home/syscall.c:81

int kz_send(kz_msgbox_id_t id, int size, char *p)
{
  40279c:	01 00 6d f6 	mov.l	er6,@-er7
  4027a0:	0f f6       	mov.l	er7,er6
  4027a2:	7a 37 00 00 	sub.l	#0x20,er7
  4027a6:	00 20 
  4027a8:	6f e0 ff e6 	mov.w	r0,@(0xffe6:16,er6)
  4027ac:	6f e1 ff e4 	mov.w	r1,@(0xffe4:16,er6)
  4027b0:	01 00 6f e2 	mov.l	er2,@(0xffe0:16,er6)
  4027b4:	ff e0 

004027b6 <.LM47>:
/home/syscall.c:83
  kz_syscall_param_t param;
  param.un.send.id = id;
  4027b6:	6f 62 ff e6 	mov.w	@(0xffe6:16,er6),r2
  4027ba:	6f e2 ff e8 	mov.w	r2,@(0xffe8:16,er6)

004027be <.LM48>:
/home/syscall.c:84
  param.un.send.size = size;
  4027be:	6f 62 ff e4 	mov.w	@(0xffe4:16,er6),r2
  4027c2:	6f e2 ff ea 	mov.w	r2,@(0xffea:16,er6)

004027c6 <.LM49>:
/home/syscall.c:85
  param.un.send.p = p;
  4027c6:	01 00 6f 62 	mov.l	@(0xffe0:16,er6),er2
  4027ca:	ff e0 
  4027cc:	01 00 6f e2 	mov.l	er2,@(0xffec:16,er6)
  4027d0:	ff ec 

004027d2 <.LM50>:
/home/syscall.c:86
  kz_syscall(KZ_SYSCALL_TYPE_SEND, &param);
  4027d2:	0f e2       	mov.l	er6,er2
  4027d4:	7a 32 00 00 	sub.l	#0x18,er2
  4027d8:	00 18 
  4027da:	0f a1       	mov.l	er2,er1
  4027dc:	79 00 00 09 	mov.w	#0x9,r0
  4027e0:	5e 40 24 fc 	jsr	@0x4024fc:24

004027e4 <.LM51>:
/home/syscall.c:87
  return param.un.send.ret;
  4027e4:	6f 62 ff f0 	mov.w	@(0xfff0:16,er6),r2

004027e8 <.LM52>:
/home/syscall.c:88
}
  4027e8:	0d 20       	mov.w	r2,r0
  4027ea:	7a 17 00 00 	add.l	#0x20,er7
  4027ee:	00 20 
  4027f0:	01 00 6d 76 	mov.l	@er7+,er6
  4027f4:	54 70       	rts	

004027f6 <_kz_recv>:
kz_recv():
/home/syscall.c:91

kz_thread_id_t kz_recv(kz_msgbox_id_t id, int *sizep, char **pp)
{
  4027f6:	01 00 6d f6 	mov.l	er6,@-er7
  4027fa:	0f f6       	mov.l	er7,er6
  4027fc:	7a 37 00 00 	sub.l	#0x24,er7
  402800:	00 24 
  402802:	6f e0 ff e6 	mov.w	r0,@(0xffe6:16,er6)
  402806:	01 00 6f e1 	mov.l	er1,@(0xffe0:16,er6)
  40280a:	ff e0 
  40280c:	01 00 6f e2 	mov.l	er2,@(0xffdc:16,er6)
  402810:	ff dc 

00402812 <.LM54>:
/home/syscall.c:93
  kz_syscall_param_t param;
  param.un.recv.id = id;
  402812:	6f 62 ff e6 	mov.w	@(0xffe6:16,er6),r2
  402816:	6f e2 ff e8 	mov.w	r2,@(0xffe8:16,er6)

0040281a <.LM55>:
/home/syscall.c:94
  param.un.recv.sizep = sizep;
  40281a:	01 00 6f 62 	mov.l	@(0xffe0:16,er6),er2
  40281e:	ff e0 
  402820:	01 00 6f e2 	mov.l	er2,@(0xffec:16,er6)
  402824:	ff ec 

00402826 <.LM56>:
/home/syscall.c:95
  param.un.recv.pp = pp;
  402826:	01 00 6f 62 	mov.l	@(0xffdc:16,er6),er2
  40282a:	ff dc 
  40282c:	01 00 6f e2 	mov.l	er2,@(0xfff0:16,er6)
  402830:	ff f0 

00402832 <.LM57>:
/home/syscall.c:96
  kz_syscall(KZ_SYSCALL_TYPE_RECV, &param);
  402832:	0f e2       	mov.l	er6,er2
  402834:	7a 32 00 00 	sub.l	#0x18,er2
  402838:	00 18 
  40283a:	0f a1       	mov.l	er2,er1
  40283c:	79 00 00 0a 	mov.w	#0xa,r0
  402840:	5e 40 24 fc 	jsr	@0x4024fc:24

00402844 <.LM58>:
/home/syscall.c:97
  return param.un.recv.ret;
  402844:	01 00 6f 62 	mov.l	@(0xfff4:16,er6),er2
  402848:	ff f4 

0040284a <.LM59>:
/home/syscall.c:98
}
  40284a:	0f a0       	mov.l	er2,er0
  40284c:	7a 17 00 00 	add.l	#0x24,er7
  402850:	00 24 
  402852:	01 00 6d 76 	mov.l	@er7+,er6
  402856:	54 70       	rts	

00402858 <_kz_setintr>:
kz_setintr():
/home/syscall.c:101

int kz_setintr(softvec_type_t type, kz_handler_t handler)
{
  402858:	01 00 6d f6 	mov.l	er6,@-er7
  40285c:	0f f6       	mov.l	er7,er6
  40285e:	7a 37 00 00 	sub.l	#0x20,er7
  402862:	00 20 
  402864:	6f e0 ff e6 	mov.w	r0,@(0xffe6:16,er6)
  402868:	01 00 6f e1 	mov.l	er1,@(0xffe0:16,er6)
  40286c:	ff e0 

0040286e <.LM61>:
/home/syscall.c:103
  kz_syscall_param_t param;
  param.un.setintr.type = type;
  40286e:	6f 62 ff e6 	mov.w	@(0xffe6:16,er6),r2
  402872:	6f e2 ff e8 	mov.w	r2,@(0xffe8:16,er6)

00402876 <.LM62>:
/home/syscall.c:104
  param.un.setintr.handler = handler;
  402876:	01 00 6f 62 	mov.l	@(0xffe0:16,er6),er2
  40287a:	ff e0 
  40287c:	01 00 6f e2 	mov.l	er2,@(0xffec:16,er6)
  402880:	ff ec 

00402882 <.LM63>:
/home/syscall.c:105
  kz_syscall(KZ_SYSCALL_TYPE_SETINTR, &param);
  402882:	0f e2       	mov.l	er6,er2
  402884:	7a 32 00 00 	sub.l	#0x18,er2
  402888:	00 18 
  40288a:	0f a1       	mov.l	er2,er1
  40288c:	79 00 00 0b 	mov.w	#0xb,r0
  402890:	5e 40 24 fc 	jsr	@0x4024fc:24

00402894 <.LM64>:
/home/syscall.c:106
  return param.un.setintr.ret;
  402894:	6f 62 ff f0 	mov.w	@(0xfff0:16,er6),r2

00402898 <.LM65>:
/home/syscall.c:107
}
  402898:	0d 20       	mov.w	r2,r0
  40289a:	7a 17 00 00 	add.l	#0x20,er7
  40289e:	00 20 
  4028a0:	01 00 6d 76 	mov.l	@er7+,er6
  4028a4:	54 70       	rts	

004028a6 <_kx_wakeup>:
kx_wakeup():
/home/syscall.c:112

/* サービス・コール */

int kx_wakeup(kz_thread_id_t id)
{
  4028a6:	01 00 6d f6 	mov.l	er6,@-er7
  4028aa:	0f f6       	mov.l	er7,er6
  4028ac:	7a 37 00 00 	sub.l	#0x1c,er7
  4028b0:	00 1c 
  4028b2:	01 00 6f e0 	mov.l	er0,@(0xffe4:16,er6)
  4028b6:	ff e4 

004028b8 <.LM67>:
/home/syscall.c:114
  kz_syscall_param_t param;
  param.un.wakeup.id = id;
  4028b8:	01 00 6f 62 	mov.l	@(0xffe4:16,er6),er2
  4028bc:	ff e4 
  4028be:	01 00 6f e2 	mov.l	er2,@(0xffe8:16,er6)
  4028c2:	ff e8 

004028c4 <.LM68>:
/home/syscall.c:115
  kz_srvcall(KZ_SYSCALL_TYPE_WAKEUP, &param);
  4028c4:	0f e2       	mov.l	er6,er2
  4028c6:	7a 32 00 00 	sub.l	#0x18,er2
  4028ca:	00 18 
  4028cc:	0f a1       	mov.l	er2,er1
  4028ce:	79 00 00 04 	mov.w	#0x4,r0
  4028d2:	5e 40 25 44 	jsr	@0x402544:24

004028d6 <.LM69>:
/home/syscall.c:116
  return param.un.wakeup.ret;
  4028d6:	6f 62 ff ec 	mov.w	@(0xffec:16,er6),r2

004028da <.LM70>:
/home/syscall.c:117
}
  4028da:	0d 20       	mov.w	r2,r0
  4028dc:	7a 17 00 00 	add.l	#0x1c,er7
  4028e0:	00 1c 
  4028e2:	01 00 6d 76 	mov.l	@er7+,er6
  4028e6:	54 70       	rts	

004028e8 <_kx_kmalloc>:
kx_kmalloc():
/home/syscall.c:120

void *kx_kmalloc(int size)
{
  4028e8:	01 00 6d f6 	mov.l	er6,@-er7
  4028ec:	0f f6       	mov.l	er7,er6
  4028ee:	7a 37 00 00 	sub.l	#0x1c,er7
  4028f2:	00 1c 
  4028f4:	6f e0 ff e6 	mov.w	r0,@(0xffe6:16,er6)

004028f8 <.LM72>:
/home/syscall.c:122
  kz_syscall_param_t param;
  param.un.kmalloc.size = size;
  4028f8:	6f 62 ff e6 	mov.w	@(0xffe6:16,er6),r2
  4028fc:	6f e2 ff e8 	mov.w	r2,@(0xffe8:16,er6)

00402900 <.LM73>:
/home/syscall.c:123
  kz_srvcall(KZ_SYSCALL_TYPE_KMALLOC, &param);
  402900:	0f e2       	mov.l	er6,er2
  402902:	7a 32 00 00 	sub.l	#0x18,er2
  402906:	00 18 
  402908:	0f a1       	mov.l	er2,er1
  40290a:	79 00 00 07 	mov.w	#0x7,r0
  40290e:	5e 40 25 44 	jsr	@0x402544:24

00402912 <.LM74>:
/home/syscall.c:124
  return param.un.kmalloc.ret;
  402912:	01 00 6f 62 	mov.l	@(0xffec:16,er6),er2
  402916:	ff ec 

00402918 <.LM75>:
/home/syscall.c:125
}
  402918:	0f a0       	mov.l	er2,er0
  40291a:	7a 17 00 00 	add.l	#0x1c,er7
  40291e:	00 1c 
  402920:	01 00 6d 76 	mov.l	@er7+,er6
  402924:	54 70       	rts	

00402926 <_kx_kmfree>:
kx_kmfree():
/home/syscall.c:128

int kx_kmfree(void *p)
{
  402926:	01 00 6d f6 	mov.l	er6,@-er7
  40292a:	0f f6       	mov.l	er7,er6
  40292c:	7a 37 00 00 	sub.l	#0x1c,er7
  402930:	00 1c 
  402932:	01 00 6f e0 	mov.l	er0,@(0xffe4:16,er6)
  402936:	ff e4 

00402938 <.LM77>:
/home/syscall.c:130
  kz_syscall_param_t param;
  param.un.kmfree.p = p;
  402938:	01 00 6f 62 	mov.l	@(0xffe4:16,er6),er2
  40293c:	ff e4 
  40293e:	01 00 6f e2 	mov.l	er2,@(0xffe8:16,er6)
  402942:	ff e8 

00402944 <.LM78>:
/home/syscall.c:131
  kz_srvcall(KZ_SYSCALL_TYPE_KMFREE, &param);
  402944:	0f e2       	mov.l	er6,er2
  402946:	7a 32 00 00 	sub.l	#0x18,er2
  40294a:	00 18 
  40294c:	0f a1       	mov.l	er2,er1
  40294e:	79 00 00 08 	mov.w	#0x8,r0
  402952:	5e 40 25 44 	jsr	@0x402544:24

00402956 <.LM79>:
/home/syscall.c:132
  return param.un.kmfree.ret;
  402956:	6f 62 ff ec 	mov.w	@(0xffec:16,er6),r2

0040295a <.LM80>:
/home/syscall.c:133
}
  40295a:	0d 20       	mov.w	r2,r0
  40295c:	7a 17 00 00 	add.l	#0x1c,er7
  402960:	00 1c 
  402962:	01 00 6d 76 	mov.l	@er7+,er6
  402966:	54 70       	rts	

00402968 <_kx_send>:
kx_send():
/home/syscall.c:136

int kx_send(kz_msgbox_id_t id, int size, char *p)
{
  402968:	01 00 6d f6 	mov.l	er6,@-er7
  40296c:	0f f6       	mov.l	er7,er6
  40296e:	7a 37 00 00 	sub.l	#0x20,er7
  402972:	00 20 
  402974:	6f e0 ff e6 	mov.w	r0,@(0xffe6:16,er6)
  402978:	6f e1 ff e4 	mov.w	r1,@(0xffe4:16,er6)
  40297c:	01 00 6f e2 	mov.l	er2,@(0xffe0:16,er6)
  402980:	ff e0 

00402982 <.LM82>:
/home/syscall.c:138
  kz_syscall_param_t param;
  param.un.send.id = id;
  402982:	6f 62 ff e6 	mov.w	@(0xffe6:16,er6),r2
  402986:	6f e2 ff e8 	mov.w	r2,@(0xffe8:16,er6)

0040298a <.LM83>:
/home/syscall.c:139
  param.un.send.size = size;
  40298a:	6f 62 ff e4 	mov.w	@(0xffe4:16,er6),r2
  40298e:	6f e2 ff ea 	mov.w	r2,@(0xffea:16,er6)

00402992 <.LM84>:
/home/syscall.c:140
  param.un.send.p = p;
  402992:	01 00 6f 62 	mov.l	@(0xffe0:16,er6),er2
  402996:	ff e0 
  402998:	01 00 6f e2 	mov.l	er2,@(0xffec:16,er6)
  40299c:	ff ec 

0040299e <.LM85>:
/home/syscall.c:141
  kz_srvcall(KZ_SYSCALL_TYPE_SEND, &param);
  40299e:	0f e2       	mov.l	er6,er2
  4029a0:	7a 32 00 00 	sub.l	#0x18,er2
  4029a4:	00 18 
  4029a6:	0f a1       	mov.l	er2,er1
  4029a8:	79 00 00 09 	mov.w	#0x9,r0
  4029ac:	5e 40 25 44 	jsr	@0x402544:24

004029b0 <.LM86>:
/home/syscall.c:142
  return param.un.send.ret;
  4029b0:	6f 62 ff f0 	mov.w	@(0xfff0:16,er6),r2

004029b4 <.LM87>:
/home/syscall.c:143
}
  4029b4:	0d 20       	mov.w	r2,r0
  4029b6:	7a 17 00 00 	add.l	#0x20,er7
  4029ba:	00 20 
  4029bc:	01 00 6d 76 	mov.l	@er7+,er6
  4029c0:	54 70       	rts	

004029c2 <_kzmem_init_pool>:
kzmem_init_pool():
/home/memory.c:31

#define MEMORY_AREA_NUM (sizeof(pool) / sizeof(*pool))

/* メモリ・プールの初期化 */
static int kzmem_init_pool(kzmem_pool *p)
{
  4029c2:	01 00 6d f6 	mov.l	er6,@-er7
  4029c6:	0f f6       	mov.l	er7,er6
  4029c8:	7a 37 00 00 	sub.l	#0x10,er7
  4029cc:	00 10 
  4029ce:	01 00 6f e0 	mov.l	er0,@(0xfff0:16,er6)
  4029d2:	ff f0 

004029d4 <.LM2>:
/home/memory.c:38
  kzmem_block *mp;
  kzmem_block **mpp;
  extern char freearea; /* リンカ・スクリプトで定義される空き領域 */
  static char *area = &freearea;

  mp = (kzmem_block *)area;
  4029d4:	01 00 6b 22 	mov.l	@0x404208:32,er2
  4029d8:	00 40 42 08 
  4029dc:	01 00 6f e2 	mov.l	er2,@(0xfff8:16,er6)
  4029e0:	ff f8 

004029e2 <.LM3>:
/home/memory.c:41

  /* 個々の領域をすべて解放済みリンクリストに繋ぐ */
  mpp = &p->free;
  4029e2:	01 00 6f 62 	mov.l	@(0xfff0:16,er6),er2
  4029e6:	ff f0 
  4029e8:	0b 92       	adds	#4,er2
  4029ea:	01 00 6f e2 	mov.l	er2,@(0xfff4:16,er6)
  4029ee:	ff f4 

004029f0 <.LM4>:
/home/memory.c:42
  for (i = 0; i < p->num; i++) {
  4029f0:	19 22       	sub.w	r2,r2
  4029f2:	6f e2 ff fe 	mov.w	r2,@(0xfffe:16,er6)
  4029f6:	58 00 00 7e 	bra	.+126 (0x402a78)

004029fa <.L3>:
/home/memory.c:43 (discriminator 3)
    *mpp = mp;
  4029fa:	01 00 6f 62 	mov.l	@(0xfff4:16,er6),er2
  4029fe:	ff f4 
  402a00:	01 00 6f 63 	mov.l	@(0xfff8:16,er6),er3
  402a04:	ff f8 
  402a06:	01 00 69 a3 	mov.l	er3,@er2

00402a0a <.LM6>:
/home/memory.c:44
    memset(mp, 0, sizeof(*mp));
  402a0a:	01 00 6f 63 	mov.l	@(0xfff8:16,er6),er3
  402a0e:	ff f8 
  402a10:	1a a2       	sub.l	er2,er2
  402a12:	8a 08       	add.b	#0x8,r2l
  402a14:	19 11       	sub.w	r1,r1
  402a16:	0f b0       	mov.l	er3,er0
  402a18:	5e 40 03 a0 	jsr	@0x4003a0:24

00402a1c <.LM7>:
/home/memory.c:45
    mp->size = p->size;
  402a1c:	01 00 6f 62 	mov.l	@(0xfff0:16,er6),er2
  402a20:	ff f0 
  402a22:	69 23       	mov.w	@er2,r3
  402a24:	01 00 6f 62 	mov.l	@(0xfff8:16,er6),er2
  402a28:	ff f8 
  402a2a:	6f a3 00 04 	mov.w	r3,@(0x4:16,er2)

00402a2e <.LM8>:
/home/memory.c:46
    mpp = &(mp->next);
  402a2e:	01 00 6f 62 	mov.l	@(0xfff8:16,er6),er2
  402a32:	ff f8 
  402a34:	01 00 6f e2 	mov.l	er2,@(0xfff4:16,er6)
  402a38:	ff f4 

00402a3a <.LM9>:
/home/memory.c:47
    mp = (kzmem_block *)((char *)mp + p->size);
  402a3a:	01 00 6f 62 	mov.l	@(0xfff0:16,er6),er2
  402a3e:	ff f0 
  402a40:	69 22       	mov.w	@er2,r2
  402a42:	17 f2       	exts.l	er2
  402a44:	01 00 6f 63 	mov.l	@(0xfff8:16,er6),er3
  402a48:	ff f8 
  402a4a:	0a b2       	add.l	er3,er2
  402a4c:	01 00 6f e2 	mov.l	er2,@(0xfff8:16,er6)
  402a50:	ff f8 

00402a52 <.LM10>:
/home/memory.c:48
    area += p->size;
  402a52:	01 00 6b 23 	mov.l	@0x404208:32,er3
  402a56:	00 40 42 08 
  402a5a:	01 00 6f 62 	mov.l	@(0xfff0:16,er6),er2
  402a5e:	ff f0 
  402a60:	69 22       	mov.w	@er2,r2
  402a62:	17 f2       	exts.l	er2
  402a64:	0a b2       	add.l	er3,er2
  402a66:	01 00 6b a2 	mov.l	er2,@0x404208:32
  402a6a:	00 40 42 08 

00402a6e <.LM11>:
/home/memory.c:42
  for (i = 0; i < p->num; i++) {
  402a6e:	6f 62 ff fe 	mov.w	@(0xfffe:16,er6),r2
  402a72:	0b 02       	adds	#1,er2
  402a74:	6f e2 ff fe 	mov.w	r2,@(0xfffe:16,er6)

00402a78 <.L2>:
/home/memory.c:42 (discriminator 1)
  402a78:	01 00 6f 62 	mov.l	@(0xfff0:16,er6),er2
  402a7c:	ff f0 
  402a7e:	6f 22 00 02 	mov.w	@(0x2:16,er2),r2
  402a82:	6f 63 ff fe 	mov.w	@(0xfffe:16,er6),r3
  402a86:	1d 23       	cmp.w	r2,r3
  402a88:	58 d0 ff 6e 	blt	.-146 (0x4029fa)

00402a8c <.LM13>:
/home/memory.c:51
  }

  return 0;
  402a8c:	19 22       	sub.w	r2,r2

00402a8e <.LM14>:
/home/memory.c:52
}
  402a8e:	0d 20       	mov.w	r2,r0
  402a90:	7a 17 00 00 	add.l	#0x10,er7
  402a94:	00 10 
  402a96:	01 00 6d 76 	mov.l	@er7+,er6
  402a9a:	54 70       	rts	

00402a9c <_kzmem_init>:
kzmem_init():
/home/memory.c:56

/* 動的メモリの初期化 */
int kzmem_init(void)
{
  402a9c:	01 00 6d f6 	mov.l	er6,@-er7
  402aa0:	0f f6       	mov.l	er7,er6
  402aa2:	1b 97       	subs	#4,er7

00402aa4 <.LM16>:
/home/memory.c:58
  int i;
  for (i = 0; i < MEMORY_AREA_NUM; i++) {
  402aa4:	19 22       	sub.w	r2,r2
  402aa6:	6f e2 ff fe 	mov.w	r2,@(0xfffe:16,er6)
  402aaa:	40 22       	bra	.+34 (0x402ace)

00402aac <.L7>:
/home/memory.c:59 (discriminator 3)
    kzmem_init_pool(&pool[i]); /* 各メモリ・プールを初期化する */
  402aac:	6f 62 ff fe 	mov.w	@(0xfffe:16,er6),r2
  402ab0:	17 f2       	exts.l	er2
  402ab2:	10 32       	shll.l	er2
  402ab4:	10 32       	shll.l	er2
  402ab6:	10 32       	shll.l	er2
  402ab8:	7a 12 00 40 	add.l	#0x4041e8,er2
  402abc:	41 e8 
  402abe:	0f a0       	mov.l	er2,er0
  402ac0:	5e 40 29 c2 	jsr	@0x4029c2:24

00402ac4 <.LM18>:
/home/memory.c:58
  for (i = 0; i < MEMORY_AREA_NUM; i++) {
  402ac4:	6f 62 ff fe 	mov.w	@(0xfffe:16,er6),r2
  402ac8:	0b 02       	adds	#1,er2
  402aca:	6f e2 ff fe 	mov.w	r2,@(0xfffe:16,er6)

00402ace <.L6>:
/home/memory.c:58 (discriminator 1)
  402ace:	6f 62 ff fe 	mov.w	@(0xfffe:16,er6),r2
  402ad2:	79 22 00 03 	cmp.w	#0x3,r2
  402ad6:	43 d4       	bls	.-44 (0x402aac)

00402ad8 <.LM20>:
/home/memory.c:61
  }
  return 0;
  402ad8:	19 22       	sub.w	r2,r2

00402ada <.LM21>:
/home/memory.c:62
}
  402ada:	0d 20       	mov.w	r2,r0
  402adc:	0b 97       	adds	#4,er7
  402ade:	01 00 6d 76 	mov.l	@er7+,er6
  402ae2:	54 70       	rts	

00402ae4 <_kzmem_alloc>:
kzmem_alloc():
/home/memory.c:66

/* 動的メモリの獲得 */
void *kzmem_alloc(int size)
{
  402ae4:	01 00 6d f6 	mov.l	er6,@-er7
  402ae8:	0f f6       	mov.l	er7,er6
  402aea:	7a 37 00 00 	sub.l	#0x10,er7
  402aee:	00 10 
  402af0:	6f e0 ff f2 	mov.w	r0,@(0xfff2:16,er6)

00402af4 <.LM23>:
/home/memory.c:71
  int i;
  kzmem_block *mp;
  kzmem_pool *p;

  for (i = 0; i < MEMORY_AREA_NUM; i++) {
  402af4:	19 22       	sub.w	r2,r2
  402af6:	6f e2 ff fe 	mov.w	r2,@(0xfffe:16,er6)
  402afa:	58 00 00 9a 	bra	.+154 (0x402b98)

00402afe <.L14>:
/home/memory.c:72
    p = &pool[i];
  402afe:	6f 62 ff fe 	mov.w	@(0xfffe:16,er6),r2
  402b02:	17 f2       	exts.l	er2
  402b04:	10 32       	shll.l	er2
  402b06:	10 32       	shll.l	er2
  402b08:	10 32       	shll.l	er2
  402b0a:	7a 12 00 40 	add.l	#0x4041e8,er2
  402b0e:	41 e8 
  402b10:	01 00 6f e2 	mov.l	er2,@(0xfff8:16,er6)
  402b14:	ff f8 

00402b16 <.LM25>:
/home/memory.c:73
    if (size <= p->size - sizeof(kzmem_block)) {
  402b16:	6f 62 ff f2 	mov.w	@(0xfff2:16,er6),r2
  402b1a:	0d 23       	mov.w	r2,r3
  402b1c:	17 f3       	exts.l	er3
  402b1e:	01 00 6f 62 	mov.l	@(0xfff8:16,er6),er2
  402b22:	ff f8 
  402b24:	69 22       	mov.w	@er2,r2
  402b26:	17 f2       	exts.l	er2
  402b28:	1b 92       	subs	#4,er2
  402b2a:	1b 92       	subs	#4,er2
  402b2c:	1f a3       	cmp.l	er2,er3
  402b2e:	42 5e       	bhi	.+94 (0x402b8e)

00402b30 <.LM26>:
/home/memory.c:74
      if (p->free == NULL) { /* 解放済み領域が無い(メモリ・ブロック不足) */
  402b30:	01 00 6f 62 	mov.l	@(0xfff8:16,er6),er2
  402b34:	ff f8 
  402b36:	01 00 6f 22 	mov.l	@(0x4:16,er2),er2
  402b3a:	00 04 
  402b3c:	0f a2       	mov.l	er2,er2
  402b3e:	46 08       	bne	.+8 (0x402b48)

00402b40 <.LM27>:
/home/memory.c:75
	kz_sysdown();
  402b40:	5e 40 24 ea 	jsr	@0x4024ea:24

00402b44 <.LM28>:
/home/memory.c:76
	return NULL;
  402b44:	1a a2       	sub.l	er2,er2
  402b46:	40 62       	bra	.+98 (0x402baa)

00402b48 <.L12>:
/home/memory.c:79
      }
      /* 解放済みリンクリストから領域を取得する */
      mp = p->free;
  402b48:	01 00 6f 62 	mov.l	@(0xfff8:16,er6),er2
  402b4c:	ff f8 
  402b4e:	01 00 6f 22 	mov.l	@(0x4:16,er2),er2
  402b52:	00 04 
  402b54:	01 00 6f e2 	mov.l	er2,@(0xfff4:16,er6)
  402b58:	ff f4 

00402b5a <.LM30>:
/home/memory.c:80
      p->free = p->free->next;
  402b5a:	01 00 6f 62 	mov.l	@(0xfff8:16,er6),er2
  402b5e:	ff f8 
  402b60:	01 00 6f 22 	mov.l	@(0x4:16,er2),er2
  402b64:	00 04 
  402b66:	01 00 69 23 	mov.l	@er2,er3
  402b6a:	01 00 6f 62 	mov.l	@(0xfff8:16,er6),er2
  402b6e:	ff f8 
  402b70:	01 00 6f a3 	mov.l	er3,@(0x4:16,er2)
  402b74:	00 04 

00402b76 <.LM31>:
/home/memory.c:81
      mp->next = NULL;
  402b76:	01 00 6f 62 	mov.l	@(0xfff4:16,er6),er2
  402b7a:	ff f4 
  402b7c:	1a b3       	sub.l	er3,er3
  402b7e:	01 00 69 a3 	mov.l	er3,@er2

00402b82 <.LM32>:
/home/memory.c:87

      /*
       * 実際に利用可能な領域は，メモリ・ブロック構造体の直後の領域に
       * なるので，直後のアドレスを返す．
       */
      return mp + 1;
  402b82:	01 00 6f 62 	mov.l	@(0xfff4:16,er6),er2
  402b86:	ff f4 
  402b88:	0b 92       	adds	#4,er2
  402b8a:	0b 92       	adds	#4,er2
  402b8c:	40 1c       	bra	.+28 (0x402baa)

00402b8e <.L11>:
/home/memory.c:71 (discriminator 2)
  for (i = 0; i < MEMORY_AREA_NUM; i++) {
  402b8e:	6f 62 ff fe 	mov.w	@(0xfffe:16,er6),r2
  402b92:	0b 02       	adds	#1,er2
  402b94:	6f e2 ff fe 	mov.w	r2,@(0xfffe:16,er6)

00402b98 <.L10>:
/home/memory.c:71 (discriminator 1)
  402b98:	6f 62 ff fe 	mov.w	@(0xfffe:16,er6),r2
  402b9c:	79 22 00 03 	cmp.w	#0x3,r2
  402ba0:	58 30 ff 5a 	bls	.-166 (0x402afe)

00402ba4 <.LM35>:
/home/memory.c:92
    }
  }

  /* 指定されたサイズの領域を格納できるメモリ・プールが無い */
  kz_sysdown();
  402ba4:	5e 40 24 ea 	jsr	@0x4024ea:24

00402ba8 <.LM36>:
/home/memory.c:93
  return NULL;
  402ba8:	1a a2       	sub.l	er2,er2

00402baa <.L13>:
/home/memory.c:94
}
  402baa:	0f a0       	mov.l	er2,er0
  402bac:	7a 17 00 00 	add.l	#0x10,er7
  402bb0:	00 10 
  402bb2:	01 00 6d 76 	mov.l	@er7+,er6
  402bb6:	54 70       	rts	

00402bb8 <_kzmem_free>:
kzmem_free():
/home/memory.c:98

/* メモリの解放 */
void kzmem_free(void *mem)
{
  402bb8:	01 00 6d f6 	mov.l	er6,@-er7
  402bbc:	0f f6       	mov.l	er7,er6
  402bbe:	7a 37 00 00 	sub.l	#0x10,er7
  402bc2:	00 10 
  402bc4:	01 00 6f e0 	mov.l	er0,@(0xfff0:16,er6)
  402bc8:	ff f0 

00402bca <.LM39>:
/home/memory.c:104
  int i;
  kzmem_block *mp;
  kzmem_pool *p;

  /* 領域の直前にある(はずの)メモリ・ブロック構造体を取得 */
  mp = ((kzmem_block *)mem - 1);
  402bca:	01 00 6f 62 	mov.l	@(0xfff0:16,er6),er2
  402bce:	ff f0 
  402bd0:	1b 92       	subs	#4,er2
  402bd2:	1b 92       	subs	#4,er2
  402bd4:	01 00 6f e2 	mov.l	er2,@(0xfff8:16,er6)
  402bd8:	ff f8 

00402bda <.LM40>:
/home/memory.c:106

  for (i = 0; i < MEMORY_AREA_NUM; i++) {
  402bda:	19 22       	sub.w	r2,r2
  402bdc:	6f e2 ff fe 	mov.w	r2,@(0xfffe:16,er6)
  402be0:	40 62       	bra	.+98 (0x402c44)

00402be2 <.L19>:
/home/memory.c:107
    p = &pool[i];
  402be2:	6f 62 ff fe 	mov.w	@(0xfffe:16,er6),r2
  402be6:	17 f2       	exts.l	er2
  402be8:	10 32       	shll.l	er2
  402bea:	10 32       	shll.l	er2
  402bec:	10 32       	shll.l	er2
  402bee:	7a 12 00 40 	add.l	#0x4041e8,er2
  402bf2:	41 e8 
  402bf4:	01 00 6f e2 	mov.l	er2,@(0xfff4:16,er6)
  402bf8:	ff f4 

00402bfa <.LM42>:
/home/memory.c:108
    if (mp->size == p->size) {
  402bfa:	01 00 6f 62 	mov.l	@(0xfff8:16,er6),er2
  402bfe:	ff f8 
  402c00:	6f 23 00 04 	mov.w	@(0x4:16,er2),r3
  402c04:	01 00 6f 62 	mov.l	@(0xfff4:16,er6),er2
  402c08:	ff f4 
  402c0a:	69 22       	mov.w	@er2,r2
  402c0c:	1d 23       	cmp.w	r2,r3
  402c0e:	46 2a       	bne	.+42 (0x402c3a)

00402c10 <.LM43>:
/home/memory.c:110
      /* 領域を解放済みリンクリストに戻す */
      mp->next = p->free;
  402c10:	01 00 6f 62 	mov.l	@(0xfff4:16,er6),er2
  402c14:	ff f4 
  402c16:	01 00 6f 23 	mov.l	@(0x4:16,er2),er3
  402c1a:	00 04 
  402c1c:	01 00 6f 62 	mov.l	@(0xfff8:16,er6),er2
  402c20:	ff f8 
  402c22:	01 00 69 a3 	mov.l	er3,@er2

00402c26 <.LM44>:
/home/memory.c:111
      p->free = mp;
  402c26:	01 00 6f 62 	mov.l	@(0xfff4:16,er6),er2
  402c2a:	ff f4 
  402c2c:	01 00 6f 63 	mov.l	@(0xfff8:16,er6),er3
  402c30:	ff f8 
  402c32:	01 00 6f a3 	mov.l	er3,@(0x4:16,er2)
  402c36:	00 04 

00402c38 <.LM45>:
/home/memory.c:112
      return;
  402c38:	40 18       	bra	.+24 (0x402c52)

00402c3a <.L17>:
/home/memory.c:106 (discriminator 2)
  for (i = 0; i < MEMORY_AREA_NUM; i++) {
  402c3a:	6f 62 ff fe 	mov.w	@(0xfffe:16,er6),r2
  402c3e:	0b 02       	adds	#1,er2
  402c40:	6f e2 ff fe 	mov.w	r2,@(0xfffe:16,er6)

00402c44 <.L16>:
/home/memory.c:106 (discriminator 1)
  402c44:	6f 62 ff fe 	mov.w	@(0xfffe:16,er6),r2
  402c48:	79 22 00 03 	cmp.w	#0x3,r2
  402c4c:	43 94       	bls	.-108 (0x402be2)

00402c4e <.LM48>:
/home/memory.c:116
    }
  }

  kz_sysdown();
  402c4e:	5e 40 24 ea 	jsr	@0x4024ea:24

00402c52 <.L15>:
/home/memory.c:117
}
  402c52:	7a 17 00 00 	add.l	#0x10,er7
  402c56:	00 10 
  402c58:	01 00 6d 76 	mov.l	@er7+,er6
  402c5c:	54 70       	rts	

00402c5e <_send_use>:
send_use():
/home/command.c:9
#include "timerdrv.h"
#include "lib.h"

/* コンソール・ドライバの使用開始をコンソール・ドライバに依頼する */
static void send_use(int index)
{
  402c5e:	01 00 6d f6 	mov.l	er6,@-er7
  402c62:	0f f6       	mov.l	er7,er6
  402c64:	7a 37 00 00 	sub.l	#0x8,er7
  402c68:	00 08 
  402c6a:	6f e0 ff fa 	mov.w	r0,@(0xfffa:16,er6)

00402c6e <.LM2>:
/home/command.c:11
  char *p;
  p = kz_kmalloc(3);
  402c6e:	79 00 00 03 	mov.w	#0x3,r0
  402c72:	5e 40 27 1c 	jsr	@0x40271c:24
  402c76:	01 00 6f e0 	mov.l	er0,@(0xfffc:16,er6)
  402c7a:	ff fc 

00402c7c <.LM3>:
/home/command.c:12
  p[0] = '0';
  402c7c:	01 00 6f 62 	mov.l	@(0xfffc:16,er6),er2
  402c80:	ff fc 
  402c82:	fb 30       	mov.b	#0x30,r3l
  402c84:	68 ab       	mov.b	r3l,@er2

00402c86 <.LM4>:
/home/command.c:13
  p[1] = CONSDRV_CMD_USE;
  402c86:	01 00 6f 62 	mov.l	@(0xfffc:16,er6),er2
  402c8a:	ff fc 
  402c8c:	0b 02       	adds	#1,er2
  402c8e:	fb 75       	mov.b	#0x75,r3l
  402c90:	68 ab       	mov.b	r3l,@er2

00402c92 <.LM5>:
/home/command.c:14
  p[2] = '0' + index;
  402c92:	6f 62 ff fa 	mov.w	@(0xfffa:16,er6),r2
  402c96:	0c ab       	mov.b	r2l,r3l
  402c98:	01 00 6f 62 	mov.l	@(0xfffc:16,er6),er2
  402c9c:	ff fc 
  402c9e:	0b 82       	adds	#2,er2
  402ca0:	8b 30       	add.b	#0x30,r3l
  402ca2:	68 ab       	mov.b	r3l,@er2

00402ca4 <.LM6>:
/home/command.c:15
  kz_send(MSGBOX_ID_CONSOUTPUT, 3, p);
  402ca4:	01 00 6f 62 	mov.l	@(0xfffc:16,er6),er2
  402ca8:	ff fc 
  402caa:	79 01 00 03 	mov.w	#0x3,r1
  402cae:	79 00 00 01 	mov.w	#0x1,r0
  402cb2:	5e 40 27 9c 	jsr	@0x40279c:24

00402cb6 <.LM7>:
/home/command.c:16
}
  402cb6:	00 00       	nop	
  402cb8:	0b 97       	adds	#4,er7
  402cba:	0b 97       	adds	#4,er7
  402cbc:	01 00 6d 76 	mov.l	@er7+,er6
  402cc0:	54 70       	rts	

00402cc2 <_send_write>:
send_write():
/home/command.c:20

/* コンソールへの文字列出力をコンソール・ドライバに依頼する */
static void send_write(char *str)
{
  402cc2:	01 00 6d f6 	mov.l	er6,@-er7
  402cc6:	0f f6       	mov.l	er7,er6
  402cc8:	7a 37 00 00 	sub.l	#0xc,er7
  402ccc:	00 0c 
  402cce:	01 00 6f e0 	mov.l	er0,@(0xfff4:16,er6)
  402cd2:	ff f4 

00402cd4 <.LM9>:
/home/command.c:23
  char *p;
  int len;
  len = strlen(str);
  402cd4:	01 00 6f 62 	mov.l	@(0xfff4:16,er6),er2
  402cd8:	ff f4 
  402cda:	0f a0       	mov.l	er2,er0
  402cdc:	5e 40 05 44 	jsr	@0x400544:24
  402ce0:	6f e0 ff fe 	mov.w	r0,@(0xfffe:16,er6)

00402ce4 <.LM10>:
/home/command.c:24
  p = kz_kmalloc(len + 2);
  402ce4:	6f 62 ff fe 	mov.w	@(0xfffe:16,er6),r2
  402ce8:	0b 82       	adds	#2,er2
  402cea:	0d 20       	mov.w	r2,r0
  402cec:	5e 40 27 1c 	jsr	@0x40271c:24
  402cf0:	01 00 6f e0 	mov.l	er0,@(0xfff8:16,er6)
  402cf4:	ff f8 

00402cf6 <.LM11>:
/home/command.c:25
  p[0] = '0';
  402cf6:	01 00 6f 62 	mov.l	@(0xfff8:16,er6),er2
  402cfa:	ff f8 
  402cfc:	fb 30       	mov.b	#0x30,r3l
  402cfe:	68 ab       	mov.b	r3l,@er2

00402d00 <.LM12>:
/home/command.c:26
  p[1] = CONSDRV_CMD_WRITE;
  402d00:	01 00 6f 62 	mov.l	@(0xfff8:16,er6),er2
  402d04:	ff f8 
  402d06:	0b 02       	adds	#1,er2
  402d08:	fb 77       	mov.b	#0x77,r3l
  402d0a:	68 ab       	mov.b	r3l,@er2

00402d0c <.LM13>:
/home/command.c:27
  memcpy(&p[2], str, len);
  402d0c:	6f 62 ff fe 	mov.w	@(0xfffe:16,er6),r2
  402d10:	0d 21       	mov.w	r2,r1
  402d12:	17 f1       	exts.l	er1
  402d14:	01 00 6f 62 	mov.l	@(0xfff8:16,er6),er2
  402d18:	ff f8 
  402d1a:	0f a3       	mov.l	er2,er3
  402d1c:	0b 83       	adds	#2,er3
  402d1e:	01 00 6f 60 	mov.l	@(0xfff4:16,er6),er0
  402d22:	ff f4 
  402d24:	0f 92       	mov.l	er1,er2
  402d26:	0f 81       	mov.l	er0,er1
  402d28:	0f b0       	mov.l	er3,er0
  402d2a:	5e 40 04 0c 	jsr	@0x40040c:24

00402d2e <.LM14>:
/home/command.c:28
  kz_send(MSGBOX_ID_CONSOUTPUT, len + 2, p);
  402d2e:	6f 62 ff fe 	mov.w	@(0xfffe:16,er6),r2
  402d32:	0d 23       	mov.w	r2,r3
  402d34:	0b 83       	adds	#2,er3
  402d36:	01 00 6f 62 	mov.l	@(0xfff8:16,er6),er2
  402d3a:	ff f8 
  402d3c:	0d 31       	mov.w	r3,r1
  402d3e:	79 00 00 01 	mov.w	#0x1,r0
  402d42:	5e 40 27 9c 	jsr	@0x40279c:24

00402d46 <.LM15>:
/home/command.c:29
}
  402d46:	00 00       	nop	
  402d48:	7a 17 00 00 	add.l	#0xc,er7
  402d4c:	00 0c 
  402d4e:	01 00 6d 76 	mov.l	@er7+,er6
  402d52:	54 70       	rts	

00402d54 <_send_start>:
send_start():
/home/command.c:33

/* タイマのカウント開始をタイマ・ドライバに依頼する */
static void send_start(int msec)
{
  402d54:	01 00 6d f6 	mov.l	er6,@-er7
  402d58:	0f f6       	mov.l	er7,er6
  402d5a:	7a 37 00 00 	sub.l	#0x8,er7
  402d5e:	00 08 
  402d60:	6f e0 ff fa 	mov.w	r0,@(0xfffa:16,er6)

00402d64 <.LM17>:
/home/command.c:35
  struct timerreq *req;
  req = kz_kmalloc(sizeof(*req));
  402d64:	79 00 00 04 	mov.w	#0x4,r0
  402d68:	5e 40 27 1c 	jsr	@0x40271c:24
  402d6c:	01 00 6f e0 	mov.l	er0,@(0xfffc:16,er6)
  402d70:	ff fc 

00402d72 <.LM18>:
/home/command.c:36
  req->id = MSGBOX_ID_CONSINPUT;
  402d72:	01 00 6f 62 	mov.l	@(0xfffc:16,er6),er2
  402d76:	ff fc 
  402d78:	19 33       	sub.w	r3,r3
  402d7a:	69 a3       	mov.w	r3,@er2

00402d7c <.LM19>:
/home/command.c:37
  req->msec = msec;
  402d7c:	01 00 6f 62 	mov.l	@(0xfffc:16,er6),er2
  402d80:	ff fc 
  402d82:	6f 63 ff fa 	mov.w	@(0xfffa:16,er6),r3
  402d86:	6f a3 00 02 	mov.w	r3,@(0x2:16,er2)

00402d8a <.LM20>:
/home/command.c:38
  kz_send(MSGBOX_ID_TIMDRIVE, TIMERDRV_CMD_START, (char *)req);
  402d8a:	01 00 6f 62 	mov.l	@(0xfffc:16,er6),er2
  402d8e:	ff fc 
  402d90:	79 01 00 73 	mov.w	#0x73,r1
  402d94:	79 00 00 02 	mov.w	#0x2,r0
  402d98:	5e 40 27 9c 	jsr	@0x40279c:24

00402d9c <.LM21>:
/home/command.c:39
}
  402d9c:	00 00       	nop	
  402d9e:	0b 97       	adds	#4,er7
  402da0:	0b 97       	adds	#4,er7
  402da2:	01 00 6d 76 	mov.l	@er7+,er6
  402da6:	54 70       	rts	

00402da8 <_command_main>:
command_main():
/home/command.c:42

int command_main(int argc, char *argv[])
{
  402da8:	01 00 6d f6 	mov.l	er6,@-er7
  402dac:	0f f6       	mov.l	er7,er6
  402dae:	7a 37 00 00 	sub.l	#0x10,er7
  402db2:	00 10 
  402db4:	6f e0 ff f6 	mov.w	r0,@(0xfff6:16,er6)
  402db8:	01 00 6f e1 	mov.l	er1,@(0xfff0:16,er6)
  402dbc:	ff f0 

00402dbe <.LM23>:
/home/command.c:46
  char *p;
  int size;

  send_use(SERIAL_DEFAULT_DEVICE);
  402dbe:	79 00 00 01 	mov.w	#0x1,r0
  402dc2:	5e 40 2c 5e 	jsr	@0x402c5e:24

00402dc6 <.L10>:
/home/command.c:49

  while (1) {
    send_write("command> "); /* プロンプト表示 */
  402dc6:	7a 00 00 40 	mov.l	#0x404160,er0
  402dca:	41 60 
  402dcc:	5e 40 2c c2 	jsr	@0x402cc2:24

00402dd0 <.LM25>:
/home/command.c:52

    /* コンソールからの受信文字列を受け取る */
    kz_recv(MSGBOX_ID_CONSINPUT, &size, &p);
  402dd0:	0f e2       	mov.l	er6,er2
  402dd2:	1b 92       	subs	#4,er2
  402dd4:	0f e3       	mov.l	er6,er3
  402dd6:	1b 93       	subs	#4,er3
  402dd8:	1b 83       	subs	#2,er3
  402dda:	0f b1       	mov.l	er3,er1
  402ddc:	19 00       	sub.w	r0,r0
  402dde:	5e 40 27 f6 	jsr	@0x4027f6:24

00402de2 <.LM26>:
/home/command.c:53
    if (p == NULL) {
  402de2:	01 00 6f 62 	mov.l	@(0xfffc:16,er6),er2
  402de6:	ff fc 
  402de8:	0f a2       	mov.l	er2,er2
  402dea:	46 0e       	bne	.+14 (0x402dfa)

00402dec <.LM27>:
/home/command.c:54
      send_write("expired.\n");
  402dec:	7a 00 00 40 	mov.l	#0x40416a,er0
  402df0:	41 6a 
  402df2:	5e 40 2c c2 	jsr	@0x402cc2:24

00402df6 <.LM28>:
/home/command.c:55
      continue;
  402df6:	58 00 00 8e 	bra	.+142 (0x402e88)

00402dfa <.L5>:
/home/command.c:57
    }
    p[size] = '\0';
  402dfa:	01 00 6f 63 	mov.l	@(0xfffc:16,er6),er3
  402dfe:	ff fc 
  402e00:	6f 62 ff fa 	mov.w	@(0xfffa:16,er6),r2
  402e04:	17 f2       	exts.l	er2
  402e06:	0a b2       	add.l	er3,er2
  402e08:	18 bb       	sub.b	r3l,r3l
  402e0a:	68 ab       	mov.b	r3l,@er2

00402e0c <.LM30>:
/home/command.c:59

    if (!strncmp(p, "echo", 4)) { /* echoコマンド */
  402e0c:	01 00 6f 63 	mov.l	@(0xfffc:16,er6),er3
  402e10:	ff fc 
  402e12:	79 02 00 04 	mov.w	#0x4,r2
  402e16:	7a 01 00 40 	mov.l	#0x404174,er1
  402e1a:	41 74 
  402e1c:	0f b0       	mov.l	er3,er0
  402e1e:	5e 40 06 96 	jsr	@0x400696:24
  402e22:	0d 02       	mov.w	r0,r2
  402e24:	0d 22       	mov.w	r2,r2
  402e26:	46 1a       	bne	.+26 (0x402e42)

00402e28 <.LM31>:
/home/command.c:60
      send_write(p + 4); /* echoに続く文字列を出力する */
  402e28:	01 00 6f 62 	mov.l	@(0xfffc:16,er6),er2
  402e2c:	ff fc 
  402e2e:	0b 92       	adds	#4,er2
  402e30:	0f a0       	mov.l	er2,er0
  402e32:	5e 40 2c c2 	jsr	@0x402cc2:24

00402e36 <.LM32>:
/home/command.c:61
      send_write("\n");
  402e36:	7a 00 00 40 	mov.l	#0x404179,er0
  402e3a:	41 79 
  402e3c:	5e 40 2c c2 	jsr	@0x402cc2:24
  402e40:	40 3a       	bra	.+58 (0x402e7c)

00402e42 <.L7>:
/home/command.c:62
    } else if (!strncmp(p, "timer", 4)) { /* timerコマンド */
  402e42:	01 00 6f 63 	mov.l	@(0xfffc:16,er6),er3
  402e46:	ff fc 
  402e48:	79 02 00 04 	mov.w	#0x4,r2
  402e4c:	7a 01 00 40 	mov.l	#0x40417b,er1
  402e50:	41 7b 
  402e52:	0f b0       	mov.l	er3,er0
  402e54:	5e 40 06 96 	jsr	@0x400696:24
  402e58:	0d 02       	mov.w	r0,r2
  402e5a:	0d 22       	mov.w	r2,r2
  402e5c:	46 14       	bne	.+20 (0x402e72)

00402e5e <.LM34>:
/home/command.c:63
      send_write("timer start.\n");
  402e5e:	7a 00 00 40 	mov.l	#0x404181,er0
  402e62:	41 81 
  402e64:	5e 40 2c c2 	jsr	@0x402cc2:24

00402e68 <.LM35>:
/home/command.c:64
      send_start(1000);
  402e68:	79 00 03 e8 	mov.w	#0x3e8,r0
  402e6c:	5e 40 2d 54 	jsr	@0x402d54:24
  402e70:	40 0a       	bra	.+10 (0x402e7c)

00402e72 <.L9>:
/home/command.c:66
    } else {
      send_write("unknown.\n");
  402e72:	7a 00 00 40 	mov.l	#0x40418f,er0
  402e76:	41 8f 
  402e78:	5e 40 2c c2 	jsr	@0x402cc2:24

00402e7c <.L8>:
/home/command.c:69
    }

    kz_kmfree(p);
  402e7c:	01 00 6f 62 	mov.l	@(0xfffc:16,er6),er2
  402e80:	ff fc 
  402e82:	0f a0       	mov.l	er2,er0
  402e84:	5e 40 27 5a 	jsr	@0x40275a:24

00402e88 <.L6>:
/home/command.c:49
    send_write("command> "); /* プロンプト表示 */
  402e88:	58 00 ff 3a 	bra	.-198 (0x402dc6)

00402e8c <_send_start>:
send_start():
/home/clock.c:9
#include "timerdrv.h"
#include "lib.h"

/* タイマのカウント開始をタイマ・ドライバに依頼する */
static void send_start(int msec)
{
  402e8c:	01 00 6d f6 	mov.l	er6,@-er7
  402e90:	0f f6       	mov.l	er7,er6
  402e92:	7a 37 00 00 	sub.l	#0x8,er7
  402e96:	00 08 
  402e98:	6f e0 ff fa 	mov.w	r0,@(0xfffa:16,er6)

00402e9c <.LM2>:
/home/clock.c:11
  struct timerreq *req;
  req = kz_kmalloc(sizeof(*req));
  402e9c:	79 00 00 04 	mov.w	#0x4,r0
  402ea0:	5e 40 27 1c 	jsr	@0x40271c:24
  402ea4:	01 00 6f e0 	mov.l	er0,@(0xfffc:16,er6)
  402ea8:	ff fc 

00402eaa <.LM3>:
/home/clock.c:12
  req->id = MSGBOX_ID_TIMEXPIRE;
  402eaa:	01 00 6f 62 	mov.l	@(0xfffc:16,er6),er2
  402eae:	ff fc 
  402eb0:	79 03 00 03 	mov.w	#0x3,r3
  402eb4:	69 a3       	mov.w	r3,@er2

00402eb6 <.LM4>:
/home/clock.c:13
  req->msec = msec;
  402eb6:	01 00 6f 62 	mov.l	@(0xfffc:16,er6),er2
  402eba:	ff fc 
  402ebc:	6f 63 ff fa 	mov.w	@(0xfffa:16,er6),r3
  402ec0:	6f a3 00 02 	mov.w	r3,@(0x2:16,er2)

00402ec4 <.LM5>:
/home/clock.c:14
  kz_send(MSGBOX_ID_TIMDRIVE, TIMERDRV_CMD_START, (char *)req);
  402ec4:	01 00 6f 62 	mov.l	@(0xfffc:16,er6),er2
  402ec8:	ff fc 
  402eca:	79 01 00 73 	mov.w	#0x73,r1
  402ece:	79 00 00 02 	mov.w	#0x2,r0
  402ed2:	5e 40 27 9c 	jsr	@0x40279c:24

00402ed6 <.LM6>:
/home/clock.c:15
}
  402ed6:	00 00       	nop	
  402ed8:	0b 97       	adds	#4,er7
  402eda:	0b 97       	adds	#4,er7
  402edc:	01 00 6d 76 	mov.l	@er7+,er6
  402ee0:	54 70       	rts	

00402ee2 <_send_write>:
send_write():
/home/clock.c:19

/* コンソールへの文字列出力をコンソール・ドライバに依頼する */
static void send_write(char *str)
{
  402ee2:	01 00 6d f6 	mov.l	er6,@-er7
  402ee6:	0f f6       	mov.l	er7,er6
  402ee8:	7a 37 00 00 	sub.l	#0xc,er7
  402eec:	00 0c 
  402eee:	01 00 6f e0 	mov.l	er0,@(0xfff4:16,er6)
  402ef2:	ff f4 

00402ef4 <.LM8>:
/home/clock.c:22
  char *p;
  int len;
  len = strlen(str);
  402ef4:	01 00 6f 62 	mov.l	@(0xfff4:16,er6),er2
  402ef8:	ff f4 
  402efa:	0f a0       	mov.l	er2,er0
  402efc:	5e 40 05 44 	jsr	@0x400544:24
  402f00:	6f e0 ff fe 	mov.w	r0,@(0xfffe:16,er6)

00402f04 <.LM9>:
/home/clock.c:23
  p = kz_kmalloc(len + 2);
  402f04:	6f 62 ff fe 	mov.w	@(0xfffe:16,er6),r2
  402f08:	0b 82       	adds	#2,er2
  402f0a:	0d 20       	mov.w	r2,r0
  402f0c:	5e 40 27 1c 	jsr	@0x40271c:24
  402f10:	01 00 6f e0 	mov.l	er0,@(0xfff8:16,er6)
  402f14:	ff f8 

00402f16 <.LM10>:
/home/clock.c:24
  p[0] = '0';
  402f16:	01 00 6f 62 	mov.l	@(0xfff8:16,er6),er2
  402f1a:	ff f8 
  402f1c:	fb 30       	mov.b	#0x30,r3l
  402f1e:	68 ab       	mov.b	r3l,@er2

00402f20 <.LM11>:
/home/clock.c:25
  p[1] = CONSDRV_CMD_WRITE;
  402f20:	01 00 6f 62 	mov.l	@(0xfff8:16,er6),er2
  402f24:	ff f8 
  402f26:	0b 02       	adds	#1,er2
  402f28:	fb 77       	mov.b	#0x77,r3l
  402f2a:	68 ab       	mov.b	r3l,@er2

00402f2c <.LM12>:
/home/clock.c:26
  memcpy(&p[2], str, len);
  402f2c:	6f 62 ff fe 	mov.w	@(0xfffe:16,er6),r2
  402f30:	0d 21       	mov.w	r2,r1
  402f32:	17 f1       	exts.l	er1
  402f34:	01 00 6f 62 	mov.l	@(0xfff8:16,er6),er2
  402f38:	ff f8 
  402f3a:	0f a3       	mov.l	er2,er3
  402f3c:	0b 83       	adds	#2,er3
  402f3e:	01 00 6f 60 	mov.l	@(0xfff4:16,er6),er0
  402f42:	ff f4 
  402f44:	0f 92       	mov.l	er1,er2
  402f46:	0f 81       	mov.l	er0,er1
  402f48:	0f b0       	mov.l	er3,er0
  402f4a:	5e 40 04 0c 	jsr	@0x40040c:24

00402f4e <.LM13>:
/home/clock.c:27
  kz_send(MSGBOX_ID_CONSOUTPUT, len + 2, p);
  402f4e:	6f 62 ff fe 	mov.w	@(0xfffe:16,er6),r2
  402f52:	0d 23       	mov.w	r2,r3
  402f54:	0b 83       	adds	#2,er3
  402f56:	01 00 6f 62 	mov.l	@(0xfff8:16,er6),er2
  402f5a:	ff f8 
  402f5c:	0d 31       	mov.w	r3,r1
  402f5e:	79 00 00 01 	mov.w	#0x1,r0
  402f62:	5e 40 27 9c 	jsr	@0x40279c:24

00402f66 <.LM14>:
/home/clock.c:28
}
  402f66:	00 00       	nop	
  402f68:	7a 17 00 00 	add.l	#0xc,er7
  402f6c:	00 0c 
  402f6e:	01 00 6d 76 	mov.l	@er7+,er6
  402f72:	54 70       	rts	

00402f74 <_clock_main>:
clock_main():
/home/clock.c:31

int clock_main(int argc, char *argv[])
{
  402f74:	01 00 6d f6 	mov.l	er6,@-er7
  402f78:	0f f6       	mov.l	er7,er6
  402f7a:	7a 37 00 00 	sub.l	#0x8,er7
  402f7e:	00 08 
  402f80:	6f e0 ff fe 	mov.w	r0,@(0xfffe:16,er6)
  402f84:	01 00 6f e1 	mov.l	er1,@(0xfff8:16,er6)
  402f88:	ff f8 

00402f8a <.LM16>:
/home/clock.c:32
  send_start(3000);
  402f8a:	79 00 0b b8 	mov.w	#0xbb8,r0
  402f8e:	5e 40 2e 8c 	jsr	@0x402e8c:24

00402f92 <.L4>:
/home/clock.c:36 (discriminator 1)

  // 3秒ごとにメッセージを表示するタスク
  while (1) {
    kz_recv(MSGBOX_ID_TIMEXPIRE, NULL, NULL);
  402f92:	1a a2       	sub.l	er2,er2
  402f94:	1a 91       	sub.l	er1,er1
  402f96:	79 00 00 03 	mov.w	#0x3,r0
  402f9a:	5e 40 27 f6 	jsr	@0x4027f6:24

00402f9e <.LM18>:
/home/clock.c:37
    send_write("ready.\n");
  402f9e:	7a 00 00 40 	mov.l	#0x404199,er0
  402fa2:	41 99 
  402fa4:	5e 40 2e e2 	jsr	@0x402ee2:24

00402fa8 <.LM19>:
/home/clock.c:38
    send_start(3000);
  402fa8:	79 00 0b b8 	mov.w	#0xbb8,r0
  402fac:	5e 40 2e 8c 	jsr	@0x402e8c:24

00402fb0 <.LM20>:
/home/clock.c:36
    kz_recv(MSGBOX_ID_TIMEXPIRE, NULL, NULL);
  402fb0:	40 e0       	bra	.-32 (0x402f92)

00402fb2 <_calc_checksum>:
calc_checksum():
/home/ip.c:96

// チェックサムエラーで ping 応答を受理してもらえていない？
// ICMP チェックサムと、IP のチェックサム
// ICMP 応答用のチェックサムを計算
static uint16 calc_checksum(int size, void *buf)
{
  402fb2:	01 00 6d f6 	mov.l	er6,@-er7
  402fb6:	0f f6       	mov.l	er7,er6
  402fb8:	7a 37 00 00 	sub.l	#0x14,er7
  402fbc:	00 14 
  402fbe:	6f e0 ff f2 	mov.w	r0,@(0xfff2:16,er6)
  402fc2:	01 00 6f e1 	mov.l	er1,@(0xffec:16,er6)
  402fc6:	ff ec 

00402fc8 <.LM2>:
/home/ip.c:99
  int i;
  uint16 val;
  uint32 sum = 0;
  402fc8:	1a a2       	sub.l	er2,er2
  402fca:	01 00 6f e2 	mov.l	er2,@(0xfff8:16,er6)
  402fce:	ff f8 

00402fd0 <.LM3>:
/home/ip.c:100
  uint16 *p = buf;
  402fd0:	01 00 6f 62 	mov.l	@(0xffec:16,er6),er2
  402fd4:	ff ec 
  402fd6:	01 00 6f e2 	mov.l	er2,@(0xfff4:16,er6)
  402fda:	ff f4 

00402fdc <.LM4>:
/home/ip.c:102

  for (i = 0; i < size; i += sizeof(uint16)) {
  402fdc:	19 22       	sub.w	r2,r2
  402fde:	6f e2 ff fe 	mov.w	r2,@(0xfffe:16,er6)
  402fe2:	40 60       	bra	.+96 (0x403044)

00402fe4 <.L5>:
/home/ip.c:103
    if (size - i == 1)
  402fe4:	6f 63 ff f2 	mov.w	@(0xfff2:16,er6),r3
  402fe8:	6f 62 ff fe 	mov.w	@(0xfffe:16,er6),r2
  402fec:	0d 30       	mov.w	r3,r0
  402fee:	19 20       	sub.w	r2,r0
  402ff0:	0d 02       	mov.w	r0,r2
  402ff2:	79 22 00 01 	cmp.w	#0x1,r2
  402ff6:	46 14       	bne	.+20 (0x40300c)

00402ff8 <.LM6>:
/home/ip.c:104
      val = *(unsigned char *)p << 8;
  402ff8:	01 00 6f 62 	mov.l	@(0xfff4:16,er6),er2
  402ffc:	ff f4 
  402ffe:	68 2a       	mov.b	@er2,r2l
  403000:	17 52       	extu.w	r2
  403002:	0c a2       	mov.b	r2l,r2h
  403004:	18 aa       	sub.b	r2l,r2l
  403006:	6f e2 ff fc 	mov.w	r2,@(0xfffc:16,er6)
  40300a:	40 0c       	bra	.+12 (0x403018)

0040300c <.L3>:
/home/ip.c:106
    else
      val = *p;
  40300c:	01 00 6f 62 	mov.l	@(0xfff4:16,er6),er2
  403010:	ff f4 
  403012:	69 22       	mov.w	@er2,r2
  403014:	6f e2 ff fc 	mov.w	r2,@(0xfffc:16,er6)

00403018 <.L4>:
/home/ip.c:107 (discriminator 2)
    sum += val;
  403018:	6f 62 ff fc 	mov.w	@(0xfffc:16,er6),r2
  40301c:	17 72       	extu.l	er2
  40301e:	01 00 6f 63 	mov.l	@(0xfff8:16,er6),er3
  403022:	ff f8 
  403024:	0a b2       	add.l	er3,er2
  403026:	01 00 6f e2 	mov.l	er2,@(0xfff8:16,er6)
  40302a:	ff f8 

0040302c <.LM9>:
/home/ip.c:108
    p++;
  40302c:	01 00 6f 62 	mov.l	@(0xfff4:16,er6),er2
  403030:	ff f4 
  403032:	0b 82       	adds	#2,er2
  403034:	01 00 6f e2 	mov.l	er2,@(0xfff4:16,er6)
  403038:	ff f4 

0040303a <.LM10>:
/home/ip.c:102
  for (i = 0; i < size; i += sizeof(uint16)) {
  40303a:	6f 62 ff fe 	mov.w	@(0xfffe:16,er6),r2
  40303e:	0b 82       	adds	#2,er2
  403040:	6f e2 ff fe 	mov.w	r2,@(0xfffe:16,er6)

00403044 <.L2>:
/home/ip.c:102 (discriminator 1)
  403044:	6f 63 ff fe 	mov.w	@(0xfffe:16,er6),r3
  403048:	6f 62 ff f2 	mov.w	@(0xfff2:16,er6),r2
  40304c:	1d 23       	cmp.w	r2,r3
  40304e:	4d 94       	blt	.-108 (0x402fe4)

00403050 <.LM12>:
/home/ip.c:111
  }

  while (sum > 0xffff)
  403050:	40 1a       	bra	.+26 (0x40306c)

00403052 <.L7>:
/home/ip.c:112
    sum = ((sum >> 16) & 0xffff) + (sum & 0xffff);
  403052:	01 00 6f 62 	mov.l	@(0xfff8:16,er6),er2
  403056:	ff f8 
  403058:	0d a2       	mov.w	e2,r2
  40305a:	17 72       	extu.l	er2
  40305c:	01 00 6f 63 	mov.l	@(0xfff8:16,er6),er3
  403060:	ff f8 
  403062:	19 bb       	sub.w	e3,e3
  403064:	0a b2       	add.l	er3,er2
  403066:	01 00 6f e2 	mov.l	er2,@(0xfff8:16,er6)
  40306a:	ff f8 

0040306c <.L6>:
/home/ip.c:111
  while (sum > 0xffff)
  40306c:	01 00 6f 62 	mov.l	@(0xfff8:16,er6),er2
  403070:	ff f8 
  403072:	7a 22 00 00 	cmp.l	#0xffff,er2
  403076:	ff ff 
  403078:	42 d8       	bhi	.-40 (0x403052)

0040307a <.LM15>:
/home/ip.c:114

  return ~sum & 0xffff;
  40307a:	01 00 6f 62 	mov.l	@(0xfff8:16,er6),er2
  40307e:	ff f8 
  403080:	17 12       	not.w	r2

00403082 <.LM16>:
/home/ip.c:115
}
  403082:	0d 20       	mov.w	r2,r0
  403084:	7a 17 00 00 	add.l	#0x14,er7
  403088:	00 14 
  40308a:	01 00 6d 76 	mov.l	@er7+,er6
  40308e:	54 70       	rts	

00403090 <_icmp_proc>:
icmp_proc():
/home/ip.c:119

// ICMP パケットを処理
static int icmp_proc(int size, struct icmp_header *hdr)
{
  403090:	01 00 6d f6 	mov.l	er6,@-er7
  403094:	0f f6       	mov.l	er7,er6
  403096:	7a 37 00 00 	sub.l	#0xc,er7
  40309a:	00 0c 
  40309c:	6f e0 ff fa 	mov.w	r0,@(0xfffa:16,er6)
  4030a0:	01 00 6f e1 	mov.l	er1,@(0xfff4:16,er6)
  4030a4:	ff f4 

004030a6 <.LM18>:
/home/ip.c:120
  int ret = 0;
  4030a6:	19 22       	sub.w	r2,r2
  4030a8:	6f e2 ff fe 	mov.w	r2,@(0xfffe:16,er6)

004030ac <.LM19>:
/home/ip.c:122

  switch (hdr->type) {
  4030ac:	01 00 6f 62 	mov.l	@(0xfff4:16,er6),er2
  4030b0:	ff f4 
  4030b2:	68 2a       	mov.b	@er2,r2l
  4030b4:	17 52       	extu.w	r2
  4030b6:	79 22 00 08 	cmp.w	#0x8,r2
  4030ba:	47 02       	beq	.+2 (0x4030be)

004030bc <.LM20>:
/home/ip.c:130
    hdr->checksum = 0;
    hdr->checksum = calc_checksum(size, hdr);
    ret = size;
    break;
  default:
    break;
  4030bc:	40 3e       	bra	.+62 (0x4030fc)

004030be <.L11>:
/home/ip.c:124
    hdr->type = ICMP_TYPE_REPLY;
  4030be:	01 00 6f 62 	mov.l	@(0xfff4:16,er6),er2
  4030c2:	ff f4 
  4030c4:	18 bb       	sub.b	r3l,r3l
  4030c6:	68 ab       	mov.b	r3l,@er2

004030c8 <.LM22>:
/home/ip.c:125
    hdr->checksum = 0;
  4030c8:	01 00 6f 62 	mov.l	@(0xfff4:16,er6),er2
  4030cc:	ff f4 
  4030ce:	19 33       	sub.w	r3,r3
  4030d0:	6f a3 00 02 	mov.w	r3,@(0x2:16,er2)

004030d4 <.LM23>:
/home/ip.c:126
    hdr->checksum = calc_checksum(size, hdr);
  4030d4:	01 00 6f 63 	mov.l	@(0xfff4:16,er6),er3
  4030d8:	ff f4 
  4030da:	6f 62 ff fa 	mov.w	@(0xfffa:16,er6),r2
  4030de:	0f b1       	mov.l	er3,er1
  4030e0:	0d 20       	mov.w	r2,r0
  4030e2:	5e 40 2f b2 	jsr	@0x402fb2:24
  4030e6:	0d 03       	mov.w	r0,r3
  4030e8:	01 00 6f 62 	mov.l	@(0xfff4:16,er6),er2
  4030ec:	ff f4 
  4030ee:	6f a3 00 02 	mov.w	r3,@(0x2:16,er2)

004030f2 <.LM24>:
/home/ip.c:127
    ret = size;
  4030f2:	6f 62 ff fa 	mov.w	@(0xfffa:16,er6),r2
  4030f6:	6f e2 ff fe 	mov.w	r2,@(0xfffe:16,er6)

004030fa <.LM25>:
	...

004030fc <.L12>:
/home/ip.c:133
  }

  return ret;
  4030fc:	6f 62 ff fe 	mov.w	@(0xfffe:16,er6),r2

00403100 <.LM27>:
/home/ip.c:134
}
  403100:	0d 20       	mov.w	r2,r0
  403102:	7a 17 00 00 	add.l	#0xc,er7
  403106:	00 0c 
  403108:	01 00 6d 76 	mov.l	@er7+,er6
  40310c:	54 70       	rts	

0040310e <_ip_proc>:
ip_proc():
/home/ip.c:138

// 通常の IP パケットなら
static int ip_proc(int size, struct ip_header *hdr)
{
  40310e:	01 00 6d f6 	mov.l	er6,@-er7
  403112:	0f f6       	mov.l	er7,er6
  403114:	7a 37 00 00 	sub.l	#0x14,er7
  403118:	00 14 
  40311a:	6f e0 ff f2 	mov.w	r0,@(0xfff2:16,er6)
  40311e:	01 00 6f e1 	mov.l	er1,@(0xffec:16,er6)
  403122:	ff ec 

00403124 <.LM29>:
/home/ip.c:139
  int ret = 0, hdrlen, nextsize;
  403124:	19 22       	sub.w	r2,r2
  403126:	6f e2 ff fe 	mov.w	r2,@(0xfffe:16,er6)

0040312a <.LM30>:
/home/ip.c:143
  void *nexthdr;

  // IPv4 でなければ無視
  if (((hdr->v_hl >> 4) & 0xf) != 4)
  40312a:	01 00 6f 62 	mov.l	@(0xffec:16,er6),er2
  40312e:	ff ec 
  403130:	68 2a       	mov.b	@er2,r2l
  403132:	11 0a       	shlr.b	r2l
  403134:	11 0a       	shlr.b	r2l
  403136:	11 0a       	shlr.b	r2l
  403138:	11 0a       	shlr.b	r2l
  40313a:	17 52       	extu.w	r2
  40313c:	79 62 00 0f 	and.w	#0xf,r2
  403140:	79 22 00 04 	cmp.w	#0x4,r2
  403144:	47 06       	beq	.+6 (0x40314c)

00403146 <.LM31>:
/home/ip.c:144
    return 0;
  403146:	19 22       	sub.w	r2,r2
  403148:	58 00 01 3e 	bra	.+318 (0x40328a)

0040314c <.L15>:
/home/ip.c:146
  // 宛先アドレスが自分でなければ無視
  if (memcmp(hdr->dst_addr, &ipaddr, IPADDR_SIZE))
  40314c:	01 00 6f 62 	mov.l	@(0xffec:16,er6),er2
  403150:	ff ec 
  403152:	0f a3       	mov.l	er2,er3
  403154:	7a 13 00 00 	add.l	#0x10,er3
  403158:	00 10 
  40315a:	1a a2       	sub.l	er2,er2
  40315c:	8a 04       	add.b	#0x4,r2l
  40315e:	7a 01 00 40 	mov.l	#0x40420c,er1
  403162:	42 0c 
  403164:	0f b0       	mov.l	er3,er0
  403166:	5e 40 04 94 	jsr	@0x400494:24
  40316a:	0d 02       	mov.w	r0,r2
  40316c:	0d 22       	mov.w	r2,r2
  40316e:	47 06       	beq	.+6 (0x403176)

00403170 <.LM33>:
/home/ip.c:147
    return 0;
  403170:	19 22       	sub.w	r2,r2
  403172:	58 00 01 14 	bra	.+276 (0x40328a)

00403176 <.L17>:
/home/ip.c:151

  // HL(header length) は、32ビット(4バイト)ワードが何個あるか？を表す
  // 4倍している
  hdrlen = (hdr->v_hl & 0xf) << 2;
  403176:	01 00 6f 62 	mov.l	@(0xffec:16,er6),er2
  40317a:	ff ec 
  40317c:	68 2a       	mov.b	@er2,r2l
  40317e:	17 52       	extu.w	r2
  403180:	10 12       	shll.w	r2
  403182:	10 12       	shll.w	r2
  403184:	79 62 00 3c 	and.w	#0x3c,r2
  403188:	6f e2 ff fc 	mov.w	r2,@(0xfffc:16,er6)

0040318c <.LM35>:
/home/ip.c:154

  // IPパケットのサイズよりも大きいサイズが指定されていたら、減らす
  if (size > hdr->total_length)
  40318c:	01 00 6f 62 	mov.l	@(0xffec:16,er6),er2
  403190:	ff ec 
  403192:	6f 23 00 02 	mov.w	@(0x2:16,er2),r3
  403196:	6f 62 ff f2 	mov.w	@(0xfff2:16,er6),r2
  40319a:	1d 23       	cmp.w	r2,r3
  40319c:	44 0e       	bcc	.+14 (0x4031ac)

0040319e <.LM36>:
/home/ip.c:155
    size = hdr->total_length;
  40319e:	01 00 6f 62 	mov.l	@(0xffec:16,er6),er2
  4031a2:	ff ec 
  4031a4:	6f 22 00 02 	mov.w	@(0x2:16,er2),r2
  4031a8:	6f e2 ff f2 	mov.w	r2,@(0xfff2:16,er6)

004031ac <.L18>:
/home/ip.c:158

  // IP ヘッダ分を削り、IP パケットのデータ部の大きさと先頭ポインタを用意
  nextsize = size - hdrlen;
  4031ac:	6f 63 ff f2 	mov.w	@(0xfff2:16,er6),r3
  4031b0:	6f 62 ff fc 	mov.w	@(0xfffc:16,er6),r2
  4031b4:	0d 30       	mov.w	r3,r0
  4031b6:	19 20       	sub.w	r2,r0
  4031b8:	0d 02       	mov.w	r0,r2
  4031ba:	6f e2 ff fa 	mov.w	r2,@(0xfffa:16,er6)

004031be <.LM38>:
/home/ip.c:159
  nexthdr = (char *)hdr + hdrlen;
  4031be:	6f 62 ff fc 	mov.w	@(0xfffc:16,er6),r2
  4031c2:	17 f2       	exts.l	er2
  4031c4:	01 00 6f 63 	mov.l	@(0xffec:16,er6),er3
  4031c8:	ff ec 
  4031ca:	0a b2       	add.l	er3,er2
  4031cc:	01 00 6f e2 	mov.l	er2,@(0xfff4:16,er6)
  4031d0:	ff f4 

004031d2 <.LM39>:
/home/ip.c:161

  switch (hdr->protocol) {
  4031d2:	01 00 6f 62 	mov.l	@(0xffec:16,er6),er2
  4031d6:	ff ec 
  4031d8:	6e 2a 00 09 	mov.b	@(0x9:16,er2),r2l
  4031dc:	17 52       	extu.w	r2
  4031de:	79 22 00 01 	cmp.w	#0x1,r2
  4031e2:	47 02       	beq	.+2 (0x4031e6)

004031e4 <.LM40>:
/home/ip.c:167
  case IP_PROTOCOL_ICMP:
    // ping に対して応答する(ICMP は IP 層のパケット)
    ret = icmp_proc(nextsize, nexthdr);
    break;
  default:
    break;
  4031e4:	40 18       	bra	.+24 (0x4031fe)

004031e6 <.L20>:
/home/ip.c:164
    ret = icmp_proc(nextsize, nexthdr);
  4031e6:	01 00 6f 63 	mov.l	@(0xfff4:16,er6),er3
  4031ea:	ff f4 
  4031ec:	6f 62 ff fa 	mov.w	@(0xfffa:16,er6),r2
  4031f0:	0f b1       	mov.l	er3,er1
  4031f2:	0d 20       	mov.w	r2,r0
  4031f4:	5e 40 30 90 	jsr	@0x403090:24
  4031f8:	6f e0 ff fe 	mov.w	r0,@(0xfffe:16,er6)

004031fc <.LM42>:
	...

004031fe <.L21>:
/home/ip.c:170
  }

  if (ret > 0) {
  4031fe:	6f 62 ff fe 	mov.w	@(0xfffe:16,er6),r2
  403202:	0d 22       	mov.w	r2,r2
  403204:	58 f0 00 7e 	ble	.+126 (0x403286)

00403208 <.LM44>:
/home/ip.c:172
    // 返送用パケットを準備
    memcpy(hdr->dst_addr, hdr->src_addr, IPADDR_SIZE);
  403208:	01 00 6f 62 	mov.l	@(0xffec:16,er6),er2
  40320c:	ff ec 
  40320e:	0f a0       	mov.l	er2,er0
  403210:	7a 10 00 00 	add.l	#0xc,er0
  403214:	00 0c 
  403216:	01 00 6f 62 	mov.l	@(0xffec:16,er6),er2
  40321a:	ff ec 
  40321c:	0f a3       	mov.l	er2,er3
  40321e:	7a 13 00 00 	add.l	#0x10,er3
  403222:	00 10 
  403224:	1a a2       	sub.l	er2,er2
  403226:	8a 04       	add.b	#0x4,r2l
  403228:	0f 81       	mov.l	er0,er1
  40322a:	0f b0       	mov.l	er3,er0
  40322c:	5e 40 04 0c 	jsr	@0x40040c:24

00403230 <.LM45>:
/home/ip.c:173
    memcpy(hdr->src_addr, &ipaddr, IPADDR_SIZE);
  403230:	01 00 6f 62 	mov.l	@(0xffec:16,er6),er2
  403234:	ff ec 
  403236:	0f a3       	mov.l	er2,er3
  403238:	7a 13 00 00 	add.l	#0xc,er3
  40323c:	00 0c 
  40323e:	1a a2       	sub.l	er2,er2
  403240:	8a 04       	add.b	#0x4,r2l
  403242:	7a 01 00 40 	mov.l	#0x40420c,er1
  403246:	42 0c 
  403248:	0f b0       	mov.l	er3,er0
  40324a:	5e 40 04 0c 	jsr	@0x40040c:24

0040324e <.LM46>:
/home/ip.c:174
    hdr->checksum = 0;
  40324e:	01 00 6f 62 	mov.l	@(0xffec:16,er6),er2
  403252:	ff ec 
  403254:	19 33       	sub.w	r3,r3
  403256:	6f a3 00 0a 	mov.w	r3,@(0xa:16,er2)

0040325a <.LM47>:
/home/ip.c:175
    hdr->checksum = calc_checksum(hdrlen, hdr);
  40325a:	01 00 6f 63 	mov.l	@(0xffec:16,er6),er3
  40325e:	ff ec 
  403260:	6f 62 ff fc 	mov.w	@(0xfffc:16,er6),r2
  403264:	0f b1       	mov.l	er3,er1
  403266:	0d 20       	mov.w	r2,r0
  403268:	5e 40 2f b2 	jsr	@0x402fb2:24
  40326c:	0d 03       	mov.w	r0,r3
  40326e:	01 00 6f 62 	mov.l	@(0xffec:16,er6),er2
  403272:	ff ec 
  403274:	6f a3 00 0a 	mov.w	r3,@(0xa:16,er2)

00403278 <.LM48>:
/home/ip.c:176
    ret += hdrlen;
  403278:	6f 63 ff fe 	mov.w	@(0xfffe:16,er6),r3
  40327c:	6f 62 ff fc 	mov.w	@(0xfffc:16,er6),r2
  403280:	09 32       	add.w	r3,r2
  403282:	6f e2 ff fe 	mov.w	r2,@(0xfffe:16,er6)

00403286 <.L22>:
/home/ip.c:179
  }

  return ret;
  403286:	6f 62 ff fe 	mov.w	@(0xfffe:16,er6),r2

0040328a <.L16>:
/home/ip.c:180
}
  40328a:	0d 20       	mov.w	r2,r0
  40328c:	7a 17 00 00 	add.l	#0x14,er7
  403290:	00 14 
  403292:	01 00 6d 76 	mov.l	@er7+,er6
  403296:	54 70       	rts	

00403298 <_arp_proc>:
arp_proc():
/home/ip.c:184

// arp 要求を受信したら、arp 応答を返す
static int arp_proc(int size, struct arp_header *hdr)
{
  403298:	01 00 6d f6 	mov.l	er6,@-er7
  40329c:	0f f6       	mov.l	er7,er6
  40329e:	7a 37 00 00 	sub.l	#0xc,er7
  4032a2:	00 0c 
  4032a4:	6f e0 ff fa 	mov.w	r0,@(0xfffa:16,er6)
  4032a8:	01 00 6f e1 	mov.l	er1,@(0xfff4:16,er6)
  4032ac:	ff f4 

004032ae <.LM52>:
/home/ip.c:185
  int ret = 0;
  4032ae:	19 22       	sub.w	r2,r2
  4032b0:	6f e2 ff fe 	mov.w	r2,@(0xfffe:16,er6)

004032b4 <.LM53>:
/home/ip.c:188

  // Ethernet じゃないフレームなら無視
  if (hdr->hardware != ARP_HARDWARE_ETHER)
  4032b4:	01 00 6f 62 	mov.l	@(0xfff4:16,er6),er2
  4032b8:	ff f4 
  4032ba:	69 22       	mov.w	@er2,r2
  4032bc:	79 22 00 01 	cmp.w	#0x1,r2
  4032c0:	47 06       	beq	.+6 (0x4032c8)

004032c2 <.LM54>:
/home/ip.c:189
    return 0;
  4032c2:	19 22       	sub.w	r2,r2
  4032c4:	58 00 01 5e 	bra	.+350 (0x403426)

004032c8 <.L24>:
/home/ip.c:191
  // IP じゃないパケットなら無視
  if (hdr->protocol != ETHERNET_TYPE_IP)
  4032c8:	01 00 6f 62 	mov.l	@(0xfff4:16,er6),er2
  4032cc:	ff f4 
  4032ce:	6f 22 00 02 	mov.w	@(0x2:16,er2),r2
  4032d2:	79 22 08 00 	cmp.w	#0x800,r2
  4032d6:	47 06       	beq	.+6 (0x4032de)

004032d8 <.LM56>:
/home/ip.c:192
    return 0;
  4032d8:	19 22       	sub.w	r2,r2
  4032da:	58 00 01 48 	bra	.+328 (0x403426)

004032de <.L26>:
/home/ip.c:194

  switch (hdr->operation) {
  4032de:	01 00 6f 62 	mov.l	@(0xfff4:16,er6),er2
  4032e2:	ff f4 
  4032e4:	6f 22 00 06 	mov.w	@(0x6:16,er2),r2
  4032e8:	79 22 00 01 	cmp.w	#0x1,r2
  4032ec:	47 04       	beq	.+4 (0x4032f2)

004032ee <.LM58>:
/home/ip.c:215
    memcpy(hdr->sender_hardware_addr, MACADDR, MACADDR_SIZE);
    memcpy(hdr->sender_protocol_addr, &ipaddr, IPADDR_SIZE);
    hdr->operation = ARP_OPERATION_REPLY;
    ret = size;
  default:
    break;
  4032ee:	58 00 01 30 	bra	.+304 (0x403422)

004032f2 <.L28>:
/home/ip.c:198
    putxval(hdr->target_protocol_addr[0], 2);
  4032f2:	01 00 6f 62 	mov.l	@(0xfff4:16,er6),er2
  4032f6:	ff f4 
  4032f8:	6e 2a 00 18 	mov.b	@(0x18:16,er2),r2l
  4032fc:	0c aa       	mov.b	r2l,r2l
  4032fe:	17 52       	extu.w	r2
  403300:	17 72       	extu.l	er2
  403302:	79 01 00 02 	mov.w	#0x2,r1
  403306:	0f a0       	mov.l	er2,er0
  403308:	5e 40 08 5a 	jsr	@0x40085a:24

0040330c <.LM60>:
/home/ip.c:199
    putxval(hdr->target_protocol_addr[1], 2);
  40330c:	01 00 6f 62 	mov.l	@(0xfff4:16,er6),er2
  403310:	ff f4 
  403312:	6e 2a 00 19 	mov.b	@(0x19:16,er2),r2l
  403316:	0c aa       	mov.b	r2l,r2l
  403318:	17 52       	extu.w	r2
  40331a:	17 72       	extu.l	er2
  40331c:	79 01 00 02 	mov.w	#0x2,r1
  403320:	0f a0       	mov.l	er2,er0
  403322:	5e 40 08 5a 	jsr	@0x40085a:24

00403326 <.LM61>:
/home/ip.c:200
    putxval(hdr->target_protocol_addr[2], 2);
  403326:	01 00 6f 62 	mov.l	@(0xfff4:16,er6),er2
  40332a:	ff f4 
  40332c:	6e 2a 00 1a 	mov.b	@(0x1a:16,er2),r2l
  403330:	0c aa       	mov.b	r2l,r2l
  403332:	17 52       	extu.w	r2
  403334:	17 72       	extu.l	er2
  403336:	79 01 00 02 	mov.w	#0x2,r1
  40333a:	0f a0       	mov.l	er2,er0
  40333c:	5e 40 08 5a 	jsr	@0x40085a:24

00403340 <.LM62>:
/home/ip.c:201
    putxval(hdr->target_protocol_addr[3], 2);
  403340:	01 00 6f 62 	mov.l	@(0xfff4:16,er6),er2
  403344:	ff f4 
  403346:	6e 2a 00 1b 	mov.b	@(0x1b:16,er2),r2l
  40334a:	0c aa       	mov.b	r2l,r2l
  40334c:	17 52       	extu.w	r2
  40334e:	17 72       	extu.l	er2
  403350:	79 01 00 02 	mov.w	#0x2,r1
  403354:	0f a0       	mov.l	er2,er0
  403356:	5e 40 08 5a 	jsr	@0x40085a:24

0040335a <.LM63>:
/home/ip.c:204
    if (memcmp(hdr->target_protocol_addr, &ipaddr, IPADDR_SIZE))
  40335a:	01 00 6f 62 	mov.l	@(0xfff4:16,er6),er2
  40335e:	ff f4 
  403360:	0f a3       	mov.l	er2,er3
  403362:	7a 13 00 00 	add.l	#0x18,er3
  403366:	00 18 
  403368:	1a a2       	sub.l	er2,er2
  40336a:	8a 04       	add.b	#0x4,r2l
  40336c:	7a 01 00 40 	mov.l	#0x40420c,er1
  403370:	42 0c 
  403372:	0f b0       	mov.l	er3,er0
  403374:	5e 40 04 94 	jsr	@0x400494:24
  403378:	0d 02       	mov.w	r0,r2
  40337a:	0d 22       	mov.w	r2,r2
  40337c:	58 60 00 a0 	bne	.+160 (0x403420)

00403380 <.LM64>:
/home/ip.c:208
    memcpy(hdr->target_hardware_addr, hdr->sender_hardware_addr, MACADDR_SIZE);
  403380:	01 00 6f 62 	mov.l	@(0xfff4:16,er6),er2
  403384:	ff f4 
  403386:	0f a0       	mov.l	er2,er0
  403388:	0b 90       	adds	#4,er0
  40338a:	0b 90       	adds	#4,er0
  40338c:	01 00 6f 62 	mov.l	@(0xfff4:16,er6),er2
  403390:	ff f4 
  403392:	0f a3       	mov.l	er2,er3
  403394:	7a 13 00 00 	add.l	#0x12,er3
  403398:	00 12 
  40339a:	1a a2       	sub.l	er2,er2
  40339c:	8a 06       	add.b	#0x6,r2l
  40339e:	0f 81       	mov.l	er0,er1
  4033a0:	0f b0       	mov.l	er3,er0
  4033a2:	5e 40 04 0c 	jsr	@0x40040c:24

004033a6 <.LM65>:
/home/ip.c:209
    memcpy(hdr->target_protocol_addr, hdr->sender_protocol_addr, IPADDR_SIZE);
  4033a6:	01 00 6f 62 	mov.l	@(0xfff4:16,er6),er2
  4033aa:	ff f4 
  4033ac:	0f a0       	mov.l	er2,er0
  4033ae:	7a 10 00 00 	add.l	#0xe,er0
  4033b2:	00 0e 
  4033b4:	01 00 6f 62 	mov.l	@(0xfff4:16,er6),er2
  4033b8:	ff f4 
  4033ba:	0f a3       	mov.l	er2,er3
  4033bc:	7a 13 00 00 	add.l	#0x18,er3
  4033c0:	00 18 
  4033c2:	1a a2       	sub.l	er2,er2
  4033c4:	8a 04       	add.b	#0x4,r2l
  4033c6:	0f 81       	mov.l	er0,er1
  4033c8:	0f b0       	mov.l	er3,er0
  4033ca:	5e 40 04 0c 	jsr	@0x40040c:24

004033ce <.LM66>:
/home/ip.c:210
    memcpy(hdr->sender_hardware_addr, MACADDR, MACADDR_SIZE);
  4033ce:	01 00 6f 62 	mov.l	@(0xfff4:16,er6),er2
  4033d2:	ff f4 
  4033d4:	0f a3       	mov.l	er2,er3
  4033d6:	0b 93       	adds	#4,er3
  4033d8:	0b 93       	adds	#4,er3
  4033da:	1a a2       	sub.l	er2,er2
  4033dc:	8a 06       	add.b	#0x6,r2l
  4033de:	7a 01 00 40 	mov.l	#0x4041a1,er1
  4033e2:	41 a1 
  4033e4:	0f b0       	mov.l	er3,er0
  4033e6:	5e 40 04 0c 	jsr	@0x40040c:24

004033ea <.LM67>:
/home/ip.c:211
    memcpy(hdr->sender_protocol_addr, &ipaddr, IPADDR_SIZE);
  4033ea:	01 00 6f 62 	mov.l	@(0xfff4:16,er6),er2
  4033ee:	ff f4 
  4033f0:	0f a3       	mov.l	er2,er3
  4033f2:	7a 13 00 00 	add.l	#0xe,er3
  4033f6:	00 0e 
  4033f8:	1a a2       	sub.l	er2,er2
  4033fa:	8a 04       	add.b	#0x4,r2l
  4033fc:	7a 01 00 40 	mov.l	#0x40420c,er1
  403400:	42 0c 
  403402:	0f b0       	mov.l	er3,er0
  403404:	5e 40 04 0c 	jsr	@0x40040c:24

00403408 <.LM68>:
/home/ip.c:212
    hdr->operation = ARP_OPERATION_REPLY;
  403408:	01 00 6f 62 	mov.l	@(0xfff4:16,er6),er2
  40340c:	ff f4 
  40340e:	79 03 00 02 	mov.w	#0x2,r3
  403412:	6f a3 00 06 	mov.w	r3,@(0x6:16,er2)

00403416 <.LM69>:
/home/ip.c:213
    ret = size;
  403416:	6f 62 ff fa 	mov.w	@(0xfffa:16,er6),r2
  40341a:	6f e2 ff fe 	mov.w	r2,@(0xfffe:16,er6)

0040341e <.LM70>:
/home/ip.c:215
    break;
  40341e:	40 02       	bra	.+2 (0x403422)

00403420 <.L31>:
	...

00403422 <.L30>:
/home/ip.c:218
  }

  return ret;
  403422:	6f 62 ff fe 	mov.w	@(0xfffe:16,er6),r2

00403426 <.L25>:
/home/ip.c:219
}
  403426:	0d 20       	mov.w	r2,r0
  403428:	7a 17 00 00 	add.l	#0xc,er7
  40342c:	00 0c 
  40342e:	01 00 6d 76 	mov.l	@er7+,er6
  403432:	54 70       	rts	

00403434 <_ethernet_proc>:
ethernet_proc():
/home/ip.c:224

// 受信した Ethernet フレームを処理する
// 応答が必要な場合は戻り値として 0 以上のデータの大きさを返す
static int ethernet_proc(int size, struct ethernet_header *hdr)
{
  403434:	01 00 6d f6 	mov.l	er6,@-er7
  403438:	0f f6       	mov.l	er7,er6
  40343a:	7a 37 00 00 	sub.l	#0x10,er7
  40343e:	00 10 
  403440:	6f e0 ff f6 	mov.w	r0,@(0xfff6:16,er6)
  403444:	01 00 6f e1 	mov.l	er1,@(0xfff0:16,er6)
  403448:	ff f0 

0040344a <.LM75>:
/home/ip.c:225
  int ret = 0, nextsize;
  40344a:	19 22       	sub.w	r2,r2
  40344c:	6f e2 ff fe 	mov.w	r2,@(0xfffe:16,er6)

00403450 <.LM76>:
/home/ip.c:229
  void *nexthdr;

  // 自分宛のパケットでなかったら破棄
  if (!(hdr->dst_addr[0] & 1) && memcmp(hdr->dst_addr, MACADDR, MACADDR_SIZE))
  403450:	01 00 6f 62 	mov.l	@(0xfff0:16,er6),er2
  403454:	ff f0 
  403456:	68 2a       	mov.b	@er2,r2l
  403458:	17 52       	extu.w	r2
  40345a:	79 62 00 01 	and.w	#0x1,r2
  40345e:	0d 22       	mov.w	r2,r2
  403460:	46 22       	bne	.+34 (0x403484)

00403462 <.LM77>:
/home/ip.c:229 (discriminator 1)
  403462:	01 00 6f 63 	mov.l	@(0xfff0:16,er6),er3
  403466:	ff f0 
  403468:	1a a2       	sub.l	er2,er2
  40346a:	8a 06       	add.b	#0x6,r2l
  40346c:	7a 01 00 40 	mov.l	#0x4041a1,er1
  403470:	41 a1 
  403472:	0f b0       	mov.l	er3,er0
  403474:	5e 40 04 94 	jsr	@0x400494:24
  403478:	0d 02       	mov.w	r0,r2
  40347a:	0d 22       	mov.w	r2,r2
  40347c:	47 06       	beq	.+6 (0x403484)

0040347e <.LM78>:
/home/ip.c:230
    return 0;
  40347e:	19 22       	sub.w	r2,r2
  403480:	58 00 00 b8 	bra	.+184 (0x40353c)

00403484 <.L33>:
/home/ip.c:233

  // Ethernet ヘッダを取り除く(Ethernet ヘッダは IP ヘッダの前にある)
  nextsize = size - ETHERNET_HEADER_SIZE;
  403484:	6f 62 ff f6 	mov.w	@(0xfff6:16,er6),r2
  403488:	79 12 ff f2 	add.w	#0xfff2,r2
  40348c:	6f e2 ff fc 	mov.w	r2,@(0xfffc:16,er6)

00403490 <.LM80>:
/home/ip.c:234
  nexthdr = (char *)hdr + ETHERNET_HEADER_SIZE;
  403490:	01 00 6f 62 	mov.l	@(0xfff0:16,er6),er2
  403494:	ff f0 
  403496:	7a 12 00 00 	add.l	#0xe,er2
  40349a:	00 0e 
  40349c:	01 00 6f e2 	mov.l	er2,@(0xfff8:16,er6)
  4034a0:	ff f8 

004034a2 <.LM81>:
/home/ip.c:237

  // Ethernet フレームの種類に応じて処理を実行
  switch (hdr->type) {
  4034a2:	01 00 6f 62 	mov.l	@(0xfff0:16,er6),er2
  4034a6:	ff f0 
  4034a8:	6f 22 00 0c 	mov.w	@(0xc:16,er2),r2
  4034ac:	79 22 08 00 	cmp.w	#0x800,r2
  4034b0:	47 20       	beq	.+32 (0x4034d2)
  4034b2:	79 22 08 06 	cmp.w	#0x806,r2
  4034b6:	47 02       	beq	.+2 (0x4034ba)

004034b8 <.LM82>:
/home/ip.c:247
  case ETHERNET_TYPE_IP:
    // IP パケットであれば IP レイヤで処理する
    ret = ip_proc(nextsize, nexthdr);
    break;
  default:
    break;
  4034b8:	40 30       	bra	.+48 (0x4034ea)

004034ba <.L37>:
/home/ip.c:240
    ret = arp_proc(nextsize, nexthdr);
  4034ba:	01 00 6f 63 	mov.l	@(0xfff8:16,er6),er3
  4034be:	ff f8 
  4034c0:	6f 62 ff fc 	mov.w	@(0xfffc:16,er6),r2
  4034c4:	0f b1       	mov.l	er3,er1
  4034c6:	0d 20       	mov.w	r2,r0
  4034c8:	5e 40 32 98 	jsr	@0x403298:24
  4034cc:	6f e0 ff fe 	mov.w	r0,@(0xfffe:16,er6)

004034d0 <.LM84>:
/home/ip.c:241
    break;
  4034d0:	40 18       	bra	.+24 (0x4034ea)

004034d2 <.L36>:
/home/ip.c:244
    ret = ip_proc(nextsize, nexthdr);
  4034d2:	01 00 6f 63 	mov.l	@(0xfff8:16,er6),er3
  4034d6:	ff f8 
  4034d8:	6f 62 ff fc 	mov.w	@(0xfffc:16,er6),r2
  4034dc:	0f b1       	mov.l	er3,er1
  4034de:	0d 20       	mov.w	r2,r0
  4034e0:	5e 40 31 0e 	jsr	@0x40310e:24
  4034e4:	6f e0 ff fe 	mov.w	r0,@(0xfffe:16,er6)

004034e8 <.LM86>:
	...

004034ea <.L38>:
/home/ip.c:250
  }

  if (ret > 0) {
  4034ea:	6f 62 ff fe 	mov.w	@(0xfffe:16,er6),r2
  4034ee:	0d 22       	mov.w	r2,r2
  4034f0:	4f 46       	ble	.+70 (0x403538)

004034f2 <.LM88>:
/home/ip.c:252
    // DST に元のパケットの SRC を設定し、送信元に送り返すようにする
    memcpy(hdr->dst_addr, hdr->src_addr, MACADDR_SIZE);
  4034f2:	01 00 6f 62 	mov.l	@(0xfff0:16,er6),er2
  4034f6:	ff f0 
  4034f8:	0f a0       	mov.l	er2,er0
  4034fa:	0b 90       	adds	#4,er0
  4034fc:	0b 80       	adds	#2,er0
  4034fe:	01 00 6f 63 	mov.l	@(0xfff0:16,er6),er3
  403502:	ff f0 
  403504:	1a a2       	sub.l	er2,er2
  403506:	8a 06       	add.b	#0x6,r2l
  403508:	0f 81       	mov.l	er0,er1
  40350a:	0f b0       	mov.l	er3,er0
  40350c:	5e 40 04 0c 	jsr	@0x40040c:24

00403510 <.LM89>:
/home/ip.c:253
    memcpy(hdr->src_addr, MACADDR, MACADDR_SIZE);
  403510:	01 00 6f 62 	mov.l	@(0xfff0:16,er6),er2
  403514:	ff f0 
  403516:	0f a3       	mov.l	er2,er3
  403518:	0b 93       	adds	#4,er3
  40351a:	0b 83       	adds	#2,er3
  40351c:	1a a2       	sub.l	er2,er2
  40351e:	8a 06       	add.b	#0x6,r2l
  403520:	7a 01 00 40 	mov.l	#0x4041a1,er1
  403524:	41 a1 
  403526:	0f b0       	mov.l	er3,er0
  403528:	5e 40 04 0c 	jsr	@0x40040c:24

0040352c <.LM90>:
/home/ip.c:255
    // Ethernet ヘッダ分のサイズを追加し、Ethernet フレームを返すようにする
    ret += ETHERNET_HEADER_SIZE;
  40352c:	6f 62 ff fe 	mov.w	@(0xfffe:16,er6),r2
  403530:	79 12 00 0e 	add.w	#0xe,r2
  403534:	6f e2 ff fe 	mov.w	r2,@(0xfffe:16,er6)

00403538 <.L39>:
